ccopy_reg
_reconstructor
p0
(csensor_msgs.msg._CameraInfo
CameraInfo
p1
c__builtin__
object
p2
Ntp3
Rp4
(lp5
g0
(cstd_msgs.msg._Header
Header
p6
g2
Ntp7
Rp8
(lp9
I555152
ag0
(cgenpy.rostime
Time
p10
g2
Ntp11
Rp12
(lp13
I1503008871
aI762448077
abaS'/endoscope_frame'
p14
abaI1080
aI1920
aS'plumb_bob'
p15
a(F-0.35296000000000005
F0.74873
F-0.0005300000000000001
F0.00753
F0.0
tp16
a(F1738.63078
F0.0
F812.31424
F0.0
F1754.28989
F578.93452
F0.0
F0.0
F1.0
tp17
a(F0.9937400000000001
F-0.04447
F-0.10251
F0.04465
F0.9990000000000001
F-0.0004900000000000001
F0.10242000000000001
F-0.004090000000000001
F0.9947300000000001
tp18
a(F2144.0564
F0.0
F1116.71052
F0.0
F0.0
F2144.0564
F599.58294
F0.0
F0.0
F0.0
F1.0
F0.0
tp19
aI0
aI0
ag0
(csensor_msgs.msg._RegionOfInterest
RegionOfInterest
p20
g2
Ntp21
Rp22
(lp23
I0
aI0
aI0
aI0
aI00
abab.