ccopy_reg
_reconstructor
p0
(csensor_msgs.msg._CameraInfo
CameraInfo
p1
c__builtin__
object
p2
Ntp3
Rp4
(lp5
g0
(cstd_msgs.msg._Header
Header
p6
g2
Ntp7
Rp8
(lp9
I555152
ag0
(cgenpy.rostime
Time
p10
g2
Ntp11
Rp12
(lp13
I1503008871
aI765621425
abaS'/endoscope_frame'
p14
abaI1080
aI1920
aS'plumb_bob'
p15
a(F-0.32927
F0.5410400000000001
F0.02391
F-0.009810000000000001
F0.0
tp16
a(F1757.57607
F0.0
F1039.2752
F0.0
F1770.80937
F605.58705
F0.0
F0.0
F1.0
tp17
a(F0.9957100000000001
F-0.04136
F-0.08275
F0.041210000000000004
F0.99914
F-0.00352
F0.08282
F9e-05
F0.9965600000000001
tp18
a(F2144.0564
F0.0
F1116.71052
F-13.24186
F0.0
F2144.0564
F599.58294
F0.0
F0.0
F0.0
F1.0
F0.0
tp19
aI0
aI0
ag0
(csensor_msgs.msg._RegionOfInterest
RegionOfInterest
p20
g2
Ntp21
Rp22
(lp23
I0
aI0
aI0
aI0
aI00
abab.