(dp0
S'actual_pos'
p1
(lp2
F0.07485331637077591
aF0.019113464716536785
aF-0.16906733726035592
asS'actual_rot'
p3
(lp4
F87.16296047486556
aF15.991174634949868
aF-172.30905102682672
asS'target_pos'
p5
cnumpy.core.multiarray
_reconstruct
p6
(cnumpy
ndarray
p7
(I0
tp8
S'b'
p9
tp10
Rp11
(I1
(I3
tp12
cnumpy
dtype
p13
(S'f8'
p14
I0
I1
tp15
Rp16
(I3
S'<'
p17
NNNI-1
I-1
I0
tp18
bI00
S'\x10`WY\x10a\xb3?\xc2&\xa5\xb6$\x17\x94?\x08\xb0\xfbA\xe3\xb3\xc5\xbf'
p19
tp20
bsS'target_rot'
p21
g6
(g7
(I0
tp22
g9
tp23
Rp24
(I1
(I3
tp25
g16
I00
S'\x00\x00\x00\x00\x00\x80V@\x00\x00\x00\x00\x00\x00$@\x00\x00\x00\x00\x00\xa0d\xc0'
p26
tp27
bsS'center_target_pixels'
p28
(I710
I109
tp29
sS'center_actual_pixels'
p30
(I715
I101
tp31
s.(dp0
S'actual_pos'
p1
(lp2
F0.059822988519580914
aF0.018038996271487192
aF-0.16780229690901502
asS'actual_rot'
p3
(lp4
F87.75422022825248
aF15.920327036133083
aF-171.67208956099498
asS'target_pos'
p5
cnumpy.core.multiarray
_reconstruct
p6
(cnumpy
ndarray
p7
(I0
tp8
S'b'
p9
tp10
Rp11
(I1
(I3
tp12
cnumpy
dtype
p13
(S'f8'
p14
I0
I1
tp15
Rp16
(I3
S'<'
p17
NNNI-1
I-1
I0
tp18
bI00
S'\xc4i\xcc]\xe2\xfb\xae?\x1atl#?\xff\x92?|q\xdc\x06\x15\x8c\xc5\xbf'
p19
tp20
bsS'target_rot'
p21
g6
(g7
(I0
tp22
g9
tp23
Rp24
(I1
(I3
tp25
g16
I00
S'\x00\x00\x00\x00\x00\x80V@\x00\x00\x00\x00\x00\x00$@\x00\x00\x00\x00\x00\xa0d\xc0'
p26
tp27
bsS'center_target_pixels'
p28
(I891
I124
tp29
sS'center_actual_pixels'
p30
(I882
I120
tp31
s.(dp0
S'actual_pos'
p1
(lp2
F0.04289371413480331
aF0.017356425509093297
aF-0.16658673736120766
asS'actual_rot'
p3
(lp4
F88.4620924879378
aF15.661379263839349
aF-170.8177868808954
asS'target_pos'
p5
cnumpy.core.multiarray
_reconstruct
p6
(cnumpy
ndarray
p7
(I0
tp8
S'b'
p9
tp10
Rp11
(I1
(I3
tp12
cnumpy
dtype
p13
(S'f8'
p14
I0
I1
tp15
Rp16
(I3
S'<'
p17
NNNI-1
I-1
I0
tp18
bI00
S'3:\xc8Q\xf3J\xa6?\\\x01@\xf7<:\x92?\xf8\xf2\xe05\xccf\xc5\xbf'
p19
tp20
bsS'target_rot'
p21
g6
(g7
(I0
tp22
g9
tp23
Rp24
(I1
(I3
tp25
g16
I00
S'\x00\x00\x00\x00\x00\x80V@\x00\x00\x00\x00\x00\x00$@\x00\x00\x00\x00\x00\xa0d\xc0'
p26
tp27
bsS'center_target_pixels'
p28
(I1070
I137
tp29
sS'center_actual_pixels'
p30
(I1072
I140
tp31
s.(dp0
S'actual_pos'
p1
(lp2
F0.026872488783257115
aF0.015793845075454113
aF-0.1649390275724218
asS'actual_rot'
p3
(lp4
F89.0773424563805
aF15.33810384649221
aF-169.17276204209722
asS'target_pos'
p5
cnumpy.core.multiarray
_reconstruct
p6
(cnumpy
ndarray
p7
(I0
tp8
S'b'
p9
tp10
Rp11
(I1
(I3
tp12
cnumpy
dtype
p13
(S'f8'
p14
I0
I1
tp15
Rp16
(I3
S'<'
p17
NNNI-1
I-1
I0
tp18
bI00
S'\xec\x83\rQ\x15\x11\x9c?,\xc9v\xfd\x92\x8f\x90?\xd21X\xca\xa5+\xc5\xbf'
p19
tp20
bsS'target_rot'
p21
g6
(g7
(I0
tp22
g9
tp23
Rp24
(I1
(I3
tp25
g16
I00
S'\x00\x00\x00\x00\x00\x80V@\x00\x00\x00\x00\x00\x00$@\x00\x00\x00\x00\x00\xa0d\xc0'
p26
tp27
bsS'center_target_pixels'
p28
(I1246
I149
tp29
sS'center_actual_pixels'
p30
(I1248
I149
tp31
s.(dp0
S'actual_pos'
p1
(lp2
F0.06699146931843111
aF0.02577060195252906
aF-0.16866515131712037
asS'actual_rot'
p3
(lp4
F87.60057466667116
aF15.616854039140055
aF-171.82730144649184
asS'target_pos'
p5
cnumpy.core.multiarray
_reconstruct
p6
(cnumpy
ndarray
p7
(I0
tp8
S'b'
p9
tp10
Rp11
(I1
(I3
tp12
cnumpy
dtype
p13
(S'f8'
p14
I0
I1
tp15
Rp16
(I3
S'<'
p17
NNNI-1
I-1
I0
tp18
bI00
S'#\xb72d\x1dR\xb1?\x1c\x02\xcd,S\xf0\x9a?o\x04\xec8\x80\xaa\xc5\xbf'
p19
tp20
bsS'target_rot'
p21
g6
(g7
(I0
tp22
g9
tp23
Rp24
(I1
(I3
tp25
g16
I00
S'\x00\x00\x00\x00\x00\x80V@\x00\x00\x00\x00\x00\x00$@\x00\x00\x00\x00\x00\xa0d\xc0'
p26
tp27
bsS'center_target_pixels'
p28
(I795
I206
tp29
sS'center_actual_pixels'
p30
(I787
I204
tp31
s.(dp0
S'actual_pos'
p1
(lp2
F0.05003805645808406
aF0.02418046189217502
aF-0.1670657461025076
asS'actual_rot'
p3
(lp4
F88.20803636145497
aF15.57139972919021
aF-171.02744899751136
asS'target_pos'
p5
cnumpy.core.multiarray
_reconstruct
p6
(cnumpy
ndarray
p7
(I0
tp8
S'b'
p9
tp10
Rp11
(I1
(I3
tp12
cnumpy
dtype
p13
(S'f8'
p14
I0
I1
tp15
Rp16
(I3
S'<'
p17
NNNI-1
I-1
I0
tp18
bI00
S'\x84?qu\xce\x00\xaa?\xebY(\xedtJ\x99?`\xce\xed\t\xb3v\xc5\xbf'
p19
tp20
bsS'target_rot'
p21
g6
(g7
(I0
tp22
g9
tp23
Rp24
(I1
(I3
tp25
g16
I00
S'\x00\x00\x00\x00\x00\x80V@\x00\x00\x00\x00\x00\x00$@\x00\x00\x00\x00\x00\xa0d\xc0'
p26
tp27
bsS'center_target_pixels'
p28
(I974
I219
tp29
sS'center_actual_pixels'
p30
(I982
I207
tp31
s.(dp0
S'actual_pos'
p1
(lp2
F0.03431427084597146
aF0.025060304803846013
aF-0.16473424227065891
asS'actual_rot'
p3
(lp4
F88.94380309042985
aF14.932789751120959
aF-169.84229645608454
asS'target_pos'
p5
cnumpy.core.multiarray
_reconstruct
p6
(cnumpy
ndarray
p7
(I0
tp8
S'b'
p9
tp10
Rp11
(I1
(I3
tp12
cnumpy
dtype
p13
(S'f8'
p14
I0
I1
tp15
Rp16
(I3
S'<'
p17
NNNI-1
I-1
I0
tp18
bI00
S'\x90\x1a\xfe\x8f\x06\xe9\xa1?bw\xa1G\xc0\x0e\x9a?\xf5j\xe9\x15$$\xc5\xbf'
p19
tp20
bsS'target_rot'
p21
g6
(g7
(I0
tp22
g9
tp23
Rp24
(I1
(I3
tp25
g16
I00
S'\x00\x00\x00\x00\x00\x80V@\x00\x00\x00\x00\x00\x00$@\x00\x00\x00\x00\x00\xa0d\xc0'
p26
tp27
bsS'center_target_pixels'
p28
(I1153
I232
tp29
sS'center_actual_pixels'
p30
(I1153
I231
tp31
s.(dp0
S'actual_pos'
p1
(lp2
F0.017729546576342094
aF0.022823646067199714
aF-0.16386216887312066
asS'actual_rot'
p3
(lp4
F89.5050069759208
aF14.46880597110528
aF-166.94853645960546
asS'target_pos'
p5
cnumpy.core.multiarray
_reconstruct
p6
(cnumpy
ndarray
p7
(I0
tp8
S'b'
p9
tp10
Rp11
(I1
(I3
tp12
cnumpy
dtype
p13
(S'f8'
p14
I0
I1
tp15
Rp16
(I3
S'<'
p17
NNNI-1
I-1
I0
tp18
bI00
S'\xd9\xc6}\xb2\x9a\xae\x92?8\xb0b\x80\xde\xc1\x97?\x18=\x7fFY\x07\xc5\xbf'
p19
tp20
bsS'target_rot'
p21
g6
(g7
(I0
tp22
g9
tp23
Rp24
(I1
(I3
tp25
g16
I00
S'\x00\x00\x00\x00\x00\x80V@\x00\x00\x00\x00\x00\x00$@\x00\x00\x00\x00\x00\xa0d\xc0'
p26
tp27
bsS'center_target_pixels'
p28
(I1329
I243
tp29
sS'center_actual_pixels'
p30
(I1341
I234
tp31
s.(dp0
S'actual_pos'
p1
(lp2
F0.07553477484553478
aF0.03512741007066956
aF-0.168938671379412
asS'actual_rot'
p3
(lp4
F87.53992570400409
aF15.055680798670748
aF-171.76373643519145
asS'target_pos'
p5
cnumpy.core.multiarray
_reconstruct
p6
(cnumpy
ndarray
p7
(I0
tp8
S'b'
p9
tp10
Rp11
(I1
(I3
tp12
cnumpy
dtype
p13
(S'f8'
p14
I0
I1
tp15
Rp16
(I3
S'<'
p17
NNNI-1
I-1
I0
tp18
bI00
S"Q\xbb@\xb7\xc8\x8e\xb3?\x1fv\t9\xa6'\xa2?h\x9c\xafg\xff\xb0\xc5\xbf"
p19
tp20
bsS'target_rot'
p21
g6
(g7
(I0
tp22
g9
tp23
Rp24
(I1
(I3
tp25
g16
I00
S'\x00\x00\x00\x00\x00\x80V@\x00\x00\x00\x00\x00\x00$@\x00\x00\x00\x00\x00\xa0d\xc0'
p26
tp27
bsS'center_target_pixels'
p28
(I698
I290
tp29
sS'center_actual_pixels'
p30
(I682
I293
tp31
s.(dp0
S'actual_pos'
p1
(lp2
F0.05792576631093127
aF0.03417404491245516
aF-0.16794553819762614
asS'actual_rot'
p3
(lp4
F88.24556168878878
aF14.689772488193723
aF-170.70359284451314
asS'target_pos'
p5
cnumpy.core.multiarray
_reconstruct
p6
(cnumpy
ndarray
p7
(I0
tp8
S'b'
p9
tp10
Rp11
(I1
(I3
tp12
cnumpy
dtype
p13
(S'f8'
p14
I0
I1
tp15
Rp16
(I3
S'<'
p17
NNNI-1
I-1
I0
tp18
bI00
S'\xdcfwb\xcf\x16\xae?\x1b-^s\x90\x93\xa1?w\xdf="?\x97\xc5\xbf'
p19
tp20
bsS'target_rot'
p21
g6
(g7
(I0
tp22
g9
tp23
Rp24
(I1
(I3
tp25
g16
I00
S'\x00\x00\x00\x00\x00\x80V@\x00\x00\x00\x00\x00\x00$@\x00\x00\x00\x00\x00\xa0d\xc0'
p26
tp27
bsS'center_target_pixels'
p28
(I879
I302
tp29
sS'center_actual_pixels'
p30
(I879
I313
tp31
s.(dp0
S'actual_pos'
p1
(lp2
F0.041297083940402504
aF0.03240714539305928
aF-0.16604330941914666
asS'actual_rot'
p3
(lp4
F88.81050290012529
aF14.51861121363864
aF-169.95307471895197
asS'target_pos'
p5
cnumpy.core.multiarray
_reconstruct
p6
(cnumpy
ndarray
p7
(I0
tp8
S'b'
p9
tp10
Rp11
(I1
(I3
tp12
cnumpy
dtype
p13
(S'f8'
p14
I0
I1
tp15
Rp16
(I3
S'<'
p17
NNNI-1
I-1
I0
tp18
bI00
S'%\xb2\x0c\x16\xc3\x84\xa5?\x833\x18\xb0\xeb\xb1\xa0?\xe8\xd6\x93\xff\x9aS\xc5\xbf'
p19
tp20
bsS'target_rot'
p21
g6
(g7
(I0
tp22
g9
tp23
Rp24
(I1
(I3
tp25
g16
I00
S'\x00\x00\x00\x00\x00\x80V@\x00\x00\x00\x00\x00\x00$@\x00\x00\x00\x00\x00\xa0d\xc0'
p26
tp27
bsS'center_target_pixels'
p28
(I1058
I314
tp29
sS'center_actual_pixels'
p30
(I1064
I312
tp31
s.(dp0
S'actual_pos'
p1
(lp2
F0.02592672457061195
aF0.031160621701866696
aF-0.16472548456247527
asS'actual_rot'
p3
(lp4
F89.40029272338967
aF13.6554054896457
aF-168.17422091712353
asS'target_pos'
p5
cnumpy.core.multiarray
_reconstruct
p6
(cnumpy
ndarray
p7
(I0
tp8
S'b'
p9
tp10
Rp11
(I1
(I3
tp12
cnumpy
dtype
p13
(S'f8'
p14
I0
I1
tp15
Rp16
(I3
S'<'
p17
NNNI-1
I-1
I0
tp18
bI00
S'\xefx\x01\xc7<\x14\x9b??\x92B\xc1\x82\x02\xa0?9\x9c\xb0\x12u&\xc5\xbf'
p19
tp20
bsS'target_rot'
p21
g6
(g7
(I0
tp22
g9
tp23
Rp24
(I1
(I3
tp25
g16
I00
S'\x00\x00\x00\x00\x00\x80V@\x00\x00\x00\x00\x00\x00$@\x00\x00\x00\x00\x00\xa0d\xc0'
p26
tp27
bsS'center_target_pixels'
p28
(I1235
I326
tp29
sS'center_actual_pixels'
p30
(I1237
I317
tp31
s.(dp0
S'actual_pos'
p1
(lp2
F0.010372587720919922
aF0.030897876597586478
aF-0.16323801343466213
asS'actual_rot'
p3
(lp4
F89.87897427729592
aF12.205430869081455
aF-164.8628864915445
asS'target_pos'
p5
cnumpy.core.multiarray
_reconstruct
p6
(cnumpy
ndarray
p7
(I0
tp8
S'b'
p9
tp10
Rp11
(I1
(I3
tp12
cnumpy
dtype
p13
(S'f8'
p14
I0
I1
tp15
Rp16
(I3
S'<'
p17
NNNI-1
I-1
I0
tp18
bI00
S'\x84\x1e\xa7\xe2\xa1?\x86?\xb3\xb5v\xf8M\x85\x9f?N\x9a\x17\xc0\xe9\xf2\xc4\xbf'
p19
tp20
bsS'target_rot'
p21
g6
(g7
(I0
tp22
g9
tp23
Rp24
(I1
(I3
tp25
g16
I00
S'\x00\x00\x00\x00\x00\x80V@\x00\x00\x00\x00\x00\x00$@\x00\x00\x00\x00\x00\xa0d\xc0'
p26
tp27
bsS'center_target_pixels'
p28
(I1412
I337
tp29
sS'center_actual_pixels'
p30
(I1411
I337
tp31
s.(dp0
S'actual_pos'
p1
(lp2
F0.06566709229621054
aF0.04185952087403906
aF-0.16846270770543254
asS'actual_rot'
p3
(lp4
F88.45431871616802
aF13.677902600556186
aF-171.14267176817944
asS'target_pos'
p5
cnumpy.core.multiarray
_reconstruct
p6
(cnumpy
ndarray
p7
(I0
tp8
S'b'
p9
tp10
Rp11
(I1
(I3
tp12
cnumpy
dtype
p13
(S'f8'
p14
I0
I1
tp15
Rp16
(I3
S'<'
p17
NNNI-1
I-1
I0
tp18
bI00
S'\xd0N\xe2\x13\x97\n\xb1?\xbc\xdd\xad#\xe8t\xa5?\x028!\xd7\xa7\xa6\xc5\xbf'
p19
tp20
bsS'target_rot'
p21
g6
(g7
(I0
tp22
g9
tp23
Rp24
(I1
(I3
tp25
g16
I00
S'\x00\x00\x00\x00\x00\x80V@\x00\x00\x00\x00\x00\x00$@\x00\x00\x00\x00\x00\xa0d\xc0'
p26
tp27
bsS'center_target_pixels'
p28
(I783
I385
tp29
sS'center_actual_pixels'
p30
(I785
I385
tp31
s.(dp0
S'actual_pos'
p1
(lp2
F0.0490735895742427
aF0.04051609069630938
aF-0.1668608282228802
asS'actual_rot'
p3
(lp4
F88.91898741238234
aF13.4122582011679
aF-170.46946520136999
asS'target_pos'
p5
cnumpy.core.multiarray
_reconstruct
p6
(cnumpy
ndarray
p7
(I0
tp8
S'b'
p9
tp10
Rp11
(I1
(I3
tp12
cnumpy
dtype
p13
(S'f8'
p14
I0
I1
tp15
Rp16
(I3
S'<'
p17
NNNI-1
I-1
I0
tp18
bI00
S'\xce\xcc\xbb3\x8e\x84\xa9?\xa43\x97\x82\xda\xc2\xa4?\xd9\xe6\xd8\xa4\xf0n\xc5\xbf'
p19
tp20
bsS'target_rot'
p21
g6
(g7
(I0
tp22
g9
tp23
Rp24
(I1
(I3
tp25
g16
I00
S'\x00\x00\x00\x00\x00\x80V@\x00\x00\x00\x00\x00\x00$@\x00\x00\x00\x00\x00\xa0d\xc0'
p26
tp27
bsS'center_target_pixels'
p28
(I963
I397
tp29
sS'center_actual_pixels'
p30
(I963
I395
tp31
s.(dp0
S'actual_pos'
p1
(lp2
F0.033943336432823726
aF0.03925446711573814
aF-0.16534138682656832
asS'actual_rot'
p3
(lp4
F89.32843543381519
aF13.114417675734597
aF-168.89592453650286
asS'target_pos'
p5
cnumpy.core.multiarray
_reconstruct
p6
(cnumpy
ndarray
p7
(I0
tp8
S'b'
p9
tp10
Rp11
(I1
(I3
tp12
cnumpy
dtype
p13
(S'f8'
p14
I0
I1
tp15
Rp16
(I3
S'<'
p17
NNNI-1
I-1
I0
tp18
bI00
S'\xe5\xf0\x11q;\xaf\xa1?\xe4\xe5r\x8b\xe1\x1f\xa4?\x01yoI\x168\xc5\xbf'
p19
tp20
bsS'target_rot'
p21
g6
(g7
(I0
tp22
g9
tp23
Rp24
(I1
(I3
tp25
g16
I00
S'\x00\x00\x00\x00\x00\x80V@\x00\x00\x00\x00\x00\x00$@\x00\x00\x00\x00\x00\xa0d\xc0'
p26
tp27
bsS'center_target_pixels'
p28
(I1141
I408
tp29
sS'center_actual_pixels'
p30
(I1131
I395
tp31
s.(dp0
S'actual_pos'
p1
(lp2
F0.016939748268437013
aF0.038874115867002866
aF-0.16404780131236588
asS'actual_rot'
p3
(lp4
F89.8625716108089
aF11.42111042211722
aF-165.55960141354745
asS'target_pos'
p5
cnumpy.core.multiarray
_reconstruct
p6
(cnumpy
ndarray
p7
(I0
tp8
S'b'
p9
tp10
Rp11
(I1
(I3
tp12
cnumpy
dtype
p13
(S'f8'
p14
I0
I1
tp15
Rp16
(I3
S'<'
p17
NNNI-1
I-1
I0
tp18
bI00
S'n\xbe\xcd\xe6\xde\xd0\x91?\n\x1a\xba\xd7\xf1\xd2\xa3?F\xfc\xf7\x06\xaa\x0e\xc5\xbf'
p19
tp20
bsS'target_rot'
p21
g6
(g7
(I0
tp22
g9
tp23
Rp24
(I1
(I3
tp25
g16
I00
S'\x00\x00\x00\x00\x00\x80V@\x00\x00\x00\x00\x00\x00$@\x00\x00\x00\x00\x00\xa0d\xc0'
p26
tp27
bsS'center_target_pixels'
p28
(I1318
I419
tp29
sS'center_actual_pixels'
p30
(I1322
I424
tp31
s.(dp0
S'actual_pos'
p1
(lp2
F0.07387170627723251
aF0.05151774856901036
aF-0.16887766622166353
asS'actual_rot'
p3
(lp4
F88.87902227764246
aF12.351855732026436
aF-171.63326402731968
asS'target_pos'
p5
cnumpy.core.multiarray
_reconstruct
p6
(cnumpy
ndarray
p7
(I0
tp8
S'b'
p9
tp10
Rp11
(I1
(I3
tp12
cnumpy
dtype
p13
(S'f8'
p14
I0
I1
tp15
Rp16
(I3
S'<'
p17
NNNI-1
I-1
I0
tp18
bI00
S'\x92Z]\x1eA\x1e\xb3?\xd4\x04\x07\x99\xf3o\xaa?\xd2{VH\x87\xab\xc5\xbf'
p19
tp20
bsS'target_rot'
p21
g6
(g7
(I0
tp22
g9
tp23
Rp24
(I1
(I3
tp25
g16
I00
S'\x00\x00\x00\x00\x00\x80V@\x00\x00\x00\x00\x00\x00$@\x00\x00\x00\x00\x00\xa0d\xc0'
p26
tp27
bsS'center_target_pixels'
p28
(I687
I468
tp29
sS'center_actual_pixels'
p30
(I677
I477
tp31
s.(dp0
S'actual_pos'
p1
(lp2
F0.05673585494920835
aF0.04914490160430485
aF-0.16794044676834735
asS'actual_rot'
p3
(lp4
F89.24070325739136
aF12.068174477331834
aF-170.6440534333881
asS'target_pos'
p5
cnumpy.core.multiarray
_reconstruct
p6
(cnumpy
ndarray
p7
(I0
tp8
S'b'
p9
tp10
Rp11
(I1
(I3
tp12
cnumpy
dtype
p13
(S'f8'
p14
I0
I1
tp15
Rp16
(I3
S'<'
p17
NNNI-1
I-1
I0
tp18
bI00
S"\xb7I\xfa\x10jo\xad?\xdb\x8d;e\x8b'\xa9?\\p!)\xdb\x95\xc5\xbf"
p19
tp20
bsS'target_rot'
p21
g6
(g7
(I0
tp22
g9
tp23
Rp24
(I1
(I3
tp25
g16
I00
S'\x00\x00\x00\x00\x00\x80V@\x00\x00\x00\x00\x00\x00$@\x00\x00\x00\x00\x00\xa0d\xc0'
p26
tp27
bsS'center_target_pixels'
p28
(I868
I479
tp29
sS'center_actual_pixels'
p30
(I867
I480
tp31
s.(dp0
S'actual_pos'
p1
(lp2
F0.040664476795521654
aF0.0478837823066873
aF-0.1657807335532792
asS'actual_rot'
p3
(lp4
F89.60564123205043
aF11.515426294799513
aF-169.70786801204588
asS'target_pos'
p5
cnumpy.core.multiarray
_reconstruct
p6
(cnumpy
ndarray
p7
(I0
tp8
S'b'
p9
tp10
Rp11
(I1
(I3
tp12
cnumpy
dtype
p13
(S'f8'
p14
I0
I1
tp15
Rp16
(I3
S'<'
p17
NNNI-1
I-1
I0
tp18
bI00
S"\xae\xa6m'\xec*\xa5?\xd1\xf9Wx6\x88\xa8?\x9c\xe2\xe1\x108C\xc5\xbf"
p19
tp20
bsS'target_rot'
p21
g6
(g7
(I0
tp22
g9
tp23
Rp24
(I1
(I3
tp25
g16
I00
S'\x00\x00\x00\x00\x00\x80V@\x00\x00\x00\x00\x00\x00$@\x00\x00\x00\x00\x00\xa0d\xc0'
p26
tp27
bsS'center_target_pixels'
p28
(I1047
I491
tp29
sS'center_actual_pixels'
p30
(I1048
I492
tp31
s.(dp0
S'actual_pos'
p1
(lp2
F0.02481407567468014
aF0.04690727221532624
aF-0.16449307045595127
asS'actual_rot'
p3
(lp4
F89.85597775902602
aF11.008478553982433
aF-166.60766094138913
asS'target_pos'
p5
cnumpy.core.multiarray
_reconstruct
p6
(cnumpy
ndarray
p7
(I0
tp8
S'b'
p9
tp10
Rp11
(I1
(I3
tp12
cnumpy
dtype
p13
(S'f8'
p14
I0
I1
tp15
Rp16
(I3
S'<'
p17
NNNI-1
I-1
I0
tp18
bI00
S'\x06;[\x19!\xf3\x99?\xa9\x96\x84W\x08\xf9\xa7?IWj\x9c\xa7\x1b\xc5\xbf'
p19
tp20
bsS'target_rot'
p21
g6
(g7
(I0
tp22
g9
tp23
Rp24
(I1
(I3
tp25
g16
I00
S'\x00\x00\x00\x00\x00\x80V@\x00\x00\x00\x00\x00\x00$@\x00\x00\x00\x00\x00\xa0d\xc0'
p26
tp27
bsS'center_target_pixels'
p28
(I1224
I502
tp29
sS'center_actual_pixels'
p30
(I1225
I500
tp31
s.(dp0
S'actual_pos'
p1
(lp2
F0.00893359794523667
aF0.04626553850139609
aF-0.16349843206729175
asS'actual_rot'
p3
(lp4
F90.05791026107899
aF9.664160959705448
aF-163.11575629053158
asS'target_pos'
p5
cnumpy.core.multiarray
_reconstruct
p6
(cnumpy
ndarray
p7
(I0
tp8
S'b'
p9
tp10
Rp11
(I1
(I3
tp12
cnumpy
dtype
p13
(S'f8'
p14
I0
I1
tp15
Rp16
(I3
S'<'
p17
NNNI-1
I-1
I0
tp18
bI00
S'\xde\x1d\xff\xe7z&\x83?LxD)`\x89\xa7?\x1e\x1a\xc07F\xfb\xc4\xbf'
p19
tp20
bsS'target_rot'
p21
g6
(g7
(I0
tp22
g9
tp23
Rp24
(I1
(I3
tp25
g16
I00
S'\x00\x00\x00\x00\x00\x80V@\x00\x00\x00\x00\x00\x00$@\x00\x00\x00\x00\x00\xa0d\xc0'
p26
tp27
bsS'center_target_pixels'
p28
(I1401
I512
tp29
sS'center_actual_pixels'
p30
(I1406
I515
tp31
s.(dp0
S'actual_pos'
p1
(lp2
F0.06502225579760092
aF0.05797523553864298
aF-0.16850789662684323
asS'actual_rot'
p3
(lp4
F89.61646661434372
aF10.96382007246955
aF-170.59971367811312
asS'target_pos'
p5
cnumpy.core.multiarray
_reconstruct
p6
(cnumpy
ndarray
p7
(I0
tp8
S'b'
p9
tp10
Rp11
(I1
(I3
tp12
cnumpy
dtype
p13
(S'f8'
p14
I0
I1
tp15
Rp16
(I3
S'<'
p17
NNNI-1
I-1
I0
tp18
bI00
S'uu\xdb\x08|\xdb\xb0?\x83\xf5K\x82\xd0\xad\xad?\x95\xdf\x8e\xb0\xfb\xa2\xc5\xbf'
p19
tp20
bsS'target_rot'
p21
g6
(g7
(I0
tp22
g9
tp23
Rp24
(I1
(I3
tp25
g16
I00
S'\x00\x00\x00\x00\x00\x80V@\x00\x00\x00\x00\x00\x00$@\x00\x00\x00\x00\x00\xa0d\xc0'
p26
tp27
bsS'center_target_pixels'
p28
(I772
I561
tp29
sS'center_actual_pixels'
p30
(I766
I567
tp31
s.(dp0
S'actual_pos'
p1
(lp2
F0.050931443130037654
aF0.05615127705283912
aF-0.1670312560487671
asS'actual_rot'
p3
(lp4
F89.81147696059023
aF10.652542495355119
aF-170.26697038211313
asS'target_pos'
p5
cnumpy.core.multiarray
_reconstruct
p6
(cnumpy
ndarray
p7
(I0
tp8
S'b'
p9
tp10
Rp11
(I1
(I3
tp12
cnumpy
dtype
p13
(S'f8'
p14
I0
I1
tp15
Rp16
(I3
S'<'
p17
NNNI-1
I-1
I0
tp18
bI00
S'\x0e|\xdd\xfa\xb6j\xaa?\xfd\x10\x03\xed\x98\xc5\xac?\xcc\x91\x03v\x1an\xc5\xbf'
p19
tp20
bsS'target_rot'
p21
g6
(g7
(I0
tp22
g9
tp23
Rp24
(I1
(I3
tp25
g16
I00
S'\x00\x00\x00\x00\x00\x80V@\x00\x00\x00\x00\x00\x00$@\x00\x00\x00\x00\x00\xa0d\xc0'
p26
tp27
bsS'center_target_pixels'
p28
(I952
I573
tp29
sS'center_actual_pixels'
p30
(I924
I573
tp31
s.(dp0
S'actual_pos'
p1
(lp2
F0.032202103751006995
aF0.05545921988635292
aF-0.16454894735565237
asS'actual_rot'
p3
(lp4
F90.0118118606273
aF10.049815017208088
aF-167.97806960729136
asS'target_pos'
p5
cnumpy.core.multiarray
_reconstruct
p6
(cnumpy
ndarray
p7
(I0
tp8
S'b'
p9
tp10
Rp11
(I1
(I3
tp12
cnumpy
dtype
p13
(S'f8'
p14
I0
I1
tp15
Rp16
(I3
S'<'
p17
NNNI-1
I-1
I0
tp18
bI00
S'\xa21q[J\xbf\xa0?\xc9vN\x08\x1c_\xac?\xf4D\xf0\xa2\xe3\x18\xc5\xbf'
p19
tp20
bsS'target_rot'
p21
g6
(g7
(I0
tp22
g9
tp23
Rp24
(I1
(I3
tp25
g16
I00
S'\x00\x00\x00\x00\x00\x80V@\x00\x00\x00\x00\x00\x00$@\x00\x00\x00\x00\x00\xa0d\xc0'
p26
tp27
bsS'center_target_pixels'
p28
(I1130
I584
tp29
sS'center_actual_pixels'
p30
(I1126
I589
tp31
s.(dp0
S'actual_pos'
p1
(lp2
F0.014971558366955498
aF0.053933712822590074
aF-0.16368835250032615
asS'actual_rot'
p3
(lp4
F90.07927284994275
aF9.284682792734866
aF-164.0568301117608
asS'target_pos'
p5
cnumpy.core.multiarray
_reconstruct
p6
(cnumpy
ndarray
p7
(I0
tp8
S'b'
p9
tp10
Rp11
(I1
(I3
tp12
cnumpy
dtype
p13
(S'f8'
p14
I0
I1
tp15
Rp16
(I3
S'<'
p17
NNNI-1
I-1
I0
tp18
bI00
S'\xa0\x17S\x8eq\x9e\x8f?\x8f\xfa\xed\x01\xde{\xab?\xb2\n|3\x0f\xfe\xc4\xbf'
p19
tp20
bsS'target_rot'
p21
g6
(g7
(I0
tp22
g9
tp23
Rp24
(I1
(I3
tp25
g16
I00
S'\x00\x00\x00\x00\x00\x80V@\x00\x00\x00\x00\x00\x00$@\x00\x00\x00\x00\x00\xa0d\xc0'
p26
tp27
bsS'center_target_pixels'
p28
(I1306
I594
tp29
sS'center_actual_pixels'
p30
(I1322
I593
tp31
s.(dp0
S'actual_pos'
p1
(lp2
F0.0729399730807947
aF0.0674813802095385
aF-0.16838274602446773
asS'actual_rot'
p3
(lp4
F89.81253709675791
aF10.453369718245376
aF-171.04190220826192
asS'target_pos'
p5
cnumpy.core.multiarray
_reconstruct
p6
(cnumpy
ndarray
p7
(I0
tp8
S'b'
p9
tp10
Rp11
(I1
(I3
tp12
cnumpy
dtype
p13
(S'f8'
p14
I0
I1
tp15
Rp16
(I3
S'<'
p17
NNNI-1
I-1
I0
tp18
bI00
S':\x14\x9dz\xfc\xe4\xb2?\xe9\xc9g\xb4aH\xb1?\xd8c\x19\xbc_\x94\xc5\xbf'
p19
tp20
bsS'target_rot'
p21
g6
(g7
(I0
tp22
g9
tp23
Rp24
(I1
(I3
tp25
g16
I00
S'\x00\x00\x00\x00\x00\x80V@\x00\x00\x00\x00\x00\x00$@\x00\x00\x00\x00\x00\xa0d\xc0'
p26
tp27
bsS'center_target_pixels'
p28
(I675
I646
tp29
sS'center_actual_pixels'
p30
(I661
I654
tp31
s.(dp0
S'actual_pos'
p1
(lp2
F0.05711987825837424
aF0.06528193054759675
aF-0.1668949065297246
asS'actual_rot'
p3
(lp4
F89.94813696086648
aF10.224637833974572
aF-170.44943257033452
asS'target_pos'
p5
cnumpy.core.multiarray
_reconstruct
p6
(cnumpy
ndarray
p7
(I0
tp8
S'b'
p9
tp10
Rp11
(I1
(I3
tp12
cnumpy
dtype
p13
(S'f8'
p14
I0
I1
tp15
Rp16
(I3
S'<'
p17
NNNI-1
I-1
I0
tp18
bI00
S'>6\xf8In\xa6\xad?\\p)\xef\xcf\xb4\xb0?\xf0\xe1d^Xc\xc5\xbf'
p19
tp20
bsS'target_rot'
p21
g6
(g7
(I0
tp22
g9
tp23
Rp24
(I1
(I3
tp25
g16
I00
S'\x00\x00\x00\x00\x00\x80V@\x00\x00\x00\x00\x00\x00$@\x00\x00\x00\x00\x00\xa0d\xc0'
p26
tp27
bsS'center_target_pixels'
p28
(I856
I653
tp29
sS'center_actual_pixels'
p30
(I843
I661
tp31
s.(dp0
S'actual_pos'
p1
(lp2
F0.040122720912181754
aF0.06372358135036736
aF-0.16505869493248138
asS'actual_rot'
p3
(lp4
F90.02413028184137
aF10.03509304234212
aF-169.11472129310738
asS'target_pos'
p5
cnumpy.core.multiarray
_reconstruct
p6
(cnumpy
ndarray
p7
(I0
tp8
S'b'
p9
tp10
Rp11
(I1
(I3
tp12
cnumpy
dtype
p13
(S'f8'
p14
I0
I1
tp15
Rp16
(I3
S'<'
p17
NNNI-1
I-1
I0
tp18
bI00
S'\xc1\xc8\xe4\xd0)\xea\xa4?P\xab\xb9Q\xb0N\xb0?\xb6\x9e\x8a|7(\xc5\xbf'
p19
tp20
bsS'target_rot'
p21
g6
(g7
(I0
tp22
g9
tp23
Rp24
(I1
(I3
tp25
g16
I00
S'\x00\x00\x00\x00\x00\x80V@\x00\x00\x00\x00\x00\x00$@\x00\x00\x00\x00\x00\xa0d\xc0'
p26
tp27
bsS'center_target_pixels'
p28
(I1036
I667
tp29
sS'center_actual_pixels'
p30
(I1026
I669
tp31
s.(dp0
S'actual_pos'
p1
(lp2
F0.02373101516170287
aF0.06261229295430426
aF-0.16405572298455245
asS'actual_rot'
p3
(lp4
F90.14542726340824
aF9.209067561213335
aF-165.6114102693413
asS'target_pos'
p5
cnumpy.core.multiarray
_reconstruct
p6
(cnumpy
ndarray
p7
(I0
tp8
S'b'
p9
tp10
Rp11
(I1
(I3
tp12
cnumpy
dtype
p13
(S'f8'
p14
I0
I1
tp15
Rp16
(I3
S'<'
p17
NNNI-1
I-1
I0
tp18
bI00
S'\xeaNQ\xf5\x83\xb8\x98?B\xb9\r\xa31\xf9\xaf?"-|\xb7p\x07\xc5\xbf'
p19
tp20
bsS'target_rot'
p21
g6
(g7
(I0
tp22
g9
tp23
Rp24
(I1
(I3
tp25
g16
I00
S'\x00\x00\x00\x00\x00\x80V@\x00\x00\x00\x00\x00\x00$@\x00\x00\x00\x00\x00\xa0d\xc0'
p26
tp27
bsS'center_target_pixels'
p28
(I1212
I677
tp29
sS'center_actual_pixels'
p30
(I1214
I678
tp31
s.(dp0
S'actual_pos'
p1
(lp2
F0.007924342211048699
aF0.06183128124860596
aF-0.16242777019068266
asS'actual_rot'
p3
(lp4
F90.15681575941662
aF7.768314408277511
aF-161.80129489659527
asS'target_pos'
p5
cnumpy.core.multiarray
_reconstruct
p6
(cnumpy
ndarray
p7
(I0
tp8
S'b'
p9
tp10
Rp11
(I1
(I3
tp12
cnumpy
dtype
p13
(S'f8'
p14
I0
I1
tp15
Rp16
(I3
S'<'
p17
NNNI-1
I-1
I0
tp18
bI00
S'\xba\x03\xe03i\xfb\x80?\xe1\x97\xeb\xd0pr\xaf?\xdf&7\xca\xd0\xcf\xc4\xbf'
p19
tp20
bsS'target_rot'
p21
g6
(g7
(I0
tp22
g9
tp23
Rp24
(I1
(I3
tp25
g16
I00
S'\x00\x00\x00\x00\x00\x80V@\x00\x00\x00\x00\x00\x00$@\x00\x00\x00\x00\x00\xa0d\xc0'
p26
tp27
bsS'center_target_pixels'
p28
(I1389
I687
tp29
sS'center_actual_pixels'
p30
(I1393
I688
tp31
s.(dp0
S'actual_pos'
p1
(lp2
F0.06227346811420612
aF0.07305222748532404
aF-0.16755388349903513
asS'actual_rot'
p3
(lp4
F89.91392439669863
aF10.298865878793897
aF-170.8533316187251
asS'target_pos'
p5
cnumpy.core.multiarray
_reconstruct
p6
(cnumpy
ndarray
p7
(I0
tp8
S'b'
p9
tp10
Rp11
(I1
(I3
tp12
cnumpy
dtype
p13
(S'f8'
p14
I0
I1
tp15
Rp16
(I3
S'<'
p17
NNNI-1
I-1
I0
tp18
bI00
S'\xc0\xadN6\xae\x1b\xb0?\xd9z\xb8\x82\xbc\xd9\xb2?5\xd2Y\x93\x0bu\xc5\xbf'
p19
tp20
bsS'target_rot'
p21
g6
(g7
(I0
tp22
g9
tp23
Rp24
(I1
(I3
tp25
g16
I00
S'\x00\x00\x00\x00\x00\x80V@\x00\x00\x00\x00\x00\x00$@\x00\x00\x00\x00\x00\xa0d\xc0'
p26
tp27
bsS'center_target_pixels'
p28
(I760
I741
tp29
sS'center_actual_pixels'
p30
(I768
I730
tp31
s.(dp0
S'actual_pos'
p1
(lp2
F0.04768875719261221
aF0.07209003118093237
aF-0.1662435709685838
asS'actual_rot'
p3
(lp4
F89.91348528815288
aF10.395517614541983
aF-169.83382989884277
asS'target_pos'
p5
cnumpy.core.multiarray
_reconstruct
p6
(cnumpy
ndarray
p7
(I0
tp8
S'b'
p9
tp10
Rp11
(I1
(I3
tp12
cnumpy
dtype
p13
(S'f8'
p14
I0
I1
tp15
Rp16
(I3
S'<'
p17
NNNI-1
I-1
I0
tp18
bI00
S'\xce7u\x05K\xb9\xa8?\xd1\x14\xdf\xa2\x02\xb1\xb2?\xca\x97\xe6\xf8\x03E\xc5\xbf'
p19
tp20
bsS'target_rot'
p21
g6
(g7
(I0
tp22
g9
tp23
Rp24
(I1
(I3
tp25
g16
I00
S'\x00\x00\x00\x00\x00\x80V@\x00\x00\x00\x00\x00\x00$@\x00\x00\x00\x00\x00\xa0d\xc0'
p26
tp27
bsS'center_target_pixels'
p28
(I941
I750
tp29
sS'center_actual_pixels'
p30
(I930
I745
tp31
s.(dp0
S'actual_pos'
p1
(lp2
F0.03125332632936142
aF0.07066354635024676
aF-0.1647825477187372
asS'actual_rot'
p3
(lp4
F90.14808392989066
aF9.467947817413794
aF-166.51724683995567
asS'target_pos'
p5
cnumpy.core.multiarray
_reconstruct
p6
(cnumpy
ndarray
p7
(I0
tp8
S'b'
p9
tp10
Rp11
(I1
(I3
tp12
cnumpy
dtype
p13
(S'f8'
p14
I0
I1
tp15
Rp16
(I3
S'<'
p17
NNNI-1
I-1
I0
tp18
bI00
S'\xc3S\xc8\xa2\x14D\xa0?W\xc4rz*L\xb2?\xe9\x051\x06\xc6\x14\xc5\xbf'
p19
tp20
bsS'target_rot'
p21
g6
(g7
(I0
tp22
g9
tp23
Rp24
(I1
(I3
tp25
g16
I00
S'\x00\x00\x00\x00\x00\x80V@\x00\x00\x00\x00\x00\x00$@\x00\x00\x00\x00\x00\xa0d\xc0'
p26
tp27
bsS'center_target_pixels'
p28
(I1119
I760
tp29
sS'center_actual_pixels'
p30
(I1116
I754
tp31
s.(dp0
S'actual_pos'
p1
(lp2
F0.014675094289072507
aF0.0693425655468405
aF-0.16314949365361908
asS'actual_rot'
p3
(lp4
F90.22320065386947
aF8.02655066293875
aF-162.55742391308647
asS'target_pos'
p5
cnumpy.core.multiarray
_reconstruct
p6
(cnumpy
ndarray
p7
(I0
tp8
S'b'
p9
tp10
Rp11
(I1
(I3
tp12
cnumpy
dtype
p13
(S'f8'
p14
I0
I1
tp15
Rp16
(I3
S'<'
p17
NNNI-1
I-1
I0
tp18
bI00
S'\xc3\xa3\xe8\x05u\xe8\x8e?\x7f\\B\xeb\x10\xe6\xb1?\x1ePG#q\xde\xc4\xbf'
p19
tp20
bsS'target_rot'
p21
g6
(g7
(I0
tp22
g9
tp23
Rp24
(I1
(I3
tp25
g16
I00
S'\x00\x00\x00\x00\x00\x80V@\x00\x00\x00\x00\x00\x00$@\x00\x00\x00\x00\x00\xa0d\xc0'
p26
tp27
bsS'center_target_pixels'
p28
(I1295
I770
tp29
sS'center_actual_pixels'
p30
(I1306
I759
tp31
s.