(dp0
S'actual_pos'
p1
(cnumpy.core.multiarray
_reconstruct
p2
(cnumpy.matrixlib.defmatrix
matrix
p3
(I0
tp4
S'b'
p5
tp6
Rp7
(I1
(I1
I1
tp8
cnumpy
dtype
p9
(S'f8'
p10
I0
I1
tp11
Rp12
(I3
S'<'
p13
NNNI-1
I-1
I0
tp14
bI00
S'\xb2)\xf7g&\x9f\xaf?'
p15
tp16
bg2
(g3
(I0
tp17
g5
tp18
Rp19
(I1
(I1
I1
tp20
g12
I00
S'\xb6\xac|\x11k\xd9\x91?'
p21
tp22
bg2
(g3
(I0
tp23
g5
tp24
Rp25
(I1
(I1
I1
tp26
g12
I00
S'C<\xc0\xaf\xaea\xc5\xbf'
p27
tp28
btp29
sS'actual_rot'
p30
(F-0.2610403053950343
F-12.529251054948961
F-170.89235551820917
tp31
sS'target_pos'
p32
(lp33
cnumpy.core.multiarray
scalar
p34
(g12
S'*\xc7\xc4|\x13\xef\xaf?'
p35
tp36
Rp37
ag34
(g12
S'\x0e\xca\xad\x08,B\x91?'
p38
tp39
Rp40
ag34
(g12
S'4o<\x15\ng\xc5\xbf'
p41
tp42
Rp43
asS'target_rot'
p44
g2
(cnumpy
ndarray
p45
(I0
tp46
g5
tp47
Rp48
(I1
(I3
tp49
g12
I00
S'~\x98\t\xee@\xf3\xc4\xbf>\x9eN\x87\x0f"\'\xc0\xf0\x89\xf5\xf2\xb9\x1fe\xc0'
p50
tp51
bsS'center_target_pixels'
p52
(I809
I107
tp53
sS'center_actual_pixels'
p54
(I813
I113
tp55
s.(dp0
S'actual_pos'
p1
(cnumpy.core.multiarray
_reconstruct
p2
(cnumpy.matrixlib.defmatrix
matrix
p3
(I0
tp4
S'b'
p5
tp6
Rp7
(I1
(I1
I1
tp8
cnumpy
dtype
p9
(S'f8'
p10
I0
I1
tp11
Rp12
(I3
S'<'
p13
NNNI-1
I-1
I0
tp14
bI00
S'"[\xc3\x1dE\xd8\xa7?'
p15
tp16
bg2
(g3
(I0
tp17
g5
tp18
Rp19
(I1
(I1
I1
tp20
g12
I00
S'\xd8\x86\x1b\xef\x96\xb2\x90?'
p21
tp22
bg2
(g3
(I0
tp23
g5
tp24
Rp25
(I1
(I1
I1
tp26
g12
I00
S'\xf2\xd1\x03\x0b\\(\xc5\xbf'
p27
tp28
btp29
sS'actual_rot'
p30
(F-0.08603168220084231
F-10.818037474300791
F-172.48288101755412
tp31
sS'target_pos'
p32
(lp33
cnumpy.core.multiarray
scalar
p34
(g12
S'\x15V\xcb_Z<\xa8?'
p35
tp36
Rp37
ag34
(g12
S'\x10\x80\xcdR\xc8\x19\x90?'
p38
tp39
Rp40
ag34
(g12
S'\x01T\xb4\x8f(+\xc5\xbf'
p41
tp42
Rp43
asS'target_rot'
p44
g2
(cnumpy
ndarray
p45
(I0
tp46
g5
tp47
Rp48
(I1
(I3
tp49
g12
I00
S'~\x98\t\xee@\xf3\xc4\xbf>\x9eN\x87\x0f"\'\xc0\xf0\x89\xf5\xf2\xb9\x1fe\xc0'
p50
tp51
bsS'center_target_pixels'
p52
(I987
I120
tp53
sS'center_actual_pixels'
p54
(I988
I127
tp55
s.(dp0
S'actual_pos'
p1
(cnumpy.core.multiarray
_reconstruct
p2
(cnumpy.matrixlib.defmatrix
matrix
p3
(I0
tp4
S'b'
p5
tp6
Rp7
(I1
(I1
I1
tp8
cnumpy
dtype
p9
(S'f8'
p10
I0
I1
tp11
Rp12
(I3
S'<'
p13
NNNI-1
I-1
I0
tp14
bI00
S'\x96D\x88\x8bv\xe8\x9f?'
p15
tp16
bg2
(g3
(I0
tp17
g5
tp18
Rp19
(I1
(I1
I1
tp20
g12
I00
S'\xb0\xdd\x06Lj\xbe\x8e?'
p21
tp22
bg2
(g3
(I0
tp23
g5
tp24
Rp25
(I1
(I1
I1
tp26
g12
I00
S'b\xee\x85\xaa\x15\xec\xc4\xbf'
p27
tp28
btp29
sS'actual_rot'
p30
(F0.15526247048816927
F-7.923296784704175
F-173.0129501572863
tp31
sS'target_pos'
p32
(lp33
cnumpy.core.multiarray
scalar
p34
(g12
S'\xd1\xe6f]\xf8\x86\xa0?'
p35
tp36
Rp37
ag34
(g12
S'DUP\xbe\xcc\x8f\x8d?'
p38
tp39
Rp40
ag34
(g12
S'\xa4\x1f\xea\\\xa1\xee\xc4\xbf'
p41
tp42
Rp43
asS'target_rot'
p44
g2
(cnumpy
ndarray
p45
(I0
tp46
g5
tp47
Rp48
(I1
(I3
tp49
g12
I00
S'~\x98\t\xee@\xf3\xc4\xbf>\x9eN\x87\x0f"\'\xc0\xf0\x89\xf5\xf2\xb9\x1fe\xc0'
p50
tp51
bsS'center_target_pixels'
p52
(I1163
I131
tp53
sS'center_actual_pixels'
p54
(I1165
I138
tp55
s.(dp0
S'actual_pos'
p1
(cnumpy.core.multiarray
_reconstruct
p2
(cnumpy.matrixlib.defmatrix
matrix
p3
(I0
tp4
S'b'
p5
tp6
Rp7
(I1
(I1
I1
tp8
cnumpy
dtype
p9
(S'f8'
p10
I0
I1
tp11
Rp12
(I3
S'<'
p13
NNNI-1
I-1
I0
tp14
bI00
S'&u&]$\x06\x90?'
p15
tp16
bg2
(g3
(I0
tp17
g5
tp18
Rp19
(I1
(I1
I1
tp20
g12
I00
S'\xa6\xcd\x8c$XJ\x8c?'
p21
tp22
bg2
(g3
(I0
tp23
g5
tp24
Rp25
(I1
(I1
I1
tp26
g12
I00
S'F\xefn1\xe0\xad\xc4\xbf'
p27
tp28
btp29
sS'actual_rot'
p30
(F0.2933143408621166
F-5.7799482195473235
F-173.50192373785464
tp31
sS'target_pos'
p32
(lp33
cnumpy.core.multiarray
scalar
p34
(g12
S'\xc4\xde\x18\xda\xa1f\x91?'
p35
tp36
Rp37
ag34
(g12
S'\xc8\xad"\x84\xc7>\x8b?'
p38
tp39
Rp40
ag34
(g12
S'\x84\xdd[\xdb\xa3\xb0\xc4\xbf'
p41
tp42
Rp43
asS'target_rot'
p44
g2
(cnumpy
ndarray
p45
(I0
tp46
g5
tp47
Rp48
(I1
(I3
tp49
g12
I00
S'~\x98\t\xee@\xf3\xc4\xbf>\x9eN\x87\x0f"\'\xc0\xf0\x89\xf5\xf2\xb9\x1fe\xc0'
p50
tp51
bsS'center_target_pixels'
p52
(I1339
I144
tp53
sS'center_actual_pixels'
p54
(I1341
I152
tp55
s.(dp0
S'actual_pos'
p1
(cnumpy.core.multiarray
_reconstruct
p2
(cnumpy.matrixlib.defmatrix
matrix
p3
(I0
tp4
S'b'
p5
tp6
Rp7
(I1
(I1
I1
tp8
cnumpy
dtype
p9
(S'f8'
p10
I0
I1
tp11
Rp12
(I3
S'<'
p13
NNNI-1
I-1
I0
tp14
bI00
S'\xea\x8d\x1b\xbc\x91\xb1\xb1?'
p15
tp16
bg2
(g3
(I0
tp17
g5
tp18
Rp19
(I1
(I1
I1
tp20
g12
I00
S'${\xab\xb5\x92\r\x9a?'
p21
tp22
bg2
(g3
(I0
tp23
g5
tp24
Rp25
(I1
(I1
I1
tp26
g12
I00
S'w\x19hs\x81z\xc5\xbf'
p27
tp28
btp29
sS'actual_rot'
p30
(F-0.7263227814059017
F-15.43313044405404
F-168.00582775591067
tp31
sS'target_pos'
p32
(lp33
cnumpy.core.multiarray
scalar
p34
(g12
S'\xf6,\x05B\xcd\xc0\xb1?'
p35
tp36
Rp37
ag34
(g12
S'\x93\\\xda\x1b\n\x9e\x99?'
p38
tp39
Rp40
ag34
(g12
S'\xa7\xb2\x82\xc8!\x83\xc5\xbf'
p41
tp42
Rp43
asS'target_rot'
p44
g2
(cnumpy
ndarray
p45
(I0
tp46
g5
tp47
Rp48
(I1
(I3
tp49
g12
I00
S'~\x98\t\xee@\xf3\xc4\xbf>\x9eN\x87\x0f"\'\xc0\xf0\x89\xf5\xf2\xb9\x1fe\xc0'
p50
tp51
bsS'center_target_pixels'
p52
(I714
I190
tp53
sS'center_actual_pixels'
p54
(I717
I192
tp55
s.(dp0
S'actual_pos'
p1
(cnumpy.core.multiarray
_reconstruct
p2
(cnumpy.matrixlib.defmatrix
matrix
p3
(I0
tp4
S'b'
p5
tp6
Rp7
(I1
(I1
I1
tp8
cnumpy
dtype
p9
(S'f8'
p10
I0
I1
tp11
Rp12
(I3
S'<'
p13
NNNI-1
I-1
I0
tp14
bI00
S'g\xdcT2\x00\x9a\xab?'
p15
tp16
bg2
(g3
(I0
tp17
g5
tp18
Rp19
(I1
(I1
I1
tp20
g12
I00
S'\xef%K\x10\xe5\xc1\x98?'
p21
tp22
bg2
(g3
(I0
tp23
g5
tp24
Rp25
(I1
(I1
I1
tp26
g12
I00
S'\xf7q-\xe5\xa7@\xc5\xbf'
p27
tp28
btp29
sS'actual_rot'
p30
(F-0.3444930885983635
F-12.753689829273869
F-169.69707461055873
tp31
sS'target_pos'
p32
(lp33
cnumpy.core.multiarray
scalar
p34
(g12
S'\xaa5\xe5\xba#\xd2\xab?'
p35
tp36
Rp37
ag34
(g12
S'\xf1\xf4\xde8\xcbk\x98?'
p38
tp39
Rp40
ag34
(g12
S'}z\x17\xb3\xd8G\xc5\xbf'
p41
tp42
Rp43
asS'target_rot'
p44
g2
(cnumpy
ndarray
p45
(I0
tp46
g5
tp47
Rp48
(I1
(I3
tp49
g12
I00
S'~\x98\t\xee@\xf3\xc4\xbf>\x9eN\x87\x0f"\'\xc0\xf0\x89\xf5\xf2\xb9\x1fe\xc0'
p50
tp51
bsS'center_target_pixels'
p52
(I893
I202
tp53
sS'center_actual_pixels'
p54
(I893
I203
tp55
s.(dp0
S'actual_pos'
p1
(cnumpy.core.multiarray
_reconstruct
p2
(cnumpy.matrixlib.defmatrix
matrix
p3
(I0
tp4
S'b'
p5
tp6
Rp7
(I1
(I1
I1
tp8
cnumpy
dtype
p9
(S'f8'
p10
I0
I1
tp11
Rp12
(I3
S'<'
p13
NNNI-1
I-1
I0
tp14
bI00
S'h\x94sU\xfe\xa8\xa3?'
p15
tp16
bg2
(g3
(I0
tp17
g5
tp18
Rp19
(I1
(I1
I1
tp20
g12
I00
S'b_\x9e*\xd7\xb2\x97?'
p21
tp22
bg2
(g3
(I0
tp23
g5
tp24
Rp25
(I1
(I1
I1
tp26
g12
I00
S'\x08I\x8e\xc4T\x07\xc5\xbf'
p27
tp28
btp29
sS'actual_rot'
p30
(F-0.012946696324080324
F-10.236846893842838
F-171.9795460510554
tp31
sS'target_pos'
p32
(lp33
cnumpy.core.multiarray
scalar
p34
(g12
S'j\xdb\xab(\x8d\x1c\xa4?'
p35
tp36
Rp37
ag34
(g12
S':&\x10dS<\x97?'
p38
tp39
Rp40
ag34
(g12
S'\t\x80\xeay\xd5\x0b\xc5\xbf'
p41
tp42
Rp43
asS'target_rot'
p44
g2
(cnumpy
ndarray
p45
(I0
tp46
g5
tp47
Rp48
(I1
(I3
tp49
g12
I00
S'~\x98\t\xee@\xf3\xc4\xbf>\x9eN\x87\x0f"\'\xc0\xf0\x89\xf5\xf2\xb9\x1fe\xc0'
p50
tp51
bsS'center_target_pixels'
p52
(I1070
I214
tp53
sS'center_actual_pixels'
p54
(I1072
I215
tp55
s.(dp0
S'actual_pos'
p1
(cnumpy.core.multiarray
_reconstruct
p2
(cnumpy.matrixlib.defmatrix
matrix
p3
(I0
tp4
S'b'
p5
tp6
Rp7
(I1
(I1
I1
tp8
cnumpy
dtype
p9
(S'f8'
p10
I0
I1
tp11
Rp12
(I3
S'<'
p13
NNNI-1
I-1
I0
tp14
bI00
S'q\x11" \xbe\x95\x97?'
p15
tp16
bg2
(g3
(I0
tp17
g5
tp18
Rp19
(I1
(I1
I1
tp20
g12
I00
S'\xbd\xa2j\xa9Rp\x96?'
p21
tp22
bg2
(g3
(I0
tp23
g5
tp24
Rp25
(I1
(I1
I1
tp26
g12
I00
S'@\x04f\xf5 \xcc\xc4\xbf'
p27
tp28
btp29
sS'actual_rot'
p30
(F0.4002451215824463
F-7.150875616606482
F-173.00000439585153
tp31
sS'target_pos'
p32
(lp33
cnumpy.core.multiarray
scalar
p34
(g12
S'\xc4\xe4]*l\xc3\x98?'
p35
tp36
Rp37
ag34
(g12
S'\xf4_\x10\xdc\xd6\x0f\x96?'
p38
tp39
Rp40
ag34
(g12
S'~\xf3,\xf1\x1d\xcf\xc4\xbf'
p41
tp42
Rp43
asS'target_rot'
p44
g2
(cnumpy
ndarray
p45
(I0
tp46
g5
tp47
Rp48
(I1
(I3
tp49
g12
I00
S'~\x98\t\xee@\xf3\xc4\xbf>\x9eN\x87\x0f"\'\xc0\xf0\x89\xf5\xf2\xb9\x1fe\xc0'
p50
tp51
bsS'center_target_pixels'
p52
(I1245
I226
tp53
sS'center_actual_pixels'
p54
(I1246
I227
tp55
s.(dp0
S'actual_pos'
p1
(cnumpy.core.multiarray
_reconstruct
p2
(cnumpy.matrixlib.defmatrix
matrix
p3
(I0
tp4
S'b'
p5
tp6
Rp7
(I1
(I1
I1
tp8
cnumpy
dtype
p9
(S'f8'
p10
I0
I1
tp11
Rp12
(I3
S'<'
p13
NNNI-1
I-1
I0
tp14
bI00
S'@\x1f\xa0u\x1a\xdc~?'
p15
tp16
bg2
(g3
(I0
tp17
g5
tp18
Rp19
(I1
(I1
I1
tp20
g12
I00
S'\x83\x8f\xa2\x8eP*\x95?'
p21
tp22
bg2
(g3
(I0
tp23
g5
tp24
Rp25
(I1
(I1
I1
tp26
g12
I00
S'\xcc^\x98\x1e\x1c\x8b\xc4\xbf'
p27
tp28
btp29
sS'actual_rot'
p30
(F0.5208419123207815
F-5.995304262250444
F-173.37694600964613
tp31
sS'target_pos'
p32
(lp33
cnumpy.core.multiarray
scalar
p34
(g12
S'\xf0\xfc\x86\x1e\xcf\x06\x82?'
p35
tp36
Rp37
ag34
(g12
S'>jE\xaf\xf6\xc5\x94?'
p38
tp39
Rp40
ag34
(g12
S'\xb6zh\x02\xae\x90\xc4\xbf'
p41
tp42
Rp43
asS'target_rot'
p44
g2
(cnumpy
ndarray
p45
(I0
tp46
g5
tp47
Rp48
(I1
(I3
tp49
g12
I00
S'~\x98\t\xee@\xf3\xc4\xbf>\x9eN\x87\x0f"\'\xc0\xf0\x89\xf5\xf2\xb9\x1fe\xc0'
p50
tp51
bsS'center_target_pixels'
p52
(I1421
I237
tp53
sS'center_actual_pixels'
p54
(I1422
I237
tp55
s.(dp0
S'actual_pos'
p1
(cnumpy.core.multiarray
_reconstruct
p2
(cnumpy.matrixlib.defmatrix
matrix
p3
(I0
tp4
S'b'
p5
tp6
Rp7
(I1
(I1
I1
tp8
cnumpy
dtype
p9
(S'f8'
p10
I0
I1
tp11
Rp12
(I3
S'<'
p13
NNNI-1
I-1
I0
tp14
bI00
S'MB\xa9\xf2\xb2@\xaf?'
p15
tp16
bg2
(g3
(I0
tp17
g5
tp18
Rp19
(I1
(I1
I1
tp20
g12
I00
S'r\x87\x03\x80\xf9\x97\xa0?'
p21
tp22
bg2
(g3
(I0
tp23
g5
tp24
Rp25
(I1
(I1
I1
tp26
g12
I00
S'\xda\x92\x0cDH[\xc5\xbf'
p27
tp28
btp29
sS'actual_rot'
p30
(F-0.7191733574190091
F-14.403122465111462
F-168.69236606730013
tp31
sS'target_pos'
p32
(lp33
cnumpy.core.multiarray
scalar
p34
(g12
S' [C\x82"m\xaf?'
p35
tp36
Rp37
ag34
(g12
S'l^>=\xfdY\xa0?'
p38
tp39
Rp40
ag34
(g12
S'x\x12\xea\xf89d\xc5\xbf'
p41
tp42
Rp43
asS'target_rot'
p44
g2
(cnumpy
ndarray
p45
(I0
tp46
g5
tp47
Rp48
(I1
(I3
tp49
g12
I00
S'~\x98\t\xee@\xf3\xc4\xbf>\x9eN\x87\x0f"\'\xc0\xf0\x89\xf5\xf2\xb9\x1fe\xc0'
p50
tp51
bsS'center_target_pixels'
p52
(I798
I284
tp53
sS'center_actual_pixels'
p54
(I799
I282
tp55
s.(dp0
S'actual_pos'
p1
(cnumpy.core.multiarray
_reconstruct
p2
(cnumpy.matrixlib.defmatrix
matrix
p3
(I0
tp4
S'b'
p5
tp6
Rp7
(I1
(I1
I1
tp8
cnumpy
dtype
p9
(S'f8'
p10
I0
I1
tp11
Rp12
(I3
S'<'
p13
NNNI-1
I-1
I0
tp14
bI00
S'\x83@Kl\xb6[\xa7?'
p15
tp16
bg2
(g3
(I0
tp17
g5
tp18
Rp19
(I1
(I1
I1
tp20
g12
I00
S'\x83\x0e\x89\xb5\xb4\x07\xa0?'
p21
tp22
bg2
(g3
(I0
tp23
g5
tp24
Rp25
(I1
(I1
I1
tp26
g12
I00
S'\x8c\xae\xca\x80$"\xc5\xbf'
p27
tp28
btp29
sS'actual_rot'
p30
(F-0.13928644328534162
F-11.288030854363111
F-170.0668998835967
tp31
sS'target_pos'
p32
(lp33
cnumpy.core.multiarray
scalar
p34
(g12
S'\x89\x98l\x80H\xb9\xa7?'
p35
tp36
Rp37
ag34
(g12
S'\x01\xa4\x1c?\xe9\x90\x9f?'
p38
tp39
Rp40
ag34
(g12
S'\xae\x95D\xb3\xc5(\xc5\xbf'
p41
tp42
Rp43
asS'target_rot'
p44
g2
(cnumpy
ndarray
p45
(I0
tp46
g5
tp47
Rp48
(I1
(I3
tp49
g12
I00
S'~\x98\t\xee@\xf3\xc4\xbf>\x9eN\x87\x0f"\'\xc0\xf0\x89\xf5\xf2\xb9\x1fe\xc0'
p50
tp51
bsS'center_target_pixels'
p52
(I976
I296
tp53
sS'center_actual_pixels'
p54
(I977
I298
tp55
s.(dp0
S'actual_pos'
p1
(cnumpy.core.multiarray
_reconstruct
p2
(cnumpy.matrixlib.defmatrix
matrix
p3
(I0
tp4
S'b'
p5
tp6
Rp7
(I1
(I1
I1
tp8
cnumpy
dtype
p9
(S'f8'
p10
I0
I1
tp11
Rp12
(I3
S'<'
p13
NNNI-1
I-1
I0
tp14
bI00
S'\xe4\xa6c\xff\xef\x02\x9f?'
p15
tp16
bg2
(g3
(I0
tp17
g5
tp18
Rp19
(I1
(I1
I1
tp20
g12
I00
S"\xcb,\xd3')\xc4\x9e?"
p21
tp22
bg2
(g3
(I0
tp23
g5
tp24
Rp25
(I1
(I1
I1
tp26
g12
I00
S'\xf4\xdc\xe4\xcd\xdf\xe8\xc4\xbf'
p27
tp28
btp29
sS'actual_rot'
p30
(F0.3379769402720511
F-8.696574656459934
F-171.46084973284934
tp31
sS'target_pos'
p32
(lp33
cnumpy.core.multiarray
scalar
p34
(g12
S'd\x8d\xe9\x0e\x0b\x01\xa0?'
p35
tp36
Rp37
ag34
(g12
S'{\x16\xa4\xb6\x17Z\x9e?'
p38
tp39
Rp40
ag34
(g12
S'O\xdfiw\xa2\xec\xc4\xbf'
p41
tp42
Rp43
asS'target_rot'
p44
g2
(cnumpy
ndarray
p45
(I0
tp46
g5
tp47
Rp48
(I1
(I3
tp49
g12
I00
S'~\x98\t\xee@\xf3\xc4\xbf>\x9eN\x87\x0f"\'\xc0\xf0\x89\xf5\xf2\xb9\x1fe\xc0'
p50
tp51
bsS'center_target_pixels'
p52
(I1152
I307
tp53
sS'center_actual_pixels'
p54
(I1154
I308
tp55
s.(dp0
S'actual_pos'
p1
(cnumpy.core.multiarray
_reconstruct
p2
(cnumpy.matrixlib.defmatrix
matrix
p3
(I0
tp4
S'b'
p5
tp6
Rp7
(I1
(I1
I1
tp8
cnumpy
dtype
p9
(S'f8'
p10
I0
I1
tp11
Rp12
(I3
S'<'
p13
NNNI-1
I-1
I0
tp14
bI00
S'b;,wm\xe1\x8d?'
p15
tp16
bg2
(g3
(I0
tp17
g5
tp18
Rp19
(I1
(I1
I1
tp20
g12
I00
S'+%k\x19\xcam\x9d?'
p21
tp22
bg2
(g3
(I0
tp23
g5
tp24
Rp25
(I1
(I1
I1
tp26
g12
I00
S'\x8c\xb4\xe1\xe2~\xab\xc4\xbf'
p27
tp28
btp29
sS'actual_rot'
p30
(F0.7581289865071658
F-6.227447512757387
F-172.18392702960398
tp31
sS'target_pos'
p32
(lp33
cnumpy.core.multiarray
scalar
p34
(g12
S'j\x03.V\x8cC\x90?'
p35
tp36
Rp37
ag34
(g12
S'\xac\x9eL\xe6?\x1c\x9d?'
p38
tp39
Rp40
ag34
(g12
S'k8p\x98\xbe\xae\xc4\xbf'
p41
tp42
Rp43
asS'target_rot'
p44
g2
(cnumpy
ndarray
p45
(I0
tp46
g5
tp47
Rp48
(I1
(I3
tp49
g12
I00
S'~\x98\t\xee@\xf3\xc4\xbf>\x9eN\x87\x0f"\'\xc0\xf0\x89\xf5\xf2\xb9\x1fe\xc0'
p50
tp51
bsS'center_target_pixels'
p52
(I1329
I318
tp53
sS'center_actual_pixels'
p54
(I1331
I317
tp55
s.(dp0
S'actual_pos'
p1
(cnumpy.core.multiarray
_reconstruct
p2
(cnumpy.matrixlib.defmatrix
matrix
p3
(I0
tp4
S'b'
p5
tp6
Rp7
(I1
(I1
I1
tp8
cnumpy
dtype
p9
(S'f8'
p10
I0
I1
tp11
Rp12
(I3
S'<'
p13
NNNI-1
I-1
I0
tp14
bI00
S'|\xac\x15{\xcfw\xb1?'
p15
tp16
bg2
(g3
(I0
tp17
g5
tp18
Rp19
(I1
(I1
I1
tp20
g12
I00
S'\x8e\xa7\x11u\xc1\xc7\xa4?'
p21
tp22
bg2
(g3
(I0
tp23
g5
tp24
Rp25
(I1
(I1
I1
tp26
g12
I00
S';&\xa4\x919t\xc5\xbf'
p27
tp28
btp29
sS'actual_rot'
p30
(F-1.2287645426093334
F-15.966472445730863
F-166.7404687580369
tp31
sS'target_pos'
p32
(lp33
cnumpy.core.multiarray
scalar
p34
(g12
S'\x13\xaej\x94^\x80\xb1?'
p35
tp36
Rp37
ag34
(g12
S'qV~\x08d\x82\xa4?'
p38
tp39
Rp40
ag34
(g12
S'\x92q\x9d\xf1\xec\x7f\xc5\xbf'
p41
tp42
Rp43
asS'target_rot'
p44
g2
(cnumpy
ndarray
p45
(I0
tp46
g5
tp47
Rp48
(I1
(I3
tp49
g12
I00
S'~\x98\t\xee@\xf3\xc4\xbf>\x9eN\x87\x0f"\'\xc0\xf0\x89\xf5\xf2\xb9\x1fe\xc0'
p50
tp51
bsS'center_target_pixels'
p52
(I703
I367
tp53
sS'center_actual_pixels'
p54
(I705
I369
tp55
s.(dp0
S'actual_pos'
p1
(cnumpy.core.multiarray
_reconstruct
p2
(cnumpy.matrixlib.defmatrix
matrix
p3
(I0
tp4
S'b'
p5
tp6
Rp7
(I1
(I1
I1
tp8
cnumpy
dtype
p9
(S'f8'
p10
I0
I1
tp11
Rp12
(I3
S'<'
p13
NNNI-1
I-1
I0
tp14
bI00
S"='I\xac\xc2\x15\xab?"
p15
tp16
bg2
(g3
(I0
tp17
g5
tp18
Rp19
(I1
(I1
I1
tp20
g12
I00
S'\xc1\x8e]P(/\xa4?'
p21
tp22
bg2
(g3
(I0
tp23
g5
tp24
Rp25
(I1
(I1
I1
tp26
g12
I00
S'\xc2?<\xe9y=\xc5\xbf'
p27
tp28
btp29
sS'actual_rot'
p30
(F-0.5411764749633575
F-13.135467876808091
F-168.726897845585
tp31
sS'target_pos'
p32
(lp33
cnumpy.core.multiarray
scalar
p34
(g12
S'\xf1\xc23%XP\xab?'
p35
tp36
Rp37
ag34
(g12
S'f\x88\x02\xdb/\xec\xa3?'
p38
tp39
Rp40
ag34
(g12
S'\xa4\xfe\xd4N\x12E\xc5\xbf'
p41
tp42
Rp43
asS'target_rot'
p44
g2
(cnumpy
ndarray
p45
(I0
tp46
g5
tp47
Rp48
(I1
(I3
tp49
g12
I00
S'~\x98\t\xee@\xf3\xc4\xbf>\x9eN\x87\x0f"\'\xc0\xf0\x89\xf5\xf2\xb9\x1fe\xc0'
p50
tp51
bsS'center_target_pixels'
p52
(I882
I378
tp53
sS'center_actual_pixels'
p54
(I883
I374
tp55
s.(dp0
S'actual_pos'
p1
(cnumpy.core.multiarray
_reconstruct
p2
(cnumpy.matrixlib.defmatrix
matrix
p3
(I0
tp4
S'b'
p5
tp6
Rp7
(I1
(I1
I1
tp8
cnumpy
dtype
p9
(S'f8'
p10
I0
I1
tp11
Rp12
(I3
S'<'
p13
NNNI-1
I-1
I0
tp14
bI00
S'/\x15\x98&L2\xa3?'
p15
tp16
bg2
(g3
(I0
tp17
g5
tp18
Rp19
(I1
(I1
I1
tp20
g12
I00
S'\x1f\x08!\x04V\x9a\xa3?'
p21
tp22
bg2
(g3
(I0
tp23
g5
tp24
Rp25
(I1
(I1
I1
tp26
g12
I00
S'\xb0\xb0\x08s*\x05\xc5\xbf'
p27
tp28
btp29
sS'actual_rot'
p30
(F0.05881526663553085
F-10.364247646631899
F-169.81085981513087
tp31
sS'target_pos'
p32
(lp33
cnumpy.core.multiarray
scalar
p34
(g12
S'\xd9H\x9a\x08\x8f\x99\xa3?'
p35
tp36
Rp37
ag34
(g12
S'\xf2\x07e|\x0fW\xa3?'
p38
tp39
Rp40
ag34
(g12
S']{\x84\xff{\t\xc5\xbf'
p41
tp42
Rp43
asS'target_rot'
p44
g2
(cnumpy
ndarray
p45
(I0
tp46
g5
tp47
Rp48
(I1
(I3
tp49
g12
I00
S'~\x98\t\xee@\xf3\xc4\xbf>\x9eN\x87\x0f"\'\xc0\xf0\x89\xf5\xf2\xb9\x1fe\xc0'
p50
tp51
bsS'center_target_pixels'
p52
(I1059
I389
tp53
sS'center_actual_pixels'
p54
(I1060
I389
tp55
s.(dp0
S'actual_pos'
p1
(cnumpy.core.multiarray
_reconstruct
p2
(cnumpy.matrixlib.defmatrix
matrix
p3
(I0
tp4
S'b'
p5
tp6
Rp7
(I1
(I1
I1
tp8
cnumpy
dtype
p9
(S'f8'
p10
I0
I1
tp11
Rp12
(I3
S'<'
p13
NNNI-1
I-1
I0
tp14
bI00
S'([\xee\x91\xdef\x96?'
p15
tp16
bg2
(g3
(I0
tp17
g5
tp18
Rp19
(I1
(I1
I1
tp20
g12
I00
S"@\xd0'%+\xf1\xa2?"
p21
tp22
bg2
(g3
(I0
tp23
g5
tp24
Rp25
(I1
(I1
I1
tp26
g12
I00
S'\xcd{\xebJ+\xc8\xc4\xbf'
p27
tp28
btp29
sS'actual_rot'
p30
(F0.8320971960109939
F-7.115972071159999
F-170.84566611072333
tp31
sS'target_pos'
p32
(lp33
cnumpy.core.multiarray
scalar
p34
(g12
S'*\xc3a4K\x8d\x97?'
p35
tp36
Rp37
ag34
(g12
S'^\xb9\xbf\xeb\xfc\xbf\xa2?'
p38
tp39
Rp40
ag34
(g12
S'k\xc8\xa0R~\xcc\xc4\xbf'
p41
tp42
Rp43
asS'target_rot'
p44
g2
(cnumpy
ndarray
p45
(I0
tp46
g5
tp47
Rp48
(I1
(I3
tp49
g12
I00
S'~\x98\t\xee@\xf3\xc4\xbf>\x9eN\x87\x0f"\'\xc0\xf0\x89\xf5\xf2\xb9\x1fe\xc0'
p50
tp51
bsS'center_target_pixels'
p52
(I1236
I400
tp53
sS'center_actual_pixels'
p54
(I1239
I401
tp55
s.(dp0
S'actual_pos'
p1
(cnumpy.core.multiarray
_reconstruct
p2
(cnumpy.matrixlib.defmatrix
matrix
p3
(I0
tp4
S'b'
p5
tp6
Rp7
(I1
(I1
I1
tp8
cnumpy
dtype
p9
(S'f8'
p10
I0
I1
tp11
Rp12
(I3
S'<'
p13
NNNI-1
I-1
I0
tp14
bI00
S'P\x19\x0f\xa9\x1dAz?'
p15
tp16
bg2
(g3
(I0
tp17
g5
tp18
Rp19
(I1
(I1
I1
tp20
g12
I00
S'_\xd1\x86\xf4\xd5N\xa2?'
p21
tp22
bg2
(g3
(I0
tp23
g5
tp24
Rp25
(I1
(I1
I1
tp26
g12
I00
S'\x83\xf7\xce\x12\xeb\x8c\xc4\xbf'
p27
tp28
btp29
sS'actual_rot'
p30
(F1.0265920155108634
F-6.105383242875171
F-171.39244142310253
tp31
sS'target_pos'
p32
(lp33
cnumpy.core.multiarray
scalar
p34
(g12
S'\x90\x08\n\xa7\xeb\x7f\x7f?'
p35
tp36
Rp37
ag34
(g12
S'Tns\x00\xc3\x1e\xa2?'
p38
tp39
Rp40
ag34
(g12
S'X\xe1\xb1\xb0\xd0\x8e\xc4\xbf'
p41
tp42
Rp43
asS'target_rot'
p44
g2
(cnumpy
ndarray
p45
(I0
tp46
g5
tp47
Rp48
(I1
(I3
tp49
g12
I00
S'~\x98\t\xee@\xf3\xc4\xbf>\x9eN\x87\x0f"\'\xc0\xf0\x89\xf5\xf2\xb9\x1fe\xc0'
p50
tp51
bsS'center_target_pixels'
p52
(I1411
I410
tp53
sS'center_actual_pixels'
p54
(I1414
I412
tp55
s.(dp0
S'actual_pos'
p1
(cnumpy.core.multiarray
_reconstruct
p2
(cnumpy.matrixlib.defmatrix
matrix
p3
(I0
tp4
S'b'
p5
tp6
Rp7
(I1
(I1
I1
tp8
cnumpy
dtype
p9
(S'f8'
p10
I0
I1
tp11
Rp12
(I3
S'<'
p13
NNNI-1
I-1
I0
tp14
bI00
S'\x8e\x0cJ\xed\xbd\xef\xae?'
p15
tp16
bg2
(g3
(I0
tp17
g5
tp18
Rp19
(I1
(I1
I1
tp20
g12
I00
S'U\xcfuX^[\xa8?'
p21
tp22
bg2
(g3
(I0
tp23
g5
tp24
Rp25
(I1
(I1
I1
tp26
g12
I00
S'\x1d~\xf4.\x82_\xc5\xbf'
p27
tp28
btp29
sS'actual_rot'
p30
(F-1.1901681701877307
F-15.189228281713929
F-166.52002549734846
tp31
sS'target_pos'
p32
(lp33
cnumpy.core.multiarray
scalar
p34
(g12
S'\x08\xd7Z\x80\x15\xeb\xae?'
p35
tp36
Rp37
ag34
(g12
S'h\xb3\x1e1\xc3\x15\xa8?'
p38
tp39
Rp40
ag34
(g12
S'\xfa&\xcf\x8d\x05a\xc5\xbf'
p41
tp42
Rp43
asS'target_rot'
p44
g2
(cnumpy
ndarray
p45
(I0
tp46
g5
tp47
Rp48
(I1
(I3
tp49
g12
I00
S'~\x98\t\xee@\xf3\xc4\xbf>\x9eN\x87\x0f"\'\xc0\xf0\x89\xf5\xf2\xb9\x1fe\xc0'
p50
tp51
bsS'center_target_pixels'
p52
(I787
I461
tp53
sS'center_actual_pixels'
p54
(I784
I457
tp55
s.(dp0
S'actual_pos'
p1
(cnumpy.core.multiarray
_reconstruct
p2
(cnumpy.matrixlib.defmatrix
matrix
p3
(I0
tp4
S'b'
p5
tp6
Rp7
(I1
(I1
I1
tp8
cnumpy
dtype
p9
(S'f8'
p10
I0
I1
tp11
Rp12
(I3
S'<'
p13
NNNI-1
I-1
I0
tp14
bI00
S'\x7f\xec\xbdL\x8f\xf3\xa6?'
p15
tp16
bg2
(g3
(I0
tp17
g5
tp18
Rp19
(I1
(I1
I1
tp20
g12
I00
S'yS\xa1\xfb\xf9\xcf\xa7?'
p21
tp22
bg2
(g3
(I0
tp23
g5
tp24
Rp25
(I1
(I1
I1
tp26
g12
I00
S'\xa3\xaeF^\xc9\x1e\xc5\xbf'
p27
tp28
btp29
sS'actual_rot'
p30
(F-0.3386447020213006
F-12.099254819651357
F-167.6443807001266
tp31
sS'target_pos'
p32
(lp33
cnumpy.core.multiarray
scalar
p34
(g12
S'J\xfa\xe4\xc1\xc54\xa7?'
p35
tp36
Rp37
ag34
(g12
S'\xc6/.D`\x92\xa7?'
p38
tp39
Rp40
ag34
(g12
S'{U\x88\xad\xf5%\xc5\xbf'
p41
tp42
Rp43
asS'target_rot'
p44
g2
(cnumpy
ndarray
p45
(I0
tp46
g5
tp47
Rp48
(I1
(I3
tp49
g12
I00
S'~\x98\t\xee@\xf3\xc4\xbf>\x9eN\x87\x0f"\'\xc0\xf0\x89\xf5\xf2\xb9\x1fe\xc0'
p50
tp51
bsS'center_target_pixels'
p52
(I965
I473
tp53
sS'center_actual_pixels'
p54
(I967
I469
tp55
s.(dp0
S'actual_pos'
p1
(cnumpy.core.multiarray
_reconstruct
p2
(cnumpy.matrixlib.defmatrix
matrix
p3
(I0
tp4
S'b'
p5
tp6
Rp7
(I1
(I1
I1
tp8
cnumpy
dtype
p9
(S'f8'
p10
I0
I1
tp11
Rp12
(I3
S'<'
p13
NNNI-1
I-1
I0
tp14
bI00
S'\x05\xc7w\xc5U\x01\x9e?'
p15
tp16
bg2
(g3
(I0
tp17
g5
tp18
Rp19
(I1
(I1
I1
tp20
g12
I00
S'\xf8\xfd\xb2o}\x1b\xa7?'
p21
tp22
bg2
(g3
(I0
tp23
g5
tp24
Rp25
(I1
(I1
I1
tp26
g12
I00
S'\x991\xdb\xbb\xcf\xe4\xc4\xbf'
p27
tp28
btp29
sS'actual_rot'
p30
(F0.4107909444248933
F-9.249773225179815
F-168.97370087673096
tp31
sS'target_pos'
p32
(lp33
cnumpy.core.multiarray
scalar
p34
(g12
S'\x189\xaeC\xe4\xe2\x9e?'
p35
tp36
Rp37
ag34
(g12
S'\xd28\xceq\xe7\xec\xa6?'
p38
tp39
Rp40
ag34
(g12
S'm\xce\xb7\xc1\xf1\xe9\xc4\xbf'
p41
tp42
Rp43
asS'target_rot'
p44
g2
(cnumpy
ndarray
p45
(I0
tp46
g5
tp47
Rp48
(I1
(I3
tp49
g12
I00
S'~\x98\t\xee@\xf3\xc4\xbf>\x9eN\x87\x0f"\'\xc0\xf0\x89\xf5\xf2\xb9\x1fe\xc0'
p50
tp51
bsS'center_target_pixels'
p52
(I1142
I482
tp53
sS'center_actual_pixels'
p54
(I1145
I479
tp55
s.(dp0
S'actual_pos'
p1
(cnumpy.core.multiarray
_reconstruct
p2
(cnumpy.matrixlib.defmatrix
matrix
p3
(I0
tp4
S'b'
p5
tp6
Rp7
(I1
(I1
I1
tp8
cnumpy
dtype
p9
(S'f8'
p10
I0
I1
tp11
Rp12
(I3
S'<'
p13
NNNI-1
I-1
I0
tp14
bI00
S'_et\xf9\xa3\xc3\x8b?'
p15
tp16
bg2
(g3
(I0
tp17
g5
tp18
Rp19
(I1
(I1
I1
tp20
g12
I00
S'H\x84\xc7x\xf3\x82\xa6?'
p21
tp22
bg2
(g3
(I0
tp23
g5
tp24
Rp25
(I1
(I1
I1
tp26
g12
I00
S'\x17+\x90\xc1+\xa5\xc4\xbf'
p27
tp28
btp29
sS'actual_rot'
p30
(F1.0616568078557271
F-6.870365871012326
F-170.1027200520255
tp31
sS'target_pos'
p32
(lp33
cnumpy.core.multiarray
scalar
p34
(g12
S'\x00r}>\x9bA\x8e?'
p35
tp36
Rp37
ag34
(g12
S'$og\x96\x81P\xa6?'
p38
tp39
Rp40
ag34
(g12
S'p&\xc3\xe0x\xac\xc4\xbf'
p41
tp42
Rp43
asS'target_rot'
p44
g2
(cnumpy
ndarray
p45
(I0
tp46
g5
tp47
Rp48
(I1
(I3
tp49
g12
I00
S'~\x98\t\xee@\xf3\xc4\xbf>\x9eN\x87\x0f"\'\xc0\xf0\x89\xf5\xf2\xb9\x1fe\xc0'
p50
tp51
bsS'center_target_pixels'
p52
(I1319
I492
tp53
sS'center_actual_pixels'
p54
(I1324
I490
tp55
s.(dp0
S'actual_pos'
p1
(cnumpy.core.multiarray
_reconstruct
p2
(cnumpy.matrixlib.defmatrix
matrix
p3
(I0
tp4
S'b'
p5
tp6
Rp7
(I1
(I1
I1
tp8
cnumpy
dtype
p9
(S'f8'
p10
I0
I1
tp11
Rp12
(I3
S'<'
p13
NNNI-1
I-1
I0
tp14
bI00
S'p\xc8K\x98\xa3/\xb1?'
p15
tp16
bg2
(g3
(I0
tp17
g5
tp18
Rp19
(I1
(I1
I1
tp20
g12
I00
S'|\x05+\x14\x93c\xac?'
p21
tp22
bg2
(g3
(I0
tp23
g5
tp24
Rp25
(I1
(I1
I1
tp26
g12
I00
S'\x9aRD}Vo\xc5\xbf'
p27
tp28
btp29
sS'actual_rot'
p30
(F-1.5767695658916243
F-15.809990935594668
F-165.54348091246302
tp31
sS'target_pos'
p32
(lp33
cnumpy.core.multiarray
scalar
p34
(g12
S'\xedX\x10\x19q:\xb1?'
p35
tp36
Rp37
ag34
(g12
S'\xc1i\xc4 \xd76\xac?'
p38
tp39
Rp40
ag34
(g12
S'\xa8_\xcf\xe2\x01|\xc5\xbf'
p41
tp42
Rp43
asS'target_rot'
p44
g2
(cnumpy
ndarray
p45
(I0
tp46
g5
tp47
Rp48
(I1
(I3
tp49
g12
I00
S'~\x98\t\xee@\xf3\xc4\xbf>\x9eN\x87\x0f"\'\xc0\xf0\x89\xf5\xf2\xb9\x1fe\xc0'
p50
tp51
bsS'center_target_pixels'
p52
(I693
I544
tp53
sS'center_actual_pixels'
p54
(I697
I535
tp55
s.(dp0
S'actual_pos'
p1
(cnumpy.core.multiarray
_reconstruct
p2
(cnumpy.matrixlib.defmatrix
matrix
p3
(I0
tp4
S'b'
p5
tp6
Rp7
(I1
(I1
I1
tp8
cnumpy
dtype
p9
(S'f8'
p10
I0
I1
tp11
Rp12
(I3
S'<'
p13
NNNI-1
I-1
I0
tp14
bI00
S'\x99;w\xeb\x87\x94\xaa?'
p15
tp16
bg2
(g3
(I0
tp17
g5
tp18
Rp19
(I1
(I1
I1
tp20
g12
I00
S'\x8a0s\x9f\xf9\xd5\xab?'
p21
tp22
bg2
(g3
(I0
tp23
g5
tp24
Rp25
(I1
(I1
I1
tp26
g12
I00
S'\x89\x99\xac\x95\xe97\xc5\xbf'
p27
tp28
btp29
sS'actual_rot'
p30
(F-0.8693955860410846
F-13.568476803053692
F-166.01378114785416
tp31
sS'target_pos'
p32
(lp33
cnumpy.core.multiarray
scalar
p34
(g12
S'L\xbb\x01\xa5\x14\xcd\xaa?'
p35
tp36
Rp37
ag34
(g12
S'\xbf\x83\xf1\x84q\xb0\xab?'
p38
tp39
Rp40
ag34
(g12
S'\xe3\n\xa5@\xdeA\xc5\xbf'
p41
tp42
Rp43
asS'target_rot'
p44
g2
(cnumpy
ndarray
p45
(I0
tp46
g5
tp47
Rp48
(I1
(I3
tp49
g12
I00
S'~\x98\t\xee@\xf3\xc4\xbf>\x9eN\x87\x0f"\'\xc0\xf0\x89\xf5\xf2\xb9\x1fe\xc0'
p50
tp51
bsS'center_target_pixels'
p52
(I871
I555
tp53
sS'center_actual_pixels'
p54
(I873
I548
tp55
s.(dp0
S'actual_pos'
p1
(cnumpy.core.multiarray
_reconstruct
p2
(cnumpy.matrixlib.defmatrix
matrix
p3
(I0
tp4
S'b'
p5
tp6
Rp7
(I1
(I1
I1
tp8
cnumpy
dtype
p9
(S'f8'
p10
I0
I1
tp11
Rp12
(I3
S'<'
p13
NNNI-1
I-1
I0
tp14
bI00
S'-o5JX\xae\xa2?'
p15
tp16
bg2
(g3
(I0
tp17
g5
tp18
Rp19
(I1
(I1
I1
tp20
g12
I00
S'D{\xa1Y\x82B\xab?'
p21
tp22
bg2
(g3
(I0
tp23
g5
tp24
Rp25
(I1
(I1
I1
tp26
g12
I00
S'.U\xd6K|\x00\xc5\xbf'
p27
tp28
btp29
sS'actual_rot'
p30
(F0.004951598950315603
F-10.864300366313044
F-167.4428064538498
tp31
sS'target_pos'
p32
(lp33
cnumpy.core.multiarray
scalar
p34
(g12
S'~Q\x08N\x04\n\xa3?'
p35
tp36
Rp37
ag34
(g12
S'\xe1\xde\x1b&\xd8\x1c\xab?'
p38
tp39
Rp40
ag34
(g12
S'H\xccg\x15`\x06\xc5\xbf'
p41
tp42
Rp43
asS'target_rot'
p44
g2
(cnumpy
ndarray
p45
(I0
tp46
g5
tp47
Rp48
(I1
(I3
tp49
g12
I00
S'~\x98\t\xee@\xf3\xc4\xbf>\x9eN\x87\x0f"\'\xc0\xf0\x89\xf5\xf2\xb9\x1fe\xc0'
p50
tp51
bsS'center_target_pixels'
p52
(I1049
I565
tp53
sS'center_actual_pixels'
p54
(I1053
I560
tp55
s.(dp0
S'actual_pos'
p1
(cnumpy.core.multiarray
_reconstruct
p2
(cnumpy.matrixlib.defmatrix
matrix
p3
(I0
tp4
S'b'
p5
tp6
Rp7
(I1
(I1
I1
tp8
cnumpy
dtype
p9
(S'f8'
p10
I0
I1
tp11
Rp12
(I3
S'<'
p13
NNNI-1
I-1
I0
tp14
bI00
S'n\xc1\xce\xc4\x1fk\x95?'
p15
tp16
bg2
(g3
(I0
tp17
g5
tp18
Rp19
(I1
(I1
I1
tp20
g12
I00
S'v\x13\xba\x92+\xae\xaa?'
p21
tp22
bg2
(g3
(I0
tp23
g5
tp24
Rp25
(I1
(I1
I1
tp26
g12
I00
S'\xea)\xb3A4\xc4\xc4\xbf'
p27
tp28
btp29
sS'actual_rot'
p30
(F0.9065579210617783
F-8.067287632573048
F-168.94516434821801
tp31
sS'target_pos'
p32
(lp33
cnumpy.core.multiarray
scalar
p34
(g12
S"\xd8\xf7\xc4'\xb1\x81\x96?"
p35
tp36
Rp37
ag34
(g12
S'\xff\x15\xc6E\x12\x8a\xaa?'
p38
tp39
Rp40
ag34
(g12
S'E\x97\x055&\xca\xc4\xbf'
p41
tp42
Rp43
asS'target_rot'
p44
g2
(cnumpy
ndarray
p45
(I0
tp46
g5
tp47
Rp48
(I1
(I3
tp49
g12
I00
S'~\x98\t\xee@\xf3\xc4\xbf>\x9eN\x87\x0f"\'\xc0\xf0\x89\xf5\xf2\xb9\x1fe\xc0'
p50
tp51
bsS'center_target_pixels'
p52
(I1225
I575
tp53
sS'center_actual_pixels'
p54
(I1233
I565
tp55
s.(dp0
S'actual_pos'
p1
(cnumpy.core.multiarray
_reconstruct
p2
(cnumpy.matrixlib.defmatrix
matrix
p3
(I0
tp4
S'b'
p5
tp6
Rp7
(I1
(I1
I1
tp8
cnumpy
dtype
p9
(S'f8'
p10
I0
I1
tp11
Rp12
(I3
S'<'
p13
NNNI-1
I-1
I0
tp14
bI00
S'Q\xc1\x14\xc7\xb8\xc4t?'
p15
tp16
bg2
(g3
(I0
tp17
g5
tp18
Rp19
(I1
(I1
I1
tp20
g12
I00
S'\x17\xf9%\xa5C?\xaa?'
p21
tp22
bg2
(g3
(I0
tp23
g5
tp24
Rp25
(I1
(I1
I1
tp26
g12
I00
S'\xc4n\xe6\xd0\xb4\x84\xc4\xbf'
p27
tp28
btp29
sS'actual_rot'
p30
(F1.4427598187768405
F-6.423147743582496
F-169.69652135122402
tp31
sS'target_pos'
p32
(lp33
cnumpy.core.multiarray
scalar
p34
(g12
S'`\x97\x95\xba9\xf4y?'
p35
tp36
Rp37
ag34
(g12
S'\xcc\xcb\xaf@\xca\x1f\xaa?'
p38
tp39
Rp40
ag34
(g12
S'Y\xca!t\xaa\x8b\xc4\xbf'
p41
tp42
Rp43
asS'target_rot'
p44
g2
(cnumpy
ndarray
p45
(I0
tp46
g5
tp47
Rp48
(I1
(I3
tp49
g12
I00
S'~\x98\t\xee@\xf3\xc4\xbf>\x9eN\x87\x0f"\'\xc0\xf0\x89\xf5\xf2\xb9\x1fe\xc0'
p50
tp51
bsS'center_target_pixels'
p52
(I1403
I589
tp53
sS'center_actual_pixels'
p54
(I1410
I582
tp55
s.(dp0
S'actual_pos'
p1
(cnumpy.core.multiarray
_reconstruct
p2
(cnumpy.matrixlib.defmatrix
matrix
p3
(I0
tp4
S'b'
p5
tp6
Rp7
(I1
(I1
I1
tp8
cnumpy
dtype
p9
(S'f8'
p10
I0
I1
tp11
Rp12
(I3
S'<'
p13
NNNI-1
I-1
I0
tp14
bI00
S'\xf6\xcd\xc2\xe1c]\xae?'
p15
tp16
bg2
(g3
(I0
tp17
g5
tp18
Rp19
(I1
(I1
I1
tp20
g12
I00
S'}Tv[\x03\xe7\xaf?'
p21
tp22
bg2
(g3
(I0
tp23
g5
tp24
Rp25
(I1
(I1
I1
tp26
g12
I00
S'|\xdd\xdd4\x83S\xc5\xbf'
p27
tp28
btp29
sS'actual_rot'
p30
(F-1.7542158210119931
F-15.735006742210592
F-164.8952277232605
tp31
sS'target_pos'
p32
(lp33
cnumpy.core.multiarray
scalar
p34
(g12
S'\x961\xd7\x12\x05^\xae?'
p35
tp36
Rp37
ag34
(g12
S'\xcb\xe9\xcbd\xa1\xd2\xaf?'
p38
tp39
Rp40
ag34
(g12
S'ML\x13\xec\x19]\xc5\xbf'
p41
tp42
Rp43
asS'target_rot'
p44
g2
(cnumpy
ndarray
p45
(I0
tp46
g5
tp47
Rp48
(I1
(I3
tp49
g12
I00
S'~\x98\t\xee@\xf3\xc4\xbf>\x9eN\x87\x0f"\'\xc0\xf0\x89\xf5\xf2\xb9\x1fe\xc0'
p50
tp51
bsS'center_target_pixels'
p52
(I777
I638
tp53
sS'center_actual_pixels'
p54
(I778
I621
tp55
s.(dp0
S'actual_pos'
p1
(cnumpy.core.multiarray
_reconstruct
p2
(cnumpy.matrixlib.defmatrix
matrix
p3
(I0
tp4
S'b'
p5
tp6
Rp7
(I1
(I1
I1
tp8
cnumpy
dtype
p9
(S'f8'
p10
I0
I1
tp11
Rp12
(I3
S'<'
p13
NNNI-1
I-1
I0
tp14
bI00
S'PaQ\x0e7v\xa6?'
p15
tp16
bg2
(g3
(I0
tp17
g5
tp18
Rp19
(I1
(I1
I1
tp20
g12
I00
S'\x02\xaa\xe4w\xb5b\xaf?'
p21
tp22
bg2
(g3
(I0
tp23
g5
tp24
Rp25
(I1
(I1
I1
tp26
g12
I00
S'\xbc\xe9\x1el\xeb\x1a\xc5\xbf'
p27
tp28
btp29
sS'actual_rot'
p30
(F-0.6795416966766785
F-12.82739961712761
F-165.91647113060307
tp31
sS'target_pos'
p32
(lp33
cnumpy.core.multiarray
scalar
p34
(g12
S'\xc3\xea}V\x11\xa8\xa6?'
p35
tp36
Rp37
ag34
(g12
S'\xe6\x18\x03\xcfQG\xaf?'
p38
tp39
Rp40
ag34
(g12
S'G\x03\x13t\x80"\xc5\xbf'
p41
tp42
Rp43
asS'target_rot'
p44
g2
(cnumpy
ndarray
p45
(I0
tp46
g5
tp47
Rp48
(I1
(I3
tp49
g12
I00
S'~\x98\t\xee@\xf3\xc4\xbf>\x9eN\x87\x0f"\'\xc0\xf0\x89\xf5\xf2\xb9\x1fe\xc0'
p50
tp51
bsS'center_target_pixels'
p52
(I955
I648
tp53
sS'center_actual_pixels'
p54
(I957
I635
tp55
s.(dp0
S'actual_pos'
p1
(cnumpy.core.multiarray
_reconstruct
p2
(cnumpy.matrixlib.defmatrix
matrix
p3
(I0
tp4
S'b'
p5
tp6
Rp7
(I1
(I1
I1
tp8
cnumpy
dtype
p9
(S'f8'
p10
I0
I1
tp11
Rp12
(I3
S'<'
p13
NNNI-1
I-1
I0
tp14
bI00
S'\x85\xdb\x8dR\x8a\t\x9d?'
p15
tp16
bg2
(g3
(I0
tp17
g5
tp18
Rp19
(I1
(I1
I1
tp20
g12
I00
S':;L(N\xce\xae?'
p21
tp22
bg2
(g3
(I0
tp23
g5
tp24
Rp25
(I1
(I1
I1
tp26
g12
I00
S'\xb0<\x18\x1e=\xe0\xc4\xbf'
p27
tp28
btp29
sS'actual_rot'
p30
(F0.21550214088735237
F-10.382865372769261
F-166.4470835470144
tp31
sS'target_pos'
p32
(lp33
cnumpy.core.multiarray
scalar
p34
(g12
S'\xfa\x7f\xed\x19\xe3\xc3\x9d?'
p35
tp36
Rp37
ag34
(g12
S'N\xbf\x1d\xdc\x07\xb0\xae?'
p38
tp39
Rp40
ag34
(g12
S'\xb0g\x88B\xdf\xe6\xc4\xbf'
p41
tp42
Rp43
asS'target_rot'
p44
g2
(cnumpy
ndarray
p45
(I0
tp46
g5
tp47
Rp48
(I1
(I3
tp49
g12
I00
S'~\x98\t\xee@\xf3\xc4\xbf>\x9eN\x87\x0f"\'\xc0\xf0\x89\xf5\xf2\xb9\x1fe\xc0'
p50
tp51
bsS'center_target_pixels'
p52
(I1132
I657
tp53
sS'center_actual_pixels'
p54
(I1136
I642
tp55
s.(dp0
S'actual_pos'
p1
(cnumpy.core.multiarray
_reconstruct
p2
(cnumpy.matrixlib.defmatrix
matrix
p3
(I0
tp4
S'b'
p5
tp6
Rp7
(I1
(I1
I1
tp8
cnumpy
dtype
p9
(S'f8'
p10
I0
I1
tp11
Rp12
(I3
S'<'
p13
NNNI-1
I-1
I0
tp14
bI00
S'\xf1\xed:\x81aB\x8a?'
p15
tp16
bg2
(g3
(I0
tp17
g5
tp18
Rp19
(I1
(I1
I1
tp20
g12
I00
S'3\x8e%\x8d\xf69\xae?'
p21
tp22
bg2
(g3
(I0
tp23
g5
tp24
Rp25
(I1
(I1
I1
tp26
g12
I00
S'\xee\xfb\r\xe9P\xa3\xc4\xbf'
p27
tp28
btp29
sS'actual_rot'
p30
(F0.8998772647227611
F-8.519182089086414
F-168.39038425335522
tp31
sS'target_pos'
p32
(lp33
cnumpy.core.multiarray
scalar
p34
(g12
S'|\x02\xa5\x1c\x98$\x8c?'
p35
tp36
Rp37
ag34
(g12
S'a\xa2jEI#\xae?'
p38
tp39
Rp40
ag34
(g12
S'O\xfc\x94\xdc!\xaa\xc4\xbf'
p41
tp42
Rp43
asS'target_rot'
p44
g2
(cnumpy
ndarray
p45
(I0
tp46
g5
tp47
Rp48
(I1
(I3
tp49
g12
I00
S'~\x98\t\xee@\xf3\xc4\xbf>\x9eN\x87\x0f"\'\xc0\xf0\x89\xf5\xf2\xb9\x1fe\xc0'
p50
tp51
bsS'center_target_pixels'
p52
(I1308
I667
tp53
sS'center_actual_pixels'
p54
(I1313
I656
tp55
s.(dp0
S'actual_pos'
p1
(cnumpy.core.multiarray
_reconstruct
p2
(cnumpy.matrixlib.defmatrix
matrix
p3
(I0
tp4
S'b'
p5
tp6
Rp7
(I1
(I1
I1
tp8
cnumpy
dtype
p9
(S'f8'
p10
I0
I1
tp11
Rp12
(I3
S'<'
p13
NNNI-1
I-1
I0
tp14
bI00
S'\xb2\xd9\xc9\xffe\xf4\xb0?'
p15
tp16
bg2
(g3
(I0
tp17
g5
tp18
Rp19
(I1
(I1
I1
tp20
g12
I00
S'\x18\x94\x1f\x13 \r\xb2?'
p21
tp22
bg2
(g3
(I0
tp23
g5
tp24
Rp25
(I1
(I1
I1
tp26
g12
I00
S'\x1a\xb5aN*j\xc5\xbf'
p27
tp28
btp29
sS'actual_rot'
p30
(F-2.0734019202170106
F-15.975029006313072
F-163.89413930324733
tp31
sS'target_pos'
p32
(lp33
cnumpy.core.multiarray
scalar
p34
(g12
S'\x14\xcdi\xa9v\xf8\xb0?'
p35
tp36
Rp37
ag34
(g12
S'\xa3\xf3D\xdf\x8e\x02\xb2?'
p38
tp39
Rp40
ag34
(g12
S'\xf3\x05R\xbf\xeew\xc5\xbf'
p41
tp42
Rp43
asS'target_rot'
p44
g2
(cnumpy
ndarray
p45
(I0
tp46
g5
tp47
Rp48
(I1
(I3
tp49
g12
I00
S'~\x98\t\xee@\xf3\xc4\xbf>\x9eN\x87\x0f"\'\xc0\xf0\x89\xf5\xf2\xb9\x1fe\xc0'
p50
tp51
bsS'center_target_pixels'
p52
(I682
I723
tp53
sS'center_actual_pixels'
p54
(I688
I706
tp55
s.(dp0
S'actual_pos'
p1
(cnumpy.core.multiarray
_reconstruct
p2
(cnumpy.matrixlib.defmatrix
matrix
p3
(I0
tp4
S'b'
p5
tp6
Rp7
(I1
(I1
I1
tp8
cnumpy
dtype
p9
(S'f8'
p10
I0
I1
tp11
Rp12
(I3
S'<'
p13
NNNI-1
I-1
I0
tp14
bI00
S'\xbf\x08\xc67\xe2\x0e\xaa?'
p15
tp16
bg2
(g3
(I0
tp17
g5
tp18
Rp19
(I1
(I1
I1
tp20
g12
I00
S'\x1c\xf8/P\xf2\xc8\xb1?'
p21
tp22
bg2
(g3
(I0
tp23
g5
tp24
Rp25
(I1
(I1
I1
tp26
g12
I00
S'\x00-\xde\x83\xc34\xc5\xbf'
p27
tp28
btp29
sS'actual_rot'
p30
(F-1.005054476229336
F-13.424398375341665
F-164.88082778073777
tp31
sS'target_pos'
p32
(lp33
cnumpy.core.multiarray
scalar
p34
(g12
S',\x19\xc2\x0c\xc8>\xaa?'
p35
tp36
Rp37
ag34
(g12
S'yM)\xc5\xe7\xba\xb1?'
p38
tp39
Rp40
ag34
(g12
S'\x0c\xba\xbd\xfb\xf1=\xc5\xbf'
p41
tp42
Rp43
asS'target_rot'
p44
g2
(cnumpy
ndarray
p45
(I0
tp46
g5
tp47
Rp48
(I1
(I3
tp49
g12
I00
S'~\x98\t\xee@\xf3\xc4\xbf>\x9eN\x87\x0f"\'\xc0\xf0\x89\xf5\xf2\xb9\x1fe\xc0'
p50
tp51
bsS'center_target_pixels'
p52
(I861
I732
tp53
sS'center_actual_pixels'
p54
(I867
I714
tp55
s.(dp0
S'actual_pos'
p1
(cnumpy.core.multiarray
_reconstruct
p2
(cnumpy.matrixlib.defmatrix
matrix
p3
(I0
tp4
S'b'
p5
tp6
Rp7
(I1
(I1
I1
tp8
cnumpy
dtype
p9
(S'f8'
p10
I0
I1
tp11
Rp12
(I3
S'<'
p13
NNNI-1
I-1
I0
tp14
bI00
S'\xfb\xed\xf8\xbbm\x1d\xa2?'
p15
tp16
bg2
(g3
(I0
tp17
g5
tp18
Rp19
(I1
(I1
I1
tp20
g12
I00
S'+\xb9\x9d\xe5J}\xb1?'
p21
tp22
bg2
(g3
(I0
tp23
g5
tp24
Rp25
(I1
(I1
I1
tp26
g12
I00
S'v\xcb\xb1e\x88\xfa\xc4\xbf'
p27
tp28
btp29
sS'actual_rot'
p30
(F0.07968907798254829
F-10.792720764971481
F-165.9453016537818
tp31
sS'target_pos'
p32
(lp33
cnumpy.core.multiarray
scalar
p34
(g12
S'0\xe1\x106\x88z\xa2?'
p35
tp36
Rp37
ag34
(g12
S'\xa2:\x85\xf6\xc9r\xb1?'
p38
tp39
Rp40
ag34
(g12
S'\xe6\x7f=I\xe1\x02\xc5\xbf'
p41
tp42
Rp43
asS'target_rot'
p44
g2
(cnumpy
ndarray
p45
(I0
tp46
g5
tp47
Rp48
(I1
(I3
tp49
g12
I00
S'~\x98\t\xee@\xf3\xc4\xbf>\x9eN\x87\x0f"\'\xc0\xf0\x89\xf5\xf2\xb9\x1fe\xc0'
p50
tp51
bsS'center_target_pixels'
p52
(I1039
I741
tp53
sS'center_actual_pixels'
p54
(I1049
I725
tp55
s.(dp0
S'actual_pos'
p1
(cnumpy.core.multiarray
_reconstruct
p2
(cnumpy.matrixlib.defmatrix
matrix
p3
(I0
tp4
S'b'
p5
tp6
Rp7
(I1
(I1
I1
tp8
cnumpy
dtype
p9
(S'f8'
p10
I0
I1
tp11
Rp12
(I3
S'<'
p13
NNNI-1
I-1
I0
tp14
bI00
S'\x17\xfb\x9d\xf6\x88p\x94?'
p15
tp16
bg2
(g3
(I0
tp17
g5
tp18
Rp19
(I1
(I1
I1
tp20
g12
I00
S'\x01\x8a\x83\xe6o4\xb1?'
p21
tp22
bg2
(g3
(I0
tp23
g5
tp24
Rp25
(I1
(I1
I1
tp26
g12
I00
S'\xc9k\x94\x18\x0b\xbf\xc4\xbf'
p27
tp28
btp29
sS'actual_rot'
p30
(F0.895639089849599
F-8.861909510429893
F-167.55927488911533
tp31
sS'target_pos'
p32
(lp33
cnumpy.core.multiarray
scalar
p34
(g12
S'\x82\xb6\xd0L\xce_\x95?'
p35
tp36
Rp37
ag34
(g12
S'H\x85\xff\x8b\xed*\xb1?'
p38
tp39
Rp40
ag34
(g12
S'NC`\\\x13\xc7\xc4\xbf'
p41
tp42
Rp43
asS'target_rot'
p44
g2
(cnumpy
ndarray
p45
(I0
tp46
g5
tp47
Rp48
(I1
(I3
tp49
g12
I00
S'~\x98\t\xee@\xf3\xc4\xbf>\x9eN\x87\x0f"\'\xc0\xf0\x89\xf5\xf2\xb9\x1fe\xc0'
p50
tp51
bsS'center_target_pixels'
p52
(I1215
I750
tp53
sS'center_actual_pixels'
p54
(I1224
I736
tp55
s.(dp0
S'actual_pos'
p1
(cnumpy.core.multiarray
_reconstruct
p2
(cnumpy.matrixlib.defmatrix
matrix
p3
(I0
tp4
S'b'
p5
tp6
Rp7
(I1
(I1
I1
tp8
cnumpy
dtype
p9
(S'f8'
p10
I0
I1
tp11
Rp12
(I3
S'<'
p13
NNNI-1
I-1
I0
tp14
bI00
S'\x0e\xaaU\x18\\\xadq?'
p15
tp16
bg2
(g3
(I0
tp17
g5
tp18
Rp19
(I1
(I1
I1
tp20
g12
I00
S'\x9e\x8a\xe4@y\xec\xb0?'
p21
tp22
bg2
(g3
(I0
tp23
g5
tp24
Rp25
(I1
(I1
I1
tp26
g12
I00
S'WA\xf9Eh\x85\xc4\xbf'
p27
tp28
btp29
sS'actual_rot'
p30
(F1.6280671625025505
F-7.129800893625829
F-169.19354964664052
tp31
sS'target_pos'
p32
(lp33
cnumpy.core.multiarray
scalar
p34
(g12
S' \\\x00\xb7RFv?'
p35
tp36
Rp37
ag34
(g12
S'\x03n_y\xf2\xe1\xb0?'
p38
tp39
Rp40
ag34
(g12
S'\x1f\x82\xe0\xb8\xda\x89\xc4\xbf'
p41
tp42
Rp43
asS'target_rot'
p44
g2
(cnumpy
ndarray
p45
(I0
tp46
g5
tp47
Rp48
(I1
(I3
tp49
g12
I00
S'~\x98\t\xee@\xf3\xc4\xbf>\x9eN\x87\x0f"\'\xc0\xf0\x89\xf5\xf2\xb9\x1fe\xc0'
p50
tp51
bsS'center_target_pixels'
p52
(I1391
I759
tp53
sS'center_actual_pixels'
p54
(I1399
I744
tp55
s.