(dp0
S'actual_pos'
p1
(cnumpy.core.multiarray
_reconstruct
p2
(cnumpy.matrixlib.defmatrix
matrix
p3
(I0
tp4
S'b'
p5
tp6
Rp7
(I1
(I1
I1
tp8
cnumpy
dtype
p9
(S'f8'
p10
I0
I1
tp11
Rp12
(I3
S'<'
p13
NNNI-1
I-1
I0
tp14
bI00
S"'\x10\x98\xd5]\xba\xb0?"
p15
tp16
bg2
(g3
(I0
tp17
g5
tp18
Rp19
(I1
(I1
I1
tp20
g12
I00
S'#E\xa6\x91W\xf1\x92?'
p21
tp22
bg2
(g3
(I0
tp23
g5
tp24
Rp25
(I1
(I1
I1
tp26
g12
I00
S'4\xc0"B\x03\xdf\xc5\xbf'
p27
tp28
btp29
sS'actual_rot'
p30
(F-0.0027655388173137936
F-13.058094292403492
F-170.75831955539005
tp31
sS'target_pos'
p32
(lp33
cnumpy.core.multiarray
scalar
p34
(g12
S'/\xc9\xf1\xad\x1b\xdf\xb0?'
p35
tp36
Rp37
ag34
(g12
S'\xdf\x04I\xff\xcfY\x92?'
p38
tp39
Rp40
ag34
(g12
S'\xc5Y\xa5p\xcb\xe2\xc5\xbf'
p41
tp42
Rp43
asS'target_rot'
p44
g2
(cnumpy
ndarray
p45
(I0
tp46
g5
tp47
Rp48
(I1
(I3
tp49
g12
I00
S'C\xc7\xe7\xe7\x91\t\xb4?\xf5\x11>!\xe6d(\xc0a@\tTb4e\xc0'
p50
tp51
bsS'center_target_pixels'
p52
(I795
I96
tp53
sS'center_actual_pixels'
p54
(I780
I95
tp55
s.(dp0
S'actual_pos'
p1
(cnumpy.core.multiarray
_reconstruct
p2
(cnumpy.matrixlib.defmatrix
matrix
p3
(I0
tp4
S'b'
p5
tp6
Rp7
(I1
(I1
I1
tp8
cnumpy
dtype
p9
(S'f8'
p10
I0
I1
tp11
Rp12
(I3
S'<'
p13
NNNI-1
I-1
I0
tp14
bI00
S'`\x17.\xd2\xa0V\xa9?'
p15
tp16
bg2
(g3
(I0
tp17
g5
tp18
Rp19
(I1
(I1
I1
tp20
g12
I00
S'X\xccL_\x9c&\x91?'
p21
tp22
bg2
(g3
(I0
tp23
g5
tp24
Rp25
(I1
(I1
I1
tp26
g12
I00
S'h\xf8y\xfe7\xa5\xc5\xbf'
p27
tp28
btp29
sS'actual_rot'
p30
(F0.13252295631708785
F-11.535360392867501
F-172.87651542004355
tp31
sS'target_pos'
p32
(lp33
cnumpy.core.multiarray
scalar
p34
(g12
S'\x99\x92\x9b&\x1f\xbf\xa9?'
p35
tp36
Rp37
ag34
(g12
S'\xb9\t\x98\xc7\xcc\x9e\x90?'
p38
tp39
Rp40
ag34
(g12
S'\x1d\x9e>\xbe\xe3\xa8\xc5\xbf'
p41
tp42
Rp43
asS'target_rot'
p44
g2
(cnumpy
ndarray
p45
(I0
tp46
g5
tp47
Rp48
(I1
(I3
tp49
g12
I00
S'C\xc7\xe7\xe7\x91\t\xb4?\xf5\x11>!\xe6d(\xc0a@\tTb4e\xc0'
p50
tp51
bsS'center_target_pixels'
p52
(I974
I105
tp53
sS'center_actual_pixels'
p54
(I958
I102
tp55
s.(dp0
S'actual_pos'
p1
(cnumpy.core.multiarray
_reconstruct
p2
(cnumpy.matrixlib.defmatrix
matrix
p3
(I0
tp4
S'b'
p5
tp6
Rp7
(I1
(I1
I1
tp8
cnumpy
dtype
p9
(S'f8'
p10
I0
I1
tp11
Rp12
(I3
S'<'
p13
NNNI-1
I-1
I0
tp14
bI00
S'\x93\xddr\\i)\xa1?'
p15
tp16
bg2
(g3
(I0
tp17
g5
tp18
Rp19
(I1
(I1
I1
tp20
g12
I00
S'>\xe3\xb7\x0c$\xbe\x8e?'
p21
tp22
bg2
(g3
(I0
tp23
g5
tp24
Rp25
(I1
(I1
I1
tp26
g12
I00
S'\xe4\xbf\x13\xc4\x0ek\xc5\xbf'
p27
tp28
btp29
sS'actual_rot'
p30
(F0.3457860300807035
F-8.953855159798566
F-173.8684137956873
tp31
sS'target_pos'
p32
(lp33
cnumpy.core.multiarray
scalar
p34
(g12
S'\x06\x81\xc1\x16\n\xc1\xa1?'
p35
tp36
Rp37
ag34
(g12
S'\x9a\x1eo\xed\xa3q\x8d?'
p38
tp39
Rp40
ag34
(g12
S'\x1e\x19\xda\xe9\xacn\xc5\xbf'
p41
tp42
Rp43
asS'target_rot'
p44
g2
(cnumpy
ndarray
p45
(I0
tp46
g5
tp47
Rp48
(I1
(I3
tp49
g12
I00
S'C\xc7\xe7\xe7\x91\t\xb4?\xf5\x11>!\xe6d(\xc0a@\tTb4e\xc0'
p50
tp51
bsS'center_target_pixels'
p52
(I1150
I112
tp53
sS'center_actual_pixels'
p54
(I1142
I111
tp55
s.(dp0
S'actual_pos'
p1
(cnumpy.core.multiarray
_reconstruct
p2
(cnumpy.matrixlib.defmatrix
matrix
p3
(I0
tp4
S'b'
p5
tp6
Rp7
(I1
(I1
I1
tp8
cnumpy
dtype
p9
(S'f8'
p10
I0
I1
tp11
Rp12
(I3
S'<'
p13
NNNI-1
I-1
I0
tp14
bI00
S'\xe6~X>\xa9\xd4\x91?'
p15
tp16
bg2
(g3
(I0
tp17
g5
tp18
Rp19
(I1
(I1
I1
tp20
g12
I00
S'\xd8\x8dO\x10\x13\xda\x8a?'
p21
tp22
bg2
(g3
(I0
tp23
g5
tp24
Rp25
(I1
(I1
I1
tp26
g12
I00
S'\x06\x8a>\x9f\xe9.\xc5\xbf'
p27
tp28
btp29
sS'actual_rot'
p30
(F0.4596352649752282
F-6.7551509393178995
F-174.24612424864253
tp31
sS'target_pos'
p32
(lp33
cnumpy.core.multiarray
scalar
p34
(g12
S'ud\x9b\x8d|1\x93?'
p35
tp36
Rp37
ag34
(g12
S'\xe6A\xf1Q\xf8\xc4\x89?'
p38
tp39
Rp40
ag34
(g12
S'\xef\xc0\xb8\xf2\xf32\xc5\xbf'
p41
tp42
Rp43
asS'target_rot'
p44
g2
(cnumpy
ndarray
p45
(I0
tp46
g5
tp47
Rp48
(I1
(I3
tp49
g12
I00
S'C\xc7\xe7\xe7\x91\t\xb4?\xf5\x11>!\xe6d(\xc0a@\tTb4e\xc0'
p50
tp51
bsS'center_target_pixels'
p52
(I1326
I120
tp53
sS'center_actual_pixels'
p54
(I1329
I120
tp55
s.(dp0
S'actual_pos'
p1
(cnumpy.core.multiarray
_reconstruct
p2
(cnumpy.matrixlib.defmatrix
matrix
p3
(I0
tp4
S'b'
p5
tp6
Rp7
(I1
(I1
I1
tp8
cnumpy
dtype
p9
(S'f8'
p10
I0
I1
tp11
Rp12
(I3
S'<'
p13
NNNI-1
I-1
I0
tp14
bI00
S'\x06\xe9B\xeaF\x92\xb2?'
p15
tp16
bg2
(g3
(I0
tp17
g5
tp18
Rp19
(I1
(I1
I1
tp20
g12
I00
S'\xcc\x807*\x82\xaf\x9b?'
p21
tp22
bg2
(g3
(I0
tp23
g5
tp24
Rp25
(I1
(I1
I1
tp26
g12
I00
S'\xc9\x96\xb4\xc8$\xf2\xc5\xbf'
p27
tp28
btp29
sS'actual_rot'
p30
(F-0.3869783568310202
F-15.183558022288889
F-169.0204079526879
tp31
sS'target_pos'
p32
(lp33
cnumpy.core.multiarray
scalar
p34
(g12
S'\x83\x1a\xcf\xed!\xae\xb2?'
p35
tp36
Rp37
ag34
(g12
S'M\xa5\x01\xdb\x86B\x9b?'
p38
tp39
Rp40
ag34
(g12
S'7\xd7\xc3\x1c\xe2\xf9\xc5\xbf'
p41
tp42
Rp43
asS'target_rot'
p44
g2
(cnumpy
ndarray
p45
(I0
tp46
g5
tp47
Rp48
(I1
(I3
tp49
g12
I00
S'C\xc7\xe7\xe7\x91\t\xb4?\xf5\x11>!\xe6d(\xc0a@\tTb4e\xc0'
p50
tp51
bsS'center_target_pixels'
p52
(I701
I181
tp53
sS'center_actual_pixels'
p54
(I688
I182
tp55
s.(dp0
S'actual_pos'
p1
(cnumpy.core.multiarray
_reconstruct
p2
(cnumpy.matrixlib.defmatrix
matrix
p3
(I0
tp4
S'b'
p5
tp6
Rp7
(I1
(I1
I1
tp8
cnumpy
dtype
p9
(S'f8'
p10
I0
I1
tp11
Rp12
(I3
S'<'
p13
NNNI-1
I-1
I0
tp14
bI00
S'\xfe\xb2\x06$\x19\x06\xad?'
p15
tp16
bg2
(g3
(I0
tp17
g5
tp18
Rp19
(I1
(I1
I1
tp20
g12
I00
S'\xd4\xe0,P\x8d\x07\x9a?'
p21
tp22
bg2
(g3
(I0
tp23
g5
tp24
Rp25
(I1
(I1
I1
tp26
g12
I00
S'7W\xae\xefN\xbc\xc5\xbf'
p27
tp28
btp29
sS'actual_rot'
p30
(F0.03820777251301628
F-12.390123378788385
F-170.85795417642447
tp31
sS'target_pos'
p32
(lp33
cnumpy.core.multiarray
scalar
p34
(g12
S'\xe9\xef\xa6\xa4\xa9c\xad?'
p35
tp36
Rp37
ag34
(g12
S')\xc6Q=\x02\x9a\x99?'
p38
tp39
Rp40
ag34
(g12
S'G\t\xf4\xa2\x93\xc0\xc5\xbf'
p41
tp42
Rp43
asS'target_rot'
p44
g2
(cnumpy
ndarray
p45
(I0
tp46
g5
tp47
Rp48
(I1
(I3
tp49
g12
I00
S'C\xc7\xe7\xe7\x91\t\xb4?\xf5\x11>!\xe6d(\xc0a@\tTb4e\xc0'
p50
tp51
bsS'center_target_pixels'
p52
(I881
I190
tp53
sS'center_actual_pixels'
p54
(I865
I186
tp55
s.(dp0
S'actual_pos'
p1
(cnumpy.core.multiarray
_reconstruct
p2
(cnumpy.matrixlib.defmatrix
matrix
p3
(I0
tp4
S'b'
p5
tp6
Rp7
(I1
(I1
I1
tp8
cnumpy
dtype
p9
(S'f8'
p10
I0
I1
tp11
Rp12
(I3
S'<'
p13
NNNI-1
I-1
I0
tp14
bI00
S'/\xb8q\x9d|\xe5\xa4?'
p15
tp16
bg2
(g3
(I0
tp17
g5
tp18
Rp19
(I1
(I1
I1
tp20
g12
I00
S'\x00\xfe\xa9\xe1\xc2F\x98?'
p21
tp22
bg2
(g3
(I0
tp23
g5
tp24
Rp25
(I1
(I1
I1
tp26
g12
I00
S'\xb6:f\xb7\x96\x81\xc5\xbf'
p27
tp28
btp29
sS'actual_rot'
p30
(F0.2982081459235268
F-10.45788453317122
F-172.4973890980633
tp31
sS'target_pos'
p32
(lp33
cnumpy.core.multiarray
scalar
p34
(g12
S'\xa5\xebR\xdf\xdb\\\xa5?'
p35
tp36
Rp37
ag34
(g12
S'k>\t\x82f\xf1\x97?'
p38
tp39
Rp40
ag34
(g12
S'\x03M\x1e\x8e|\x86\xc5\xbf'
p41
tp42
Rp43
asS'target_rot'
p44
g2
(cnumpy
ndarray
p45
(I0
tp46
g5
tp47
Rp48
(I1
(I3
tp49
g12
I00
S'C\xc7\xe7\xe7\x91\t\xb4?\xf5\x11>!\xe6d(\xc0a@\tTb4e\xc0'
p50
tp51
bsS'center_target_pixels'
p52
(I1059
I199
tp53
sS'center_actual_pixels'
p54
(I1045
I198
tp55
s.(dp0
S'actual_pos'
p1
(cnumpy.core.multiarray
_reconstruct
p2
(cnumpy.matrixlib.defmatrix
matrix
p3
(I0
tp4
S'b'
p5
tp6
Rp7
(I1
(I1
I1
tp8
cnumpy
dtype
p9
(S'f8'
p10
I0
I1
tp11
Rp12
(I3
S'<'
p13
NNNI-1
I-1
I0
tp14
bI00
S'\x97\x9cY\x94&x\x99?'
p15
tp16
bg2
(g3
(I0
tp17
g5
tp18
Rp19
(I1
(I1
I1
tp20
g12
I00
S'H\x84\xc5\xed\x8fn\x96?'
p21
tp22
bg2
(g3
(I0
tp23
g5
tp24
Rp25
(I1
(I1
I1
tp26
g12
I00
S'0\xf7D"^F\xc5\xbf'
p27
tp28
btp29
sS'actual_rot'
p30
(F0.6126419894060866
F-7.894859877810217
F-173.73623537565481
tp31
sS'target_pos'
p32
(lp33
cnumpy.core.multiarray
scalar
p34
(g12
S'<\x1c\x07\xef\xc8\xb1\x9a?'
p35
tp36
Rp37
ag34
(g12
S'\x9bsrM\x1e\x06\x96?'
p38
tp39
Rp40
ag34
(g12
S'\xa8\xb3=8+L\xc5\xbf'
p41
tp42
Rp43
asS'target_rot'
p44
g2
(cnumpy
ndarray
p45
(I0
tp46
g5
tp47
Rp48
(I1
(I3
tp49
g12
I00
S'C\xc7\xe7\xe7\x91\t\xb4?\xf5\x11>!\xe6d(\xc0a@\tTb4e\xc0'
p50
tp51
bsS'center_target_pixels'
p52
(I1234
I205
tp53
sS'center_actual_pixels'
p54
(I1230
I205
tp55
s.(dp0
S'actual_pos'
p1
(cnumpy.core.multiarray
_reconstruct
p2
(cnumpy.matrixlib.defmatrix
matrix
p3
(I0
tp4
S'b'
p5
tp6
Rp7
(I1
(I1
I1
tp8
cnumpy
dtype
p9
(S'f8'
p10
I0
I1
tp11
Rp12
(I3
S'<'
p13
NNNI-1
I-1
I0
tp14
bI00
S'\xd7\xe0Ey?\xcf\x81?'
p15
tp16
bg2
(g3
(I0
tp17
g5
tp18
Rp19
(I1
(I1
I1
tp20
g12
I00
S'\xaf\x99\xbb!\xeev\x94?'
p21
tp22
bg2
(g3
(I0
tp23
g5
tp24
Rp25
(I1
(I1
I1
tp26
g12
I00
S'\xec\xf5\xcb\xd0\xdc\t\xc5\xbf'
p27
tp28
btp29
sS'actual_rot'
p30
(F0.6915359004108235
F-6.719709310456064
F-174.2198548453513
tp31
sS'target_pos'
p32
(lp33
cnumpy.core.multiarray
scalar
p34
(g12
S'\r\xa7\xf0\xa1\x92{\x84?'
p35
tp36
Rp37
ag34
(g12
S'\x94\xc60\x1a\x12\x0f\x94?'
p38
tp39
Rp40
ag34
(g12
S'\x06\xdb\x88z\x10\x10\xc5\xbf'
p41
tp42
Rp43
asS'target_rot'
p44
g2
(cnumpy
ndarray
p45
(I0
tp46
g5
tp47
Rp48
(I1
(I3
tp49
g12
I00
S'C\xc7\xe7\xe7\x91\t\xb4?\xf5\x11>!\xe6d(\xc0a@\tTb4e\xc0'
p50
tp51
bsS'center_target_pixels'
p52
(I1410
I211
tp53
sS'center_actual_pixels'
p54
(I1411
I212
tp55
s.(dp0
S'actual_pos'
p1
(cnumpy.core.multiarray
_reconstruct
p2
(cnumpy.matrixlib.defmatrix
matrix
p3
(I0
tp4
S'b'
p5
tp6
Rp7
(I1
(I1
I1
tp8
cnumpy
dtype
p9
(S'f8'
p10
I0
I1
tp11
Rp12
(I3
S'<'
p13
NNNI-1
I-1
I0
tp14
bI00
S'*XP\xe2-e\xb0?'
p15
tp16
bg2
(g3
(I0
tp17
g5
tp18
Rp19
(I1
(I1
I1
tp20
g12
I00
S'\xa2^\xcf\xd1Uo\xa1?'
p21
tp22
bg2
(g3
(I0
tp23
g5
tp24
Rp25
(I1
(I1
I1
tp26
g12
I00
S'\x9c2\xc0Gp\xcd\xc5\xbf'
p27
tp28
btp29
sS'actual_rot'
p30
(F-0.5163982462892592
F-15.149250680958847
F-168.61713855731233
tp31
sS'target_pos'
p32
(lp33
cnumpy.core.multiarray
scalar
p34
(g12
S'gk\x87\t\x00{\xb0?'
p35
tp36
Rp37
ag34
(g12
S"\x841\x9f\x1e'3\xa1?"
p38
tp39
Rp40
ag34
(g12
S'\x9c\xc4\xceuO\xd7\xc5\xbf'
p41
tp42
Rp43
asS'target_rot'
p44
g2
(cnumpy
ndarray
p45
(I0
tp46
g5
tp47
Rp48
(I1
(I3
tp49
g12
I00
S'C\xc7\xe7\xe7\x91\t\xb4?\xf5\x11>!\xe6d(\xc0a@\tTb4e\xc0'
p50
tp51
bsS'center_target_pixels'
p52
(I789
I274
tp53
sS'center_actual_pixels'
p54
(I768
I272
tp55
s.(dp0
S'actual_pos'
p1
(cnumpy.core.multiarray
_reconstruct
p2
(cnumpy.matrixlib.defmatrix
matrix
p3
(I0
tp4
S'b'
p5
tp6
Rp7
(I1
(I1
I1
tp8
cnumpy
dtype
p9
(S'f8'
p10
I0
I1
tp11
Rp12
(I3
S'<'
p13
NNNI-1
I-1
I0
tp14
bI00
S'E\xf2\xcaM\x89\xa3\xa8?'
p15
tp16
bg2
(g3
(I0
tp17
g5
tp18
Rp19
(I1
(I1
I1
tp20
g12
I00
S'\x19\xbf4\r0\x94\xa0?'
p21
tp22
bg2
(g3
(I0
tp23
g5
tp24
Rp25
(I1
(I1
I1
tp26
g12
I00
S'T\xd7\xa9\xaf,\x98\xc5\xbf'
p27
tp28
btp29
sS'actual_rot'
p30
(F0.11856953923089825
F-11.877357024926694
F-170.35457387435116
tp31
sS'target_pos'
p32
(lp33
cnumpy.core.multiarray
scalar
p34
(g12
S'g4\\:H\x02\xa9?'
p35
tp36
Rp37
ag34
(g12
S'\x93\xe5Pd(^\xa0?'
p38
tp39
Rp40
ag34
(g12
S'\x88r\xc0^2\x9e\xc5\xbf'
p41
tp42
Rp43
asS'target_rot'
p44
g2
(cnumpy
ndarray
p45
(I0
tp46
g5
tp47
Rp48
(I1
(I3
tp49
g12
I00
S'C\xc7\xe7\xe7\x91\t\xb4?\xf5\x11>!\xe6d(\xc0a@\tTb4e\xc0'
p50
tp51
bsS'center_target_pixels'
p52
(I967
I282
tp53
sS'center_actual_pixels'
p54
(I947
I279
tp55
s.(dp0
S'actual_pos'
p1
(cnumpy.core.multiarray
_reconstruct
p2
(cnumpy.matrixlib.defmatrix
matrix
p3
(I0
tp4
S'b'
p5
tp6
Rp7
(I1
(I1
I1
tp8
cnumpy
dtype
p9
(S'f8'
p10
I0
I1
tp11
Rp12
(I3
S'<'
p13
NNNI-1
I-1
I0
tp14
bI00
S'<\xf3\x95C\xf1u\xa0?'
p15
tp16
bg2
(g3
(I0
tp17
g5
tp18
Rp19
(I1
(I1
I1
tp20
g12
I00
S'Q\xe2\x02\xc59V\x9f?'
p21
tp22
bg2
(g3
(I0
tp23
g5
tp24
Rp25
(I1
(I1
I1
tp26
g12
I00
S'<\xe9\xfe\n\x86^\xc5\xbf'
p27
tp28
btp29
sS'actual_rot'
p30
(F0.5180047909027479
F-9.567806635165532
F-172.09160049431043
tp31
sS'target_pos'
p32
(lp33
cnumpy.core.multiarray
scalar
p34
(g12
S'\xed\xbf\x91\xd4\xd0\xf6\xa0?'
p35
tp36
Rp37
ag34
(g12
S'g\xf7(z\x1b\xf7\x9e?'
p38
tp39
Rp40
ag34
(g12
S',|\x1e\xcb\x0fd\xc5\xbf'
p41
tp42
Rp43
asS'target_rot'
p44
g2
(cnumpy
ndarray
p45
(I0
tp46
g5
tp47
Rp48
(I1
(I3
tp49
g12
I00
S'C\xc7\xe7\xe7\x91\t\xb4?\xf5\x11>!\xe6d(\xc0a@\tTb4e\xc0'
p50
tp51
bsS'center_target_pixels'
p52
(I1144
I289
tp53
sS'center_actual_pixels'
p54
(I1136
I287
tp55
s.(dp0
S'actual_pos'
p1
(cnumpy.core.multiarray
_reconstruct
p2
(cnumpy.matrixlib.defmatrix
matrix
p3
(I0
tp4
S'b'
p5
tp6
Rp7
(I1
(I1
I1
tp8
cnumpy
dtype
p9
(S'f8'
p10
I0
I1
tp11
Rp12
(I3
S'<'
p13
NNNI-1
I-1
I0
tp14
bI00
S'\x10pY\xbe{Y\x90?'
p15
tp16
bg2
(g3
(I0
tp17
g5
tp18
Rp19
(I1
(I1
I1
tp20
g12
I00
S'\x7f\xbb\xde\xe7e\xa0\x9d?'
p21
tp22
bg2
(g3
(I0
tp23
g5
tp24
Rp25
(I1
(I1
I1
tp26
g12
I00
S'\x9d\x0bx\x96w!\xc5\xbf'
p27
tp28
btp29
sS'actual_rot'
p30
(F0.9192867616571774
F-7.133810030485433
F-173.2483770224473
tp31
sS'target_pos'
p32
(lp33
cnumpy.core.multiarray
scalar
p34
(g12
S'\x07.q\xbac\xb3\x91?'
p35
tp36
Rp37
ag34
(g12
S'\x07\xa9\xd7\xccI1\x9d?'
p38
tp39
Rp40
ag34
(g12
S") T\r')\xc5\xbf"
p41
tp42
Rp43
asS'target_rot'
p44
g2
(cnumpy
ndarray
p45
(I0
tp46
g5
tp47
Rp48
(I1
(I3
tp49
g12
I00
S'C\xc7\xe7\xe7\x91\t\xb4?\xf5\x11>!\xe6d(\xc0a@\tTb4e\xc0'
p50
tp51
bsS'center_target_pixels'
p52
(I1319
I296
tp53
sS'center_actual_pixels'
p54
(I1319
I297
tp55
s.(dp0
S'actual_pos'
p1
(cnumpy.core.multiarray
_reconstruct
p2
(cnumpy.matrixlib.defmatrix
matrix
p3
(I0
tp4
S'b'
p5
tp6
Rp7
(I1
(I1
I1
tp8
cnumpy
dtype
p9
(S'f8'
p10
I0
I1
tp11
Rp12
(I3
S'<'
p13
NNNI-1
I-1
I0
tp14
bI00
S'\x91\xe1I\x82\x9f<\xb2?'
p15
tp16
bg2
(g3
(I0
tp17
g5
tp18
Rp19
(I1
(I1
I1
tp20
g12
I00
S'\x13\xc8\xbe`#\xe8\xa5?'
p21
tp22
bg2
(g3
(I0
tp23
g5
tp24
Rp25
(I1
(I1
I1
tp26
g12
I00
S'\x08\x8b.\xbe\xe4\xe1\xc5\xbf'
p27
tp28
btp29
sS'actual_rot'
p30
(F-0.9992910880101116
F-16.53484292066307
F-166.6862109761035
tp31
sS'target_pos'
p32
(lp33
cnumpy.core.multiarray
scalar
p34
(g12
S'/B(DhJ\xb2?'
p35
tp36
Rp37
ag34
(g12
S',F\x89u\xd6\x9d\xa5?'
p38
tp39
Rp40
ag34
(g12
S')\x94\x1b8\xe4\xed\xc5\xbf'
p41
tp42
Rp43
asS'target_rot'
p44
g2
(cnumpy
ndarray
p45
(I0
tp46
g5
tp47
Rp48
(I1
(I3
tp49
g12
I00
S'C\xc7\xe7\xe7\x91\t\xb4?\xf5\x11>!\xe6d(\xc0a@\tTb4e\xc0'
p50
tp51
bsS'center_target_pixels'
p52
(I695
I359
tp53
sS'center_actual_pixels'
p54
(I671
I356
tp55
s.(dp0
S'actual_pos'
p1
(cnumpy.core.multiarray
_reconstruct
p2
(cnumpy.matrixlib.defmatrix
matrix
p3
(I0
tp4
S'b'
p5
tp6
Rp7
(I1
(I1
I1
tp8
cnumpy
dtype
p9
(S'f8'
p10
I0
I1
tp11
Rp12
(I3
S'<'
p13
NNNI-1
I-1
I0
tp14
bI00
S'i\xbc\x10\xda#d\xac?'
p15
tp16
bg2
(g3
(I0
tp17
g5
tp18
Rp19
(I1
(I1
I1
tp20
g12
I00
S'6\xf5\xc9l\xd2\x16\xa5?'
p21
tp22
bg2
(g3
(I0
tp23
g5
tp24
Rp25
(I1
(I1
I1
tp26
g12
I00
S'\xde`\x08u\x8e\xac\xc5\xbf'
p27
tp28
btp29
sS'actual_rot'
p30
(F-0.35104679446772913
F-13.914700106179856
F-168.28549012317575
tp31
sS'target_pos'
p32
(lp33
cnumpy.core.multiarray
scalar
p34
(g12
S'\x9f4K.Z\x9c\xac?'
p35
tp36
Rp37
ag34
(g12
S'2\xdb\xc2\x0f\x98\xd0\xa4?'
p38
tp39
Rp40
ag34
(g12
S'\xd5\x92\xbdH\r\xb5\xc5\xbf'
p41
tp42
Rp43
asS'target_rot'
p44
g2
(cnumpy
ndarray
p45
(I0
tp46
g5
tp47
Rp48
(I1
(I3
tp49
g12
I00
S'C\xc7\xe7\xe7\x91\t\xb4?\xf5\x11>!\xe6d(\xc0a@\tTb4e\xc0'
p50
tp51
bsS'center_target_pixels'
p52
(I875
I367
tp53
sS'center_actual_pixels'
p54
(I853
I365
tp55
s.(dp0
S'actual_pos'
p1
(cnumpy.core.multiarray
_reconstruct
p2
(cnumpy.matrixlib.defmatrix
matrix
p3
(I0
tp4
S'b'
p5
tp6
Rp7
(I1
(I1
I1
tp8
cnumpy
dtype
p9
(S'f8'
p10
I0
I1
tp11
Rp12
(I3
S'<'
p13
NNNI-1
I-1
I0
tp14
bI00
S'\xaev}\xf1<)\xa4?'
p15
tp16
bg2
(g3
(I0
tp17
g5
tp18
Rp19
(I1
(I1
I1
tp20
g12
I00
S'\x03\x0eu=\xa42\xa4?'
p21
tp22
bg2
(g3
(I0
tp23
g5
tp24
Rp25
(I1
(I1
I1
tp26
g12
I00
S'M*\x1d\xa8&r\xc5\xbf'
p27
tp28
btp29
sS'actual_rot'
p30
(F0.2586522958358863
F-11.211957179084678
F-169.8415439105113
tp31
sS'target_pos'
p32
(lp33
cnumpy.core.multiarray
scalar
p34
(g12
S'\x14\x15\x14\xdfv\x98\xa4?'
p35
tp36
Rp37
ag34
(g12
S'\xea~\xa5\xae\xcb\xeb\xa3?'
p38
tp39
Rp40
ag34
(g12
S'G_\x1bY\x94{\xc5\xbf'
p41
tp42
Rp43
asS'target_rot'
p44
g2
(cnumpy
ndarray
p45
(I0
tp46
g5
tp47
Rp48
(I1
(I3
tp49
g12
I00
S'C\xc7\xe7\xe7\x91\t\xb4?\xf5\x11>!\xe6d(\xc0a@\tTb4e\xc0'
p50
tp51
bsS'center_target_pixels'
p52
(I1053
I373
tp53
sS'center_actual_pixels'
p54
(I1038
I370
tp55
s.(dp0
S'actual_pos'
p1
(cnumpy.core.multiarray
_reconstruct
p2
(cnumpy.matrixlib.defmatrix
matrix
p3
(I0
tp4
S'b'
p5
tp6
Rp7
(I1
(I1
I1
tp8
cnumpy
dtype
p9
(S'f8'
p10
I0
I1
tp11
Rp12
(I3
S'<'
p13
NNNI-1
I-1
I0
tp14
bI00
S'\x80\xd4\x06\xad!\x07\x98?'
p15
tp16
bg2
(g3
(I0
tp17
g5
tp18
Rp19
(I1
(I1
I1
tp20
g12
I00
S'F2\xe5DnR\xa3?'
p21
tp22
bg2
(g3
(I0
tp23
g5
tp24
Rp25
(I1
(I1
I1
tp26
g12
I00
S')\xf1\xb4F\x1f;\xc5\xbf'
p27
tp28
btp29
sS'actual_rot'
p30
(F0.869322366864252
F-8.435038673374349
F-171.24660508478783
tp31
sS'target_pos'
p32
(lp33
cnumpy.core.multiarray
scalar
p34
(g12
S'h\xfb\xa5\xe4\x0b"\x99?'
p35
tp36
Rp37
ag34
(g12
S'p*V\xdc\xd8\x13\xa3?'
p38
tp39
Rp40
ag34
(g12
S'\xbe\x8e\xde}\x95A\xc5\xbf'
p41
tp42
Rp43
asS'target_rot'
p44
g2
(cnumpy
ndarray
p45
(I0
tp46
g5
tp47
Rp48
(I1
(I3
tp49
g12
I00
S'C\xc7\xe7\xe7\x91\t\xb4?\xf5\x11>!\xe6d(\xc0a@\tTb4e\xc0'
p50
tp51
bsS'center_target_pixels'
p52
(I1228
I380
tp53
sS'center_actual_pixels'
p54
(I1223
I380
tp55
s.(dp0
S'actual_pos'
p1
(cnumpy.core.multiarray
_reconstruct
p2
(cnumpy.matrixlib.defmatrix
matrix
p3
(I0
tp4
S'b'
p5
tp6
Rp7
(I1
(I1
I1
tp8
cnumpy
dtype
p9
(S'f8'
p10
I0
I1
tp11
Rp12
(I3
S'<'
p13
NNNI-1
I-1
I0
tp14
bI00
S'L\x10\x16q\x94{}?'
p15
tp16
bg2
(g3
(I0
tp17
g5
tp18
Rp19
(I1
(I1
I1
tp20
g12
I00
S'f\x85\xb8\xc6\xbd]\xa2?'
p21
tp22
bg2
(g3
(I0
tp23
g5
tp24
Rp25
(I1
(I1
I1
tp26
g12
I00
S'\x9d\x1c|\xf6y\xfe\xc4\xbf'
p27
tp28
btp29
sS'actual_rot'
p30
(F1.174465511643536
F-6.937052658177143
F-172.59342385782384
tp31
sS'target_pos'
p32
(lp33
cnumpy.core.multiarray
scalar
p34
(g12
S'57J\x8c\rY\x81?'
p35
tp36
Rp37
ag34
(g12
S'3\xbdE\xb8\xc9\x1e\xa2?'
p38
tp39
Rp40
ag34
(g12
S'\x1f\xeeEm\xf5\x05\xc5\xbf'
p41
tp42
Rp43
asS'target_rot'
p44
g2
(cnumpy
ndarray
p45
(I0
tp46
g5
tp47
Rp48
(I1
(I3
tp49
g12
I00
S'C\xc7\xe7\xe7\x91\t\xb4?\xf5\x11>!\xe6d(\xc0a@\tTb4e\xc0'
p50
tp51
bsS'center_target_pixels'
p52
(I1404
I385
tp53
sS'center_actual_pixels'
p54
(I1404
I384
tp55
s.(dp0
S'actual_pos'
p1
(cnumpy.core.multiarray
_reconstruct
p2
(cnumpy.matrixlib.defmatrix
matrix
p3
(I0
tp4
S'b'
p5
tp6
Rp7
(I1
(I1
I1
tp8
cnumpy
dtype
p9
(S'f8'
p10
I0
I1
tp11
Rp12
(I3
S'<'
p13
NNNI-1
I-1
I0
tp14
bI00
S'B\xbb"\x0eR\x0f\xb0?'
p15
tp16
bg2
(g3
(I0
tp17
g5
tp18
Rp19
(I1
(I1
I1
tp20
g12
I00
S'r]\x8b\xfa\xaaq\xa9?'
p21
tp22
bg2
(g3
(I0
tp23
g5
tp24
Rp25
(I1
(I1
I1
tp26
g12
I00
S'\xf4\xa3\x97%h\xbe\xc5\xbf'
p27
tp28
btp29
sS'actual_rot'
p30
(F-1.1488965755153642
F-16.354528883303846
F-166.33475571098438
tp31
sS'target_pos'
p32
(lp33
cnumpy.core.multiarray
scalar
p34
(g12
S'\x83\x9a\xf1\xe1\x02\x17\xb0?'
p35
tp36
Rp37
ag34
(g12
S'\x8c%\xcey\x9c8\xa9?'
p38
tp39
Rp40
ag34
(g12
S"\xd9\xb2\x8d'5\xcb\xc5\xbf"
p41
tp42
Rp43
asS'target_rot'
p44
g2
(cnumpy
ndarray
p45
(I0
tp46
g5
tp47
Rp48
(I1
(I3
tp49
g12
I00
S'C\xc7\xe7\xe7\x91\t\xb4?\xf5\x11>!\xe6d(\xc0a@\tTb4e\xc0'
p50
tp51
bsS'center_target_pixels'
p52
(I783
I452
tp53
sS'center_actual_pixels'
p54
(I758
I449
tp55
s.(dp0
S'actual_pos'
p1
(cnumpy.core.multiarray
_reconstruct
p2
(cnumpy.matrixlib.defmatrix
matrix
p3
(I0
tp4
S'b'
p5
tp6
Rp7
(I1
(I1
I1
tp8
cnumpy
dtype
p9
(S'f8'
p10
I0
I1
tp11
Rp12
(I3
S'<'
p13
NNNI-1
I-1
I0
tp14
bI00
S'\xa8\\\xdd\x05D\xf5\xa7?'
p15
tp16
bg2
(g3
(I0
tp17
g5
tp18
Rp19
(I1
(I1
I1
tp20
g12
I00
S'\x80\x05\xa1/\xa7\x9b\xa8?'
p21
tp22
bg2
(g3
(I0
tp23
g5
tp24
Rp25
(I1
(I1
I1
tp26
g12
I00
S'H$\x8a\xa2x\x8b\xc5\xbf'
p27
tp28
btp29
sS'actual_rot'
p30
(F-0.2331549928474371
F-13.136898311111713
F-167.5834250254701
tp31
sS'target_pos'
p32
(lp33
cnumpy.core.multiarray
scalar
p34
(g12
S'o\xfa\x10#\xe9;\xa8?'
p35
tp36
Rp37
ag34
(g12
S'N\xee\x9f\x85\n_\xa8?'
p38
tp39
Rp40
ag34
(g12
S'[\xbaG\x91\xa3\x92\xc5\xbf'
p41
tp42
Rp43
asS'target_rot'
p44
g2
(cnumpy
ndarray
p45
(I0
tp46
g5
tp47
Rp48
(I1
(I3
tp49
g12
I00
S'C\xc7\xe7\xe7\x91\t\xb4?\xf5\x11>!\xe6d(\xc0a@\tTb4e\xc0'
p50
tp51
bsS'center_target_pixels'
p52
(I961
I458
tp53
sS'center_actual_pixels'
p54
(I940
I458
tp55
s.(dp0
S'actual_pos'
p1
(cnumpy.core.multiarray
_reconstruct
p2
(cnumpy.matrixlib.defmatrix
matrix
p3
(I0
tp4
S'b'
p5
tp6
Rp7
(I1
(I1
I1
tp8
cnumpy
dtype
p9
(S'f8'
p10
I0
I1
tp11
Rp12
(I3
S'<'
p13
NNNI-1
I-1
I0
tp14
bI00
S'fB\xaf\xfa\xe9\x89\x9f?'
p15
tp16
bg2
(g3
(I0
tp17
g5
tp18
Rp19
(I1
(I1
I1
tp20
g12
I00
S'r\x0fP\xb3\x9f\xb4\xa7?'
p21
tp22
bg2
(g3
(I0
tp23
g5
tp24
Rp25
(I1
(I1
I1
tp26
g12
I00
S'-\x93\x81\x08\x08Q\xc5\xbf'
p27
tp28
btp29
sS'actual_rot'
p30
(F0.48190155637971194
F-10.484316988734257
F-169.3942997888569
tp31
sS'target_pos'
p32
(lp33
cnumpy.core.multiarray
scalar
p34
(g12
S'4Q\x10\x01B0\xa0?'
p35
tp36
Rp37
ag34
(g12
S'6\xf2SL4\x83\xa7?'
p38
tp39
Rp40
ag34
(g12
S'\x1b\xa7\x05M\xf9X\xc5\xbf'
p41
tp42
Rp43
asS'target_rot'
p44
g2
(cnumpy
ndarray
p45
(I0
tp46
g5
tp47
Rp48
(I1
(I3
tp49
g12
I00
S'C\xc7\xe7\xe7\x91\t\xb4?\xf5\x11>!\xe6d(\xc0a@\tTb4e\xc0'
p50
tp51
bsS'center_target_pixels'
p52
(I1138
I464
tp53
sS'center_actual_pixels'
p54
(I1126
I462
tp55
s.(dp0
S'actual_pos'
p1
(cnumpy.core.multiarray
_reconstruct
p2
(cnumpy.matrixlib.defmatrix
matrix
p3
(I0
tp4
S'b'
p5
tp6
Rp7
(I1
(I1
I1
tp8
cnumpy
dtype
p9
(S'f8'
p10
I0
I1
tp11
Rp12
(I3
S'<'
p13
NNNI-1
I-1
I0
tp14
bI00
S'\xa4\xd5\xc1kZ\t\x8e?'
p15
tp16
bg2
(g3
(I0
tp17
g5
tp18
Rp19
(I1
(I1
I1
tp20
g12
I00
S'\x9d\xf1\xe4\xc3\x12\xd5\xa6?'
p21
tp22
bg2
(g3
(I0
tp23
g5
tp24
Rp25
(I1
(I1
I1
tp26
g12
I00
S'W\x13/\x0b\xf2\x16\xc5\xbf'
p27
tp28
btp29
sS'actual_rot'
p30
(F1.079683983353915
F-8.292103850137957
F-170.67020577254357
tp31
sS'target_pos'
p32
(lp33
cnumpy.core.multiarray
scalar
p34
(g12
S'\xf91\x19\xe5Q%\x90?'
p35
tp36
Rp37
ag34
(g12
S'`5\x0c~\xcf\xa6\xa6?'
p38
tp39
Rp40
ag34
(g12
S'\xb6R\x04\x9c\x88\x1e\xc5\xbf'
p41
tp42
Rp43
asS'target_rot'
p44
g2
(cnumpy
ndarray
p45
(I0
tp46
g5
tp47
Rp48
(I1
(I3
tp49
g12
I00
S'C\xc7\xe7\xe7\x91\t\xb4?\xf5\x11>!\xe6d(\xc0a@\tTb4e\xc0'
p50
tp51
bsS'center_target_pixels'
p52
(I1313
I470
tp53
sS'center_actual_pixels'
p54
(I1312
I467
tp55
s.(dp0
S'actual_pos'
p1
(cnumpy.core.multiarray
_reconstruct
p2
(cnumpy.matrixlib.defmatrix
matrix
p3
(I0
tp4
S'b'
p5
tp6
Rp7
(I1
(I1
I1
tp8
cnumpy
dtype
p9
(S'f8'
p10
I0
I1
tp11
Rp12
(I3
S'<'
p13
NNNI-1
I-1
I0
tp14
bI00
S'`\x13f"?\xe1\xb1?'
p15
tp16
bg2
(g3
(I0
tp17
g5
tp18
Rp19
(I1
(I1
I1
tp20
g12
I00
S'l2\x11\x83\xc1\xb1\xad?'
p21
tp22
bg2
(g3
(I0
tp23
g5
tp24
Rp25
(I1
(I1
I1
tp26
g12
I00
S'f/8\x14l\xd4\xc5\xbf'
p27
tp28
btp29
sS'actual_rot'
p30
(F-1.5867173231649003
F-17.0592397401575
F-164.882594354759
tp31
sS'target_pos'
p32
(lp33
cnumpy.core.multiarray
scalar
p34
(g12
S'\xa9WV\x9f\xc5\xe6\xb1?'
p35
tp36
Rp37
ag34
(g12
S'\xf23j>)\x99\xad?'
p38
tp39
Rp40
ag34
(g12
S'\x1di\x0f\xa8I\xe1\xc5\xbf'
p41
tp42
Rp43
asS'target_rot'
p44
g2
(cnumpy
ndarray
p45
(I0
tp46
g5
tp47
Rp48
(I1
(I3
tp49
g12
I00
S'C\xc7\xe7\xe7\x91\t\xb4?\xf5\x11>!\xe6d(\xc0a@\tTb4e\xc0'
p50
tp51
bsS'center_target_pixels'
p52
(I689
I537
tp53
sS'center_actual_pixels'
p54
(I666
I525
tp55
s.(dp0
S'actual_pos'
p1
(cnumpy.core.multiarray
_reconstruct
p2
(cnumpy.matrixlib.defmatrix
matrix
p3
(I0
tp4
S'b'
p5
tp6
Rp7
(I1
(I1
I1
tp8
cnumpy
dtype
p9
(S'f8'
p10
I0
I1
tp11
Rp12
(I3
S'<'
p13
NNNI-1
I-1
I0
tp14
bI00
S'\r\xfd\xc5"\xb1\xaa\xab?'
p15
tp16
bg2
(g3
(I0
tp17
g5
tp18
Rp19
(I1
(I1
I1
tp20
g12
I00
S'\xd9\x88=l\xc9\xf0\xac?'
p21
tp22
bg2
(g3
(I0
tp23
g5
tp24
Rp25
(I1
(I1
I1
tp26
g12
I00
S'\x95\x9b\x0c\xa5\x03\x9f\xc5\xbf'
p27
tp28
btp29
sS'actual_rot'
p30
(F-0.8059525234161848
F-14.714974240713877
F-165.80531700433582
tp31
sS'target_pos'
p32
(lp33
cnumpy.core.multiarray
scalar
p34
(g12
S'\x818Z\x11e\xd5\xab?'
p35
tp36
Rp37
ag34
(g12
S'N\xe5\xcdN@\xd3\xac?'
p38
tp39
Rp40
ag34
(g12
S'j{I\xeb\xe9\xa8\xc5\xbf'
p41
tp42
Rp43
asS'target_rot'
p44
g2
(cnumpy
ndarray
p45
(I0
tp46
g5
tp47
Rp48
(I1
(I3
tp49
g12
I00
S'C\xc7\xe7\xe7\x91\t\xb4?\xf5\x11>!\xe6d(\xc0a@\tTb4e\xc0'
p50
tp51
bsS'center_target_pixels'
p52
(I869
I544
tp53
sS'center_actual_pixels'
p54
(I848
I540
tp55
s.(dp0
S'actual_pos'
p1
(cnumpy.core.multiarray
_reconstruct
p2
(cnumpy.matrixlib.defmatrix
matrix
p3
(I0
tp4
S'b'
p5
tp6
Rp7
(I1
(I1
I1
tp8
cnumpy
dtype
p9
(S'f8'
p10
I0
I1
tp11
Rp12
(I3
S'<'
p13
NNNI-1
I-1
I0
tp14
bI00
S'k\xd2Z"\xb7u\xa3?'
p15
tp16
bg2
(g3
(I0
tp17
g5
tp18
Rp19
(I1
(I1
I1
tp20
g12
I00
S'\xd1.\xde\xb7\xea\x15\xac?'
p21
tp22
bg2
(g3
(I0
tp23
g5
tp24
Rp25
(I1
(I1
I1
tp26
g12
I00
S'\xd5\x10\xf1C\xeai\xc5\xbf'
p27
tp28
btp29
sS'actual_rot'
p30
(F0.08820203832050996
F-11.984645892843737
F-166.91301599565108
tp31
sS'target_pos'
p32
(lp33
cnumpy.core.multiarray
scalar
p34
(g12
S'\xa1h\xd5\x8b\x8a\xd1\xa3?'
p35
tp36
Rp37
ag34
(g12
S'\xd4\t\xc6w\x8f\xf5\xab?'
p38
tp39
Rp40
ag34
(g12
S'\xbe\x9c$\xec\xe9o\xc5\xbf'
p41
tp42
Rp43
asS'target_rot'
p44
g2
(cnumpy
ndarray
p45
(I0
tp46
g5
tp47
Rp48
(I1
(I3
tp49
g12
I00
S'C\xc7\xe7\xe7\x91\t\xb4?\xf5\x11>!\xe6d(\xc0a@\tTb4e\xc0'
p50
tp51
bsS'center_target_pixels'
p52
(I1047
I549
tp53
sS'center_actual_pixels'
p54
(I1035
I545
tp55
s.(dp0
S'actual_pos'
p1
(cnumpy.core.multiarray
_reconstruct
p2
(cnumpy.matrixlib.defmatrix
matrix
p3
(I0
tp4
S'b'
p5
tp6
Rp7
(I1
(I1
I1
tp8
cnumpy
dtype
p9
(S'f8'
p10
I0
I1
tp11
Rp12
(I3
S'<'
p13
NNNI-1
I-1
I0
tp14
bI00
S'\xd9\x14\xb5\xa5\xcc\xa6\x96?'
p15
tp16
bg2
(g3
(I0
tp17
g5
tp18
Rp19
(I1
(I1
I1
tp20
g12
I00
S'\xac\xb9n\rPD\xab?'
p21
tp22
bg2
(g3
(I0
tp23
g5
tp24
Rp25
(I1
(I1
I1
tp26
g12
I00
S'L\xd24\xb1\x1a0\xc5\xbf'
p27
tp28
btp29
sS'actual_rot'
p30
(F0.6459370816487604
F-10.229427275521022
F-169.1371822695013
tp31
sS'target_pos'
p32
(lp33
cnumpy.core.multiarray
scalar
p34
(g12
S'\xc6s\xb0\x83 |\x97?'
p35
tp36
Rp37
ag34
(g12
S'b\xd4v\x81\xc2"\xab?'
p38
tp39
Rp40
ag34
(g12
S'9\xf5\x8f\xe1\r6\xc5\xbf'
p41
tp42
Rp43
asS'target_rot'
p44
g2
(cnumpy
ndarray
p45
(I0
tp46
g5
tp47
Rp48
(I1
(I3
tp49
g12
I00
S'C\xc7\xe7\xe7\x91\t\xb4?\xf5\x11>!\xe6d(\xc0a@\tTb4e\xc0'
p50
tp51
bsS'center_target_pixels'
p52
(I1223
I555
tp53
sS'center_actual_pixels'
p54
(I1216
I554
tp55
s.(dp0
S'actual_pos'
p1
(cnumpy.core.multiarray
_reconstruct
p2
(cnumpy.matrixlib.defmatrix
matrix
p3
(I0
tp4
S'b'
p5
tp6
Rp7
(I1
(I1
I1
tp8
cnumpy
dtype
p9
(S'f8'
p10
I0
I1
tp11
Rp12
(I3
S'<'
p13
NNNI-1
I-1
I0
tp14
bI00
S'\xd5\xc7\xda\xb8\x12\x0ex?'
p15
tp16
bg2
(g3
(I0
tp17
g5
tp18
Rp19
(I1
(I1
I1
tp20
g12
I00
S"\x07\xfb'F\xb7X\xaa?"
p21
tp22
bg2
(g3
(I0
tp23
g5
tp24
Rp25
(I1
(I1
I1
tp26
g12
I00
S'h\xad0N\xf2\xf5\xc4\xbf'
p27
tp28
btp29
sS'actual_rot'
p30
(F1.2401156717036506
F-8.32521502576653
F-170.36016677957514
tp31
sS'target_pos'
p32
(lp33
cnumpy.core.multiarray
scalar
p34
(g12
S'\x9a\x03\x90\xad\xc0g|?'
p35
tp36
Rp37
ag34
(g12
S'Mf\x99r\xf9A\xaa?'
p38
tp39
Rp40
ag34
(g12
S'+\xcf\xcf\xc5)\xfb\xc4\xbf'
p41
tp42
Rp43
asS'target_rot'
p44
g2
(cnumpy
ndarray
p45
(I0
tp46
g5
tp47
Rp48
(I1
(I3
tp49
g12
I00
S'C\xc7\xe7\xe7\x91\t\xb4?\xf5\x11>!\xe6d(\xc0a@\tTb4e\xc0'
p50
tp51
bsS'center_target_pixels'
p52
(I1398
I560
tp53
sS'center_actual_pixels'
p54
(I1401
I558
tp55
s.(dp0
S'actual_pos'
p1
(cnumpy.core.multiarray
_reconstruct
p2
(cnumpy.matrixlib.defmatrix
matrix
p3
(I0
tp4
S'b'
p5
tp6
Rp7
(I1
(I1
I1
tp8
cnumpy
dtype
p9
(S'f8'
p10
I0
I1
tp11
Rp12
(I3
S'<'
p13
NNNI-1
I-1
I0
tp14
bI00
S'\xe9\x9c\t\xeb\x91q\xaf?'
p15
tp16
bg2
(g3
(I0
tp17
g5
tp18
Rp19
(I1
(I1
I1
tp20
g12
I00
S'\xc5\x10\x0f\x030\xa9\xb0?'
p21
tp22
bg2
(g3
(I0
tp23
g5
tp24
Rp25
(I1
(I1
I1
tp26
g12
I00
S'\xe1\x12;U)\xb3\xc5\xbf'
p27
tp28
btp29
sS'actual_rot'
p30
(F-1.7146442640744535
F-16.735017188069076
F-164.18989150021645
tp31
sS'target_pos'
p32
(lp33
cnumpy.core.multiarray
scalar
p34
(g12
S'\xa9\xa6\x9d\r\x9fq\xaf?'
p35
tp36
Rp37
ag34
(g12
S'J6^\xe2\x14\x9f\xb0?'
p38
tp39
Rp40
ag34
(g12
S'\x82\x97\x85\xd3\xcc\xbe\xc5\xbf'
p41
tp42
Rp43
asS'target_rot'
p44
g2
(cnumpy
ndarray
p45
(I0
tp46
g5
tp47
Rp48
(I1
(I3
tp49
g12
I00
S'C\xc7\xe7\xe7\x91\t\xb4?\xf5\x11>!\xe6d(\xc0a@\tTb4e\xc0'
p50
tp51
bsS'center_target_pixels'
p52
(I776
I630
tp53
sS'center_actual_pixels'
p54
(I750
I624
tp55
s.(dp0
S'actual_pos'
p1
(cnumpy.core.multiarray
_reconstruct
p2
(cnumpy.matrixlib.defmatrix
matrix
p3
(I0
tp4
S'b'
p5
tp6
Rp7
(I1
(I1
I1
tp8
cnumpy
dtype
p9
(S'f8'
p10
I0
I1
tp11
Rp12
(I3
S'<'
p13
NNNI-1
I-1
I0
tp14
bI00
S'u\xa5\xf9-\xe3<\xa7?'
p15
tp16
bg2
(g3
(I0
tp17
g5
tp18
Rp19
(I1
(I1
I1
tp20
g12
I00
S'V\xc4\x91\x94\x94>\xb0?'
p21
tp22
bg2
(g3
(I0
tp23
g5
tp24
Rp25
(I1
(I1
I1
tp26
g12
I00
S'Vl\xd5\xf0\xf2z\xc5\xbf'
p27
tp28
btp29
sS'actual_rot'
p30
(F-0.5780137921658949
F-13.755618927379865
F-165.35821250681502
tp31
sS'target_pos'
p32
(lp33
cnumpy.core.multiarray
scalar
p34
(g12
S'\x03y\xb1\xf0}t\xa7?'
p35
tp36
Rp37
ag34
(g12
S'\x8f?\x1av75\xb0?'
p38
tp39
Rp40
ag34
(g12
S'Z\xa7c(d\x86\xc5\xbf'
p41
tp42
Rp43
asS'target_rot'
p44
g2
(cnumpy
ndarray
p45
(I0
tp46
g5
tp47
Rp48
(I1
(I3
tp49
g12
I00
S'C\xc7\xe7\xe7\x91\t\xb4?\xf5\x11>!\xe6d(\xc0a@\tTb4e\xc0'
p50
tp51
bsS'center_target_pixels'
p52
(I955
I635
tp53
sS'center_actual_pixels'
p54
(I939
I633
tp55
s.(dp0
S'actual_pos'
p1
(cnumpy.core.multiarray
_reconstruct
p2
(cnumpy.matrixlib.defmatrix
matrix
p3
(I0
tp4
S'b'
p5
tp6
Rp7
(I1
(I1
I1
tp8
cnumpy
dtype
p9
(S'f8'
p10
I0
I1
tp11
Rp12
(I3
S'<'
p13
NNNI-1
I-1
I0
tp14
bI00
S'\xd9\x8dE\x11\xab\xfb\x9e?'
p15
tp16
bg2
(g3
(I0
tp17
g5
tp18
Rp19
(I1
(I1
I1
tp20
g12
I00
S'@y\xb41\xdc\x8e\xaf?'
p21
tp22
bg2
(g3
(I0
tp23
g5
tp24
Rp25
(I1
(I1
I1
tp26
g12
I00
S'\xe6\x11E\xdf.F\xc5\xbf'
p27
tp28
btp29
sS'actual_rot'
p30
(F0.07364270703824376
F-12.029254639501131
F-166.6738499525395
tp31
sS'target_pos'
p32
(lp33
cnumpy.core.multiarray
scalar
p34
(g12
S'8\xd7\xb0\xa9\xfa\x98\x9f?'
p35
tp36
Rp37
ag34
(g12
S'n\xae\x91\xcahs\xaf?'
p38
tp39
Rp40
ag34
(g12
S'\xd62*7\x1dP\xc5\xbf'
p41
tp42
Rp43
asS'target_rot'
p44
g2
(cnumpy
ndarray
p45
(I0
tp46
g5
tp47
Rp48
(I1
(I3
tp49
g12
I00
S'C\xc7\xe7\xe7\x91\t\xb4?\xf5\x11>!\xe6d(\xc0a@\tTb4e\xc0'
p50
tp51
bsS'center_target_pixels'
p52
(I1124
I636
tp53
sS'center_actual_pixels'
p54
(I1111
I632
tp55
s.(dp0
S'actual_pos'
p1
(cnumpy.core.multiarray
_reconstruct
p2
(cnumpy.matrixlib.defmatrix
matrix
p3
(I0
tp4
S'b'
p5
tp6
Rp7
(I1
(I1
I1
tp8
cnumpy
dtype
p9
(S'f8'
p10
I0
I1
tp11
Rp12
(I3
S'<'
p13
NNNI-1
I-1
I0
tp14
bI00
S'<C\x8d\xdd\xddh\x8b?'
p15
tp16
bg2
(g3
(I0
tp17
g5
tp18
Rp19
(I1
(I1
I1
tp20
g12
I00
S'\xd2\xe9Z\x0bE\xd5\xae?'
p21
tp22
bg2
(g3
(I0
tp23
g5
tp24
Rp25
(I1
(I1
I1
tp26
g12
I00
S'\xd4\xd1\xd2\xd6m\x08\xc5\xbf'
p27
tp28
btp29
sS'actual_rot'
p30
(F0.6674366166088646
F-10.414636621454584
F-168.6837360356674
tp31
sS'target_pos'
p32
(lp33
cnumpy.core.multiarray
scalar
p34
(g12
S'z\xcb\xa8\xae\xf8\xfb\x8c?'
p35
tp36
Rp37
ag34
(g12
S'Z\xe8\x88\x96\xcb\xbe\xae?'
p38
tp39
Rp40
ag34
(g12
S'3`\\\xef\xe4\x12\xc5\xbf'
p41
tp42
Rp43
asS'target_rot'
p44
g2
(cnumpy
ndarray
p45
(I0
tp46
g5
tp47
Rp48
(I1
(I3
tp49
g12
I00
S'C\xc7\xe7\xe7\x91\t\xb4?\xf5\x11>!\xe6d(\xc0a@\tTb4e\xc0'
p50
tp51
bsS'center_target_pixels'
p52
(I1308
I645
tp53
sS'center_actual_pixels'
p54
(I1299
I642
tp55
s.(dp0
S'actual_pos'
p1
(cnumpy.core.multiarray
_reconstruct
p2
(cnumpy.matrixlib.defmatrix
matrix
p3
(I0
tp4
S'b'
p5
tp6
Rp7
(I1
(I1
I1
tp8
cnumpy
dtype
p9
(S'f8'
p10
I0
I1
tp11
Rp12
(I3
S'<'
p13
NNNI-1
I-1
I0
tp14
bI00
S'\x03f\xd4^\x1e\x8b\xb1?'
p15
tp16
bg2
(g3
(I0
tp17
g5
tp18
Rp19
(I1
(I1
I1
tp20
g12
I00
S'\xc0\x06\x0f\xa6\xf0\xdc\xb2?'
p21
tp22
bg2
(g3
(I0
tp23
g5
tp24
Rp25
(I1
(I1
I1
tp26
g12
I00
S'Y+)1\xf2\xc5\xc5\xbf'
p27
tp28
btp29
sS'actual_rot'
p30
(F-2.0949985309818806
F-17.105818432013386
F-163.403259538524
tp31
sS'target_pos'
p32
(lp33
cnumpy.core.multiarray
scalar
p34
(g12
S'\xf5U\xeb\xf9\xef\x8c\xb1?'
p35
tp36
Rp37
ag34
(g12
S'\\\x0cL2(\xd6\xb2?'
p38
tp39
Rp40
ag34
(g12
S'\xde\xa0\xec.\x83\xd4\xc5\xbf'
p41
tp42
Rp43
asS'target_rot'
p44
g2
(cnumpy
ndarray
p45
(I0
tp46
g5
tp47
Rp48
(I1
(I3
tp49
g12
I00
S'C\xc7\xe7\xe7\x91\t\xb4?\xf5\x11>!\xe6d(\xc0a@\tTb4e\xc0'
p50
tp51
bsS'center_target_pixels'
p52
(I681
I717
tp53
sS'center_actual_pixels'
p54
(I659
I703
tp55
s.(dp0
S'actual_pos'
p1
(cnumpy.core.multiarray
_reconstruct
p2
(cnumpy.matrixlib.defmatrix
matrix
p3
(I0
tp4
S'b'
p5
tp6
Rp7
(I1
(I1
I1
tp8
cnumpy
dtype
p9
(S'f8'
p10
I0
I1
tp11
Rp12
(I3
S'<'
p13
NNNI-1
I-1
I0
tp14
bI00
S'B^\x15\x897\xed\xaa?'
p15
tp16
bg2
(g3
(I0
tp17
g5
tp18
Rp19
(I1
(I1
I1
tp20
g12
I00
S'|\xc6\x9aV\tz\xb2?'
p21
tp22
bg2
(g3
(I0
tp23
g5
tp24
Rp25
(I1
(I1
I1
tp26
g12
I00
S'\xfc\xc4\xef\xd5\xed\x8f\xc5\xbf'
p27
tp28
btp29
sS'actual_rot'
p30
(F-1.2517562326192426
F-15.140519397873446
F-163.92709033197013
tp31
sS'target_pos'
p32
(lp33
cnumpy.core.multiarray
scalar
p34
(g12
S'\x83\xbd\x82\xa0W\r\xab?'
p35
tp36
Rp37
ag34
(g12
S'\xb2\x13{\xeb\xf1o\xb2?'
p38
tp39
Rp40
ag34
(g12
S'_\x1d\x0c3\x15\x9c\xc5\xbf'
p41
tp42
Rp43
asS'target_rot'
p44
g2
(cnumpy
ndarray
p45
(I0
tp46
g5
tp47
Rp48
(I1
(I3
tp49
g12
I00
S'C\xc7\xe7\xe7\x91\t\xb4?\xf5\x11>!\xe6d(\xc0a@\tTb4e\xc0'
p50
tp51
bsS'center_target_pixels'
p52
(I863
I722
tp53
sS'center_actual_pixels'
p54
(I845
I718
tp55
s.(dp0
S'actual_pos'
p1
(cnumpy.core.multiarray
_reconstruct
p2
(cnumpy.matrixlib.defmatrix
matrix
p3
(I0
tp4
S'b'
p5
tp6
Rp7
(I1
(I1
I1
tp8
cnumpy
dtype
p9
(S'f8'
p10
I0
I1
tp11
Rp12
(I3
S'<'
p13
NNNI-1
I-1
I0
tp14
bI00
S'\x9f\xd8\xca\x8aQ\xb7\xa2?'
p15
tp16
bg2
(g3
(I0
tp17
g5
tp18
Rp19
(I1
(I1
I1
tp20
g12
I00
S'\xa2\x04F\xb4\xa0\r\xb2?'
p21
tp22
bg2
(g3
(I0
tp23
g5
tp24
Rp25
(I1
(I1
I1
tp26
g12
I00
S'\xb8\x8d\xd0\x8c\xfbW\xc5\xbf'
p27
tp28
btp29
sS'actual_rot'
p30
(F-0.16891368239725194
F-12.562744643728278
F-164.7995353765528
tp31
sS'target_pos'
p32
(lp33
cnumpy.core.multiarray
scalar
p34
(g12
S'FW\x9a\x94\xaf\t\xa3?'
p35
tp36
Rp37
ag34
(g12
S'w\x00\x99\xa7\xde\x04\xb2?'
p38
tp39
Rp40
ag34
(g12
S'\x8d\xc3\xefJ\x8ec\xc5\xbf'
p41
tp42
Rp43
asS'target_rot'
p44
g2
(cnumpy
ndarray
p45
(I0
tp46
g5
tp47
Rp48
(I1
(I3
tp49
g12
I00
S'C\xc7\xe7\xe7\x91\t\xb4?\xf5\x11>!\xe6d(\xc0a@\tTb4e\xc0'
p50
tp51
bsS'center_target_pixels'
p52
(I1041
I726
tp53
sS'center_actual_pixels'
p54
(I1028
I725
tp55
s.(dp0
S'actual_pos'
p1
(cnumpy.core.multiarray
_reconstruct
p2
(cnumpy.matrixlib.defmatrix
matrix
p3
(I0
tp4
S'b'
p5
tp6
Rp7
(I1
(I1
I1
tp8
cnumpy
dtype
p9
(S'f8'
p10
I0
I1
tp11
Rp12
(I3
S'<'
p13
NNNI-1
I-1
I0
tp14
bI00
S'\x10%%\xebvN\x95?'
p15
tp16
bg2
(g3
(I0
tp17
g5
tp18
Rp19
(I1
(I1
I1
tp20
g12
I00
S'\x15lh\x9dw\xa9\xb1?'
p21
tp22
bg2
(g3
(I0
tp23
g5
tp24
Rp25
(I1
(I1
I1
tp26
g12
I00
S'5\xbf\xd4\xd6\xf5\x1f\xc5\xbf'
p27
tp28
btp29
sS'actual_rot'
p30
(F0.0729323098763148
F-11.988551029580604
F-166.4810930123743
tp31
sS'target_pos'
p32
(lp33
cnumpy.core.multiarray
scalar
p34
(g12
S'\x9e\xd7H\x0e\xa1\xd4\x95?'
p35
tp36
Rp37
ag34
(g12
S'%\xd3\xd5J^\x9e\xb1?'
p38
tp39
Rp40
ag34
(g12
S'\xe8-w\x88\xd6)\xc5\xbf'
p41
tp42
Rp43
asS'target_rot'
p44
g2
(cnumpy
ndarray
p45
(I0
tp46
g5
tp47
Rp48
(I1
(I3
tp49
g12
I00
S'C\xc7\xe7\xe7\x91\t\xb4?\xf5\x11>!\xe6d(\xc0a@\tTb4e\xc0'
p50
tp51
bsS'center_target_pixels'
p52
(I1218
I731
tp53
sS'center_actual_pixels'
p54
(I1207
I732
tp55
s.(dp0
S'actual_pos'
p1
(cnumpy.core.multiarray
_reconstruct
p2
(cnumpy.matrixlib.defmatrix
matrix
p3
(I0
tp4
S'b'
p5
tp6
Rp7
(I1
(I1
I1
tp8
cnumpy
dtype
p9
(S'f8'
p10
I0
I1
tp11
Rp12
(I3
S'<'
p13
NNNI-1
I-1
I0
tp14
bI00
S"7\xa6U'\xf0\xd1r?"
p15
tp16
bg2
(g3
(I0
tp17
g5
tp18
Rp19
(I1
(I1
I1
tp20
g12
I00
S'\xb0X\xfb\x88\x1d@\xb1?'
p21
tp22
bg2
(g3
(I0
tp23
g5
tp24
Rp25
(I1
(I1
I1
tp26
g12
I00
S'\x8f\r\xed\xe0\xb7\xe6\xc4\xbf'
p27
tp28
btp29
sS'actual_rot'
p30
(F0.7249419959984286
F-10.470259430623775
F-168.4689830887155
tp31
sS'target_pos'
p32
(lp33
cnumpy.core.multiarray
scalar
p34
(g12
S'\xfag\xe0\xda\xea\xc4u?'
p35
tp36
Rp37
ag34
(g12
S'$\xda\xd2~\x8b1\xb1?'
p38
tp39
Rp40
ag34
(g12
S'X`\x83\xd7i\xef\xc4\xbf'
p41
tp42
Rp43
asS'target_rot'
p44
g2
(cnumpy
ndarray
p45
(I0
tp46
g5
tp47
Rp48
(I1
(I3
tp49
g12
I00
S'C\xc7\xe7\xe7\x91\t\xb4?\xf5\x11>!\xe6d(\xc0a@\tTb4e\xc0'
p50
tp51
bsS'center_target_pixels'
p52
(I1393
I735
tp53
sS'center_actual_pixels'
p54
(I1388
I735
tp55
s.