(dp0
S'actual_pos'
p1
(cnumpy.core.multiarray
_reconstruct
p2
(cnumpy.matrixlib.defmatrix
matrix
p3
(I0
tp4
S'b'
p5
tp6
Rp7
(I1
(I1
I1
tp8
cnumpy
dtype
p9
(S'f8'
p10
I0
I1
tp11
Rp12
(I3
S'<'
p13
NNNI-1
I-1
I0
tp14
bI00
S'P\x8f\x7f\xb7\xd4\xb9\xaf?'
p15
tp16
bg2
(g3
(I0
tp17
g5
tp18
Rp19
(I1
(I1
I1
tp20
g12
I00
S'\xd2\x8a\xdd\xa5\xecy\x91?'
p21
tp22
bg2
(g3
(I0
tp23
g5
tp24
Rp25
(I1
(I1
I1
tp26
g12
I00
S':"\xaf\x89I`\xc5\xbf'
p27
tp28
btp29
sS'actual_rot'
p30
(F-0.18243136725265618
F-11.805676956852052
F-172.52910223594026
tp31
sS'target_pos'
p32
(lp33
cnumpy.core.multiarray
scalar
p34
(g12
S'-tT~\xbf\x04\xb0?'
p35
tp36
Rp37
ag34
(g12
S'\x9b&J\xa8\x1c\xe1\x90?'
p38
tp39
Rp40
ag34
(g12
S"]x\x84'\xe0g\xc5\xbf"
p41
tp42
Rp43
asS'target_rot'
p44
g2
(cnumpy
ndarray
p45
(I0
tp46
g5
tp47
Rp48
(I1
(I3
tp49
g12
I00
S'~\x98\t\xee@\xf3\xc4\xbf>\x9eN\x87\x0f"\'\xc0\xf0\x89\xf5\xf2\xb9\x1fe\xc0'
p50
tp51
bsS'center_target_pixels'
p52
(I807
I102
tp53
sS'center_actual_pixels'
p54
(I813
I100
tp55
s.(dp0
S'actual_pos'
p1
(cnumpy.core.multiarray
_reconstruct
p2
(cnumpy.matrixlib.defmatrix
matrix
p3
(I0
tp4
S'b'
p5
tp6
Rp7
(I1
(I1
I1
tp8
cnumpy
dtype
p9
(S'f8'
p10
I0
I1
tp11
Rp12
(I3
S'<'
p13
NNNI-1
I-1
I0
tp14
bI00
S'\t\n\xef\xf2#\xee\xa7?'
p15
tp16
bg2
(g3
(I0
tp17
g5
tp18
Rp19
(I1
(I1
I1
tp20
g12
I00
S'\x882\xee\xd0H<\x90?'
p21
tp22
bg2
(g3
(I0
tp23
g5
tp24
Rp25
(I1
(I1
I1
tp26
g12
I00
S".Y\xff\xe3='\xc5\xbf"
p27
tp28
btp29
sS'actual_rot'
p30
(F-0.03349083586259491
F-10.21052338651358
F-173.38217249812894
tp31
sS'target_pos'
p32
(lp33
cnumpy.core.multiarray
scalar
p34
(g12
S'Z\xd7\xe5\xdc\xa3X\xa8?'
p35
tp36
Rp37
ag34
(g12
S'\xba\xc7\xd1\x95\x82C\x8f?'
p38
tp39
Rp40
ag34
(g12
S'\xf5\xf5R\x14\t,\xc5\xbf'
p41
tp42
Rp43
asS'target_rot'
p44
g2
(cnumpy
ndarray
p45
(I0
tp46
g5
tp47
Rp48
(I1
(I3
tp49
g12
I00
S'~\x98\t\xee@\xf3\xc4\xbf>\x9eN\x87\x0f"\'\xc0\xf0\x89\xf5\xf2\xb9\x1fe\xc0'
p50
tp51
bsS'center_target_pixels'
p52
(I985
I114
tp53
sS'center_actual_pixels'
p54
(I989
I114
tp55
s.(dp0
S'actual_pos'
p1
(cnumpy.core.multiarray
_reconstruct
p2
(cnumpy.matrixlib.defmatrix
matrix
p3
(I0
tp4
S'b'
p5
tp6
Rp7
(I1
(I1
I1
tp8
cnumpy
dtype
p9
(S'f8'
p10
I0
I1
tp11
Rp12
(I3
S'<'
p13
NNNI-1
I-1
I0
tp14
bI00
S'\xfd\xd9Z\x0b\xe9\xf1\x9f?'
p15
tp16
bg2
(g3
(I0
tp17
g5
tp18
Rp19
(I1
(I1
I1
tp20
g12
I00
S'\xa4\xf0\x89t\x0e\xe5\x8d?'
p21
tp22
bg2
(g3
(I0
tp23
g5
tp24
Rp25
(I1
(I1
I1
tp26
g12
I00
S'/\x11V\x85/\xec\xc4\xbf'
p27
tp28
btp29
sS'actual_rot'
p30
(F0.1974440613454272
F-7.270414065524725
F-173.80666050235442
tp31
sS'target_pos'
p32
(lp33
cnumpy.core.multiarray
scalar
p34
(g12
S'\x9d\xdf\xf55\x10\x97\xa0?'
p35
tp36
Rp37
ag34
(g12
S'6\xff\x90B;\xc4\x8c?'
p38
tp39
Rp40
ag34
(g12
S'\x94E\x05\xa7"\xef\xc4\xbf'
p41
tp42
Rp43
asS'target_rot'
p44
g2
(cnumpy
ndarray
p45
(I0
tp46
g5
tp47
Rp48
(I1
(I3
tp49
g12
I00
S'~\x98\t\xee@\xf3\xc4\xbf>\x9eN\x87\x0f"\'\xc0\xf0\x89\xf5\xf2\xb9\x1fe\xc0'
p50
tp51
bsS'center_target_pixels'
p52
(I1162
I126
tp53
sS'center_actual_pixels'
p54
(I1166
I128
tp55
s.(dp0
S'actual_pos'
p1
(cnumpy.core.multiarray
_reconstruct
p2
(cnumpy.matrixlib.defmatrix
matrix
p3
(I0
tp4
S'b'
p5
tp6
Rp7
(I1
(I1
I1
tp8
cnumpy
dtype
p9
(S'f8'
p10
I0
I1
tp11
Rp12
(I3
S'<'
p13
NNNI-1
I-1
I0
tp14
bI00
S'\xed7\xc0\xaa|\xf8\x8f?'
p15
tp16
bg2
(g3
(I0
tp17
g5
tp18
Rp19
(I1
(I1
I1
tp20
g12
I00
S'\xcb{\x05I\xe9^\x8b?'
p21
tp22
bg2
(g3
(I0
tp23
g5
tp24
Rp25
(I1
(I1
I1
tp26
g12
I00
S'\xb2\xb7\x9b\x8fC\xad\xc4\xbf'
p27
tp28
btp29
sS'actual_rot'
p30
(F0.317930448190814
F-5.353169666611797
F-174.06633877857467
tp31
sS'target_pos'
p32
(lp33
cnumpy.core.multiarray
scalar
p34
(g12
S'\xe47\x184\xafs\x91?'
p35
tp36
Rp37
ag34
(g12
S'\x1a\x9d/M\xe7=\x8a?'
p38
tp39
Rp40
ag34
(g12
S'\xda!\x7f!\xd2\xb0\xc4\xbf'
p41
tp42
Rp43
asS'target_rot'
p44
g2
(cnumpy
ndarray
p45
(I0
tp46
g5
tp47
Rp48
(I1
(I3
tp49
g12
I00
S'~\x98\t\xee@\xf3\xc4\xbf>\x9eN\x87\x0f"\'\xc0\xf0\x89\xf5\xf2\xb9\x1fe\xc0'
p50
tp51
bsS'center_target_pixels'
p52
(I1339
I138
tp53
sS'center_actual_pixels'
p54
(I1346
I141
tp55
s.(dp0
S'actual_pos'
p1
(cnumpy.core.multiarray
_reconstruct
p2
(cnumpy.matrixlib.defmatrix
matrix
p3
(I0
tp4
S'b'
p5
tp6
Rp7
(I1
(I1
I1
tp8
cnumpy
dtype
p9
(S'f8'
p10
I0
I1
tp11
Rp12
(I3
S'<'
p13
NNNI-1
I-1
I0
tp14
bI00
S'\x96\xaay\xe6/\xce\xb1?'
p15
tp16
bg2
(g3
(I0
tp17
g5
tp18
Rp19
(I1
(I1
I1
tp20
g12
I00
S'\xb5=+5\x8b\x94\x99?'
p21
tp22
bg2
(g3
(I0
tp23
g5
tp24
Rp25
(I1
(I1
I1
tp26
g12
I00
S'\x16\x97\xb0\xb4\xc3y\xc5\xbf'
p27
tp28
btp29
sS'actual_rot'
p30
(F-0.7964117936983
F-15.723210452218913
F-168.33638363043116
tp31
sS'target_pos'
p32
(lp33
cnumpy.core.multiarray
scalar
p34
(g12
S'9&\xe5k\x05\xd4\xb1?'
p35
tp36
Rp37
ag34
(g12
S'\xe3\xa4\xf7\x002*\x99?'
p38
tp39
Rp40
ag34
(g12
S'dQXTT\x84\xc5\xbf'
p41
tp42
Rp43
asS'target_rot'
p44
g2
(cnumpy
ndarray
p45
(I0
tp46
g5
tp47
Rp48
(I1
(I3
tp49
g12
I00
S'~\x98\t\xee@\xf3\xc4\xbf>\x9eN\x87\x0f"\'\xc0\xf0\x89\xf5\xf2\xb9\x1fe\xc0'
p50
tp51
bsS'center_target_pixels'
p52
(I711
I184
tp53
sS'center_actual_pixels'
p54
(I712
I185
tp55
s.(dp0
S'actual_pos'
p1
(cnumpy.core.multiarray
_reconstruct
p2
(cnumpy.matrixlib.defmatrix
matrix
p3
(I0
tp4
S'b'
p5
tp6
Rp7
(I1
(I1
I1
tp8
cnumpy
dtype
p9
(S'f8'
p10
I0
I1
tp11
Rp12
(I3
S'<'
p13
NNNI-1
I-1
I0
tp14
bI00
S'\n\x01\x97\xd2\x8b\xa7\xab?'
p15
tp16
bg2
(g3
(I0
tp17
g5
tp18
Rp19
(I1
(I1
I1
tp20
g12
I00
S'\xe4\x8c;,Ys\x98?'
p21
tp22
bg2
(g3
(I0
tp23
g5
tp24
Rp25
(I1
(I1
I1
tp26
g12
I00
S'U\x03\x19vy@\xc5\xbf'
p27
tp28
btp29
sS'actual_rot'
p30
(F-0.3397934562993224
F-12.691508025019578
F-169.89005847884926
tp31
sS'target_pos'
p32
(lp33
cnumpy.core.multiarray
scalar
p34
(g12
S'\xb1D\x07 \xcb\xec\xab?'
p35
tp36
Rp37
ag34
(g12
S'mk\xbf\xe3\x1c\n\x98?'
p38
tp39
Rp40
ag34
(g12
S'\xc3v%k\xb0H\xc5\xbf'
p41
tp42
Rp43
asS'target_rot'
p44
g2
(cnumpy
ndarray
p45
(I0
tp46
g5
tp47
Rp48
(I1
(I3
tp49
g12
I00
S'~\x98\t\xee@\xf3\xc4\xbf>\x9eN\x87\x0f"\'\xc0\xf0\x89\xf5\xf2\xb9\x1fe\xc0'
p50
tp51
bsS'center_target_pixels'
p52
(I891
I197
tp53
sS'center_actual_pixels'
p54
(I893
I195
tp55
s.(dp0
S'actual_pos'
p1
(cnumpy.core.multiarray
_reconstruct
p2
(cnumpy.matrixlib.defmatrix
matrix
p3
(I0
tp4
S'b'
p5
tp6
Rp7
(I1
(I1
I1
tp8
cnumpy
dtype
p9
(S'f8'
p10
I0
I1
tp11
Rp12
(I3
S'<'
p13
NNNI-1
I-1
I0
tp14
bI00
S'\xe5@7\x18G\xcb\xa3?'
p15
tp16
bg2
(g3
(I0
tp17
g5
tp18
Rp19
(I1
(I1
I1
tp20
g12
I00
S'\x1b$T;P6\x97?'
p21
tp22
bg2
(g3
(I0
tp23
g5
tp24
Rp25
(I1
(I1
I1
tp26
g12
I00
S'\xf3\x11\xbc\xcd\x83\x07\xc5\xbf'
p27
tp28
btp29
sS'actual_rot'
p30
(F0.01703360644077293
F-9.969067342105339
F-171.23993105528322
tp31
sS'target_pos'
p32
(lp33
cnumpy.core.multiarray
scalar
p34
(g12
S'\xdfz\xb2\x1e\xa47\xa4?'
p35
tp36
Rp37
ag34
(g12
S'\xa1\xe9\xe6\xd1\xf0\xd9\x96?'
p38
tp39
Rp40
ag34
(g12
S'D\x8c\xfa\x12\xaf\x0c\xc5\xbf'
p41
tp42
Rp43
asS'target_rot'
p44
g2
(cnumpy
ndarray
p45
(I0
tp46
g5
tp47
Rp48
(I1
(I3
tp49
g12
I00
S'~\x98\t\xee@\xf3\xc4\xbf>\x9eN\x87\x0f"\'\xc0\xf0\x89\xf5\xf2\xb9\x1fe\xc0'
p50
tp51
bsS'center_target_pixels'
p52
(I1068
I209
tp53
sS'center_actual_pixels'
p54
(I1069
I207
tp55
s.(dp0
S'actual_pos'
p1
(cnumpy.core.multiarray
_reconstruct
p2
(cnumpy.matrixlib.defmatrix
matrix
p3
(I0
tp4
S'b'
p5
tp6
Rp7
(I1
(I1
I1
tp8
cnumpy
dtype
p9
(S'f8'
p10
I0
I1
tp11
Rp12
(I3
S'<'
p13
NNNI-1
I-1
I0
tp14
bI00
S'\xe8\x06\x01\xe25\xaa\x97?'
p15
tp16
bg2
(g3
(I0
tp17
g5
tp18
Rp19
(I1
(I1
I1
tp20
g12
I00
S'\xfe\xb2\x18\\\x81\x1f\x96?'
p21
tp22
bg2
(g3
(I0
tp23
g5
tp24
Rp25
(I1
(I1
I1
tp26
g12
I00
S'U\xb2\x98\xcc\xcd\xca\xc4\xbf'
p27
tp28
btp29
sS'actual_rot'
p30
(F0.4140888618631985
F-6.979713036745866
F-172.21778454585422
tp31
sS'target_pos'
p32
(lp33
cnumpy.core.multiarray
scalar
p34
(g12
S'\xae\xcf\xb5}\xeb\xe3\x98?'
p35
tp36
Rp37
ag34
(g12
S'\xabM\x00\xb2{\xa9\x95?'
p38
tp39
Rp40
ag34
(g12
S'?3G4\xa0\xcf\xc4\xbf'
p41
tp42
Rp43
asS'target_rot'
p44
g2
(cnumpy
ndarray
p45
(I0
tp46
g5
tp47
Rp48
(I1
(I3
tp49
g12
I00
S'~\x98\t\xee@\xf3\xc4\xbf>\x9eN\x87\x0f"\'\xc0\xf0\x89\xf5\xf2\xb9\x1fe\xc0'
p50
tp51
bsS'center_target_pixels'
p52
(I1244
I221
tp53
sS'center_actual_pixels'
p54
(I1248
I223
tp55
s.(dp0
S'actual_pos'
p1
(cnumpy.core.multiarray
_reconstruct
p2
(cnumpy.matrixlib.defmatrix
matrix
p3
(I0
tp4
S'b'
p5
tp6
Rp7
(I1
(I1
I1
tp8
cnumpy
dtype
p9
(S'f8'
p10
I0
I1
tp11
Rp12
(I3
S'<'
p13
NNNI-1
I-1
I0
tp14
bI00
S'\xe3\xd4\xdb7/6\x7f?'
p15
tp16
bg2
(g3
(I0
tp17
g5
tp18
Rp19
(I1
(I1
I1
tp20
g12
I00
S'\xec&\x17\x022\xab\x94?'
p21
tp22
bg2
(g3
(I0
tp23
g5
tp24
Rp25
(I1
(I1
I1
tp26
g12
I00
S'+\x14\xd1z\x05\x8e\xc4\xbf'
p27
tp28
btp29
sS'actual_rot'
p30
(F0.5308853073359192
F-5.75471965514913
F-172.91706554823048
tp31
sS'target_pos'
p32
(lp33
cnumpy.core.multiarray
scalar
p34
(g12
S'l\xbdSf\x00I\x82?'
p35
tp36
Rp37
ag34
(g12
S'm\xb9/\xa2\xe1^\x94?'
p38
tp39
Rp40
ag34
(g12
S'\x87\x9a\xce-0\x91\xc4\xbf'
p41
tp42
Rp43
asS'target_rot'
p44
g2
(cnumpy
ndarray
p45
(I0
tp46
g5
tp47
Rp48
(I1
(I3
tp49
g12
I00
S'~\x98\t\xee@\xf3\xc4\xbf>\x9eN\x87\x0f"\'\xc0\xf0\x89\xf5\xf2\xb9\x1fe\xc0'
p50
tp51
bsS'center_target_pixels'
p52
(I1420
I232
tp53
sS'center_actual_pixels'
p54
(I1422
I232
tp55
s.(dp0
S'actual_pos'
p1
(cnumpy.core.multiarray
_reconstruct
p2
(cnumpy.matrixlib.defmatrix
matrix
p3
(I0
tp4
S'b'
p5
tp6
Rp7
(I1
(I1
I1
tp8
cnumpy
dtype
p9
(S'f8'
p10
I0
I1
tp11
Rp12
(I3
S'<'
p13
NNNI-1
I-1
I0
tp14
bI00
S'\x97[|\x0b\xe6|\xaf?'
p15
tp16
bg2
(g3
(I0
tp17
g5
tp18
Rp19
(I1
(I1
I1
tp20
g12
I00
S'\xf3\x96\x88\x0b\x94`\xa0?'
p21
tp22
bg2
(g3
(I0
tp23
g5
tp24
Rp25
(I1
(I1
I1
tp26
g12
I00
S'qi\x0c\xd9\xafZ\xc5\xbf'
p27
tp28
btp29
sS'actual_rot'
p30
(F-0.9851468073362575
F-15.718296951651215
F-167.47446318448834
tp31
sS'target_pos'
p32
(lp33
cnumpy.core.multiarray
scalar
p34
(g12
S'@\x1f\xa1\xc8\x96\x87\xaf?'
p35
tp36
Rp37
ag34
(g12
S'D\xcf\x9aw2)\xa0?'
p38
tp39
Rp40
ag34
(g12
S'\xcd2\xdc|\x11e\xc5\xbf'
p41
tp42
Rp43
asS'target_rot'
p44
g2
(cnumpy
ndarray
p45
(I0
tp46
g5
tp47
Rp48
(I1
(I3
tp49
g12
I00
S'~\x98\t\xee@\xf3\xc4\xbf>\x9eN\x87\x0f"\'\xc0\xf0\x89\xf5\xf2\xb9\x1fe\xc0'
p50
tp51
bsS'center_target_pixels'
p52
(I796
I279
tp53
sS'center_actual_pixels'
p54
(I792
I275
tp55
s.(dp0
S'actual_pos'
p1
(cnumpy.core.multiarray
_reconstruct
p2
(cnumpy.matrixlib.defmatrix
matrix
p3
(I0
tp4
S'b'
p5
tp6
Rp7
(I1
(I1
I1
tp8
cnumpy
dtype
p9
(S'f8'
p10
I0
I1
tp11
Rp12
(I3
S'<'
p13
NNNI-1
I-1
I0
tp14
bI00
S'V\x81Z\xbe\xc6\x8c\xa7?'
p15
tp16
bg2
(g3
(I0
tp17
g5
tp18
Rp19
(I1
(I1
I1
tp20
g12
I00
S'\x16\xbf\xfcE\x99\xa4\x9f?'
p21
tp22
bg2
(g3
(I0
tp23
g5
tp24
Rp25
(I1
(I1
I1
tp26
g12
I00
S'\xb4\xc5\x87\xb7o!\xc5\xbf'
p27
tp28
btp29
sS'actual_rot'
p30
(F-0.3158934197389182
F-12.256176113050168
F-168.78664935888256
tp31
sS'target_pos'
p32
(lp33
cnumpy.core.multiarray
scalar
p34
(g12
S'\xb7_\xcd\xd5+\xd4\xa7?'
p35
tp36
Rp37
ag34
(g12
S'H+\x0c\x06\x9c.\x9f?'
p38
tp39
Rp40
ag34
(g12
S'\xdde\x96\x11\x9f)\xc5\xbf'
p41
tp42
Rp43
asS'target_rot'
p44
g2
(cnumpy
ndarray
p45
(I0
tp46
g5
tp47
Rp48
(I1
(I3
tp49
g12
I00
S'~\x98\t\xee@\xf3\xc4\xbf>\x9eN\x87\x0f"\'\xc0\xf0\x89\xf5\xf2\xb9\x1fe\xc0'
p50
tp51
bsS'center_target_pixels'
p52
(I974
I291
tp53
sS'center_actual_pixels'
p54
(I973
I289
tp55
s.(dp0
S'actual_pos'
p1
(cnumpy.core.multiarray
_reconstruct
p2
(cnumpy.matrixlib.defmatrix
matrix
p3
(I0
tp4
S'b'
p5
tp6
Rp7
(I1
(I1
I1
tp8
cnumpy
dtype
p9
(S'f8'
p10
I0
I1
tp11
Rp12
(I3
S'<'
p13
NNNI-1
I-1
I0
tp14
bI00
S'\xe2\xd3\x7f\xc3\xb6T\x9f?'
p15
tp16
bg2
(g3
(I0
tp17
g5
tp18
Rp19
(I1
(I1
I1
tp20
g12
I00
S'c\x1a\xeb\x08\xe4N\x9e?'
p21
tp22
bg2
(g3
(I0
tp23
g5
tp24
Rp25
(I1
(I1
I1
tp26
g12
I00
S'\x9e\xbe\xf4\xeb\xff\xe7\xc4\xbf'
p27
tp28
btp29
sS'actual_rot'
p30
(F0.16633991812021506
F-9.548749077482745
F-170.33269487093472
tp31
sS'target_pos'
p32
(lp33
cnumpy.core.multiarray
scalar
p34
(g12
S'i\x866\x10(\x11\xa0?'
p35
tp36
Rp37
ag34
(g12
S'2\x93/=\xe6\xf3\x9d?'
p38
tp39
Rp40
ag34
(g12
S'%i\xb5\xca%\xed\xc4\xbf'
p41
tp42
Rp43
asS'target_rot'
p44
g2
(cnumpy
ndarray
p45
(I0
tp46
g5
tp47
Rp48
(I1
(I3
tp49
g12
I00
S'~\x98\t\xee@\xf3\xc4\xbf>\x9eN\x87\x0f"\'\xc0\xf0\x89\xf5\xf2\xb9\x1fe\xc0'
p50
tp51
bsS'center_target_pixels'
p52
(I1151
I302
tp53
sS'center_actual_pixels'
p54
(I1152
I300
tp55
s.(dp0
S'actual_pos'
p1
(cnumpy.core.multiarray
_reconstruct
p2
(cnumpy.matrixlib.defmatrix
matrix
p3
(I0
tp4
S'b'
p5
tp6
Rp7
(I1
(I1
I1
tp8
cnumpy
dtype
p9
(S'f8'
p10
I0
I1
tp11
Rp12
(I3
S'<'
p13
NNNI-1
I-1
I0
tp14
bI00
S'?$\xd8\x0eZI\x8e?'
p15
tp16
bg2
(g3
(I0
tp17
g5
tp18
Rp19
(I1
(I1
I1
tp20
g12
I00
S"\xa9Q'Iv\x13\x9d?"
p21
tp22
bg2
(g3
(I0
tp23
g5
tp24
Rp25
(I1
(I1
I1
tp26
g12
I00
S'Es\xec\xb9R\xac\xc4\xbf'
p27
tp28
btp29
sS'actual_rot'
p30
(F0.6951710747657743
F-6.448650969318292
F-171.0730779019947
tp31
sS'target_pos'
p32
(lp33
cnumpy.core.multiarray
scalar
p34
(g12
S'\xe2\xd6\xfb\xc5]d\x90?'
p35
tp36
Rp37
ag34
(g12
S'/\xabm\xbfP\xb5\x9c?'
p38
tp39
Rp40
ag34
(g12
S'\xafmj\xceA\xaf\xc4\xbf'
p41
tp42
Rp43
asS'target_rot'
p44
g2
(cnumpy
ndarray
p45
(I0
tp46
g5
tp47
Rp48
(I1
(I3
tp49
g12
I00
S'~\x98\t\xee@\xf3\xc4\xbf>\x9eN\x87\x0f"\'\xc0\xf0\x89\xf5\xf2\xb9\x1fe\xc0'
p50
tp51
bsS'center_target_pixels'
p52
(I1328
I313
tp53
sS'center_actual_pixels'
p54
(I1335
I314
tp55
s.(dp0
S'actual_pos'
p1
(cnumpy.core.multiarray
_reconstruct
p2
(cnumpy.matrixlib.defmatrix
matrix
p3
(I0
tp4
S'b'
p5
tp6
Rp7
(I1
(I1
I1
tp8
cnumpy
dtype
p9
(S'f8'
p10
I0
I1
tp11
Rp12
(I3
S'<'
p13
NNNI-1
I-1
I0
tp14
bI00
S'\xfe\x92i\xbe\xea\x8d\xb1?'
p15
tp16
bg2
(g3
(I0
tp17
g5
tp18
Rp19
(I1
(I1
I1
tp20
g12
I00
S'\xc0>\xcfW\xa8\x96\xa4?'
p21
tp22
bg2
(g3
(I0
tp23
g5
tp24
Rp25
(I1
(I1
I1
tp26
g12
I00
S'E\xb0&\x96\xe2r\xc5\xbf'
p27
tp28
btp29
sS'actual_rot'
p30
(F-1.24854109652107
F-16.193578027307996
F-165.83695502265238
tp31
sS'target_pos'
p32
(lp33
cnumpy.core.multiarray
scalar
p34
(g12
S'(\xa6\xdf_\x7f\x8d\xb1?'
p35
tp36
Rp37
ag34
(g12
S'\x00s^\xd4\xa6Q\xa4?'
p38
tp39
Rp40
ag34
(g12
S'J\xdc\xd5H\xc4\x80\xc5\xbf'
p41
tp42
Rp43
asS'target_rot'
p44
g2
(cnumpy
ndarray
p45
(I0
tp46
g5
tp47
Rp48
(I1
(I3
tp49
g12
I00
S'~\x98\t\xee@\xf3\xc4\xbf>\x9eN\x87\x0f"\'\xc0\xf0\x89\xf5\xf2\xb9\x1fe\xc0'
p50
tp51
bsS'center_target_pixels'
p52
(I701
I362
tp53
sS'center_actual_pixels'
p54
(I703
I360
tp55
s.(dp0
S'actual_pos'
p1
(cnumpy.core.multiarray
_reconstruct
p2
(cnumpy.matrixlib.defmatrix
matrix
p3
(I0
tp4
S'b'
p5
tp6
Rp7
(I1
(I1
I1
tp8
cnumpy
dtype
p9
(S'f8'
p10
I0
I1
tp11
Rp12
(I3
S'<'
p13
NNNI-1
I-1
I0
tp14
bI00
S'\xe8\xfa\x1a\xe6\xef)\xab?'
p15
tp16
bg2
(g3
(I0
tp17
g5
tp18
Rp19
(I1
(I1
I1
tp20
g12
I00
S'\xc4s\xc3\x18\xd0\x11\xa4?'
p21
tp22
bg2
(g3
(I0
tp23
g5
tp24
Rp25
(I1
(I1
I1
tp26
g12
I00
S'"\x99IE\xf59\xc5\xbf'
p27
tp28
btp29
sS'actual_rot'
p30
(F-0.6283978714032721
F-13.420924361138326
F-167.1119644988543
tp31
sS'target_pos'
p32
(lp33
cnumpy.core.multiarray
scalar
p34
(g12
S'\xc3M\x93\x9a\x9bi\xab?'
p35
tp36
Rp37
ag34
(g12
S'\x9a}\xe4\x7f6\xc6\xa3?'
p38
tp39
Rp40
ag34
(g12
S'\x90\xdd\xb4\xde\xe1E\xc5\xbf'
p41
tp42
Rp43
asS'target_rot'
p44
g2
(cnumpy
ndarray
p45
(I0
tp46
g5
tp47
Rp48
(I1
(I3
tp49
g12
I00
S'~\x98\t\xee@\xf3\xc4\xbf>\x9eN\x87\x0f"\'\xc0\xf0\x89\xf5\xf2\xb9\x1fe\xc0'
p50
tp51
bsS'center_target_pixels'
p52
(I880
I374
tp53
sS'center_actual_pixels'
p54
(I882
I376
tp55
s.(dp0
S'actual_pos'
p1
(cnumpy.core.multiarray
_reconstruct
p2
(cnumpy.matrixlib.defmatrix
matrix
p3
(I0
tp4
S'b'
p5
tp6
Rp7
(I1
(I1
I1
tp8
cnumpy
dtype
p9
(S'f8'
p10
I0
I1
tp11
Rp12
(I3
S'<'
p13
NNNI-1
I-1
I0
tp14
bI00
S'\xb3\xf4\x99\rTO\xa3?'
p15
tp16
bg2
(g3
(I0
tp17
g5
tp18
Rp19
(I1
(I1
I1
tp20
g12
I00
S'\x00(~\xc7#c\xa3?'
p21
tp22
bg2
(g3
(I0
tp23
g5
tp24
Rp25
(I1
(I1
I1
tp26
g12
I00
S'\xff\xb9^\rQ\x00\xc5\xbf'
p27
tp28
btp29
sS'actual_rot'
p30
(F-0.053592980055434856
F-10.835865111878833
F-168.81742735168766
tp31
sS'target_pos'
p32
(lp33
cnumpy.core.multiarray
scalar
p34
(g12
S'L\x93\xb2\x07\x8a\xa9\xa3?'
p35
tp36
Rp37
ag34
(g12
S'\x92j\xf9\r\r$\xa3?'
p38
tp39
Rp40
ag34
(g12
S'sV\xf7h\x00\n\xc5\xbf'
p41
tp42
Rp43
asS'target_rot'
p44
g2
(cnumpy
ndarray
p45
(I0
tp46
g5
tp47
Rp48
(I1
(I3
tp49
g12
I00
S'~\x98\t\xee@\xf3\xc4\xbf>\x9eN\x87\x0f"\'\xc0\xf0\x89\xf5\xf2\xb9\x1fe\xc0'
p50
tp51
bsS'center_target_pixels'
p52
(I1058
I384
tp53
sS'center_actual_pixels'
p54
(I1062
I387
tp55
s.(dp0
S'actual_pos'
p1
(cnumpy.core.multiarray
_reconstruct
p2
(cnumpy.matrixlib.defmatrix
matrix
p3
(I0
tp4
S'b'
p5
tp6
Rp7
(I1
(I1
I1
tp8
cnumpy
dtype
p9
(S'f8'
p10
I0
I1
tp11
Rp12
(I3
S'<'
p13
NNNI-1
I-1
I0
tp14
bI00
S'\xd1\xd0\x99f\x14\x8b\x96?'
p15
tp16
bg2
(g3
(I0
tp17
g5
tp18
Rp19
(I1
(I1
I1
tp20
g12
I00
S'}m\xdb\x14E\xc8\xa2?'
p21
tp22
bg2
(g3
(I0
tp23
g5
tp24
Rp25
(I1
(I1
I1
tp26
g12
I00
S'\xe4\x18~B\x95\xc5\xc4\xbf'
p27
tp28
btp29
sS'actual_rot'
p30
(F0.7563080928890326
F-7.324095750838118
F-169.29495693412758
tp31
sS'target_pos'
p32
(lp33
cnumpy.core.multiarray
scalar
p34
(g12
S'4m\xf0\xde\xd5\xad\x97?'
p35
tp36
Rp37
ag34
(g12
S'\x98\xad\x88M\x9a\x8c\xa2?'
p38
tp39
Rp40
ag34
(g12
S'\x84\x01\xf0\x99\x02\xcd\xc4\xbf'
p41
tp42
Rp43
asS'target_rot'
p44
g2
(cnumpy
ndarray
p45
(I0
tp46
g5
tp47
Rp48
(I1
(I3
tp49
g12
I00
S'~\x98\t\xee@\xf3\xc4\xbf>\x9eN\x87\x0f"\'\xc0\xf0\x89\xf5\xf2\xb9\x1fe\xc0'
p50
tp51
bsS'center_target_pixels'
p52
(I1235
I395
tp53
sS'center_actual_pixels'
p54
(I1238
I399
tp55
s.(dp0
S'actual_pos'
p1
(cnumpy.core.multiarray
_reconstruct
p2
(cnumpy.matrixlib.defmatrix
matrix
p3
(I0
tp4
S'b'
p5
tp6
Rp7
(I1
(I1
I1
tp8
cnumpy
dtype
p9
(S'f8'
p10
I0
I1
tp11
Rp12
(I3
S'<'
p13
NNNI-1
I-1
I0
tp14
bI00
S'RW\xb8w\x7fnz?'
p15
tp16
bg2
(g3
(I0
tp17
g5
tp18
Rp19
(I1
(I1
I1
tp20
g12
I00
S'Z\xde\xc0\xeap\x1a\xa2?'
p21
tp22
bg2
(g3
(I0
tp23
g5
tp24
Rp25
(I1
(I1
I1
tp26
g12
I00
S'\x15!\x03\x17h\x89\xc4\xbf'
p27
tp28
btp29
sS'actual_rot'
p30
(F1.0003262715141479
F-6.112172187354436
F-169.99418632319635
tp31
sS'target_pos'
p32
(lp33
cnumpy.core.multiarray
scalar
p34
(g12
S'\x90\x0f\x9f\x98\xcd\xa8\x7f?'
p35
tp36
Rp37
ag34
(g12
S'\xd9\x1aE\x90m\xe9\xa1?'
p38
tp39
Rp40
ag34
(g12
S'\xc0\xb5\xcd\x11\xfa\x8e\xc4\xbf'
p41
tp42
Rp43
asS'target_rot'
p44
g2
(cnumpy
ndarray
p45
(I0
tp46
g5
tp47
Rp48
(I1
(I3
tp49
g12
I00
S'~\x98\t\xee@\xf3\xc4\xbf>\x9eN\x87\x0f"\'\xc0\xf0\x89\xf5\xf2\xb9\x1fe\xc0'
p50
tp51
bsS'center_target_pixels'
p52
(I1411
I405
tp53
sS'center_actual_pixels'
p54
(I1413
I408
tp55
s.(dp0
S'actual_pos'
p1
(cnumpy.core.multiarray
_reconstruct
p2
(cnumpy.matrixlib.defmatrix
matrix
p3
(I0
tp4
S'b'
p5
tp6
Rp7
(I1
(I1
I1
tp8
cnumpy
dtype
p9
(S'f8'
p10
I0
I1
tp11
Rp12
(I3
S'<'
p13
NNNI-1
I-1
I0
tp14
bI00
S'\xd1\xbc^\x1c\xb5\xde\xae?'
p15
tp16
bg2
(g3
(I0
tp17
g5
tp18
Rp19
(I1
(I1
I1
tp20
g12
I00
S'\x8c`h\x16\x82k\xa8?'
p21
tp22
bg2
(g3
(I0
tp23
g5
tp24
Rp25
(I1
(I1
I1
tp26
g12
I00
S'\x84y\x14!\xa3S\xc5\xbf'
p27
tp28
btp29
sS'actual_rot'
p30
(F-1.4166610738432417
F-15.952886656773432
F-164.7804067312448
tp31
sS'target_pos'
p32
(lp33
cnumpy.core.multiarray
scalar
p34
(g12
S'\xce-\x1f\xf8j\xde\xae?'
p35
tp36
Rp37
ag34
(g12
S'w{\xd4w\xf0+\xa8?'
p38
tp39
Rp40
ag34
(g12
S'1\xae;\x86\xdea\xc5\xbf'
p41
tp42
Rp43
asS'target_rot'
p44
g2
(cnumpy
ndarray
p45
(I0
tp46
g5
tp47
Rp48
(I1
(I3
tp49
g12
I00
S'~\x98\t\xee@\xf3\xc4\xbf>\x9eN\x87\x0f"\'\xc0\xf0\x89\xf5\xf2\xb9\x1fe\xc0'
p50
tp51
bsS'center_target_pixels'
p52
(I785
I456
tp53
sS'center_actual_pixels'
p54
(I787
I457
tp55
s.(dp0
S'actual_pos'
p1
(cnumpy.core.multiarray
_reconstruct
p2
(cnumpy.matrixlib.defmatrix
matrix
p3
(I0
tp4
S'b'
p5
tp6
Rp7
(I1
(I1
I1
tp8
cnumpy
dtype
p9
(S'f8'
p10
I0
I1
tp11
Rp12
(I3
S'<'
p13
NNNI-1
I-1
I0
tp14
bI00
S'\xae\x04yt[\xec\xa6?'
p15
tp16
bg2
(g3
(I0
tp17
g5
tp18
Rp19
(I1
(I1
I1
tp20
g12
I00
S'\n\xde\x19jR\xd9\xa7?'
p21
tp22
bg2
(g3
(I0
tp23
g5
tp24
Rp25
(I1
(I1
I1
tp26
g12
I00
S'\xf4\x02\xdd\xc3\x83\x1f\xc5\xbf'
p27
tp28
btp29
sS'actual_rot'
p30
(F-0.46463951283966415
F-12.507381847401005
F-167.70266165521625
tp31
sS'target_pos'
p32
(lp33
cnumpy.core.multiarray
scalar
p34
(g12
S"#\xeck\xedm'\xa7?"
p35
tp36
Rp37
ag34
(g12
S'eF\xcb\xf4;\x93\xa7?'
p38
tp39
Rp40
ag34
(g12
S'\x11P\x0b\xda\x84&\xc5\xbf'
p41
tp42
Rp43
asS'target_rot'
p44
g2
(cnumpy
ndarray
p45
(I0
tp46
g5
tp47
Rp48
(I1
(I3
tp49
g12
I00
S'~\x98\t\xee@\xf3\xc4\xbf>\x9eN\x87\x0f"\'\xc0\xf0\x89\xf5\xf2\xb9\x1fe\xc0'
p50
tp51
bsS'center_target_pixels'
p52
(I964
I467
tp53
sS'center_actual_pixels'
p54
(I965
I467
tp55
s.(dp0
S'actual_pos'
p1
(cnumpy.core.multiarray
_reconstruct
p2
(cnumpy.matrixlib.defmatrix
matrix
p3
(I0
tp4
S'b'
p5
tp6
Rp7
(I1
(I1
I1
tp8
cnumpy
dtype
p9
(S'f8'
p10
I0
I1
tp11
Rp12
(I3
S'<'
p13
NNNI-1
I-1
I0
tp14
bI00
S'd\x11\xfbU!\x19\x9e?'
p15
tp16
bg2
(g3
(I0
tp17
g5
tp18
Rp19
(I1
(I1
I1
tp20
g12
I00
S'\x8c\xdbq4%\x00\xa7?'
p21
tp22
bg2
(g3
(I0
tp23
g5
tp24
Rp25
(I1
(I1
I1
tp26
g12
I00
S'E0\x08\x1d\x9e\xe1\xc4\xbf'
p27
tp28
btp29
sS'actual_rot'
p30
(F0.371934294584309
F-9.460430784854683
F-169.0547888384493
tp31
sS'target_pos'
p32
(lp33
cnumpy.core.multiarray
scalar
p34
(g12
S'#\xd3f\xbd\xbb\xf3\x9e?'
p35
tp36
Rp37
ag34
(g12
S'\x97\x9a\x9ckO\xc9\xa6?'
p38
tp39
Rp40
ag34
(g12
S'\xb4g\xda\x1dw\xea\xc4\xbf'
p41
tp42
Rp43
asS'target_rot'
p44
g2
(cnumpy
ndarray
p45
(I0
tp46
g5
tp47
Rp48
(I1
(I3
tp49
g12
I00
S'~\x98\t\xee@\xf3\xc4\xbf>\x9eN\x87\x0f"\'\xc0\xf0\x89\xf5\xf2\xb9\x1fe\xc0'
p50
tp51
bsS'center_target_pixels'
p52
(I1141
I477
tp53
sS'center_actual_pixels'
p54
(I1142
I476
tp55
s.(dp0
S'actual_pos'
p1
(cnumpy.core.multiarray
_reconstruct
p2
(cnumpy.matrixlib.defmatrix
matrix
p3
(I0
tp4
S'b'
p5
tp6
Rp7
(I1
(I1
I1
tp8
cnumpy
dtype
p9
(S'f8'
p10
I0
I1
tp11
Rp12
(I3
S'<'
p13
NNNI-1
I-1
I0
tp14
bI00
S'\xa6\xaf\xd2iE\xf8\x8b?'
p15
tp16
bg2
(g3
(I0
tp17
g5
tp18
Rp19
(I1
(I1
I1
tp20
g12
I00
S'\xd7\xf1O\xf7\xc9f\xa6?'
p21
tp22
bg2
(g3
(I0
tp23
g5
tp24
Rp25
(I1
(I1
I1
tp26
g12
I00
S'G&J\xdd\xac\xa6\xc4\xbf'
p27
tp28
btp29
sS'actual_rot'
p30
(F1.0529319069432959
F-6.8999164638553445
F-170.07999960069435
tp31
sS'target_pos'
p32
(lp33
cnumpy.core.multiarray
scalar
p34
(g12
S'\xc2\x96G\xa3xd\x8e?'
p35
tp36
Rp37
ag34
(g12
S'\xfd\xc2\x07q\x88,\xa6?'
p38
tp39
Rp40
ag34
(g12
S'\xec|\xdf\x1c\xfe\xac\xc4\xbf'
p41
tp42
Rp43
asS'target_rot'
p44
g2
(cnumpy
ndarray
p45
(I0
tp46
g5
tp47
Rp48
(I1
(I3
tp49
g12
I00
S'~\x98\t\xee@\xf3\xc4\xbf>\x9eN\x87\x0f"\'\xc0\xf0\x89\xf5\xf2\xb9\x1fe\xc0'
p50
tp51
bsS'center_target_pixels'
p52
(I1318
I487
tp53
sS'center_actual_pixels'
p54
(I1322
I487
tp55
s.(dp0
S'actual_pos'
p1
(cnumpy.core.multiarray
_reconstruct
p2
(cnumpy.matrixlib.defmatrix
matrix
p3
(I0
tp4
S'b'
p5
tp6
Rp7
(I1
(I1
I1
tp8
cnumpy
dtype
p9
(S'f8'
p10
I0
I1
tp11
Rp12
(I3
S'<'
p13
NNNI-1
I-1
I0
tp14
bI00
S"l\xb6\xe22)'\xb1?"
p15
tp16
bg2
(g3
(I0
tp17
g5
tp18
Rp19
(I1
(I1
I1
tp20
g12
I00
S'\xab\x1c\x8eSv\xd8\xac?'
p21
tp22
bg2
(g3
(I0
tp23
g5
tp24
Rp25
(I1
(I1
I1
tp26
g12
I00
S'dNKz\xaam\xc5\xbf'
p27
tp28
btp29
sS'actual_rot'
p30
(F-1.6769217028666863
F-16.028147437592985
F-165.05050925084714
tp31
sS'target_pos'
p32
(lp33
cnumpy.core.multiarray
scalar
p34
(g12
S'\x1a\xf7\xe3\xc9\xda,\xb1?'
p35
tp36
Rp37
ag34
(g12
S'<\\\xeb<\xb5\xad\xac?'
p38
tp39
Rp40
ag34
(g12
S'`\xb5\xd1\x14"}\xc5\xbf'
p41
tp42
Rp43
asS'target_rot'
p44
g2
(cnumpy
ndarray
p45
(I0
tp46
g5
tp47
Rp48
(I1
(I3
tp49
g12
I00
S'~\x98\t\xee@\xf3\xc4\xbf>\x9eN\x87\x0f"\'\xc0\xf0\x89\xf5\xf2\xb9\x1fe\xc0'
p50
tp51
bsS'center_target_pixels'
p52
(I690
I540
tp53
sS'center_actual_pixels'
p54
(I694
I543
tp55
s.(dp0
S'actual_pos'
p1
(cnumpy.core.multiarray
_reconstruct
p2
(cnumpy.matrixlib.defmatrix
matrix
p3
(I0
tp4
S'b'
p5
tp6
Rp7
(I1
(I1
I1
tp8
cnumpy
dtype
p9
(S'f8'
p10
I0
I1
tp11
Rp12
(I3
S'<'
p13
NNNI-1
I-1
I0
tp14
bI00
S'\x14\xfc\xf4w\xe7r\xaa?'
p15
tp16
bg2
(g3
(I0
tp17
g5
tp18
Rp19
(I1
(I1
I1
tp20
g12
I00
S'\xa6\xe3\x96\xe8\x96\x1b\xac?'
p21
tp22
bg2
(g3
(I0
tp23
g5
tp24
Rp25
(I1
(I1
I1
tp26
g12
I00
S'\x06\\b\xbbh5\xc5\xbf'
p27
tp28
btp29
sS'actual_rot'
p30
(F-0.7101937494826285
F-13.148025730674554
F-166.0899485728332
tp31
sS'target_pos'
p32
(lp33
cnumpy.core.multiarray
scalar
p34
(g12
S']\x9e0\xc2,\xa9\xaa?'
p35
tp36
Rp37
ag34
(g12
S'\xb3\xa3\x0f\x98\x91\xf5\xab?'
p38
tp39
Rp40
ag34
(g12
S'\xef\x9d\xb0\xe4dB\xc5\xbf'
p41
tp42
Rp43
asS'target_rot'
p44
g2
(cnumpy
ndarray
p45
(I0
tp46
g5
tp47
Rp48
(I1
(I3
tp49
g12
I00
S'~\x98\t\xee@\xf3\xc4\xbf>\x9eN\x87\x0f"\'\xc0\xf0\x89\xf5\xf2\xb9\x1fe\xc0'
p50
tp51
bsS'center_target_pixels'
p52
(I870
I550
tp53
sS'center_actual_pixels'
p54
(I877
I554
tp55
s.(dp0
S'actual_pos'
p1
(cnumpy.core.multiarray
_reconstruct
p2
(cnumpy.matrixlib.defmatrix
matrix
p3
(I0
tp4
S'b'
p5
tp6
Rp7
(I1
(I1
I1
tp8
cnumpy
dtype
p9
(S'f8'
p10
I0
I1
tp11
Rp12
(I3
S'<'
p13
NNNI-1
I-1
I0
tp14
bI00
S'\x04\x9e\xf1\x9f\xca~\xa2?'
p15
tp16
bg2
(g3
(I0
tp17
g5
tp18
Rp19
(I1
(I1
I1
tp20
g12
I00
S'\x1f\xf3(\x112~\xab?'
p21
tp22
bg2
(g3
(I0
tp23
g5
tp24
Rp25
(I1
(I1
I1
tp26
g12
I00
S"\xbb\xcfy'\xf0\xfb\xc4\xbf"
p27
tp28
btp29
sS'actual_rot'
p30
(F0.15746549815693925
F-10.363665475762955
F-167.4478957820396
tp31
sS'target_pos'
p32
(lp33
cnumpy.core.multiarray
scalar
p34
(g12
S'e\xa2\xff^2\xf5\xa2?'
p35
tp36
Rp37
ag34
(g12
S'B\xd2`,\nZ\xab?'
p38
tp39
Rp40
ag34
(g12
S'\xea\x92Y\x93<\x07\xc5\xbf'
p41
tp42
Rp43
asS'target_rot'
p44
g2
(cnumpy
ndarray
p45
(I0
tp46
g5
tp47
Rp48
(I1
(I3
tp49
g12
I00
S'~\x98\t\xee@\xf3\xc4\xbf>\x9eN\x87\x0f"\'\xc0\xf0\x89\xf5\xf2\xb9\x1fe\xc0'
p50
tp51
bsS'center_target_pixels'
p52
(I1047
I560
tp53
sS'center_actual_pixels'
p54
(I1063
I567
tp55
s.(dp0
S'actual_pos'
p1
(cnumpy.core.multiarray
_reconstruct
p2
(cnumpy.matrixlib.defmatrix
matrix
p3
(I0
tp4
S'b'
p5
tp6
Rp7
(I1
(I1
I1
tp8
cnumpy
dtype
p9
(S'f8'
p10
I0
I1
tp11
Rp12
(I3
S'<'
p13
NNNI-1
I-1
I0
tp14
bI00
S'\x1e\x8dld$G\x95?'
p15
tp16
bg2
(g3
(I0
tp17
g5
tp18
Rp19
(I1
(I1
I1
tp20
g12
I00
S'\x82\x13\xe3\xfe\xe2\xb3\xaa?'
p21
tp22
bg2
(g3
(I0
tp23
g5
tp24
Rp25
(I1
(I1
I1
tp26
g12
I00
S'\xc3\xfb@\xd6\xf8\xc3\xc4\xbf'
p27
tp28
btp29
sS'actual_rot'
p30
(F1.0469511095050956
F-7.605502187637201
F-169.03379106927784
tp31
sS'target_pos'
p32
(lp33
cnumpy.core.multiarray
scalar
p34
(g12
S'\x08M\xb8\x18Qd\x96?'
p35
tp36
Rp37
ag34
(g12
S'q\xcf\x91JL\x94\xaa?'
p38
tp39
Rp40
ag34
(g12
S"\xf7\x03'\x87\xac\xca\xc4\xbf"
p41
tp42
Rp43
asS'target_rot'
p44
g2
(cnumpy
ndarray
p45
(I0
tp46
g5
tp47
Rp48
(I1
(I3
tp49
g12
I00
S'~\x98\t\xee@\xf3\xc4\xbf>\x9eN\x87\x0f"\'\xc0\xf0\x89\xf5\xf2\xb9\x1fe\xc0'
p50
tp51
bsS'center_target_pixels'
p52
(I1224
I570
tp53
sS'center_actual_pixels'
p54
(I1231
I568
tp55
s.(dp0
S'actual_pos'
p1
(cnumpy.core.multiarray
_reconstruct
p2
(cnumpy.matrixlib.defmatrix
matrix
p3
(I0
tp4
S'b'
p5
tp6
Rp7
(I1
(I1
I1
tp8
cnumpy
dtype
p9
(S'f8'
p10
I0
I1
tp11
Rp12
(I3
S'<'
p13
NNNI-1
I-1
I0
tp14
bI00
S"I\x1b\x14'\x1b.u?"
p15
tp16
bg2
(g3
(I0
tp17
g5
tp18
Rp19
(I1
(I1
I1
tp20
g12
I00
S'\xde^\x0bdk\x1d\xaa?'
p21
tp22
bg2
(g3
(I0
tp23
g5
tp24
Rp25
(I1
(I1
I1
tp26
g12
I00
S'\xba\xfbr\x99F\x86\xc4\xbf'
p27
tp28
btp29
sS'actual_rot'
p30
(F1.4426018276999124
F-6.3294860296904565
F-169.35944847134866
tp31
sS'target_pos'
p32
(lp33
cnumpy.core.multiarray
scalar
p34
(g12
S',\xcd\xbe\xa4Y`z?'
p35
tp36
Rp37
ag34
(g12
S'4\xf3\xe3\xfc\xf1\xff\xa9?'
p38
tp39
Rp40
ag34
(g12
S'\xec\xa4pU\x08\x8d\xc4\xbf'
p41
tp42
Rp43
asS'target_rot'
p44
g2
(cnumpy
ndarray
p45
(I0
tp46
g5
tp47
Rp48
(I1
(I3
tp49
g12
I00
S'~\x98\t\xee@\xf3\xc4\xbf>\x9eN\x87\x0f"\'\xc0\xf0\x89\xf5\xf2\xb9\x1fe\xc0'
p50
tp51
bsS'center_target_pixels'
p52
(I1400
I580
tp53
sS'center_actual_pixels'
p54
(I1407
I576
tp55
s.(dp0
S'actual_pos'
p1
(cnumpy.core.multiarray
_reconstruct
p2
(cnumpy.matrixlib.defmatrix
matrix
p3
(I0
tp4
S'b'
p5
tp6
Rp7
(I1
(I1
I1
tp8
cnumpy
dtype
p9
(S'f8'
p10
I0
I1
tp11
Rp12
(I3
S'<'
p13
NNNI-1
I-1
I0
tp14
bI00
S"|y\xba%c'\xae?"
p15
tp16
bg2
(g3
(I0
tp17
g5
tp18
Rp19
(I1
(I1
I1
tp20
g12
I00
S'\x8a\xf6\x9a\x97\xc23\xb0?'
p21
tp22
bg2
(g3
(I0
tp23
g5
tp24
Rp25
(I1
(I1
I1
tp26
g12
I00
S'\xf3\x88\xcd\x13fP\xc5\xbf'
p27
tp28
btp29
sS'actual_rot'
p30
(F-1.9204753839462603
F-16.04386973141027
F-164.32735670976174
tp31
sS'target_pos'
p32
(lp33
cnumpy.core.multiarray
scalar
p34
(g12
S'\xbf\xfc\xbdA<%\xae?'
p35
tp36
Rp37
ag34
(g12
S'A\xc8\x89\x9b\x94(\xb0?'
p38
tp39
Rp40
ag34
(g12
S'\xb6\xdc\x9c\xc0\xe9]\xc5\xbf'
p41
tp42
Rp43
asS'target_rot'
p44
g2
(cnumpy
ndarray
p45
(I0
tp46
g5
tp47
Rp48
(I1
(I3
tp49
g12
I00
S'~\x98\t\xee@\xf3\xc4\xbf>\x9eN\x87\x0f"\'\xc0\xf0\x89\xf5\xf2\xb9\x1fe\xc0'
p50
tp51
bsS'center_target_pixels'
p52
(I775
I634
tp53
sS'center_actual_pixels'
p54
(I775
I630
tp55
s.(dp0
S'actual_pos'
p1
(cnumpy.core.multiarray
_reconstruct
p2
(cnumpy.matrixlib.defmatrix
matrix
p3
(I0
tp4
S'b'
p5
tp6
Rp7
(I1
(I1
I1
tp8
cnumpy
dtype
p9
(S'f8'
p10
I0
I1
tp11
Rp12
(I3
S'<'
p13
NNNI-1
I-1
I0
tp14
bI00
S'3\xeb3\xec(C\xa6?'
p15
tp16
bg2
(g3
(I0
tp17
g5
tp18
Rp19
(I1
(I1
I1
tp20
g12
I00
S'\xdf0\x91\xe4\x97\xc7\xaf?'
p21
tp22
bg2
(g3
(I0
tp23
g5
tp24
Rp25
(I1
(I1
I1
tp26
g12
I00
S'\xe39\xf1F\x05\x17\xc5\xbf'
p27
tp28
btp29
sS'actual_rot'
p30
(F-0.7826315740228522
F-13.024342918767882
F-165.31760159572238
tp31
sS'target_pos'
p32
(lp33
cnumpy.core.multiarray
scalar
p34
(g12
S'&[\xa9\xe6\xc6}\xa6?'
p35
tp36
Rp37
ag34
(g12
S'm\xbaQa\x94\xac\xaf?'
p38
tp39
Rp40
ag34
(g12
S'H\x1c8\xdc\xfd"\xc5\xbf'
p41
tp42
Rp43
asS'target_rot'
p44
g2
(cnumpy
ndarray
p45
(I0
tp46
g5
tp47
Rp48
(I1
(I3
tp49
g12
I00
S'~\x98\t\xee@\xf3\xc4\xbf>\x9eN\x87\x0f"\'\xc0\xf0\x89\xf5\xf2\xb9\x1fe\xc0'
p50
tp51
bsS'center_target_pixels'
p52
(I954
I644
tp53
sS'center_actual_pixels'
p54
(I956
I647
tp55
s.(dp0
S'actual_pos'
p1
(cnumpy.core.multiarray
_reconstruct
p2
(cnumpy.matrixlib.defmatrix
matrix
p3
(I0
tp4
S'b'
p5
tp6
Rp7
(I1
(I1
I1
tp8
cnumpy
dtype
p9
(S'f8'
p10
I0
I1
tp11
Rp12
(I3
S'<'
p13
NNNI-1
I-1
I0
tp14
bI00
S'x\xc3\x89\xd1\x9d\xba\x9c?'
p15
tp16
bg2
(g3
(I0
tp17
g5
tp18
Rp19
(I1
(I1
I1
tp20
g12
I00
S'\x90s\xa3\x03\xf0/\xaf?'
p21
tp22
bg2
(g3
(I0
tp23
g5
tp24
Rp25
(I1
(I1
I1
tp26
g12
I00
S'\x8b\x9d\x99\xcc\xb1\xdc\xc4\xbf'
p27
tp28
btp29
sS'actual_rot'
p30
(F0.26940895792699493
F-10.244496079464465
F-166.52024810622387
tp31
sS'target_pos'
p32
(lp33
cnumpy.core.multiarray
scalar
p34
(g12
S'\xc4\xfb\xb7\xf1\r\x88\x9d?'
p35
tp36
Rp37
ag34
(g12
S'1]\xb4\x13\xf4\x0e\xaf?'
p38
tp39
Rp40
ag34
(g12
S'\x80\r\xae\xb4\xb3\xe7\xc4\xbf'
p41
tp42
Rp43
asS'target_rot'
p44
g2
(cnumpy
ndarray
p45
(I0
tp46
g5
tp47
Rp48
(I1
(I3
tp49
g12
I00
S'~\x98\t\xee@\xf3\xc4\xbf>\x9eN\x87\x0f"\'\xc0\xf0\x89\xf5\xf2\xb9\x1fe\xc0'
p50
tp51
bsS'center_target_pixels'
p52
(I1130
I653
tp53
sS'center_actual_pixels'
p54
(I1134
I656
tp55
s.(dp0
S'actual_pos'
p1
(cnumpy.core.multiarray
_reconstruct
p2
(cnumpy.matrixlib.defmatrix
matrix
p3
(I0
tp4
S'b'
p5
tp6
Rp7
(I1
(I1
I1
tp8
cnumpy
dtype
p9
(S'f8'
p10
I0
I1
tp11
Rp12
(I3
S'<'
p13
NNNI-1
I-1
I0
tp14
bI00
S'TB\x88A/Y\x89?'
p15
tp16
bg2
(g3
(I0
tp17
g5
tp18
Rp19
(I1
(I1
I1
tp20
g12
I00
S'\xfa\x03c\xe7\xea\x97\xae?'
p21
tp22
bg2
(g3
(I0
tp23
g5
tp24
Rp25
(I1
(I1
I1
tp26
g12
I00
S'\x05\xcd\xd5\xd4\x87\xa2\xc4\xbf'
p27
tp28
btp29
sS'actual_rot'
p30
(F1.0516014424797968
F-8.103872833004512
F-168.43840006127388
tp31
sS'target_pos'
p32
(lp33
cnumpy.core.multiarray
scalar
p34
(g12
S'E\xcd\xcdY_l\x8b?'
p35
tp36
Rp37
ag34
(g12
S'\xb8TJ\xf9\x1c}\xae?'
p38
tp39
Rp40
ag34
(g12
S'V\x98\xff\xdc\x9f\xaa\xc4\xbf'
p41
tp42
Rp43
asS'target_rot'
p44
g2
(cnumpy
ndarray
p45
(I0
tp46
g5
tp47
Rp48
(I1
(I3
tp49
g12
I00
S'~\x98\t\xee@\xf3\xc4\xbf>\x9eN\x87\x0f"\'\xc0\xf0\x89\xf5\xf2\xb9\x1fe\xc0'
p50
tp51
bsS'center_target_pixels'
p52
(I1307
I663
tp53
sS'center_actual_pixels'
p54
(I1312
I665
tp55
s.(dp0
S'actual_pos'
p1
(cnumpy.core.multiarray
_reconstruct
p2
(cnumpy.matrixlib.defmatrix
matrix
p3
(I0
tp4
S'b'
p5
tp6
Rp7
(I1
(I1
I1
tp8
cnumpy
dtype
p9
(S'f8'
p10
I0
I1
tp11
Rp12
(I3
S'<'
p13
NNNI-1
I-1
I0
tp14
bI00
S'Ry>\x061\xf3\xb0?'
p15
tp16
bg2
(g3
(I0
tp17
g5
tp18
Rp19
(I1
(I1
I1
tp20
g12
I00
S'&,\xd6\xe0\xa6n\xb2?'
p21
tp22
bg2
(g3
(I0
tp23
g5
tp24
Rp25
(I1
(I1
I1
tp26
g12
I00
S'\x92\x1dD@Gh\xc5\xbf'
p27
tp28
btp29
sS'actual_rot'
p30
(F-2.2725396922974963
F-16.374395079305017
F-163.50431623140844
tp31
sS'target_pos'
p32
(lp33
cnumpy.core.multiarray
scalar
p34
(g12
S'\x8b \x13\n@\xf0\xb0?'
p35
tp36
Rp37
ag34
(g12
S'O\x9b`.\x1bc\xb2?'
p38
tp39
Rp40
ag34
(g12
S'\\\x9c\xa3K\x0fy\xc5\xbf'
p41
tp42
Rp43
asS'target_rot'
p44
g2
(cnumpy
ndarray
p45
(I0
tp46
g5
tp47
Rp48
(I1
(I3
tp49
g12
I00
S'~\x98\t\xee@\xf3\xc4\xbf>\x9eN\x87\x0f"\'\xc0\xf0\x89\xf5\xf2\xb9\x1fe\xc0'
p50
tp51
bsS'center_target_pixels'
p52
(I679
I719
tp53
sS'center_actual_pixels'
p54
(I680
I721
tp55
s.(dp0
S'actual_pos'
p1
(cnumpy.core.multiarray
_reconstruct
p2
(cnumpy.matrixlib.defmatrix
matrix
p3
(I0
tp4
S'b'
p5
tp6
Rp7
(I1
(I1
I1
tp8
cnumpy
dtype
p9
(S'f8'
p10
I0
I1
tp11
Rp12
(I3
S'<'
p13
NNNI-1
I-1
I0
tp14
bI00
S'\x9f\xcf1F\xee\x0b\xaa?'
p15
tp16
bg2
(g3
(I0
tp17
g5
tp18
Rp19
(I1
(I1
I1
tp20
g12
I00
S'\x1f\x17\x8e?\xd9\x0c\xb2?'
p21
tp22
bg2
(g3
(I0
tp23
g5
tp24
Rp25
(I1
(I1
I1
tp26
g12
I00
S'\xa5\x83~\xf6\xd41\xc5\xbf'
p27
tp28
btp29
sS'actual_rot'
p30
(F-1.3789738076628602
F-14.294125310013483
F-163.94106863850487
tp31
sS'target_pos'
p32
(lp33
cnumpy.core.multiarray
scalar
p34
(g12
S'\x9d\x06V*\xc7#\xaa?'
p35
tp36
Rp37
ag34
(g12
S'w\xb9\x97\xe4~\xff\xb1?'
p38
tp39
Rp40
ag34
(g12
S'\x07\x1c\xb7l\xc3>\xc5\xbf'
p41
tp42
Rp43
asS'target_rot'
p44
g2
(cnumpy
ndarray
p45
(I0
tp46
g5
tp47
Rp48
(I1
(I3
tp49
g12
I00
S'~\x98\t\xee@\xf3\xc4\xbf>\x9eN\x87\x0f"\'\xc0\xf0\x89\xf5\xf2\xb9\x1fe\xc0'
p50
tp51
bsS'center_target_pixels'
p52
(I859
I728
tp53
sS'center_actual_pixels'
p54
(I861
I731
tp55
s.(dp0
S'actual_pos'
p1
(cnumpy.core.multiarray
_reconstruct
p2
(cnumpy.matrixlib.defmatrix
matrix
p3
(I0
tp4
S'b'
p5
tp6
Rp7
(I1
(I1
I1
tp8
cnumpy
dtype
p9
(S'f8'
p10
I0
I1
tp11
Rp12
(I3
S'<'
p13
NNNI-1
I-1
I0
tp14
bI00
S'2m\xc22`\x07\xa2?'
p15
tp16
bg2
(g3
(I0
tp17
g5
tp18
Rp19
(I1
(I1
I1
tp20
g12
I00
S'-\xeb\xef,\xd5\xb6\xb1?'
p21
tp22
bg2
(g3
(I0
tp23
g5
tp24
Rp25
(I1
(I1
I1
tp26
g12
I00
S'/\xd7-V.\xf7\xc4\xbf'
p27
tp28
btp29
sS'actual_rot'
p30
(F-0.13514404620103554
F-11.33012651672509
F-164.96022255937868
tp31
sS'target_pos'
p32
(lp33
cnumpy.core.multiarray
scalar
p34
(g12
S'T\x8e\x18\xac\xee_\xa2?'
p35
tp36
Rp37
ag34
(g12
S'\xbf\xd0>\xfe\x8c\xaa\xb1?'
p38
tp39
Rp40
ag34
(g12
S'\xfe\xbf\xce\t\xb5\x03\xc5\xbf'
p41
tp42
Rp43
asS'target_rot'
p44
g2
(cnumpy
ndarray
p45
(I0
tp46
g5
tp47
Rp48
(I1
(I3
tp49
g12
I00
S'~\x98\t\xee@\xf3\xc4\xbf>\x9eN\x87\x0f"\'\xc0\xf0\x89\xf5\xf2\xb9\x1fe\xc0'
p50
tp51
bsS'center_target_pixels'
p52
(I1037
I737
tp53
sS'center_actual_pixels'
p54
(I1043
I741
tp55
s.(dp0
S'actual_pos'
p1
(cnumpy.core.multiarray
_reconstruct
p2
(cnumpy.matrixlib.defmatrix
matrix
p3
(I0
tp4
S'b'
p5
tp6
Rp7
(I1
(I1
I1
tp8
cnumpy
dtype
p9
(S'f8'
p10
I0
I1
tp11
Rp12
(I3
S'<'
p13
NNNI-1
I-1
I0
tp14
bI00
S'!\x0e\x12 \xbb\x1f\x94?'
p15
tp16
bg2
(g3
(I0
tp17
g5
tp18
Rp19
(I1
(I1
I1
tp20
g12
I00
S'\x7f\x82\x9aG\x87b\xb1?'
p21
tp22
bg2
(g3
(I0
tp23
g5
tp24
Rp25
(I1
(I1
I1
tp26
g12
I00
S'\xde33)x\xbd\xc4\xbf'
p27
tp28
btp29
sS'actual_rot'
p30
(F0.6930867756372312
F-9.315269054533415
F-166.56788365047296
tp31
sS'target_pos'
p32
(lp33
cnumpy.core.multiarray
scalar
p34
(g12
S'\xbd\xec!\xeb\x84\x00\x95?'
p35
tp36
Rp37
ag34
(g12
S'+-\xf2\xad\xc4Y\xb1?'
p38
tp39
Rp40
ag34
(g12
S'9;8\xf7\x91\xc7\xc4\xbf'
p41
tp42
Rp43
asS'target_rot'
p44
g2
(cnumpy
ndarray
p45
(I0
tp46
g5
tp47
Rp48
(I1
(I3
tp49
g12
I00
S'~\x98\t\xee@\xf3\xc4\xbf>\x9eN\x87\x0f"\'\xc0\xf0\x89\xf5\xf2\xb9\x1fe\xc0'
p50
tp51
bsS'center_target_pixels'
p52
(I1214
I746
tp53
sS'center_actual_pixels'
p54
(I1220
I750
tp55
s.(dp0
S'actual_pos'
p1
(cnumpy.core.multiarray
_reconstruct
p2
(cnumpy.matrixlib.defmatrix
matrix
p3
(I0
tp4
S'b'
p5
tp6
Rp7
(I1
(I1
I1
tp8
cnumpy
dtype
p9
(S'f8'
p10
I0
I1
tp11
Rp12
(I3
S'<'
p13
NNNI-1
I-1
I0
tp14
bI00
S'.Y\x03\x8e\x99gp?'
p15
tp16
bg2
(g3
(I0
tp17
g5
tp18
Rp19
(I1
(I1
I1
tp20
g12
I00
S'ml\xc7\xdc\xc0\x19\xb1?'
p21
tp22
bg2
(g3
(I0
tp23
g5
tp24
Rp25
(I1
(I1
I1
tp26
g12
I00
S"\xd5A\xfc'5\x82\xc4\xbf"
p27
tp28
btp29
sS'actual_rot'
p30
(F1.448523616154321
F-7.580401974843796
F-168.46174145428301
tp31
sS'target_pos'
p32
(lp33
cnumpy.core.multiarray
scalar
p34
(g12
S'\xa0\x1d\xbeV7\xc6t?'
p35
tp36
Rp37
ag34
(g12
S'q\xc2\xc1\x0f\xde\x11\xb1?'
p38
tp39
Rp40
ag34
(g12
S"\xf18'\xa8Y\x8a\xc4\xbf"
p41
tp42
Rp43
asS'target_rot'
p44
g2
(cnumpy
ndarray
p45
(I0
tp46
g5
tp47
Rp48
(I1
(I3
tp49
g12
I00
S'~\x98\t\xee@\xf3\xc4\xbf>\x9eN\x87\x0f"\'\xc0\xf0\x89\xf5\xf2\xb9\x1fe\xc0'
p50
tp51
bsS'center_target_pixels'
p52
(I1390
I755
tp53
sS'center_actual_pixels'
p54
(I1396
I754
tp55
s.