(dp0
S'center_target_pixels'
p1
(I802
I99
tp2
sS'target_pos'
p3
(lp4
cnumpy.core.multiarray
scalar
p5
(cnumpy
dtype
p6
(S'f8'
p7
I0
I1
tp8
Rp9
(I3
S'<'
p10
NNNI-1
I-1
I0
tp11
bS'\x98\xb1_\xd0I`\xb0?'
p12
tp13
Rp14
ag5
(g9
S'\xb4\xae\xd8\x1e)\xe3\x8d?'
p15
tp16
Rp17
ag5
(g9
S'\xd4\x83\xd1\x9d\xd3\x9e\xc5\xbf'
p18
tp19
Rp20
asS'actual_rot'
p21
(F0.09225686691497015
F-12.066909387532213
F-171.51351959639084
tp22
sS'actual_pos'
p23
(cnumpy.core.multiarray
_reconstruct
p24
(cnumpy.matrixlib.defmatrix
matrix
p25
(I0
tp26
S'b'
p27
tp28
Rp29
(I1
(I1
I1
tp30
g6
(S'f8'
p31
I0
I1
tp32
Rp33
(I3
S'<'
p34
NNNI-1
I-1
I0
tp35
bI00
S'\xedC\x14>\xb6/\xb0?'
p36
tp37
bg24
(g25
(I0
tp38
g27
tp39
Rp40
(I1
(I1
I1
tp41
g33
I00
S'<x\x9a\x87_\xfd\x8e?'
p42
tp43
bg24
(g25
(I0
tp44
g27
tp45
Rp46
(I1
(I1
I1
tp47
g33
I00
S'G%\xae\xe6\x9c\x9a\xc5\xbf'
p48
tp49
btp50
sS'target_rot'
p51
g24
(cnumpy
ndarray
p52
(I0
tp53
g27
tp54
Rp55
(I1
(I3
tp56
g33
I00
S'C\xc7\xe7\xe7\x91\t\xb4?\xf5\x11>!\xe6d(\xc0a@\tTb4e\xc0'
p57
tp58
bsS'center_actual_pixels'
p59
(I812
I76
tp60
s.(dp0
S'center_target_pixels'
p1
(I980
I108
tp2
sS'target_pos'
p3
(lp4
cnumpy.core.multiarray
scalar
p5
(cnumpy
dtype
p6
(S'f8'
p7
I0
I1
tp8
Rp9
(I3
S'<'
p10
NNNI-1
I-1
I0
tp11
bS'\xc4\xa1\xd2wx\xcb\xa8?'
p12
tp13
Rp14
ag5
(g9
S'\xa4\xdeU\x7f\xf4t\x8a?'
p15
tp16
Rp17
ag5
(g9
S'\x8b\xd1l\xf71e\xc5\xbf'
p18
tp19
Rp20
asS'actual_rot'
p21
(F0.15817105209341845
F-11.085524832200843
F-173.31444384258694
tp22
sS'actual_pos'
p23
(cnumpy.core.multiarray
_reconstruct
p24
(cnumpy.matrixlib.defmatrix
matrix
p25
(I0
tp26
S'b'
p27
tp28
Rp29
(I1
(I1
I1
tp30
g6
(S'f8'
p31
I0
I1
tp32
Rp33
(I3
S'<'
p34
NNNI-1
I-1
I0
tp35
bI00
S'\xbcV\xe3k\x8a_\xa8?'
p36
tp37
bg24
(g25
(I0
tp38
g27
tp39
Rp40
(I1
(I1
I1
tp41
g33
I00
S'\x98*\xb3\t\x80\x9d\x8b?'
p42
tp43
bg24
(g25
(I0
tp44
g27
tp45
Rp46
(I1
(I1
I1
tp47
g33
I00
S'7\xcdo\x0f\x0b`\xc5\xbf'
p48
tp49
btp50
sS'target_rot'
p51
g24
(cnumpy
ndarray
p52
(I0
tp53
g27
tp54
Rp55
(I1
(I3
tp56
g33
I00
S'C\xc7\xe7\xe7\x91\t\xb4?\xf5\x11>!\xe6d(\xc0a@\tTb4e\xc0'
p57
tp58
bsS'center_actual_pixels'
p59
(I986
I79
tp60
s.(dp0
S'center_target_pixels'
p1
(I1154
I116
tp2
sS'target_pos'
p3
(lp4
cnumpy.core.multiarray
scalar
p5
(cnumpy
dtype
p6
(S'f8'
p7
I0
I1
tp8
Rp9
(I3
S'<'
p10
NNNI-1
I-1
I0
tp11
bS'\x89}\xa2\x0b\xea\xe1\xa0?'
p12
tp13
Rp14
ag5
(g9
S'\xc4mO\xf7&\xe7\x86?'
p15
tp16
Rp17
ag5
(g9
S'\xd7\xbd+y\x88+\xc5\xbf'
p18
tp19
Rp20
asS'actual_rot'
p21
(F0.3219771731106779
F-8.546570633293092
F-173.9635485859361
tp22
sS'actual_pos'
p23
(cnumpy.core.multiarray
_reconstruct
p24
(cnumpy.matrixlib.defmatrix
matrix
p25
(I0
tp26
S'b'
p27
tp28
Rp29
(I1
(I1
I1
tp30
g6
(S'f8'
p31
I0
I1
tp32
Rp33
(I3
S'<'
p34
NNNI-1
I-1
I0
tp35
bI00
S'\x85\x18\xf2\xab\x8dH\xa0?'
p36
tp37
bg24
(g25
(I0
tp38
g27
tp39
Rp40
(I1
(I1
I1
tp41
g33
I00
S'@\x0e~\xa2\x00\x1c\x88?'
p42
tp43
bg24
(g25
(I0
tp44
g27
tp45
Rp46
(I1
(I1
I1
tp47
g33
I00
S"\xf2\xdc\x8eEt'\xc5\xbf"
p48
tp49
btp50
sS'target_rot'
p51
g24
(cnumpy
ndarray
p52
(I0
tp53
g27
tp54
Rp55
(I1
(I3
tp56
g33
I00
S'C\xc7\xe7\xe7\x91\t\xb4?\xf5\x11>!\xe6d(\xc0a@\tTb4e\xc0'
p57
tp58
bsS'center_actual_pixels'
p59
(I1166
I87
tp60
s.(dp0
S'center_target_pixels'
p1
(I1332
I125
tp2
sS'target_pos'
p3
(lp4
cnumpy.core.multiarray
scalar
p5
(cnumpy
dtype
p6
(S'f8'
p7
I0
I1
tp8
Rp9
(I3
S'<'
p10
NNNI-1
I-1
I0
tp11
bS'\x90\xdaA\xe2aG\x91?'
p12
tp13
Rp14
ag5
(g9
S'\xa4\xa5@\x06\xb3[\x83?'
p15
tp16
Rp17
ag5
(g9
S'D\x80\x82Z\t\xef\xc4\xbf'
p18
tp19
Rp20
asS'actual_rot'
p21
(F0.4159524114702462
F-6.270715107916161
F-174.3953249135223
tp22
sS'actual_pos'
p23
(cnumpy.core.multiarray
_reconstruct
p24
(cnumpy.matrixlib.defmatrix
matrix
p25
(I0
tp26
S'b'
p27
tp28
Rp29
(I1
(I1
I1
tp30
g6
(S'f8'
p31
I0
I1
tp32
Rp33
(I3
S'<'
p34
NNNI-1
I-1
I0
tp35
bI00
S'~\x98\x1e_<\xa4\x8f?'
p36
tp37
bg24
(g25
(I0
tp38
g27
tp39
Rp40
(I1
(I1
I1
tp41
g33
I00
S'`\xa0\xa4y\x86\xa1\x84?'
p42
tp43
bg24
(g25
(I0
tp44
g27
tp45
Rp46
(I1
(I1
I1
tp47
g33
I00
S'\x80\x1c\x06y\x1e\xeb\xc4\xbf'
p48
tp49
btp50
sS'target_rot'
p51
g24
(cnumpy
ndarray
p52
(I0
tp53
g27
tp54
Rp55
(I1
(I3
tp56
g33
I00
S'C\xc7\xe7\xe7\x91\t\xb4?\xf5\x11>!\xe6d(\xc0a@\tTb4e\xc0'
p57
tp58
bsS'center_actual_pixels'
p59
(I1358
I95
tp60
s.(dp0
S'center_target_pixels'
p1
(I708
I183
tp2
sS'target_pos'
p3
(lp4
cnumpy.core.multiarray
scalar
p5
(cnumpy
dtype
p6
(S'f8'
p7
I0
I1
tp8
Rp9
(I3
S'<'
p10
NNNI-1
I-1
I0
tp11
bS'\x9c\x11\xd7lk0\xb2?'
p12
tp13
Rp14
ag5
(g9
S'\xbe\xf5\xce\xa4\x03\xc4\x97?'
p15
tp16
Rp17
ag5
(g9
S'\xc3M\xcd\x01\x05\xb6\xc5\xbf'
p18
tp19
Rp20
asS'actual_rot'
p21
(F-0.21008507457247844
F-14.329517970927505
F-169.39196490248656
tp22
sS'actual_pos'
p23
(cnumpy.core.multiarray
_reconstruct
p24
(cnumpy.matrixlib.defmatrix
matrix
p25
(I0
tp26
S'b'
p27
tp28
Rp29
(I1
(I1
I1
tp30
g6
(S'f8'
p31
I0
I1
tp32
Rp33
(I3
S'<'
p34
NNNI-1
I-1
I0
tp35
bI00
S'\xeb:\n\xc0\x9e\x0e\xb2?'
p36
tp37
bg24
(g25
(I0
tp38
g27
tp39
Rp40
(I1
(I1
I1
tp41
g33
I00
S'\xef\xe8\xf2(a*\x98?'
p42
tp43
bg24
(g25
(I0
tp44
g27
tp45
Rp46
(I1
(I1
I1
tp47
g33
I00
S'cH\xad3\xf4\xae\xc5\xbf'
p48
tp49
btp50
sS'target_rot'
p51
g24
(cnumpy
ndarray
p52
(I0
tp53
g27
tp54
Rp55
(I1
(I3
tp56
g33
I00
S'C\xc7\xe7\xe7\x91\t\xb4?\xf5\x11>!\xe6d(\xc0a@\tTb4e\xc0'
p57
tp58
bsS'center_actual_pixels'
p59
(I715
I156
tp60
s.(dp0
S'center_target_pixels'
p1
(I888
I192
tp2
sS'target_pos'
p3
(lp4
cnumpy.core.multiarray
scalar
p5
(cnumpy
dtype
p6
(S'f8'
p7
I0
I1
tp8
Rp9
(I3
S'<'
p10
NNNI-1
I-1
I0
tp11
bS'\x13\x9cW\x82\xc5f\xac?'
p12
tp13
Rp14
ag5
(g9
S'\xac\x89\x1b\xe4\x8d\x1b\x96?'
p15
tp16
Rp17
ag5
(g9
S'\xaa\x8b\xf7:\xa9|\xc5\xbf'
p18
tp19
Rp20
asS'actual_rot'
p21
(F0.09851890981459964
F-11.915992843763524
F-171.44905697309474
tp22
sS'actual_pos'
p23
(cnumpy.core.multiarray
_reconstruct
p24
(cnumpy.matrixlib.defmatrix
matrix
p25
(I0
tp26
S'b'
p27
tp28
Rp29
(I1
(I1
I1
tp30
g6
(S'f8'
p31
I0
I1
tp32
Rp33
(I3
S'<'
p34
NNNI-1
I-1
I0
tp35
bI00
S'\x1eY=79\x03\xac?'
p36
tp37
bg24
(g25
(I0
tp38
g27
tp39
Rp40
(I1
(I1
I1
tp41
g33
I00
S'q\xf3\x13\x07l\x85\x96?'
p42
tp43
bg24
(g25
(I0
tp44
g27
tp45
Rp46
(I1
(I1
I1
tp47
g33
I00
S'<\x8c\x11\xd4gx\xc5\xbf'
p48
tp49
btp50
sS'target_rot'
p51
g24
(cnumpy
ndarray
p52
(I0
tp53
g27
tp54
Rp55
(I1
(I3
tp56
g33
I00
S'C\xc7\xe7\xe7\x91\t\xb4?\xf5\x11>!\xe6d(\xc0a@\tTb4e\xc0'
p57
tp58
bsS'center_actual_pixels'
p59
(I892
I160
tp60
s.(dp0
S'center_target_pixels'
p1
(I1065
I201
tp2
sS'target_pos'
p3
(lp4
cnumpy.core.multiarray
scalar
p5
(cnumpy
dtype
p6
(S'f8'
p7
I0
I1
tp8
Rp9
(I3
S'<'
p10
NNNI-1
I-1
I0
tp11
bS'\xb0Q\xdb\xa3\x11j\xa4?'
p12
tp13
Rp14
ag5
(g9
S'\xa4t\xb4\xcc\x95v\x94?'
p15
tp16
Rp17
ag5
(g9
S'\x92\x08VW\xd8B\xc5\xbf'
p18
tp19
Rp20
asS'actual_rot'
p21
(F0.30273288543873145
F-10.16549396227839
F-172.8387566314908
tp22
sS'actual_pos'
p23
(cnumpy.core.multiarray
_reconstruct
p24
(cnumpy.matrixlib.defmatrix
matrix
p25
(I0
tp26
S'b'
p27
tp28
Rp29
(I1
(I1
I1
tp30
g6
(S'f8'
p31
I0
I1
tp32
Rp33
(I3
S'<'
p34
NNNI-1
I-1
I0
tp35
bI00
S'>ZA\x88\xc1\xf0\xa3?'
p36
tp37
bg24
(g25
(I0
tp38
g27
tp39
Rp40
(I1
(I1
I1
tp41
g33
I00
S':\x02\xbf\x84^\xc5\x94?'
p42
tp43
bg24
(g25
(I0
tp44
g27
tp45
Rp46
(I1
(I1
I1
tp47
g33
I00
S'X\x18\xa5\x92v>\xc5\xbf'
p48
tp49
btp50
sS'target_rot'
p51
g24
(cnumpy
ndarray
p52
(I0
tp53
g27
tp54
Rp55
(I1
(I3
tp56
g33
I00
S'C\xc7\xe7\xe7\x91\t\xb4?\xf5\x11>!\xe6d(\xc0a@\tTb4e\xc0'
p57
tp58
bsS'center_actual_pixels'
p59
(I1072
I170
tp60
s.(dp0
S'center_target_pixels'
p1
(I1241
I209
tp2
sS'target_pos'
p3
(lp4
cnumpy.core.multiarray
scalar
p5
(cnumpy
dtype
p6
(S'f8'
p7
I0
I1
tp8
Rp9
(I3
S'<'
p10
NNNI-1
I-1
I0
tp11
bS'\xda\x82\xf2\xbe\xe6\xab\x98?'
p12
tp13
Rp14
ag5
(g9
S'\xd2\xf5\x82\xc6\xb6\xb6\x92?'
p15
tp16
Rp17
ag5
(g9
S'o\xce\xea\xac\x01\x08\xc5\xbf'
p18
tp19
Rp20
asS'actual_rot'
p21
(F0.556835110858136
F-7.565598081545039
F-173.82325833504837
tp22
sS'actual_pos'
p23
(cnumpy.core.multiarray
_reconstruct
p24
(cnumpy.matrixlib.defmatrix
matrix
p25
(I0
tp26
S'b'
p27
tp28
Rp29
(I1
(I1
I1
tp30
g6
(S'f8'
p31
I0
I1
tp32
Rp33
(I3
S'<'
p34
NNNI-1
I-1
I0
tp35
bI00
S'\x83\xfc\xc8\x844g\x97?'
p36
tp37
bg24
(g25
(I0
tp38
g27
tp39
Rp40
(I1
(I1
I1
tp41
g33
I00
S'\x8f\x81\xdcH\xf3+\x93?'
p42
tp43
bg24
(g25
(I0
tp44
g27
tp45
Rp46
(I1
(I1
I1
tp47
g33
I00
S'\xb0\xd5\x1a\xd9\xc0\x01\xc5\xbf'
p48
tp49
btp50
sS'target_rot'
p51
g24
(cnumpy
ndarray
p52
(I0
tp53
g27
tp54
Rp55
(I1
(I3
tp56
g33
I00
S'C\xc7\xe7\xe7\x91\t\xb4?\xf5\x11>!\xe6d(\xc0a@\tTb4e\xc0'
p57
tp58
bsS'center_actual_pixels'
p59
(I1258
I180
tp60
s.(dp0
S'center_target_pixels'
p1
(I1415
I216
tp2
sS'target_pos'
p3
(lp4
cnumpy.core.multiarray
scalar
p5
(cnumpy
dtype
p6
(S'f8'
p7
I0
I1
tp8
Rp9
(I3
S'<'
p10
NNNI-1
I-1
I0
tp11
bS'\xa02I\xda\x01\xda\x80?'
p12
tp13
Rp14
ag5
(g9
S'\xc4Ll\xc7\x11\xdf\x90?'
p15
tp16
Rp17
ag5
(g9
S'\xbd\x98\x93Wx\xcc\xc4\xbf'
p18
tp19
Rp20
asS'actual_rot'
p21
(F0.653393002341903
F-6.355241654881694
F-174.47523457240524
tp22
sS'actual_pos'
p23
(cnumpy.core.multiarray
_reconstruct
p24
(cnumpy.matrixlib.defmatrix
matrix
p25
(I0
tp26
S'b'
p27
tp28
Rp29
(I1
(I1
I1
tp30
g6
(S'f8'
p31
I0
I1
tp32
Rp33
(I3
S'<'
p34
NNNI-1
I-1
I0
tp35
bI00
S'\x0b\xc66p\xdc[|?'
p36
tp37
bg24
(g25
(I0
tp38
g27
tp39
Rp40
(I1
(I1
I1
tp41
g33
I00
S'\xd0\xaa\x03\x82.\x0c\x91?'
p42
tp43
bg24
(g25
(I0
tp44
g27
tp45
Rp46
(I1
(I1
I1
tp47
g33
I00
S'\xa7\xe6\x99u\xda\xce\xc4\xbf'
p48
tp49
btp50
sS'target_rot'
p51
g24
(cnumpy
ndarray
p52
(I0
tp53
g27
tp54
Rp55
(I1
(I3
tp56
g33
I00
S'C\xc7\xe7\xe7\x91\t\xb4?\xf5\x11>!\xe6d(\xc0a@\tTb4e\xc0'
p57
tp58
bsS'center_actual_pixels'
p59
(I1437
I180
tp60
s.(dp0
S'center_target_pixels'
p1
(I795
I276
tp2
sS'target_pos'
p3
(lp4
cnumpy.core.multiarray
scalar
p5
(cnumpy
dtype
p6
(S'f8'
p7
I0
I1
tp8
Rp9
(I3
S'<'
p10
NNNI-1
I-1
I0
tp11
bS'_L\x93\xd5\x8a\x02\xb0?'
p12
tp13
Rp14
ag5
(g9
S'm\xdap\xe8\xf0\xeb\x9e?'
p15
tp16
Rp17
ag5
(g9
S'\xac\x97\x7f8\xbd\x93\xc5\xbf'
p18
tp19
Rp20
asS'actual_rot'
p21
(F-0.3921382747867361
F-14.741024114653827
F-169.23254267342875
tp22
sS'actual_pos'
p23
(cnumpy.core.multiarray
_reconstruct
p24
(cnumpy.matrixlib.defmatrix
matrix
p25
(I0
tp26
S'b'
p27
tp28
Rp29
(I1
(I1
I1
tp30
g6
(S'f8'
p31
I0
I1
tp32
Rp33
(I3
S'<'
p34
NNNI-1
I-1
I0
tp35
bI00
S'p\xa0\x92J(\xd1\xaf?'
p36
tp37
bg24
(g25
(I0
tp38
g27
tp39
Rp40
(I1
(I1
I1
tp41
g33
I00
S'&\xb6\xdd/\x06^\x9f?'
p42
tp43
bg24
(g25
(I0
tp44
g27
tp45
Rp46
(I1
(I1
I1
tp47
g33
I00
S'\x92\xa5\xa6\x87\xd1\x89\xc5\xbf'
p48
tp49
btp50
sS'target_rot'
p51
g24
(cnumpy
ndarray
p52
(I0
tp53
g27
tp54
Rp55
(I1
(I3
tp56
g33
I00
S'C\xc7\xe7\xe7\x91\t\xb4?\xf5\x11>!\xe6d(\xc0a@\tTb4e\xc0'
p57
tp58
bsS'center_actual_pixels'
p59
(I796
I247
tp60
s.(dp0
S'center_target_pixels'
p1
(I973
I285
tp2
sS'target_pos'
p3
(lp4
cnumpy.core.multiarray
scalar
p5
(cnumpy
dtype
p6
(S'f8'
p7
I0
I1
tp8
Rp9
(I3
S'<'
p10
NNNI-1
I-1
I0
tp11
bS'7\x11|z\x95\x0e\xa8?'
p12
tp13
Rp14
ag5
(g9
S'\x80\x9df\x86<Y\x9d?'
p15
tp16
Rp17
ag5
(g9
S'Q\xef\x89\xb1\x81Z\xc5\xbf'
p18
tp19
Rp20
asS'actual_rot'
p21
(F0.1344385879018196
F-11.818569241863344
F-171.1984990606275
tp22
sS'actual_pos'
p23
(cnumpy.core.multiarray
_reconstruct
p24
(cnumpy.matrixlib.defmatrix
matrix
p25
(I0
tp26
S'b'
p27
tp28
Rp29
(I1
(I1
I1
tp30
g6
(S'f8'
p31
I0
I1
tp32
Rp33
(I3
S'<'
p34
NNNI-1
I-1
I0
tp35
bI00
S'x\xf6F_\xd1\xaa\xa7?'
p36
tp37
bg24
(g25
(I0
tp38
g27
tp39
Rp40
(I1
(I1
I1
tp41
g33
I00
S'\x8e\x04#:\x7f\xc5\x9d?'
p42
tp43
bg24
(g25
(I0
tp44
g27
tp45
Rp46
(I1
(I1
I1
tp47
g33
I00
S'\xa6\xc25\xcd<S\xc5\xbf'
p48
tp49
btp50
sS'target_rot'
p51
g24
(cnumpy
ndarray
p52
(I0
tp53
g27
tp54
Rp55
(I1
(I3
tp56
g33
I00
S'C\xc7\xe7\xe7\x91\t\xb4?\xf5\x11>!\xe6d(\xc0a@\tTb4e\xc0'
p57
tp58
bsS'center_actual_pixels'
p59
(I979
I255
tp60
s.(dp0
S'center_target_pixels'
p1
(I1149
I292
tp2
sS'target_pos'
p3
(lp4
cnumpy.core.multiarray
scalar
p5
(cnumpy
dtype
p6
(S'f8'
p7
I0
I1
tp8
Rp9
(I3
S'<'
p10
NNNI-1
I-1
I0
tp11
bS'..\xb1\xa9\x81\r\xa0?'
p12
tp13
Rp14
ag5
(g9
S'\xda\x9b\xf1]\xd7\x97\x9b?'
p15
tp16
Rp17
ag5
(g9
S'\x14\xacY\x89\xa8 \xc5\xbf'
p18
tp19
Rp20
asS'actual_rot'
p21
(F0.5274258504305909
F-9.166323187980979
F-172.51123327472985
tp22
sS'actual_pos'
p23
(cnumpy.core.multiarray
_reconstruct
p24
(cnumpy.matrixlib.defmatrix
matrix
p25
(I0
tp26
S'b'
p27
tp28
Rp29
(I1
(I1
I1
tp30
g6
(S'f8'
p31
I0
I1
tp32
Rp33
(I3
S'<'
p34
NNNI-1
I-1
I0
tp35
bI00
S'r\xa3J\x963\x0b\x9f?'
p36
tp37
bg24
(g25
(I0
tp38
g27
tp39
Rp40
(I1
(I1
I1
tp41
g33
I00
S'\xd1\x9ex\xb9\xe3\xf0\x9b?'
p42
tp43
bg24
(g25
(I0
tp44
g27
tp45
Rp46
(I1
(I1
I1
tp47
g33
I00
S't\xfdUu\x0c\x1b\xc5\xbf'
p48
tp49
btp50
sS'target_rot'
p51
g24
(cnumpy
ndarray
p52
(I0
tp53
g27
tp54
Rp55
(I1
(I3
tp56
g33
I00
S'C\xc7\xe7\xe7\x91\t\xb4?\xf5\x11>!\xe6d(\xc0a@\tTb4e\xc0'
p57
tp58
bsS'center_actual_pixels'
p59
(I1163
I261
tp60
s.(dp0
S'center_target_pixels'
p1
(I1325
I300
tp2
sS'target_pos'
p3
(lp4
cnumpy.core.multiarray
scalar
p5
(cnumpy
dtype
p6
(S'f8'
p7
I0
I1
tp8
Rp9
(I3
S'<'
p10
NNNI-1
I-1
I0
tp11
bS'\xf8\x14 j\x91\x98\x8f?'
p12
tp13
Rp14
ag5
(g9
S'&v\x1cb^\xe6\x99?'
p15
tp16
Rp17
ag5
(g9
S'\xd0\x18\xd1\xffM\xe5\xc4\xbf'
p18
tp19
Rp20
asS'actual_rot'
p21
(F0.8619141298961932
F-6.815760844419276
F-173.66919516907433
tp22
sS'actual_pos'
p23
(cnumpy.core.multiarray
_reconstruct
p24
(cnumpy.matrixlib.defmatrix
matrix
p25
(I0
tp26
S'b'
p27
tp28
Rp29
(I1
(I1
I1
tp30
g6
(S'f8'
p31
I0
I1
tp32
Rp33
(I3
S'<'
p34
NNNI-1
I-1
I0
tp35
bI00
S'\xdd\xde\\\xdd\xec\xcc\x8c?'
p36
tp37
bg24
(g25
(I0
tp38
g27
tp39
Rp40
(I1
(I1
I1
tp41
g33
I00
S";\xf2'\xc4\xdfB\x9a?"
p42
tp43
bg24
(g25
(I0
tp44
g27
tp45
Rp46
(I1
(I1
I1
tp47
g33
I00
S'\x00\x14\xcb\xba\xc2\xde\xc4\xbf'
p48
tp49
btp50
sS'target_rot'
p51
g24
(cnumpy
ndarray
p52
(I0
tp53
g27
tp54
Rp55
(I1
(I3
tp56
g33
I00
S'C\xc7\xe7\xe7\x91\t\xb4?\xf5\x11>!\xe6d(\xc0a@\tTb4e\xc0'
p57
tp58
bsS'center_actual_pixels'
p59
(I1349
I267
tp60
s.(dp0
S'center_target_pixels'
p1
(I700
I361
tp2
sS'target_pos'
p3
(lp4
cnumpy.core.multiarray
scalar
p5
(cnumpy
dtype
p6
(S'f8'
p7
I0
I1
tp8
Rp9
(I3
S'<'
p10
NNNI-1
I-1
I0
tp11
bS'M\x85\xc5\x1e\xd8\xd7\xb1?'
p12
tp13
Rp14
ag5
(g9
S'O\xa9\xb9{\x92\xe2\xa3?'
p15
tp16
Rp17
ag5
(g9
S'-\xa4\x03\x84\xa7\xaa\xc5\xbf'
p18
tp19
Rp20
asS'actual_rot'
p21
(F-0.8833596451692094
F-16.36864788461722
F-166.94369692232416
tp22
sS'actual_pos'
p23
(cnumpy.core.multiarray
_reconstruct
p24
(cnumpy.matrixlib.defmatrix
matrix
p25
(I0
tp26
S'b'
p27
tp28
Rp29
(I1
(I1
I1
tp30
g6
(S'f8'
p31
I0
I1
tp32
Rp33
(I3
S'<'
p34
NNNI-1
I-1
I0
tp35
bI00
S'z\xb6i4\xe8\xca\xb1?'
p36
tp37
bg24
(g25
(I0
tp38
g27
tp39
Rp40
(I1
(I1
I1
tp41
g33
I00
S'\xc1q\x08,\x83#\xa4?'
p42
tp43
bg24
(g25
(I0
tp44
g27
tp45
Rp46
(I1
(I1
I1
tp47
g33
I00
S'\x18\xb0\xaa\xe2E\x9e\xc5\xbf'
p48
tp49
btp50
sS'target_rot'
p51
g24
(cnumpy
ndarray
p52
(I0
tp53
g27
tp54
Rp55
(I1
(I3
tp56
g33
I00
S'C\xc7\xe7\xe7\x91\t\xb4?\xf5\x11>!\xe6d(\xc0a@\tTb4e\xc0'
p57
tp58
bsS'center_actual_pixels'
p59
(I703
I337
tp60
s.(dp0
S'center_target_pixels'
p1
(I881
I369
tp2
sS'target_pos'
p3
(lp4
cnumpy.core.multiarray
scalar
p5
(cnumpy
dtype
p6
(S'f8'
p7
I0
I1
tp8
Rp9
(I3
S'<'
p10
NNNI-1
I-1
I0
tp11
bS'\xb0\xaf9\xef\xc8\xaa\xab?'
p12
tp13
Rp14
ag5
(g9
S'\xb5\xd0-\x1e\xc0\x13\xa3?'
p15
tp16
Rp17
ag5
(g9
S'\xde\x99\x7f`vq\xc5\xbf'
p18
tp19
Rp20
asS'actual_rot'
p21
(F-0.22519528158010632
F-13.440733705662513
F-169.03828109936345
tp22
sS'actual_pos'
p23
(cnumpy.core.multiarray
_reconstruct
p24
(cnumpy.matrixlib.defmatrix
matrix
p25
(I0
tp26
S'b'
p27
tp28
Rp29
(I1
(I1
I1
tp30
g6
(S'f8'
p31
I0
I1
tp32
Rp33
(I3
S'<'
p34
NNNI-1
I-1
I0
tp35
bI00
S'\x87\x1b=%\x8d]\xab?'
p36
tp37
bg24
(g25
(I0
tp38
g27
tp39
Rp40
(I1
(I1
I1
tp41
g33
I00
S'\xce`o\x06\x02Z\xa3?'
p42
tp43
bg24
(g25
(I0
tp44
g27
tp45
Rp46
(I1
(I1
I1
tp47
g33
I00
S'\x06\xad\xf0.Kh\xc5\xbf'
p48
tp49
btp50
sS'target_rot'
p51
g24
(cnumpy
ndarray
p52
(I0
tp53
g27
tp54
Rp55
(I1
(I3
tp56
g33
I00
S'C\xc7\xe7\xe7\x91\t\xb4?\xf5\x11>!\xe6d(\xc0a@\tTb4e\xc0'
p57
tp58
bsS'center_actual_pixels'
p59
(I887
I345
tp60
s.(dp0
S'center_target_pixels'
p1
(I1058
I376
tp2
sS'target_pos'
p3
(lp4
cnumpy.core.multiarray
scalar
p5
(cnumpy
dtype
p6
(S'f8'
p7
I0
I1
tp8
Rp9
(I3
S'<'
p10
NNNI-1
I-1
I0
tp11
bS'9\x0bN\xaa\xad\xaf\xa3?'
p12
tp13
Rp14
ag5
(g9
S'R0C\x1eU<\xa2?'
p15
tp16
Rp17
ag5
(g9
S'\x0b\xcca\xc418\xc5\xbf'
p18
tp19
Rp20
asS'actual_rot'
p21
(F0.32869423835836414
F-10.93106298514201
F-170.593596708503
tp22
sS'actual_pos'
p23
(cnumpy.core.multiarray
_reconstruct
p24
(cnumpy.matrixlib.defmatrix
matrix
p25
(I0
tp26
S'b'
p27
tp28
Rp29
(I1
(I1
I1
tp30
g6
(S'f8'
p31
I0
I1
tp32
Rp33
(I3
S'<'
p34
NNNI-1
I-1
I0
tp35
bI00
S'I\x93\x82 \x86D\xa3?'
p36
tp37
bg24
(g25
(I0
tp38
g27
tp39
Rp40
(I1
(I1
I1
tp41
g33
I00
S'\xa0B\xbap\x91v\xa2?'
p42
tp43
bg24
(g25
(I0
tp44
g27
tp45
Rp46
(I1
(I1
I1
tp47
g33
I00
S'>\xa4:r\xe81\xc5\xbf'
p48
tp49
btp50
sS'target_rot'
p51
g24
(cnumpy
ndarray
p52
(I0
tp53
g27
tp54
Rp55
(I1
(I3
tp56
g33
I00
S'C\xc7\xe7\xe7\x91\t\xb4?\xf5\x11>!\xe6d(\xc0a@\tTb4e\xc0'
p57
tp58
bsS'center_actual_pixels'
p59
(I1070
I352
tp60
s.(dp0
S'center_target_pixels'
p1
(I1234
I383
tp2
sS'target_pos'
p3
(lp4
cnumpy.core.multiarray
scalar
p5
(cnumpy
dtype
p6
(S'f8'
p7
I0
I1
tp8
Rp9
(I3
S'<'
p10
NNNI-1
I-1
I0
tp11
bS'\xce\x8f\xdat\xb36\x97?'
p12
tp13
Rp14
ag5
(g9
S'\xde9\xee\xaa\xdab\xa1?'
p15
tp16
Rp17
ag5
(g9
S'P\xd17\xca\xd4\xfd\xc4\xbf'
p18
tp19
Rp20
asS'actual_rot'
p21
(F0.8832105959799759
F-8.112885980969304
F-171.90075102687314
tp22
sS'actual_pos'
p23
(cnumpy.core.multiarray
_reconstruct
p24
(cnumpy.matrixlib.defmatrix
matrix
p25
(I0
tp26
S'b'
p27
tp28
Rp29
(I1
(I1
I1
tp30
g6
(S'f8'
p31
I0
I1
tp32
Rp33
(I3
S'<'
p34
NNNI-1
I-1
I0
tp35
bI00
S'z\xe4e\x9f\x92\x16\x96?'
p36
tp37
bg24
(g25
(I0
tp38
g27
tp39
Rp40
(I1
(I1
I1
tp41
g33
I00
S'w\xd5\x1cJ\xab\x8e\xa1?'
p42
tp43
bg24
(g25
(I0
tp44
g27
tp45
Rp46
(I1
(I1
I1
tp47
g33
I00
S'\xf41\xe3n*\xf8\xc4\xbf'
p48
tp49
btp50
sS'target_rot'
p51
g24
(cnumpy
ndarray
p52
(I0
tp53
g27
tp54
Rp55
(I1
(I3
tp56
g33
I00
S'C\xc7\xe7\xe7\x91\t\xb4?\xf5\x11>!\xe6d(\xc0a@\tTb4e\xc0'
p57
tp58
bsS'center_actual_pixels'
p59
(I1255
I359
tp60
s.(dp0
S'center_target_pixels'
p1
(I1409
I390
tp2
sS'target_pos'
p3
(lp4
cnumpy.core.multiarray
scalar
p5
(cnumpy
dtype
p6
(S'f8'
p7
I0
I1
tp8
Rp9
(I3
S'<'
p10
NNNI-1
I-1
I0
tp11
bS'\xf0\xb7\x1e\x98\x94n{?'
p12
tp13
Rp14
ag5
(g9
S'\x81\x02|\xcaU\x87\xa0?'
p15
tp16
Rp17
ag5
(g9
S'9\xaf^\xfd[\xc2\xc4\xbf'
p18
tp19
Rp20
asS'actual_rot'
p21
(F1.1176160214647108
F-6.803650642354021
F-173.27562660417513
tp22
sS'actual_pos'
p23
(cnumpy.core.multiarray
_reconstruct
p24
(cnumpy.matrixlib.defmatrix
matrix
p25
(I0
tp26
S'b'
p27
tp28
Rp29
(I1
(I1
I1
tp30
g6
(S'f8'
p31
I0
I1
tp32
Rp33
(I3
S'<'
p34
NNNI-1
I-1
I0
tp35
bI00
S'\x82\x99\xf5\x83<,v?'
p36
tp37
bg24
(g25
(I0
tp38
g27
tp39
Rp40
(I1
(I1
I1
tp41
g33
I00
S'\xf9\xb7~@\xfc\xc0\xa0?'
p42
tp43
bg24
(g25
(I0
tp44
g27
tp45
Rp46
(I1
(I1
I1
tp47
g33
I00
S'\xbd\x124"\x0f\xbb\xc4\xbf'
p48
tp49
btp50
sS'target_rot'
p51
g24
(cnumpy
ndarray
p52
(I0
tp53
g27
tp54
Rp55
(I1
(I3
tp56
g33
I00
S'C\xc7\xe7\xe7\x91\t\xb4?\xf5\x11>!\xe6d(\xc0a@\tTb4e\xc0'
p57
tp58
bsS'center_actual_pixels'
p59
(I1432
I365
tp60
s.(dp0
S'center_target_pixels'
p1
(I788
I454
tp2
sS'target_pos'
p3
(lp4
cnumpy.core.multiarray
scalar
p5
(cnumpy
dtype
p6
(S'f8'
p7
I0
I1
tp8
Rp9
(I3
S'<'
p10
NNNI-1
I-1
I0
tp11
bS'N\xac\x8f\x9dXH\xaf?'
p12
tp13
Rp14
ag5
(g9
S'k\xc7\xb3p\xa5}\xa7?'
p15
tp16
Rp17
ag5
(g9
S'\xee\xcb\xe5r\xf4\x87\xc5\xbf'
p18
tp19
Rp20
asS'actual_rot'
p21
(F-1.0557304249215158
F-16.278325179040518
F-166.71471452568156
tp22
sS'actual_pos'
p23
(cnumpy.core.multiarray
_reconstruct
p24
(cnumpy.matrixlib.defmatrix
matrix
p25
(I0
tp26
S'b'
p27
tp28
Rp29
(I1
(I1
I1
tp30
g6
(S'f8'
p31
I0
I1
tp32
Rp33
(I3
S'<'
p34
NNNI-1
I-1
I0
tp35
bI00
S'\xa6\xee\x8d\xda5>\xaf?'
p36
tp37
bg24
(g25
(I0
tp38
g27
tp39
Rp40
(I1
(I1
I1
tp41
g33
I00
S'\xb37\xb5\xd7\x82\xb8\xa7?'
p42
tp43
bg24
(g25
(I0
tp44
g27
tp45
Rp46
(I1
(I1
I1
tp47
g33
I00
S'\xea\x87O\xb0\x1e{\xc5\xbf'
p48
tp49
btp50
sS'target_rot'
p51
g24
(cnumpy
ndarray
p52
(I0
tp53
g27
tp54
Rp55
(I1
(I3
tp56
g33
I00
S'C\xc7\xe7\xe7\x91\t\xb4?\xf5\x11>!\xe6d(\xc0a@\tTb4e\xc0'
p57
tp58
bsS'center_actual_pixels'
p59
(I784
I427
tp60
s.(dp0
S'center_target_pixels'
p1
(I966
I461
tp2
sS'target_pos'
p3
(lp4
cnumpy.core.multiarray
scalar
p5
(cnumpy
dtype
p6
(S'f8'
p7
I0
I1
tp8
Rp9
(I3
S'<'
p10
NNNI-1
I-1
I0
tp11
bS'I\xbcW%\xa7S\xa7?'
p12
tp13
Rp14
ag5
(g9
S'>\xeb?\xb9\xbe\xaf\xa6?'
p15
tp16
Rp17
ag5
(g9
S'\xcbr\x9c\xa0EO\xc5\xbf'
p18
tp19
Rp20
asS'actual_rot'
p21
(F-0.09158869066692495
F-12.707015474232769
F-168.24011666415626
tp22
sS'actual_pos'
p23
(cnumpy.core.multiarray
_reconstruct
p24
(cnumpy.matrixlib.defmatrix
matrix
p25
(I0
tp26
S'b'
p27
tp28
Rp29
(I1
(I1
I1
tp30
g6
(S'f8'
p31
I0
I1
tp32
Rp33
(I3
S'<'
p34
NNNI-1
I-1
I0
tp35
bI00
S'\x81Z\xb0\x0e\xb3\x06\xa7?'
p36
tp37
bg24
(g25
(I0
tp38
g27
tp39
Rp40
(I1
(I1
I1
tp41
g33
I00
S'\x98j\xc0\x15\xe5\xf0\xa6?'
p42
tp43
bg24
(g25
(I0
tp44
g27
tp45
Rp46
(I1
(I1
I1
tp47
g33
I00
S'\x05\xca\x04onF\xc5\xbf'
p48
tp49
btp50
sS'target_rot'
p51
g24
(cnumpy
ndarray
p52
(I0
tp53
g27
tp54
Rp55
(I1
(I3
tp56
g33
I00
S'C\xc7\xe7\xe7\x91\t\xb4?\xf5\x11>!\xe6d(\xc0a@\tTb4e\xc0'
p57
tp58
bsS'center_actual_pixels'
p59
(I977
I440
tp60
s.(dp0
S'center_target_pixels'
p1
(I1143
I467
tp2
sS'target_pos'
p3
(lp4
cnumpy.core.multiarray
scalar
p5
(cnumpy
dtype
p6
(S'f8'
p7
I0
I1
tp8
Rp9
(I3
S'<'
p10
NNNI-1
I-1
I0
tp11
bS'D\x19\xe3\x0e\xcf\x8d\x9e?'
p12
tp13
Rp14
ag5
(g9
S'\xb1K\xf1`\x18\xd4\xa5?'
p15
tp16
Rp17
ag5
(g9
S'\xac\x1f5u\x92\x15\xc5\xbf'
p18
tp19
Rp20
asS'actual_rot'
p21
(F0.6898490556646076
F-9.719672161301103
F-169.7371232210857
tp22
sS'actual_pos'
p23
(cnumpy.core.multiarray
_reconstruct
p24
(cnumpy.matrixlib.defmatrix
matrix
p25
(I0
tp26
S'b'
p27
tp28
Rp29
(I1
(I1
I1
tp30
g6
(S'f8'
p31
I0
I1
tp32
Rp33
(I3
S'<'
p34
NNNI-1
I-1
I0
tp35
bI00
S'O\rW\xd4\x8c\x9f\x9d?'
p36
tp37
bg24
(g25
(I0
tp38
g27
tp39
Rp40
(I1
(I1
I1
tp41
g33
I00
S'\xf7\xf6N\xc0h\x0c\xa6?'
p42
tp43
bg24
(g25
(I0
tp44
g27
tp45
Rp46
(I1
(I1
I1
tp47
g33
I00
S']s\x87\xbe\x81\x0e\xc5\xbf'
p48
tp49
btp50
sS'target_rot'
p51
g24
(cnumpy
ndarray
p52
(I0
tp53
g27
tp54
Rp55
(I1
(I3
tp56
g33
I00
S'C\xc7\xe7\xe7\x91\t\xb4?\xf5\x11>!\xe6d(\xc0a@\tTb4e\xc0'
p57
tp58
bsS'center_actual_pixels'
p59
(I1159
I443
tp60
s.(dp0
S'center_target_pixels'
p1
(I1318
I474
tp2
sS'target_pos'
p3
(lp4
cnumpy.core.multiarray
scalar
p5
(cnumpy
dtype
p6
(S'f8'
p7
I0
I1
tp8
Rp9
(I3
S'<'
p10
NNNI-1
I-1
I0
tp11
bS'@j_\x85\xd1\xab\x8c?'
p12
tp13
Rp14
ag5
(g9
S'\xbf\x02\x97\xa7\xa9\x03\xa5?'
p15
tp16
Rp17
ag5
(g9
S'\xbb s\xad\x05\xdb\xc4\xbf'
p18
tp19
Rp20
asS'actual_rot'
p21
(F1.142107675596602
F-7.830510069416643
F-171.24143241130352
tp22
sS'actual_pos'
p23
(cnumpy.core.multiarray
_reconstruct
p24
(cnumpy.matrixlib.defmatrix
matrix
p25
(I0
tp26
S'b'
p27
tp28
Rp29
(I1
(I1
I1
tp30
g6
(S'f8'
p31
I0
I1
tp32
Rp33
(I3
S'<'
p34
NNNI-1
I-1
I0
tp35
bI00
S'\x13j\x15\xac\xd7J\x8a?'
p36
tp37
bg24
(g25
(I0
tp38
g27
tp39
Rp40
(I1
(I1
I1
tp41
g33
I00
S'=i\xc8\xc6\x8f8\xa5?'
p42
tp43
bg24
(g25
(I0
tp44
g27
tp45
Rp46
(I1
(I1
I1
tp47
g33
I00
S'\x1ct\xac<L\xd5\xc4\xbf'
p48
tp49
btp50
sS'target_rot'
p51
g24
(cnumpy
ndarray
p52
(I0
tp53
g27
tp54
Rp55
(I1
(I3
tp56
g33
I00
S'C\xc7\xe7\xe7\x91\t\xb4?\xf5\x11>!\xe6d(\xc0a@\tTb4e\xc0'
p57
tp58
bsS'center_actual_pixels'
p59
(I1341
I446
tp60
s.(dp0
S'center_target_pixels'
p1
(I693
I539
tp2
sS'target_pos'
p3
(lp4
cnumpy.core.multiarray
scalar
p5
(cnumpy
dtype
p6
(S'f8'
p7
I0
I1
tp8
Rp9
(I3
S'<'
p10
NNNI-1
I-1
I0
tp11
bS'\xe1`N\xa9\xc8y\xb1?'
p12
tp13
Rp14
ag5
(g9
S'm\x13\xeb\xdc\xf0\xdf\xab?'
p15
tp16
Rp17
ag5
(g9
S'\x14B\xa9\x88\\\x9e\xc5\xbf'
p18
tp19
Rp20
asS'actual_rot'
p21
(F-1.496898691316862
F-17.042030640155094
F-165.24215819814575
tp22
sS'actual_pos'
p23
(cnumpy.core.multiarray
_reconstruct
p24
(cnumpy.matrixlib.defmatrix
matrix
p25
(I0
tp26
S'b'
p27
tp28
Rp29
(I1
(I1
I1
tp30
g6
(S'f8'
p31
I0
I1
tp32
Rp33
(I3
S'<'
p34
NNNI-1
I-1
I0
tp35
bI00
S'h\x7f\x7f\xf6Dy\xb1?'
p36
tp37
bg24
(g25
(I0
tp38
g27
tp39
Rp40
(I1
(I1
I1
tp41
g33
I00
S"\xe4\xb5\xfbK'\x06\xac?"
p42
tp43
bg24
(g25
(I0
tp44
g27
tp45
Rp46
(I1
(I1
I1
tp47
g33
I00
S'1\xba\xd7\xea\xec\x93\xc5\xbf'
p48
tp49
btp50
sS'target_rot'
p51
g24
(cnumpy
ndarray
p52
(I0
tp53
g27
tp54
Rp55
(I1
(I3
tp56
g33
I00
S'C\xc7\xe7\xe7\x91\t\xb4?\xf5\x11>!\xe6d(\xc0a@\tTb4e\xc0'
p57
tp58
bsS'center_actual_pixels'
p59
(I691
I510
tp60
s.(dp0
S'center_target_pixels'
p1
(I874
I546
tp2
sS'target_pos'
p3
(lp4
cnumpy.core.multiarray
scalar
p5
(cnumpy
dtype
p6
(S'f8'
p7
I0
I1
tp8
Rp9
(I3
S'<'
p10
NNNI-1
I-1
I0
tp11
bS'\xb0_\xf9<,\xef\xaa?'
p12
tp13
Rp14
ag5
(g9
S'<\xfd\xb0\x8c\x96\x18\xab?'
p15
tp16
Rp17
ag5
(g9
S'/\xff\x9e@\xa5e\xc5\xbf'
p18
tp19
Rp20
asS'actual_rot'
p21
(F-0.6442355513788613
F-14.350705916527568
F-166.35118587644524
tp22
sS'actual_pos'
p23
(cnumpy.core.multiarray
_reconstruct
p24
(cnumpy.matrixlib.defmatrix
matrix
p25
(I0
tp26
S'b'
p27
tp28
Rp29
(I1
(I1
I1
tp30
g6
(S'f8'
p31
I0
I1
tp32
Rp33
(I3
S'<'
p34
NNNI-1
I-1
I0
tp35
bI00
S'\xa5I\x18K\x8a\xc1\xaa?'
p36
tp37
bg24
(g25
(I0
tp38
g27
tp39
Rp40
(I1
(I1
I1
tp41
g33
I00
S'\xa7:M\x1a\xa6;\xab?'
p42
tp43
bg24
(g25
(I0
tp44
g27
tp45
Rp46
(I1
(I1
I1
tp47
g33
I00
S'\x06\xb5\x85\xed_\\\xc5\xbf'
p48
tp49
btp50
sS'target_rot'
p51
g24
(cnumpy
ndarray
p52
(I0
tp53
g27
tp54
Rp55
(I1
(I3
tp56
g33
I00
S'C\xc7\xe7\xe7\x91\t\xb4?\xf5\x11>!\xe6d(\xc0a@\tTb4e\xc0'
p57
tp58
bsS'center_actual_pixels'
p59
(I875
I517
tp60
s.(dp0
S'center_target_pixels'
p1
(I1051
I552
tp2
sS'target_pos'
p3
(lp4
cnumpy.core.multiarray
scalar
p5
(cnumpy
dtype
p6
(S'f8'
p7
I0
I1
tp8
Rp9
(I3
S'<'
p10
NNNI-1
I-1
I0
tp11
bS'\xcfP^\x02P\xf4\xa2?'
p12
tp13
Rp14
ag5
(g9
S'\xc7\xe4\xb8\x9a3H\xaa?'
p15
tp16
Rp17
ag5
(g9
S'\xe8\xf3\x824\xda,\xc5\xbf'
p18
tp19
Rp20
asS'actual_rot'
p21
(F0.1263145492428189
F-11.846642835222644
F-167.71488289956568
tp22
sS'actual_pos'
p23
(cnumpy.core.multiarray
_reconstruct
p24
(cnumpy.matrixlib.defmatrix
matrix
p25
(I0
tp26
S'b'
p27
tp28
Rp29
(I1
(I1
I1
tp30
g6
(S'f8'
p31
I0
I1
tp32
Rp33
(I3
S'<'
p34
NNNI-1
I-1
I0
tp35
bI00
S'9g\xddS\x97\x91\xa2?'
p36
tp37
bg24
(g25
(I0
tp38
g27
tp39
Rp40
(I1
(I1
I1
tp41
g33
I00
S'q\xe4\x93\xeaZo\xaa?'
p42
tp43
bg24
(g25
(I0
tp44
g27
tp45
Rp46
(I1
(I1
I1
tp47
g33
I00
S'\x8e(C\xe1\xad$\xc5\xbf'
p48
tp49
btp50
sS'target_rot'
p51
g24
(cnumpy
ndarray
p52
(I0
tp53
g27
tp54
Rp55
(I1
(I3
tp56
g33
I00
S'C\xc7\xe7\xe7\x91\t\xb4?\xf5\x11>!\xe6d(\xc0a@\tTb4e\xc0'
p57
tp58
bsS'center_actual_pixels'
p59
(I1064
I526
tp60
s.(dp0
S'center_target_pixels'
p1
(I1227
I558
tp2
sS'target_pos'
p3
(lp4
cnumpy.core.multiarray
scalar
p5
(cnumpy
dtype
p6
(S'f8'
p7
I0
I1
tp8
Rp9
(I3
S'<'
p10
NNNI-1
I-1
I0
tp11
bS't\xd3a\xd9\xe1\xbf\x95?'
p12
tp13
Rp14
ag5
(g9
S'\x0c}y,\x9eu\xa9?'
p15
tp16
Rp17
ag5
(g9
S'\x97P\x8eJ\xf7\xf2\xc4\xbf'
p18
tp19
Rp20
asS'actual_rot'
p21
(F0.804628330931982
F-9.639047759590179
F-169.65278614255178
tp22
sS'actual_pos'
p23
(cnumpy.core.multiarray
_reconstruct
p24
(cnumpy.matrixlib.defmatrix
matrix
p25
(I0
tp26
S'b'
p27
tp28
Rp29
(I1
(I1
I1
tp30
g6
(S'f8'
p31
I0
I1
tp32
Rp33
(I3
S'<'
p34
NNNI-1
I-1
I0
tp35
bI00
S'-\xba\x17\xdc\xac\xd0\x94?'
p36
tp37
bg24
(g25
(I0
tp38
g27
tp39
Rp40
(I1
(I1
I1
tp41
g33
I00
S'\x90\x00\xc4Cl\x99\xa9?'
p42
tp43
bg24
(g25
(I0
tp44
g27
tp45
Rp46
(I1
(I1
I1
tp47
g33
I00
S'\x8e\xe7zM\xd7\xeb\xc4\xbf'
p48
tp49
btp50
sS'target_rot'
p51
g24
(cnumpy
ndarray
p52
(I0
tp53
g27
tp54
Rp55
(I1
(I3
tp56
g33
I00
S'C\xc7\xe7\xe7\x91\t\xb4?\xf5\x11>!\xe6d(\xc0a@\tTb4e\xc0'
p57
tp58
bsS'center_actual_pixels'
p59
(I1247
I533
tp60
s.(dp0
S'center_target_pixels'
p1
(I1403
I564
tp2
sS'target_pos'
p3
(lp4
cnumpy.core.multiarray
scalar
p5
(cnumpy
dtype
p6
(S'f8'
p7
I0
I1
tp8
Rp9
(I3
S'<'
p10
NNNI-1
I-1
I0
tp11
bS'\xa0\x1f\x0e^^0u?'
p12
tp13
Rp14
ag5
(g9
S'$\x81\xb447\x9f\xa8?'
p15
tp16
Rp17
ag5
(g9
S':\xaa\xe08\xa2\xb7\xc4\xbf'
p18
tp19
Rp20
asS'actual_rot'
p21
(F1.3714109712657103
F-7.745921345996401
F-170.90540743067163
tp22
sS'actual_pos'
p23
(cnumpy.core.multiarray
_reconstruct
p24
(cnumpy.matrixlib.defmatrix
matrix
p25
(I0
tp26
S'b'
p27
tp28
Rp29
(I1
(I1
I1
tp30
g6
(S'f8'
p31
I0
I1
tp32
Rp33
(I3
S'<'
p34
NNNI-1
I-1
I0
tp35
bI00
S'\xb2;[\xb3y\x8bp?'
p36
tp37
bg24
(g25
(I0
tp38
g27
tp39
Rp40
(I1
(I1
I1
tp41
g33
I00
S'\r\xcff\x10H\xc9\xa8?'
p42
tp43
bg24
(g25
(I0
tp44
g27
tp45
Rp46
(I1
(I1
I1
tp47
g33
I00
S'v]\x90\xaf\x01\xb8\xc4\xbf'
p48
tp49
btp50
sS'target_rot'
p51
g24
(cnumpy
ndarray
p52
(I0
tp53
g27
tp54
Rp55
(I1
(I3
tp56
g33
I00
S'C\xc7\xe7\xe7\x91\t\xb4?\xf5\x11>!\xe6d(\xc0a@\tTb4e\xc0'
p57
tp58
bsS'center_actual_pixels'
p59
(I1428
I538
tp60
s.(dp0
S'center_target_pixels'
p1
(I781
I632
tp2
sS'target_pos'
p3
(lp4
cnumpy.core.multiarray
scalar
p5
(cnumpy
dtype
p6
(S'f8'
p7
I0
I1
tp8
Rp9
(I3
S'<'
p10
NNNI-1
I-1
I0
tp11
bS'\xc55\x99E\xec\x8b\xae?'
p12
tp13
Rp14
ag5
(g9
S'u\xa4\xf5%\xb7\x83\xaf?'
p15
tp16
Rp17
ag5
(g9
S'\xec\x93\xa4Y\x8d{\xc5\xbf'
p18
tp19
Rp20
asS'actual_rot'
p21
(F-1.5876593300214876
F-16.606952192408723
F-164.65716782710487
tp22
sS'actual_pos'
p23
(cnumpy.core.multiarray
_reconstruct
p24
(cnumpy.matrixlib.defmatrix
matrix
p25
(I0
tp26
S'b'
p27
tp28
Rp29
(I1
(I1
I1
tp30
g6
(S'f8'
p31
I0
I1
tp32
Rp33
(I3
S'<'
p34
NNNI-1
I-1
I0
tp35
bI00
S'\xa6\xd8\x1eI\xa7y\xae?'
p36
tp37
bg24
(g25
(I0
tp38
g27
tp39
Rp40
(I1
(I1
I1
tp41
g33
I00
S'\xda\xea\xe8m\xb5\x9a\xaf?'
p42
tp43
bg24
(g25
(I0
tp44
g27
tp45
Rp46
(I1
(I1
I1
tp47
g33
I00
S'\xb2\xca\x16\xde\xd8m\xc5\xbf'
p48
tp49
btp50
sS'target_rot'
p51
g24
(cnumpy
ndarray
p52
(I0
tp53
g27
tp54
Rp55
(I1
(I3
tp56
g33
I00
S'C\xc7\xe7\xe7\x91\t\xb4?\xf5\x11>!\xe6d(\xc0a@\tTb4e\xc0'
p57
tp58
bsS'center_actual_pixels'
p59
(I782
I602
tp60
s.(dp0
S'center_target_pixels'
p1
(I952
I632
tp2
sS'target_pos'
p3
(lp4
cnumpy.core.multiarray
scalar
p5
(cnumpy
dtype
p6
(S'f8'
p7
I0
I1
tp8
Rp9
(I3
S'<'
p10
NNNI-1
I-1
I0
tp11
bS'\x01\xb3\x9a\xfc4\xf1\xa6?'
p12
tp13
Rp14
ag5
(g9
S'\xdc\x0f\x9e\x1fQ\x82\xae?'
p15
tp16
Rp17
ag5
(g9
S'\x1d\xdd\xc8\xee\x0cF\xc5\xbf'
p18
tp19
Rp20
asS'actual_rot'
p21
(F-0.4599561091701378
F-13.527751915897111
F-165.66786373036481
tp22
sS'actual_pos'
p23
(cnumpy.core.multiarray
_reconstruct
p24
(cnumpy.matrixlib.defmatrix
matrix
p25
(I0
tp26
S'b'
p27
tp28
Rp29
(I1
(I1
I1
tp30
g6
(S'f8'
p31
I0
I1
tp32
Rp33
(I3
S'<'
p34
NNNI-1
I-1
I0
tp35
bI00
S'\xc2R\xc4\r\x1f\xb0\xa6?'
p36
tp37
bg24
(g25
(I0
tp38
g27
tp39
Rp40
(I1
(I1
I1
tp41
g33
I00
S'\x083u\xe7f\x9f\xae?'
p42
tp43
bg24
(g25
(I0
tp44
g27
tp45
Rp46
(I1
(I1
I1
tp47
g33
I00
S'J\xd1E\xd9d=\xc5\xbf'
p48
tp49
btp50
sS'target_rot'
p51
g24
(cnumpy
ndarray
p52
(I0
tp53
g27
tp54
Rp55
(I1
(I3
tp56
g33
I00
S'C\xc7\xe7\xe7\x91\t\xb4?\xf5\x11>!\xe6d(\xc0a@\tTb4e\xc0'
p57
tp58
bsS'center_actual_pixels'
p59
(I959
I607
tp60
s.(dp0
S'center_target_pixels'
p1
(I1136
I643
tp2
sS'target_pos'
p3
(lp4
cnumpy.core.multiarray
scalar
p5
(cnumpy
dtype
p6
(S'f8'
p7
I0
I1
tp8
Rp9
(I3
S'<'
p10
NNNI-1
I-1
I0
tp11
bS'\xd6\xc1{\xe1A\x16\x9d?'
p12
tp13
Rp14
ag5
(g9
S'\x05\xc3E\x1c\xc2\xe8\xad?'
p15
tp16
Rp17
ag5
(g9
S'M}\x84:\x1f\n\xc5\xbf'
p18
tp19
Rp20
asS'actual_rot'
p21
(F0.2238765943385188
F-11.546229857476025
F-167.20757239840822
tp22
sS'actual_pos'
p23
(cnumpy.core.multiarray
_reconstruct
p24
(cnumpy.matrixlib.defmatrix
matrix
p25
(I0
tp26
S'b'
p27
tp28
Rp29
(I1
(I1
I1
tp30
g6
(S'f8'
p31
I0
I1
tp32
Rp33
(I3
S'<'
p34
NNNI-1
I-1
I0
tp35
bI00
S'%C9$\xa0f\x9c?'
p36
tp37
bg24
(g25
(I0
tp38
g27
tp39
Rp40
(I1
(I1
I1
tp41
g33
I00
S'\x0eT\xe5\xd2\xb0\x05\xae?'
p42
tp43
bg24
(g25
(I0
tp44
g27
tp45
Rp46
(I1
(I1
I1
tp47
g33
I00
S'R\xd6\xf0\xc6"\x00\xc5\xbf'
p48
tp49
btp50
sS'target_rot'
p51
g24
(cnumpy
ndarray
p52
(I0
tp53
g27
tp54
Rp55
(I1
(I3
tp56
g33
I00
S'C\xc7\xe7\xe7\x91\t\xb4?\xf5\x11>!\xe6d(\xc0a@\tTb4e\xc0'
p57
tp58
bsS'center_actual_pixels'
p59
(I1149
I620
tp60
s.(dp0
S'center_target_pixels'
p1
(I1312
I649
tp2
sS'target_pos'
p3
(lp4
cnumpy.core.multiarray
scalar
p5
(cnumpy
dtype
p6
(S'f8'
p7
I0
I1
tp8
Rp9
(I3
S'<'
p10
NNNI-1
I-1
I0
tp11
bS'\x007\xc3@\xa3\x8c\x89?'
p12
tp13
Rp14
ag5
(g9
S'~\x9cq\xc1\xbf\x1d\xad?'
p15
tp16
Rp17
ag5
(g9
S'\xc5\x92\xf0\xd0\xb6\xcf\xc4\xbf'
p18
tp19
Rp20
asS'actual_rot'
p21
(F0.8753415674416898
F-9.774813324421801
F-169.2555814424793
tp22
sS'actual_pos'
p23
(cnumpy.core.multiarray
_reconstruct
p24
(cnumpy.matrixlib.defmatrix
matrix
p25
(I0
tp26
S'b'
p27
tp28
Rp29
(I1
(I1
I1
tp30
g6
(S'f8'
p31
I0
I1
tp32
Rp33
(I3
S'<'
p34
NNNI-1
I-1
I0
tp35
bI00
S'\x94\xcc\xa9\xd9\x02\xcf\x87?'
p36
tp37
bg24
(g25
(I0
tp38
g27
tp39
Rp40
(I1
(I1
I1
tp41
g33
I00
S'\xf0\xfc\xd1\xec\x965\xad?'
p42
tp43
bg24
(g25
(I0
tp44
g27
tp45
Rp46
(I1
(I1
I1
tp47
g33
I00
S'\xe5A,\xda\x8a\xc8\xc4\xbf'
p48
tp49
btp50
sS'target_rot'
p51
g24
(cnumpy
ndarray
p52
(I0
tp53
g27
tp54
Rp55
(I1
(I3
tp56
g33
I00
S'C\xc7\xe7\xe7\x91\t\xb4?\xf5\x11>!\xe6d(\xc0a@\tTb4e\xc0'
p57
tp58
bsS'center_actual_pixels'
p59
(I1329
I625
tp60
s.(dp0
S'center_target_pixels'
p1
(I686
I718
tp2
sS'target_pos'
p3
(lp4
cnumpy.core.multiarray
scalar
p5
(cnumpy
dtype
p6
(S'f8'
p7
I0
I1
tp8
Rp9
(I3
S'<'
p10
NNNI-1
I-1
I0
tp11
bS'L\x10\x1e=\x1a\x1b\xb1?'
p12
tp13
Rp14
ag5
(g9
S'\x94\x8f\xd1\xf2T\xf3\xb1?'
p15
tp16
Rp17
ag5
(g9
S'\xa9\x92\xa7\xf7^\x91\xc5\xbf'
p18
tp19
Rp20
asS'actual_rot'
p21
(F-2.010876612166583
F-17.11346495652927
F-163.4610344882487
tp22
sS'actual_pos'
p23
(cnumpy.core.multiarray
_reconstruct
p24
(cnumpy.matrixlib.defmatrix
matrix
p25
(I0
tp26
S'b'
p27
tp28
Rp29
(I1
(I1
I1
tp30
g6
(S'f8'
p31
I0
I1
tp32
Rp33
(I3
S'<'
p34
NNNI-1
I-1
I0
tp35
bI00
S'wo]\xb2\xd9\x1e\xb1?'
p36
tp37
bg24
(g25
(I0
tp38
g27
tp39
Rp40
(I1
(I1
I1
tp41
g33
I00
S'T\xb0hw^\xfe\xb1?'
p42
tp43
bg24
(g25
(I0
tp44
g27
tp45
Rp46
(I1
(I1
I1
tp47
g33
I00
S'\x14\xfc\xf0\xb4\xbe\x84\xc5\xbf'
p48
tp49
btp50
sS'target_rot'
p51
g24
(cnumpy
ndarray
p52
(I0
tp53
g27
tp54
Rp55
(I1
(I3
tp56
g33
I00
S'C\xc7\xe7\xe7\x91\t\xb4?\xf5\x11>!\xe6d(\xc0a@\tTb4e\xc0'
p57
tp58
bsS'center_actual_pixels'
p59
(I686
I687
tp60
s.(dp0
S'center_target_pixels'
p1
(I867
I724
tp2
sS'target_pos'
p3
(lp4
cnumpy.core.multiarray
scalar
p5
(cnumpy
dtype
p6
(S'f8'
p7
I0
I1
tp8
Rp9
(I3
S'<'
p10
NNNI-1
I-1
I0
tp11
bS'\xb4Lx\xea{2\xaa?'
p12
tp13
Rp14
ag5
(g9
S'\x8b>\xc6\x9f\x99\x93\xb1?'
p15
tp16
Rp17
ag5
(g9
S'\xd3\xb8\x1e\x8d!Y\xc5\xbf'
p18
tp19
Rp20
asS'actual_rot'
p21
(F-1.1315287229730235
F-14.941298915286234
F-164.30174387024223
tp22
sS'actual_pos'
p23
(cnumpy.core.multiarray
_reconstruct
p24
(cnumpy.matrixlib.defmatrix
matrix
p25
(I0
tp26
S'b'
p27
tp28
Rp29
(I1
(I1
I1
tp30
g6
(S'f8'
p31
I0
I1
tp32
Rp33
(I3
S'<'
p34
NNNI-1
I-1
I0
tp35
bI00
S'\xd7\xd7\xe6\x9dJ\r\xaa?'
p36
tp37
bg24
(g25
(I0
tp38
g27
tp39
Rp40
(I1
(I1
I1
tp41
g33
I00
S'\x1b\x90\na\x89\x9f\xb1?'
p42
tp43
bg24
(g25
(I0
tp44
g27
tp45
Rp46
(I1
(I1
I1
tp47
g33
I00
S'OJQ\xd9`O\xc5\xbf'
p48
tp49
btp50
sS'target_rot'
p51
g24
(cnumpy
ndarray
p52
(I0
tp53
g27
tp54
Rp55
(I1
(I3
tp56
g33
I00
S'C\xc7\xe7\xe7\x91\t\xb4?\xf5\x11>!\xe6d(\xc0a@\tTb4e\xc0'
p57
tp58
bsS'center_actual_pixels'
p59
(I872
I697
tp60
s.(dp0
S'center_target_pixels'
p1
(I1045
I729
tp2
sS'target_pos'
p3
(lp4
cnumpy.core.multiarray
scalar
p5
(cnumpy
dtype
p6
(S'f8'
p7
I0
I1
tp8
Rp9
(I3
S'<'
p10
NNNI-1
I-1
I0
tp11
bS'\xbb\xbc]\xf8n,\xa2?'
p12
tp13
Rp14
ag5
(g9
S"\x94\xbb'\xfee.\xb1?"
p15
tp16
Rp17
ag5
(g9
S',\x7f9T~ \xc5\xbf'
p18
tp19
Rp20
asS'actual_rot'
p21
(F-0.01232363299313081
F-12.208900975579212
F-165.0613650473609
tp22
sS'actual_pos'
p23
(cnumpy.core.multiarray
_reconstruct
p24
(cnumpy.matrixlib.defmatrix
matrix
p25
(I0
tp26
S'b'
p27
tp28
Rp29
(I1
(I1
I1
tp30
g6
(S'f8'
p31
I0
I1
tp32
Rp33
(I3
S'<'
p34
NNNI-1
I-1
I0
tp35
bI00
S' \xc6%\xd5\xa8\xd3\xa1?'
p36
tp37
bg24
(g25
(I0
tp38
g27
tp39
Rp40
(I1
(I1
I1
tp41
g33
I00
S'c\x9a\x14\x89\xb3:\xb1?'
p42
tp43
bg24
(g25
(I0
tp44
g27
tp45
Rp46
(I1
(I1
I1
tp47
g33
I00
S'Wl\xf5\xb6\x82\x16\xc5\xbf'
p48
tp49
btp50
sS'target_rot'
p51
g24
(cnumpy
ndarray
p52
(I0
tp53
g27
tp54
Rp55
(I1
(I3
tp56
g33
I00
S'C\xc7\xe7\xe7\x91\t\xb4?\xf5\x11>!\xe6d(\xc0a@\tTb4e\xc0'
p57
tp58
bsS'center_actual_pixels'
p59
(I1062
I708
tp60
s.(dp0
S'center_target_pixels'
p1
(I1221
I735
tp2
sS'target_pos'
p3
(lp4
cnumpy.core.multiarray
scalar
p5
(cnumpy
dtype
p6
(S'f8'
p7
I0
I1
tp8
Rp9
(I3
S'<'
p10
NNNI-1
I-1
I0
tp11
bS'\\%\x80\x99\xe0,\x94?'
p12
tp13
Rp14
ag5
(g9
S'S\x0e=!\xa1\xce\xb0?'
p15
tp16
Rp17
ag5
(g9
S'\x84\x98\xa1\x0b\xff\xe6\xc4\xbf'
p18
tp19
Rp20
asS'actual_rot'
p21
(F0.2387960158264094
F-11.579679746797918
F-167.01402990197755
tp22
sS'actual_pos'
p23
(cnumpy.core.multiarray
_reconstruct
p24
(cnumpy.matrixlib.defmatrix
matrix
p25
(I0
tp26
S'b'
p27
tp28
Rp29
(I1
(I1
I1
tp30
g6
(S'f8'
p31
I0
I1
tp32
Rp33
(I3
S'<'
p34
NNNI-1
I-1
I0
tp35
bI00
S'zW\xa5\xe4\xba\x95\x93?'
p36
tp37
bg24
(g25
(I0
tp38
g27
tp39
Rp40
(I1
(I1
I1
tp41
g33
I00
S'atlI\xc4\xdd\xb0?'
p42
tp43
bg24
(g25
(I0
tp44
g27
tp45
Rp46
(I1
(I1
I1
tp47
g33
I00
S'\xa8\x0c\xcb\xa9\x15\xde\xc4\xbf'
p48
tp49
btp50
sS'target_rot'
p51
g24
(cnumpy
ndarray
p52
(I0
tp53
g27
tp54
Rp55
(I1
(I3
tp56
g33
I00
S'C\xc7\xe7\xe7\x91\t\xb4?\xf5\x11>!\xe6d(\xc0a@\tTb4e\xc0'
p57
tp58
bsS'center_actual_pixels'
p59
(I1234
I713
tp60
s.(dp0
S'center_target_pixels'
p1
(I1396
I740
tp2
sS'target_pos'
p3
(lp4
cnumpy.core.multiarray
scalar
p5
(cnumpy
dtype
p6
(S'f8'
p7
I0
I1
tp8
Rp9
(I3
S'<'
p10
NNNI-1
I-1
I0
tp11
bS'\xc0\x8d#\xc5z\x82n?'
p12
tp13
Rp14
ag5
(g9
S'\xa6\xeb\x81N\xe2g\xb0?'
p15
tp16
Rp17
ag5
(g9
S'W\xda\xa1\xdey\xac\xc4\xbf'
p18
tp19
Rp20
asS'actual_rot'
p21
(F0.9505381370338426
F-9.922161873962374
F-169.0567922131804
tp22
sS'actual_pos'
p23
(cnumpy.core.multiarray
_reconstruct
p24
(cnumpy.matrixlib.defmatrix
matrix
p25
(I0
tp26
S'b'
p27
tp28
Rp29
(I1
(I1
I1
tp30
g6
(S'f8'
p31
I0
I1
tp32
Rp33
(I3
S'<'
p34
NNNI-1
I-1
I0
tp35
bI00
S'\xce\x996\xddy\x97h?'
p36
tp37
bg24
(g25
(I0
tp38
g27
tp39
Rp40
(I1
(I1
I1
tp41
g33
I00
S'\xd2\x16*\xb5\rt\xb0?'
p42
tp43
bg24
(g25
(I0
tp44
g27
tp45
Rp46
(I1
(I1
I1
tp47
g33
I00
S'\n\x07Z\x88H\xa5\xc4\xbf'
p48
tp49
btp50
sS'target_rot'
p51
g24
(cnumpy
ndarray
p52
(I0
tp53
g27
tp54
Rp55
(I1
(I3
tp56
g33
I00
S'C\xc7\xe7\xe7\x91\t\xb4?\xf5\x11>!\xe6d(\xc0a@\tTb4e\xc0'
p57
tp58
bsS'center_actual_pixels'
p59
(I1414
I712
tp60
s.