(dp0
S'actual_pos'
p1
(lp2
F0.07371745059622786
aF0.01955836728218822
aF-0.16902028784689346
asS'actual_rot'
p3
(lp4
F44.97460647709486
aF7.991530570353642
aF-171.07000153412662
asS'target_pos'
p5
cnumpy.core.multiarray
_reconstruct
p6
(cnumpy
ndarray
p7
(I0
tp8
S'b'
p9
tp10
Rp11
(I1
(I3
tp12
cnumpy
dtype
p13
(S'f8'
p14
I0
I1
tp15
Rp16
(I3
S'<'
p17
NNNI-1
I-1
I0
tp18
bI00
S'\xa9QQ\xeb8\x18\xb3?\xf7g\x08^{\x8e\x93?O\xf5{H?\xa7\xc5\xbf'
p19
tp20
bsS'target_rot'
p21
g6
(g7
(I0
tp22
g9
tp23
Rp24
(I1
(I3
tp25
g16
I00
S'\x00\x00\x00\x00\x00\x80F@\x00\x00\x00\x00\x00\x00\x1e@\x00\x00\x00\x00\x00\xc8d\xc0'
p26
tp27
bsS'center_target_pixels'
p28
(I709
I108
tp29
sS'center_actual_pixels'
p30
(I708
I114
tp31
s.(dp0
S'actual_pos'
p1
(lp2
F0.058236207863393924
aF0.017886780859414773
aF-0.16768861515807235
asS'actual_rot'
p3
(lp4
F44.76751868100777
aF9.228845969889724
aF-170.91577931199592
asS'target_pos'
p5
cnumpy.core.multiarray
_reconstruct
p6
(cnumpy
ndarray
p7
(I0
tp8
S'b'
p9
tp10
Rp11
(I1
(I3
tp12
cnumpy
dtype
p13
(S'f8'
p14
I0
I1
tp15
Rp16
(I3
S'<'
p17
NNNI-1
I-1
I0
tp18
bI00
S'\xf9l8\xc3\xedD\xae?\xe0\x92\x94\n\xed\x05\x92?\xd7q\x84\xbdj\x80\xc5\xbf'
p19
tp20
bsS'target_rot'
p21
g6
(g7
(I0
tp22
g9
tp23
Rp24
(I1
(I3
tp25
g16
I00
S'\x00\x00\x00\x00\x00\x80F@\x00\x00\x00\x00\x00\x00\x1e@\x00\x00\x00\x00\x00\xc8d\xc0'
p26
tp27
bsS'center_target_pixels'
p28
(I890
I123
tp29
sS'center_actual_pixels'
p30
(I887
I117
tp31
s.(dp0
S'actual_pos'
p1
(lp2
F0.04192143243815565
aF0.017461991117281982
aF-0.16653652066705577
asS'actual_rot'
p3
(lp4
F44.70885142357419
aF10.834893587372058
aF-170.90604597752068
asS'target_pos'
p5
cnumpy.core.multiarray
_reconstruct
p6
(cnumpy
ndarray
p7
(I0
tp8
S'b'
p9
tp10
Rp11
(I1
(I3
tp12
cnumpy
dtype
p13
(S'f8'
p14
I0
I1
tp15
Rp16
(I3
S'<'
p17
NNNI-1
I-1
I0
tp18
bI00
S'\x971\xef\x87\x82\x01\xa6?\xcc\xec\xcfWn\xb2\x91?Yw\xc5\xb1Na\xc5\xbf'
p19
tp20
bsS'target_rot'
p21
g6
(g7
(I0
tp22
g9
tp23
Rp24
(I1
(I3
tp25
g16
I00
S'\x00\x00\x00\x00\x00\x80F@\x00\x00\x00\x00\x00\x00\x1e@\x00\x00\x00\x00\x00\xc8d\xc0'
p26
tp27
bsS'center_target_pixels'
p28
(I1069
I137
tp29
sS'center_actual_pixels'
p30
(I1068
I146
tp31
s.(dp0
S'actual_pos'
p1
(lp2
F0.02675151257145796
aF0.016037642810891064
aF-0.16460156855895902
asS'actual_rot'
p3
(lp4
F44.82507836757727
aF12.046605133797154
aF-170.77496829249856
asS'target_pos'
p5
cnumpy.core.multiarray
_reconstruct
p6
(cnumpy
ndarray
p7
(I0
tp8
S'b'
p9
tp10
Rp11
(I1
(I3
tp12
cnumpy
dtype
p13
(S'f8'
p14
I0
I1
tp15
Rp16
(I3
S'<'
p17
NNNI-1
I-1
I0
tp18
bI00
S'\xd4\xacv\xd5\xa3{\x9c?\x99Y>\x87\xd9s\x90?)m1\xcc\xe1\x1d\xc5\xbf'
p19
tp20
bsS'target_rot'
p21
g6
(g7
(I0
tp22
g9
tp23
Rp24
(I1
(I3
tp25
g16
I00
S'\x00\x00\x00\x00\x00\x80F@\x00\x00\x00\x00\x00\x00\x1e@\x00\x00\x00\x00\x00\xc8d\xc0'
p26
tp27
bsS'center_target_pixels'
p28
(I1246
I149
tp29
sS'center_actual_pixels'
p30
(I1247
I145
tp31
s.(dp0
S'actual_pos'
p1
(lp2
F0.0666158479992975
aF0.025949519413944185
aF-0.16830486162241934
asS'actual_rot'
p3
(lp4
F45.03390750879084
aF7.775851240087758
aF-171.0449840683413
asS'target_pos'
p5
cnumpy.core.multiarray
_reconstruct
p6
(cnumpy
ndarray
p7
(I0
tp8
S'b'
p9
tp10
Rp11
(I1
(I3
tp12
cnumpy
dtype
p13
(S'f8'
p14
I0
I1
tp15
Rp16
(I3
S'<'
p17
NNNI-1
I-1
I0
tp18
bI00
S'\x9a\xff\xf4\x87V?\xb1?\x1e\xf5\xc23\x1dD\x9a?\x02\xa4\xe3h\x15\x91\xc5\xbf'
p19
tp20
bsS'target_rot'
p21
g6
(g7
(I0
tp22
g9
tp23
Rp24
(I1
(I3
tp25
g16
I00
S'\x00\x00\x00\x00\x00\x80F@\x00\x00\x00\x00\x00\x00\x1e@\x00\x00\x00\x00\x00\xc8d\xc0'
p26
tp27
bsS'center_target_pixels'
p28
(I794
I206
tp29
sS'center_actual_pixels'
p30
(I779
I192
tp31
s.(dp0
S'actual_pos'
p1
(lp2
F0.048976337440211036
aF0.02486395638943381
aF-0.16661510598473375
asS'actual_rot'
p3
(lp4
F44.91315182065783
aF9.064570280221075
aF-170.6019145638151
asS'target_pos'
p5
cnumpy.core.multiarray
_reconstruct
p6
(cnumpy
ndarray
p7
(I0
tp8
S'b'
p9
tp10
Rp11
(I1
(I3
tp12
cnumpy
dtype
p13
(S'f8'
p14
I0
I1
tp15
Rp16
(I3
S'<'
p17
NNNI-1
I-1
I0
tp18
bI00
S'\xf3>\xf6\xbd\x00\x90\xa9?4\xe85x\xf39\x99?"\xf4%\x8fP\\\xc5\xbf'
p19
tp20
bsS'target_rot'
p21
g6
(g7
(I0
tp22
g9
tp23
Rp24
(I1
(I3
tp25
g16
I00
S'\x00\x00\x00\x00\x00\x80F@\x00\x00\x00\x00\x00\x00\x1e@\x00\x00\x00\x00\x00\xc8d\xc0'
p26
tp27
bsS'center_target_pixels'
p28
(I974
I219
tp29
sS'center_actual_pixels'
p30
(I977
I202
tp31
s.(dp0
S'actual_pos'
p1
(lp2
F0.03468230423822423
aF0.024821218987885526
aF-0.16475688965259008
asS'actual_rot'
p3
(lp4
F44.91440919325663
aF10.407903945999506
aF-170.51055685121588
asS'target_pos'
p5
cnumpy.core.multiarray
_reconstruct
p6
(cnumpy
ndarray
p7
(I0
tp8
S'b'
p9
tp10
Rp11
(I1
(I3
tp12
cnumpy
dtype
p13
(S'f8'
p14
I0
I1
tp15
Rp16
(I3
S'<'
p17
NNNI-1
I-1
I0
tp18
bI00
S'O\x8aT\xe6\xa7<\xa2?\xb4\x16}\x0b\x06x\x99??c\x0b@\xdd\x1f\xc5\xbf'
p19
tp20
bsS'target_rot'
p21
g6
(g7
(I0
tp22
g9
tp23
Rp24
(I1
(I3
tp25
g16
I00
S'\x00\x00\x00\x00\x00\x80F@\x00\x00\x00\x00\x00\x00\x1e@\x00\x00\x00\x00\x00\xc8d\xc0'
p26
tp27
bsS'center_target_pixels'
p28
(I1152
I233
tp29
sS'center_actual_pixels'
p30
(I1135
I225
tp31
s.(dp0
S'actual_pos'
p1
(lp2
F0.01779572589802076
aF0.021036918206911035
aF-0.16312328526139713
asS'actual_rot'
p3
(lp4
F45.106973947146784
aF12.16986024918186
aF-170.46675388160057
asS'target_pos'
p5
cnumpy.core.multiarray
_reconstruct
p6
(cnumpy
ndarray
p7
(I0
tp8
S'b'
p9
tp10
Rp11
(I1
(I3
tp12
cnumpy
dtype
p13
(S'f8'
p14
I0
I1
tp15
Rp16
(I3
S'<'
p17
NNNI-1
I-1
I0
tp18
bI00
S'\xd2a\x92\xb8\xf5E\x93?\xb2\xa4\xa5S\xc1\xb3\x95?\xa2\xd4\x11\xce\xf9\xed\xc4\xbf'
p19
tp20
bsS'target_rot'
p21
g6
(g7
(I0
tp22
g9
tp23
Rp24
(I1
(I3
tp25
g16
I00
S'\x00\x00\x00\x00\x00\x80F@\x00\x00\x00\x00\x00\x00\x1e@\x00\x00\x00\x00\x00\xc8d\xc0'
p26
tp27
bsS'center_target_pixels'
p28
(I1329
I241
tp29
sS'center_actual_pixels'
p30
(I1329
I211
tp31
s.(dp0
S'actual_pos'
p1
(lp2
F0.07258264723836405
aF0.035327656917339266
aF-0.16924813895540677
asS'actual_rot'
p3
(lp4
F45.084713865042666
aF7.764381180852963
aF-170.94172260333013
asS'target_pos'
p5
cnumpy.core.multiarray
_reconstruct
p6
(cnumpy
ndarray
p7
(I0
tp8
S'b'
p9
tp10
Rp11
(I1
(I3
tp12
cnumpy
dtype
p13
(S'f8'
p14
I0
I1
tp15
Rp16
(I3
S'<'
p17
NNNI-1
I-1
I0
tp18
bI00
S'\xb3v\x0f\xab\xa0\xcf\xb2?ax\xa3v\x82\xcc\xa1?3l\x1c\x1f\x9c\xb5\xc5\xbf'
p19
tp20
bsS'target_rot'
p21
g6
(g7
(I0
tp22
g9
tp23
Rp24
(I1
(I3
tp25
g16
I00
S'\x00\x00\x00\x00\x00\x80F@\x00\x00\x00\x00\x00\x00\x1e@\x00\x00\x00\x00\x00\xc8d\xc0'
p26
tp27
bsS'center_target_pixels'
p28
(I698
I289
tp29
sS'center_actual_pixels'
p30
(I696
I293
tp31
s.(dp0
S'actual_pos'
p1
(lp2
F0.0565093947103769
aF0.03395127162847866
aF-0.16790191089630696
asS'actual_rot'
p3
(lp4
F45.06879499511749
aF7.685338461930483
aF-170.53080237595057
asS'target_pos'
p5
cnumpy.core.multiarray
_reconstruct
p6
(cnumpy
ndarray
p7
(I0
tp8
S'b'
p9
tp10
Rp11
(I1
(I3
tp12
cnumpy
dtype
p13
(S'f8'
p14
I0
I1
tp15
Rp16
(I3
S'<'
p17
NNNI-1
I-1
I0
tp18
bI00
S'\xb5\xa3\xe2\xdeEK\xad?P\x99 \xe3\x91#\xa1?\x16\x93\xa5>\xa5\x8b\xc5\xbf'
p19
tp20
bsS'target_rot'
p21
g6
(g7
(I0
tp22
g9
tp23
Rp24
(I1
(I3
tp25
g16
I00
S'\x00\x00\x00\x00\x00\x80F@\x00\x00\x00\x00\x00\x00\x1e@\x00\x00\x00\x00\x00\xc8d\xc0'
p26
tp27
bsS'center_target_pixels'
p28
(I879
I302
tp29
sS'center_actual_pixels'
p30
(I880
I300
tp31
s.(dp0
S'actual_pos'
p1
(lp2
F0.04140658221243768
aF0.03243032531628915
aF-0.16627462745730148
asS'actual_rot'
p3
(lp4
F45.019093145962216
aF8.77551857752131
aF-170.33453829184916
asS'target_pos'
p5
cnumpy.core.multiarray
_reconstruct
p6
(cnumpy
ndarray
p7
(I0
tp8
S'b'
p9
tp10
Rp11
(I1
(I3
tp12
cnumpy
dtype
p13
(S'f8'
p14
I0
I1
tp15
Rp16
(I3
S'<'
p17
NNNI-1
I-1
I0
tp18
bI00
S'G\xff;\xc4\xe6\x9c\xa5?\xec\xcd\x00\xbe\xefo\xa0?.\x9d\t\xb2\x11V\xc5\xbf'
p19
tp20
bsS'target_rot'
p21
g6
(g7
(I0
tp22
g9
tp23
Rp24
(I1
(I3
tp25
g16
I00
S'\x00\x00\x00\x00\x00\x80F@\x00\x00\x00\x00\x00\x00\x1e@\x00\x00\x00\x00\x00\xc8d\xc0'
p26
tp27
bsS'center_target_pixels'
p28
(I1058
I314
tp29
sS'center_actual_pixels'
p30
(I1048
I303
tp31
s.(dp0
S'actual_pos'
p1
(lp2
F0.02423989978846455
aF0.03205514485885189
aF-0.16459849999358867
asS'actual_rot'
p3
(lp4
F45.13564081200408
aF10.228844337968493
aF-169.61276539675453
asS'target_pos'
p5
cnumpy.core.multiarray
_reconstruct
p6
(cnumpy
ndarray
p7
(I0
tp8
S'b'
p9
tp10
Rp11
(I1
(I3
tp12
cnumpy
dtype
p13
(S'f8'
p14
I0
I1
tp15
Rp16
(I3
S'<'
p17
NNNI-1
I-1
I0
tp18
bI00
S'\x7f\x91|u\xf2\x95\x99?\xce3\xbe\x86gf\xa0?\xc9k\xd4\xc6\xeb\x1d\xc5\xbf'
p19
tp20
bsS'target_rot'
p21
g6
(g7
(I0
tp22
g9
tp23
Rp24
(I1
(I3
tp25
g16
I00
S'\x00\x00\x00\x00\x00\x80F@\x00\x00\x00\x00\x00\x00\x1e@\x00\x00\x00\x00\x00\xc8d\xc0'
p26
tp27
bsS'center_target_pixels'
p28
(I1235
I325
tp29
sS'center_actual_pixels'
p30
(I1242
I314
tp31
s.(dp0
S'actual_pos'
p1
(lp2
F0.00994129844326347
aF0.03178326874390941
aF-0.16343379154420015
asS'actual_rot'
p3
(lp4
F45.4274802320932
aF11.371447448315275
aF-168.59105916230493
asS'target_pos'
p5
cnumpy.core.multiarray
_reconstruct
p6
(cnumpy
ndarray
p7
(I0
tp8
S'b'
p9
tp10
Rp11
(I1
(I3
tp12
cnumpy
dtype
p13
(S'f8'
p14
I0
I1
tp15
Rp16
(I3
S'<'
p17
NNNI-1
I-1
I0
tp18
bI00
S'&\xd9\xcbx\xe5L\x86?{\xad\x99\x93\xad>\xa0?\xc5C.&\x9b\xfb\xc4\xbf'
p19
tp20
bsS'target_rot'
p21
g6
(g7
(I0
tp22
g9
tp23
Rp24
(I1
(I3
tp25
g16
I00
S'\x00\x00\x00\x00\x00\x80F@\x00\x00\x00\x00\x00\x00\x1e@\x00\x00\x00\x00\x00\xc8d\xc0'
p26
tp27
bsS'center_target_pixels'
p28
(I1411
I336
tp29
sS'center_actual_pixels'
p30
(I1404
I340
tp31
s.(dp0
S'actual_pos'
p1
(lp2
F0.06432157670830192
aF0.042617909560464295
aF-0.16853315005135755
asS'actual_rot'
p3
(lp4
F45.08567696734871
aF7.60343860582513
aF-170.18279983356788
asS'target_pos'
p5
cnumpy.core.multiarray
_reconstruct
p6
(cnumpy
ndarray
p7
(I0
tp8
S'b'
p9
tp10
Rp11
(I1
(I3
tp12
cnumpy
dtype
p13
(S'f8'
p14
I0
I1
tp15
Rp16
(I3
S'<'
p17
NNNI-1
I-1
I0
tp18
bI00
S'Z\xda\x0f5\x1e\xae\xb0?\xb4\xbf\xb7\xc3\xea\x8d\xa5?~\xe485\xc3\x9f\xc5\xbf'
p19
tp20
bsS'target_rot'
p21
g6
(g7
(I0
tp22
g9
tp23
Rp24
(I1
(I3
tp25
g16
I00
S'\x00\x00\x00\x00\x00\x80F@\x00\x00\x00\x00\x00\x00\x1e@\x00\x00\x00\x00\x00\xc8d\xc0'
p26
tp27
bsS'center_target_pixels'
p28
(I783
I385
tp29
sS'center_actual_pixels'
p30
(I778
I389
tp31
s.(dp0
S'actual_pos'
p1
(lp2
F0.048475193271017146
aF0.04072842527118751
aF-0.1670982099722093
asS'actual_rot'
p3
(lp4
F45.08729822877022
aF7.6303140331185695
aF-169.823883808076
asS'target_pos'
p5
cnumpy.core.multiarray
_reconstruct
p6
(cnumpy
ndarray
p7
(I0
tp8
S'b'
p9
tp10
Rp11
(I1
(I3
tp12
cnumpy
dtype
p13
(S'f8'
p14
I0
I1
tp15
Rp16
(I3
S'<'
p17
NNNI-1
I-1
I0
tp18
bI00
S'm\x9f\xd5\x1a\xcf-\xa9?\xd4\x88\xc5\x9e\xd9\x97\xa4?\xf5\x91\xf1\x8c%r\xc5\xbf'
p19
tp20
bsS'target_rot'
p21
g6
(g7
(I0
tp22
g9
tp23
Rp24
(I1
(I3
tp25
g16
I00
S'\x00\x00\x00\x00\x00\x80F@\x00\x00\x00\x00\x00\x00\x1e@\x00\x00\x00\x00\x00\xc8d\xc0'
p26
tp27
bsS'center_target_pixels'
p28
(I962
I396
tp29
sS'center_actual_pixels'
p30
(I954
I386
tp31
s.(dp0
S'actual_pos'
p1
(lp2
F0.032598496408150435
aF0.040395649538541904
aF-0.1655348536789534
asS'actual_rot'
p3
(lp4
F45.091141763555484
aF8.262121191348687
aF-168.80793075034418
asS'target_pos'
p5
cnumpy.core.multiarray
_reconstruct
p6
(cnumpy
ndarray
p7
(I0
tp8
S'b'
p9
tp10
Rp11
(I1
(I3
tp12
cnumpy
dtype
p13
(S'f8'
p14
I0
I1
tp15
Rp16
(I3
S'<'
p17
NNNI-1
I-1
I0
tp18
bI00
S'\xec\x02\xbc\xc8$\x19\xa1?~\xde\x94\xd2\xb0w\xa4?]Fi\xb6C>\xc5\xbf'
p19
tp20
bsS'target_rot'
p21
g6
(g7
(I0
tp22
g9
tp23
Rp24
(I1
(I3
tp25
g16
I00
S'\x00\x00\x00\x00\x00\x80F@\x00\x00\x00\x00\x00\x00\x1e@\x00\x00\x00\x00\x00\xc8d\xc0'
p26
tp27
bsS'center_target_pixels'
p28
(I1141
I408
tp29
sS'center_actual_pixels'
p30
(I1135
I414
tp31
s.(dp0
S'actual_pos'
p1
(lp2
F0.016218490441719465
aF0.0396440335829932
aF-0.16412474855470696
asS'actual_rot'
p3
(lp4
F45.22111441044765
aF9.087531907241438
aF-167.94351785621183
asS'target_pos'
p5
cnumpy.core.multiarray
_reconstruct
p6
(cnumpy
ndarray
p7
(I0
tp8
S'b'
p9
tp10
Rp11
(I1
(I3
tp12
cnumpy
dtype
p13
(S'f8'
p14
I0
I1
tp15
Rp16
(I3
S'<'
p17
NNNI-1
I-1
I0
tp18
bI00
S'\xe3!\x97\xeb\x08:\x91?\x84J\x075,3\xa4?\x84\x05_\x8d\xca\x11\xc5\xbf'
p19
tp20
bsS'target_rot'
p21
g6
(g7
(I0
tp22
g9
tp23
Rp24
(I1
(I3
tp25
g16
I00
S'\x00\x00\x00\x00\x00\x80F@\x00\x00\x00\x00\x00\x00\x1e@\x00\x00\x00\x00\x00\xc8d\xc0'
p26
tp27
bsS'center_target_pixels'
p28
(I1317
I419
tp29
sS'center_actual_pixels'
p30
(I1323
I429
tp31
s.(dp0
S'actual_pos'
p1
(lp2
F0.0722413397683228
aF0.05099663926269555
aF-0.16921129729610943
asS'actual_rot'
p3
(lp4
F45.158115009599975
aF6.8338879829242565
aF-169.42337760368432
asS'target_pos'
p5
cnumpy.core.multiarray
_reconstruct
p6
(cnumpy
ndarray
p7
(I0
tp8
S'b'
p9
tp10
Rp11
(I1
(I3
tp12
cnumpy
dtype
p13
(S'f8'
p14
I0
I1
tp15
Rp16
(I3
S'<'
p17
NNNI-1
I-1
I0
tp18
bI00
S'B5\xad\xa6\xa9\xb3\xb2?6\xe1\xbe&?\xe5\xa9?^\xff=\x83\xd1\xb2\xc5\xbf'
p19
tp20
bsS'target_rot'
p21
g6
(g7
(I0
tp22
g9
tp23
Rp24
(I1
(I3
tp25
g16
I00
S'\x00\x00\x00\x00\x00\x80F@\x00\x00\x00\x00\x00\x00\x1e@\x00\x00\x00\x00\x00\xc8d\xc0'
p26
tp27
bsS'center_target_pixels'
p28
(I687
I468
tp29
sS'center_actual_pixels'
p30
(I679
I475
tp31
s.(dp0
S'actual_pos'
p1
(lp2
F0.05629147435431245
aF0.0497546665249241
aF-0.1682902370502351
asS'actual_rot'
p3
(lp4
F45.09517897274604
aF7.153817724683371
aF-168.46595917777285
asS'target_pos'
p5
cnumpy.core.multiarray
_reconstruct
p6
(cnumpy
ndarray
p7
(I0
tp8
S'b'
p9
tp10
Rp11
(I1
(I3
tp12
cnumpy
dtype
p13
(S'f8'
p14
I0
I1
tp15
Rp16
(I3
S'<'
p17
NNNI-1
I-1
I0
tp18
bI00
S',\x95T\x16\xe9=\xad?\xcd\xc9\xc6|\x83>\xa9?|_Y\x16C\xa0\xc5\xbf'
p19
tp20
bsS'target_rot'
p21
g6
(g7
(I0
tp22
g9
tp23
Rp24
(I1
(I3
tp25
g16
I00
S'\x00\x00\x00\x00\x00\x80F@\x00\x00\x00\x00\x00\x00\x1e@\x00\x00\x00\x00\x00\xc8d\xc0'
p26
tp27
bsS'center_target_pixels'
p28
(I867
I479
tp29
sS'center_actual_pixels'
p30
(I858
I491
tp31
s.(dp0
S'actual_pos'
p1
(lp2
F0.04031524473988162
aF0.04703362281296363
aF-0.166038063832303
asS'actual_rot'
p3
(lp4
F45.062610834778226
aF7.302109302976581
aF-168.19126192233387
asS'target_pos'
p5
cnumpy.core.multiarray
_reconstruct
p6
(cnumpy
ndarray
p7
(I0
tp8
S'b'
p9
tp10
Rp11
(I1
(I3
tp12
cnumpy
dtype
p13
(S'f8'
p14
I0
I1
tp15
Rp16
(I3
S'<'
p17
NNNI-1
I-1
I0
tp18
bI00
S'\xf7\x18\xa8\xa7\x8c\xef\xa4?7!\xf9M\x12\xe9\xa7?\xf9\xbf\x1a\x95\xb5K\xc5\xbf'
p19
tp20
bsS'target_rot'
p21
g6
(g7
(I0
tp22
g9
tp23
Rp24
(I1
(I3
tp25
g16
I00
S'\x00\x00\x00\x00\x00\x80F@\x00\x00\x00\x00\x00\x00\x1e@\x00\x00\x00\x00\x00\xc8d\xc0'
p26
tp27
bsS'center_target_pixels'
p28
(I1065
I482
tp29
sS'center_actual_pixels'
p30
(I1037
I474
tp31
s.(dp0
S'actual_pos'
p1
(lp2
F0.0230265768011711
aF0.04794638169590563
aF-0.1647236939203015
asS'actual_rot'
p3
(lp4
F45.0550172250746
aF7.663056524502341
aF-166.7425733420842
asS'target_pos'
p5
cnumpy.core.multiarray
_reconstruct
p6
(cnumpy
ndarray
p7
(I0
tp8
S'b'
p9
tp10
Rp11
(I1
(I3
tp12
cnumpy
dtype
p13
(S'f8'
p14
I0
I1
tp15
Rp16
(I3
S'<'
p17
NNNI-1
I-1
I0
tp18
bI00
S"A\xc4\x06\x88J'\x98?]\xe1\r\x81\x90d\xa8?m\xe4M\x9e\xfa%\xc5\xbf"
p19
tp20
bsS'target_rot'
p21
g6
(g7
(I0
tp22
g9
tp23
Rp24
(I1
(I3
tp25
g16
I00
S'\x00\x00\x00\x00\x00\x80F@\x00\x00\x00\x00\x00\x00\x1e@\x00\x00\x00\x00\x00\xc8d\xc0'
p26
tp27
bsS'center_target_pixels'
p28
(I1223
I501
tp29
sS'center_actual_pixels'
p30
(I1233
I515
tp31
s.(dp0
S'actual_pos'
p1
(lp2
F0.008428034288114198
aF0.0470217067563745
aF-0.16335944101675057
asS'actual_rot'
p3
(lp4
F45.2143677508077
aF8.585622154455596
aF-166.0441770527566
asS'target_pos'
p5
cnumpy.core.multiarray
_reconstruct
p6
(cnumpy
ndarray
p7
(I0
tp8
S'b'
p9
tp10
Rp11
(I1
(I3
tp12
cnumpy
dtype
p13
(S'f8'
p14
I0
I1
tp15
Rp16
(I3
S'<'
p17
NNNI-1
I-1
I0
tp18
bI00
S't\xc6;2>X\x82?\x0f\x9a\x8f\xf0\xc3\r\xa8?@\xe0\xbc1\xb1\xf5\xc4\xbf'
p19
tp20
bsS'target_rot'
p21
g6
(g7
(I0
tp22
g9
tp23
Rp24
(I1
(I3
tp25
g16
I00
S'\x00\x00\x00\x00\x00\x80F@\x00\x00\x00\x00\x00\x00\x1e@\x00\x00\x00\x00\x00\xc8d\xc0'
p26
tp27
bsS'center_target_pixels'
p28
(I1400
I512
tp29
sS'center_actual_pixels'
p30
(I1400
I510
tp31
s.(dp0
S'actual_pos'
p1
(lp2
F0.06327917525356547
aF0.05839425366418402
aF-0.16893873380047084
asS'actual_rot'
p3
(lp4
F45.120654195265494
aF5.858150117944114
aF-167.42925813501773
asS'target_pos'
p5
cnumpy.core.multiarray
_reconstruct
p6
(cnumpy
ndarray
p7
(I0
tp8
S'b'
p9
tp10
Rp11
(I1
(I3
tp12
cnumpy
dtype
p13
(S'f8'
p14
I0
I1
tp15
Rp16
(I3
S'<'
p17
NNNI-1
I-1
I0
tp18
bI00
S'\xe4\x96\xfe\xb6\xbdY\xb0?wj\xff\xc6\t\xaf\xad?\x8b\xad\xdf\x8fN\xb3\xc5\xbf'
p19
tp20
bsS'target_rot'
p21
g6
(g7
(I0
tp22
g9
tp23
Rp24
(I1
(I3
tp25
g16
I00
S'\x00\x00\x00\x00\x00\x80F@\x00\x00\x00\x00\x00\x00\x1e@\x00\x00\x00\x00\x00\xc8d\xc0'
p26
tp27
bsS'center_target_pixels'
p28
(I771
I563
tp29
sS'center_actual_pixels'
p30
(I765
I573
tp31
s.(dp0
S'actual_pos'
p1
(lp2
F0.04725843906559784
aF0.05732496255843191
aF-0.16703659802747148
asS'actual_rot'
p3
(lp4
F44.950874603220335
aF5.648843842475924
aF-166.61465230551212
asS'target_pos'
p5
cnumpy.core.multiarray
_reconstruct
p6
(cnumpy
ndarray
p7
(I0
tp8
S'b'
p9
tp10
Rp11
(I1
(I3
tp12
cnumpy
dtype
p13
(S'f8'
p14
I0
I1
tp15
Rp16
(I3
S'<'
p17
NNNI-1
I-1
I0
tp18
bI00
S'\xab\xc2\xf2\x8e\xa0x\xa8?{\x83\xd94\x072\xad?\xf7.\x92\x02Nm\xc5\xbf'
p19
tp20
bsS'target_rot'
p21
g6
(g7
(I0
tp22
g9
tp23
Rp24
(I1
(I3
tp25
g16
I00
S'\x00\x00\x00\x00\x00\x80F@\x00\x00\x00\x00\x00\x00\x1e@\x00\x00\x00\x00\x00\xc8d\xc0'
p26
tp27
bsS'center_target_pixels'
p28
(I951
I573
tp29
sS'center_actual_pixels'
p30
(I942
I582
tp31
s.(dp0
S'actual_pos'
p1
(lp2
F0.02989512439542077
aF0.05586295366103679
aF-0.16501263134017619
asS'actual_rot'
p3
(lp4
F44.855631084126124
aF6.109259521482287
aF-165.8830509783777
asS'target_pos'
p5
cnumpy.core.multiarray
_reconstruct
p6
(cnumpy
ndarray
p7
(I0
tp8
S'b'
p9
tp10
Rp11
(I1
(I3
tp12
cnumpy
dtype
p13
(S'f8'
p14
I0
I1
tp15
Rp16
(I3
S'<'
p17
NNNI-1
I-1
I0
tp18
bI00
S'\xc6@\xae]@\x12\x9f?!Q\xf6uY}\xac?\x8c5\xcdr\xb8(\xc5\xbf'
p19
tp20
bsS'target_rot'
p21
g6
(g7
(I0
tp22
g9
tp23
Rp24
(I1
(I3
tp25
g16
I00
S'\x00\x00\x00\x00\x00\x80F@\x00\x00\x00\x00\x00\x00\x1e@\x00\x00\x00\x00\x00\xc8d\xc0'
p26
tp27
bsS'center_target_pixels'
p28
(I1130
I584
tp29
sS'center_actual_pixels'
p30
(I1142
I576
tp31
s.(dp0
S'actual_pos'
p1
(lp2
F0.01492497576973422
aF0.05484997596823327
aF-0.16357879998566047
asS'actual_rot'
p3
(lp4
F44.893851079277674
aF6.823814736493471
aF-164.96006476256724
asS'target_pos'
p5
cnumpy.core.multiarray
_reconstruct
p6
(cnumpy
ndarray
p7
(I0
tp8
S'b'
p9
tp10
Rp11
(I1
(I3
tp12
cnumpy
dtype
p13
(S'f8'
p14
I0
I1
tp15
Rp16
(I3
S'<'
p17
NNNI-1
I-1
I0
tp18
bI00
S'\xfea\xfcG\xddt\x8f?\x1f\xe9I`q\xf7\xab?\x11\xbd\x87!\x84\xf9\xc4\xbf'
p19
tp20
bsS'target_rot'
p21
g6
(g7
(I0
tp22
g9
tp23
Rp24
(I1
(I3
tp25
g16
I00
S'\x00\x00\x00\x00\x00\x80F@\x00\x00\x00\x00\x00\x00\x1e@\x00\x00\x00\x00\x00\xc8d\xc0'
p26
tp27
bsS'center_target_pixels'
p28
(I1306
I594
tp29
sS'center_actual_pixels'
p30
(I1314
I588
tp31
s.(dp0
S'actual_pos'
p1
(lp2
F0.06929603099704373
aF0.06691658158608987
aF-0.1696027812799866
asS'actual_rot'
p3
(lp4
F45.094512153735764
aF4.601731047665933
aF-166.33414489948592
asS'target_pos'
p5
cnumpy.core.multiarray
_reconstruct
p6
(cnumpy
ndarray
p7
(I0
tp8
S'b'
p9
tp10
Rp11
(I1
(I3
tp12
cnumpy
dtype
p13
(S'f8'
p14
I0
I1
tp15
Rp16
(I3
S'<'
p17
NNNI-1
I-1
I0
tp18
bI00
S'\xa8\xa7\x8d\xde\xb6\xdf\xb1?<W\\\x16\x98\x02\xb1?U\xc0hc\x9e\xc5\xc5\xbf'
p19
tp20
bsS'target_rot'
p21
g6
(g7
(I0
tp22
g9
tp23
Rp24
(I1
(I3
tp25
g16
I00
S'\x00\x00\x00\x00\x00\x80F@\x00\x00\x00\x00\x00\x00\x1e@\x00\x00\x00\x00\x00\xc8d\xc0'
p26
tp27
bsS'center_target_pixels'
p28
(I675
I646
tp29
sS'center_actual_pixels'
p30
(I681
I651
tp31
s.(dp0
S'actual_pos'
p1
(lp2
F0.05516588309804862
aF0.06554937081488664
aF-0.16740908274874894
asS'actual_rot'
p3
(lp4
F44.87363655716304
aF3.9553157167358854
aF-166.05903539757207
asS'target_pos'
p5
cnumpy.core.multiarray
_reconstruct
p6
(cnumpy
ndarray
p7
(I0
tp8
S'b'
p9
tp10
Rp11
(I1
(I3
tp12
cnumpy
dtype
p13
(S'f8'
p14
I0
I1
tp15
Rp16
(I3
S'<'
p17
NNNI-1
I-1
I0
tp18
bI00
S'&YR\x0esj\xac?\xa7\xb7R\xa1\x9c\xaa\xb0?\xcc\xaa\xc2.!u\xc5\xbf'
p19
tp20
bsS'target_rot'
p21
g6
(g7
(I0
tp22
g9
tp23
Rp24
(I1
(I3
tp25
g16
I00
S'\x00\x00\x00\x00\x00\x80F@\x00\x00\x00\x00\x00\x00\x1e@\x00\x00\x00\x00\x00\xc8d\xc0'
p26
tp27
bsS'center_target_pixels'
p28
(I856
I654
tp29
sS'center_actual_pixels'
p30
(I842
I644
tp31
s.(dp0
S'actual_pos'
p1
(lp2
F0.03807035236775871
aF0.06451420887046386
aF-0.16556006950954766
asS'actual_rot'
p3
(lp4
F44.62363429259635
aF4.143072486246542
aF-165.0220601921079
asS'target_pos'
p5
cnumpy.core.multiarray
_reconstruct
p6
(cnumpy
ndarray
p7
(I0
tp8
S'b'
p9
tp10
Rp11
(I1
(I3
tp12
cnumpy
dtype
p13
(S'f8'
p14
I0
I1
tp15
Rp16
(I3
S'<'
p17
NNNI-1
I-1
I0
tp18
bI00
S'\x19\xab\xa0gt\xaa\xa3?\xb9"\xa7\x14\xc4l\xb0?\xa8{\x07\xff\x916\xc5\xbf'
p19
tp20
bsS'target_rot'
p21
g6
(g7
(I0
tp22
g9
tp23
Rp24
(I1
(I3
tp25
g16
I00
S'\x00\x00\x00\x00\x00\x80F@\x00\x00\x00\x00\x00\x00\x1e@\x00\x00\x00\x00\x00\xc8d\xc0'
p26
tp27
bsS'center_target_pixels'
p28
(I1036
I666
tp29
sS'center_actual_pixels'
p30
(I1038
I665
tp31
s.(dp0
S'actual_pos'
p1
(lp2
F0.02278910870228336
aF0.06298737320858189
aF-0.16441302237609476
asS'actual_rot'
p3
(lp4
F44.61532582526318
aF5.293746550257654
aF-163.75548937536408
asS'target_pos'
p5
cnumpy.core.multiarray
_reconstruct
p6
(cnumpy
ndarray
p7
(I0
tp8
S'b'
p9
tp10
Rp11
(I1
(I3
tp12
cnumpy
dtype
p13
(S'f8'
p14
I0
I1
tp15
Rp16
(I3
S'<'
p17
NNNI-1
I-1
I0
tp18
bI00
S'\xb6my\xbe\x8f\x87\x97?\x99\xcc55\x87\x0c\xb0?\xfbJ\xe8\x04G\x14\xc5\xbf'
p19
tp20
bsS'target_rot'
p21
g6
(g7
(I0
tp22
g9
tp23
Rp24
(I1
(I3
tp25
g16
I00
S'\x00\x00\x00\x00\x00\x80F@\x00\x00\x00\x00\x00\x00\x1e@\x00\x00\x00\x00\x00\xc8d\xc0'
p26
tp27
bsS'center_target_pixels'
p28
(I1212
I677
tp29
sS'center_actual_pixels'
p30
(I1212
I666
tp31
s.(dp0
S'actual_pos'
p1
(lp2
F0.007734593773145384
aF0.06233652530421899
aF-0.16303948439181817
asS'actual_rot'
p3
(lp4
F44.69954095791722
aF6.262761566807376
aF-162.55881788963532
asS'target_pos'
p5
cnumpy.core.multiarray
_reconstruct
p6
(cnumpy
ndarray
p7
(I0
tp8
S'b'
p9
tp10
Rp11
(I1
(I3
tp12
cnumpy
dtype
p13
(S'f8'
p14
I0
I1
tp15
Rp16
(I3
S'<'
p17
NNNI-1
I-1
I0
tp18
bI00
S'\x00\x15\x9b\tj\x8b\x80?j9\xc7\xa7\x1e\xd2\xaf?\x1c;\xa00m\xea\xc4\xbf'
p19
tp20
bsS'target_rot'
p21
g6
(g7
(I0
tp22
g9
tp23
Rp24
(I1
(I3
tp25
g16
I00
S'\x00\x00\x00\x00\x00\x80F@\x00\x00\x00\x00\x00\x00\x1e@\x00\x00\x00\x00\x00\xc8d\xc0'
p26
tp27
bsS'center_target_pixels'
p28
(I1388
I687
tp29
sS'center_actual_pixels'
p30
(I1388
I685
tp31
s.(dp0
S'actual_pos'
p1
(lp2
F0.06309309020763264
aF0.0736536238986462
aF-0.16862899336073647
asS'actual_rot'
p3
(lp4
F44.68507377855183
aF2.862668346487602
aF-165.0303023894157
asS'target_pos'
p5
cnumpy.core.multiarray
_reconstruct
p6
(cnumpy
ndarray
p7
(I0
tp8
S'b'
p9
tp10
Rp11
(I1
(I3
tp12
cnumpy
dtype
p13
(S'f8'
p14
I0
I1
tp15
Rp16
(I3
S'<'
p17
NNNI-1
I-1
I0
tp18
bI00
S'\xc6\xd9\xf4+\xf9.\xb0?\x97\xe4DW\x1a\xf2\xb2? \xdcT\xefL\x97\xc5\xbf'
p19
tp20
bsS'target_rot'
p21
g6
(g7
(I0
tp22
g9
tp23
Rp24
(I1
(I3
tp25
g16
I00
S'\x00\x00\x00\x00\x00\x80F@\x00\x00\x00\x00\x00\x00\x1e@\x00\x00\x00\x00\x00\xc8d\xc0'
p26
tp27
bsS'center_target_pixels'
p28
(I760
I740
tp29
sS'center_actual_pixels'
p30
(I739
I738
tp31
s.(dp0
S'actual_pos'
p1
(lp2
F0.045792096092003964
aF0.07302652901776796
aF-0.16668717393386953
asS'actual_rot'
p3
(lp4
F44.30222639511223
aF2.7073800325774804
aF-163.82334039020495
asS'target_pos'
p5
cnumpy.core.multiarray
_reconstruct
p6
(cnumpy
ndarray
p7
(I0
tp8
S'b'
p9
tp10
Rp11
(I1
(I3
tp12
cnumpy
dtype
p13
(S'f8'
p14
I0
I1
tp15
Rp16
(I3
S'<'
p17
NNNI-1
I-1
I0
tp18
bI00
S'\xa4.:\xb1\x9a\x80\xa7?=\xde\xf05\xcb\xc8\xb2?\x17\xd6\xa0\xef\x14S\xc5\xbf'
p19
tp20
bsS'target_rot'
p21
g6
(g7
(I0
tp22
g9
tp23
Rp24
(I1
(I3
tp25
g16
I00
S'\x00\x00\x00\x00\x00\x80F@\x00\x00\x00\x00\x00\x00\x1e@\x00\x00\x00\x00\x00\xc8d\xc0'
p26
tp27
bsS'center_target_pixels'
p28
(I940
I750
tp29
sS'center_actual_pixels'
p30
(I937
I754
tp31
s.(dp0
S'actual_pos'
p1
(lp2
F0.02920894993141847
aF0.07063593119327018
aF-0.16506571957726476
asS'actual_rot'
p3
(lp4
F44.18547062547754
aF3.8269096776064093
aF-162.7671228160529
asS'target_pos'
p5
cnumpy.core.multiarray
_reconstruct
p6
(cnumpy
ndarray
p7
(I0
tp8
S'b'
p9
tp10
Rp11
(I1
(I3
tp12
cnumpy
dtype
p13
(S'f8'
p14
I0
I1
tp15
Rp16
(I3
S'<'
p17
NNNI-1
I-1
I0
tp18
bI00
S'\xe1W\xf0\xec\xf4\x11\x9e?\xad\x03\xa8]\xa83\xb2?\xca\xcc\x98\xc7]\x1f\xc5\xbf'
p19
tp20
bsS'target_rot'
p21
g6
(g7
(I0
tp22
g9
tp23
Rp24
(I1
(I3
tp25
g16
I00
S'\x00\x00\x00\x00\x00\x80F@\x00\x00\x00\x00\x00\x00\x1e@\x00\x00\x00\x00\x00\xc8d\xc0'
p26
tp27
bsS'center_target_pixels'
p28
(I1118
I760
tp29
sS'center_actual_pixels'
p30
(I1130
I746
tp31
s.(dp0
S'actual_pos'
p1
(lp2
F0.01333072589241489
aF0.06986948616098837
aF-0.16351881067223434
asS'actual_rot'
p3
(lp4
F44.105759563440195
aF4.453047482043739
aF-161.77926965575108
asS'target_pos'
p5
cnumpy.core.multiarray
_reconstruct
p6
(cnumpy
ndarray
p7
(I0
tp8
S'b'
p9
tp10
Rp11
(I1
(I3
tp12
cnumpy
dtype
p13
(S'f8'
p14
I0
I1
tp15
Rp16
(I3
S'<'
p17
NNNI-1
I-1
I0
tp18
bI00
S'C\x05\n\xf0\x90_\x8b?\xfc/\x02\x18\x80\x03\xb2?\x90+\x08\x12\xa5\xed\xc4\xbf'
p19
tp20
bsS'target_rot'
p21
g6
(g7
(I0
tp22
g9
tp23
Rp24
(I1
(I3
tp25
g16
I00
S'\x00\x00\x00\x00\x00\x80F@\x00\x00\x00\x00\x00\x00\x1e@\x00\x00\x00\x00\x00\xc8d\xc0'
p26
tp27
bsS'center_target_pixels'
p28
(I1294
I769
tp29
sS'center_actual_pixels'
p30
(I1311
I756
tp31
s.