(dp0
S'actual_pos'
p1
(lp2
F0.07070418146354092
aF0.018083305112208254
aF-0.16489923264075132
asS'actual_rot'
p3
(lp4
F-47.21877034100394
aF-3.120471770316141
aF-164.1183186569879
asS'target_pos'
p5
cnumpy.core.multiarray
_reconstruct
p6
(cnumpy
ndarray
p7
(I0
tp8
S'b'
p9
tp10
Rp11
(I1
(I3
tp12
cnumpy
dtype
p13
(S'f8'
p14
I0
I1
tp15
Rp16
(I3
S'<'
p17
NNNI-1
I-1
I0
tp18
bI00
S';Y\xb3\x8e\x84\x1f\xb2?z\xfd\x14r\xd3\xa8\x92?$j\xca\x1c\xfc\x1d\xc5\xbf'
p19
tp20
bsS'target_rot'
p21
g6
(g7
(I0
tp22
g9
tp23
Rp24
(I1
(I3
tp25
g16
I00
S'\x00\x00\x00\x00\x00\x80F\xc0\x00\x00\x00\x00\x00\x00\x04@\x00\x00\x00\x00\x00\x18e\xc0'
p26
tp27
bsS'center_target_pixels'
p28
(I724
I133
tp29
sS'center_actual_pixels'
p30
(I750
I87
tp31
s.(dp0
S'actual_pos'
p1
(lp2
F0.05514856991711418
aF0.015674353779093472
aF-0.16667644294329506
asS'actual_rot'
p3
(lp4
F-46.627235147826276
aF-2.806503909722936
aF-165.7631567857174
asS'target_pos'
p5
cnumpy.core.multiarray
_reconstruct
p6
(cnumpy
ndarray
p7
(I0
tp8
S'b'
p9
tp10
Rp11
(I1
(I3
tp12
cnumpy
dtype
p13
(S'f8'
p14
I0
I1
tp15
Rp16
(I3
S'<'
p17
NNNI-1
I-1
I0
tp18
bI00
S'f\xdd\x90\x8b-D\xac?\xba\x1f\x9fcJ \x90?{\x046\xecT[\xc5\xbf'
p19
tp20
bsS'target_rot'
p21
g6
(g7
(I0
tp22
g9
tp23
Rp24
(I1
(I3
tp25
g16
I00
S'\x00\x00\x00\x00\x00\x80F\xc0\x00\x00\x00\x00\x00\x00\x04@\x00\x00\x00\x00\x00\x18e\xc0'
p26
tp27
bsS'center_target_pixels'
p28
(I899
I147
tp29
sS'center_actual_pixels'
p30
(I937
I82
tp31
s.(dp0
S'actual_pos'
p1
(lp2
F0.039209731152459
aF0.014192922199085002
aF-0.16584631274022288
asS'actual_rot'
p3
(lp4
F-46.01580791218507
aF-1.836480213886759
aF-167.11292101979103
asS'target_pos'
p5
cnumpy.core.multiarray
_reconstruct
p6
(cnumpy
ndarray
p7
(I0
tp8
S'b'
p9
tp10
Rp11
(I1
(I3
tp12
cnumpy
dtype
p13
(S'f8'
p14
I0
I1
tp15
Rp16
(I3
S'<'
p17
NNNI-1
I-1
I0
tp18
bI00
S'\x9d\x03\x8f\xc2\x81\x1c\xa4?\xec\xbe\xd1\xcf*\x16\x8d?\xfc\tJA2@\xc5\xbf'
p19
tp20
bsS'target_rot'
p21
g6
(g7
(I0
tp22
g9
tp23
Rp24
(I1
(I3
tp25
g16
I00
S'\x00\x00\x00\x00\x00\x80F\xc0\x00\x00\x00\x00\x00\x00\x04@\x00\x00\x00\x00\x00\x18e\xc0'
p26
tp27
bsS'center_target_pixels'
p28
(I1073
I160
tp29
sS'center_actual_pixels'
p30
(I1111
I98
tp31
s.(dp0
S'actual_pos'
p1
(lp2
F0.0227412757349089
aF0.013027889335379305
aF-0.16483290726287833
asS'actual_rot'
p3
(lp4
F-45.21212790507479
aF1.068663866189439
aF-169.45588610592455
asS'target_pos'
p5
cnumpy.core.multiarray
_reconstruct
p6
(cnumpy
ndarray
p7
(I0
tp8
S'b'
p9
tp10
Rp11
(I1
(I3
tp12
cnumpy
dtype
p13
(S'f8'
p14
I0
I1
tp15
Rp16
(I3
S'<'
p17
NNNI-1
I-1
I0
tp18
bI00
S'\x06\xdf\x07\xc8\x02\xa4\x97?\xb0\x7f6\xa4\xe7\xc7\x89?}\xdew\xc1"!\xc5\xbf'
p19
tp20
bsS'target_rot'
p21
g6
(g7
(I0
tp22
g9
tp23
Rp24
(I1
(I3
tp25
g16
I00
S'\x00\x00\x00\x00\x00\x80F\xc0\x00\x00\x00\x00\x00\x00\x04@\x00\x00\x00\x00\x00\x18e\xc0'
p26
tp27
bsS'center_target_pixels'
p28
(I1245
I172
tp29
sS'center_actual_pixels'
p30
(I1295
I112
tp31
s.(dp0
S'actual_pos'
p1
(lp2
F0.0625187424728816
aF0.025228083757916464
aF-0.16424857317866834
asS'actual_rot'
p3
(lp4
F-46.953800454408864
aF-2.531053462154042
aF-163.68399652960235
asS'target_pos'
p5
cnumpy.core.multiarray
_reconstruct
p6
(cnumpy
ndarray
p7
(I0
tp8
S'b'
p9
tp10
Rp11
(I1
(I3
tp12
cnumpy
dtype
p13
(S'f8'
p14
I0
I1
tp15
Rp16
(I3
S'<'
p17
NNNI-1
I-1
I0
tp18
bI00
S'\xe3\x8b\x1e\'1\x06\xb0?"\x14a(\x7f,\x9a?mH\xbdS\x9d\n\xc5\xbf'
p19
tp20
bsS'target_rot'
p21
g6
(g7
(I0
tp22
g9
tp23
Rp24
(I1
(I3
tp25
g16
I00
S'\x00\x00\x00\x00\x00\x80F\xc0\x00\x00\x00\x00\x00\x00\x04@\x00\x00\x00\x00\x00\x18e\xc0'
p26
tp27
bsS'center_target_pixels'
p28
(I807
I226
tp29
sS'center_actual_pixels'
p30
(I835
I181
tp31
s.(dp0
S'actual_pos'
p1
(lp2
F0.04678048409778492
aF0.022993580670460204
aF-0.16610877251705267
asS'actual_rot'
p3
(lp4
F-46.41900952760964
aF-2.1342226522680825
aF-166.11266048519732
asS'target_pos'
p5
cnumpy.core.multiarray
_reconstruct
p6
(cnumpy
ndarray
p7
(I0
tp8
S'b'
p9
tp10
Rp11
(I1
(I3
tp12
cnumpy
dtype
p13
(S'f8'
p14
I0
I1
tp15
Rp16
(I3
S'<'
p17
NNNI-1
I-1
I0
tp18
bI00
S'\xc2\xc7#\x86a\xff\xa7?\xf2\x85\xb1\xcd\xa3\xc5\x97?fo\x05X\xc0H\xc5\xbf'
p19
tp20
bsS'target_rot'
p21
g6
(g7
(I0
tp22
g9
tp23
Rp24
(I1
(I3
tp25
g16
I00
S'\x00\x00\x00\x00\x00\x80F\xc0\x00\x00\x00\x00\x00\x00\x04@\x00\x00\x00\x00\x00\x18e\xc0'
p26
tp27
bsS'center_target_pixels'
p28
(I981
I239
tp29
sS'center_actual_pixels'
p30
(I1007
I180
tp31
s.(dp0
S'actual_pos'
p1
(lp2
F0.030819437128466867
aF0.02160843993138628
aF-0.16519956249333742
asS'actual_rot'
p3
(lp4
F-45.71897485624456
aF-0.6236342938174871
aF-168.32366687073304
asS'target_pos'
p5
cnumpy.core.multiarray
_reconstruct
p6
(cnumpy
ndarray
p7
(I0
tp8
S'b'
p9
tp10
Rp11
(I1
(I3
tp12
cnumpy
dtype
p13
(S'f8'
p14
I0
I1
tp15
Rp16
(I3
S'<'
p17
NNNI-1
I-1
I0
tp18
bI00
S'\nXD\xee\xd5\xae\x9f?\x90\x9d\xcc\x96b?\x96?~\x1c6`\x8a+\xc5\xbf'
p19
tp20
bsS'target_rot'
p21
g6
(g7
(I0
tp22
g9
tp23
Rp24
(I1
(I3
tp25
g16
I00
S'\x00\x00\x00\x00\x00\x80F\xc0\x00\x00\x00\x00\x00\x00\x04@\x00\x00\x00\x00\x00\x18e\xc0'
p26
tp27
bsS'center_target_pixels'
p28
(I1154
I251
tp29
sS'center_actual_pixels'
p30
(I1189
I199
tp31
s.(dp0
S'actual_pos'
p1
(lp2
F0.01513315191044647
aF0.02154789194547037
aF-0.1615416147066093
asS'actual_rot'
p3
(lp4
F-45.05665235613419
aF2.388533130364623
aF-170.9877316349085
asS'target_pos'
p5
cnumpy.core.multiarray
_reconstruct
p6
(cnumpy
ndarray
p7
(I0
tp8
S'b'
p9
tp10
Rp11
(I1
(I3
tp12
cnumpy
dtype
p13
(S'f8'
p14
I0
I1
tp15
Rp16
(I3
S'<'
p17
NNNI-1
I-1
I0
tp18
bI00
S'\xac\x0bJ\x9aH\xe6\x8f?\x96\xaf\xeau\x9a\xc2\x95?x\xdaxV\xdb\xb5\xc4\xbf'
p19
tp20
bsS'target_rot'
p21
g6
(g7
(I0
tp22
g9
tp23
Rp24
(I1
(I3
tp25
g16
I00
S'\x00\x00\x00\x00\x00\x80F\xc0\x00\x00\x00\x00\x00\x00\x04@\x00\x00\x00\x00\x00\x18e\xc0'
p26
tp27
bsS'center_target_pixels'
p28
(I1325
I263
tp29
sS'center_actual_pixels'
p30
(I1359
I228
tp31
s.(dp0
S'actual_pos'
p1
(lp2
F0.06951428825221312
aF0.03299811324371599
aF-0.16719601396537956
asS'actual_rot'
p3
(lp4
F-47.28375676880165
aF-2.656156603191226
aF-163.15986906669676
asS'target_pos'
p5
cnumpy.core.multiarray
_reconstruct
p6
(cnumpy
ndarray
p7
(I0
tp8
S'b'
p9
tp10
Rp11
(I1
(I3
tp12
cnumpy
dtype
p13
(S'f8'
p14
I0
I1
tp15
Rp16
(I3
S'<'
p17
NNNI-1
I-1
I0
tp18
bI00
S'=\x94\xdbbc\xd2\xb1?^ZK\xf2j\x0f\xa1?\x94}\xfcJ7j\xc5\xbf'
p19
tp20
bsS'target_rot'
p21
g6
(g7
(I0
tp22
g9
tp23
Rp24
(I1
(I3
tp25
g16
I00
S'\x00\x00\x00\x00\x00\x80F\xc0\x00\x00\x00\x00\x00\x00\x04@\x00\x00\x00\x00\x00\x18e\xc0'
p26
tp27
bsS'center_target_pixels'
p28
(I713
I306
tp29
sS'center_actual_pixels'
p30
(I739
I267
tp31
s.(dp0
S'actual_pos'
p1
(lp2
F0.05407408620737961
aF0.03181545496398284
aF-0.16639781724048394
asS'actual_rot'
p3
(lp4
F-46.745795736700885
aF-2.150332147633151
aF-165.207596510534
asS'target_pos'
p5
cnumpy.core.multiarray
_reconstruct
p6
(cnumpy
ndarray
p7
(I0
tp8
S'b'
p9
tp10
Rp11
(I1
(I3
tp12
cnumpy
dtype
p13
(S'f8'
p14
I0
I1
tp15
Rp16
(I3
S'<'
p17
NNNI-1
I-1
I0
tp18
bI00
S'\x90\xa1\xd8\xf8\xd5\xc1\xab?^\xebg\xb5`f\xa0?\t0\xd77JR\xc5\xbf'
p19
tp20
bsS'target_rot'
p21
g6
(g7
(I0
tp22
g9
tp23
Rp24
(I1
(I3
tp25
g16
I00
S'\x00\x00\x00\x00\x00\x80F\xc0\x00\x00\x00\x00\x00\x00\x04@\x00\x00\x00\x00\x00\x18e\xc0'
p26
tp27
bsS'center_target_pixels'
p28
(I889
I319
tp29
sS'center_actual_pixels'
p30
(I919
I279
tp31
s.(dp0
S'actual_pos'
p1
(lp2
F0.03848406245321713
aF0.030464660545889297
aF-0.1656205704958567
asS'actual_rot'
p3
(lp4
F-46.176017541628696
aF-1.3752237438837276
aF-166.9980681200781
asS'target_pos'
p5
cnumpy.core.multiarray
_reconstruct
p6
(cnumpy
ndarray
p7
(I0
tp8
S'b'
p9
tp10
Rp11
(I1
(I3
tp12
cnumpy
dtype
p13
(S'f8'
p14
I0
I1
tp15
Rp16
(I3
S'<'
p17
NNNI-1
I-1
I0
tp18
bI00
S'\x10\x18\xe8;\xd2\xc4\xa3?\x06cFM\xd6b\x9f?\x8e\xf6\x95g&:\xc5\xbf'
p19
tp20
bsS'target_rot'
p21
g6
(g7
(I0
tp22
g9
tp23
Rp24
(I1
(I3
tp25
g16
I00
S'\x00\x00\x00\x00\x00\x80F\xc0\x00\x00\x00\x00\x00\x00\x04@\x00\x00\x00\x00\x00\x18e\xc0'
p26
tp27
bsS'center_target_pixels'
p28
(I1062
I331
tp29
sS'center_actual_pixels'
p30
(I1090
I289
tp31
s.(dp0
S'actual_pos'
p1
(lp2
F0.02298295343671205
aF0.030333987099458854
aF-0.16195450670103756
asS'actual_rot'
p3
(lp4
F-45.32483471305168
aF1.153807495330739
aF-169.04746471161428
asS'target_pos'
p5
cnumpy.core.multiarray
_reconstruct
p6
(cnumpy
ndarray
p7
(I0
tp8
S'b'
p9
tp10
Rp11
(I1
(I3
tp12
cnumpy
dtype
p13
(S'f8'
p14
I0
I1
tp15
Rp16
(I3
S'<'
p17
NNNI-1
I-1
I0
tp18
bI00
S'b\xa5<\x85j\xde\x97?zY8\x82\xed\xcb\x9e?|\x1e\xb8\xf7M\xc4\xc4\xbf'
p19
tp20
bsS'target_rot'
p21
g6
(g7
(I0
tp22
g9
tp23
Rp24
(I1
(I3
tp25
g16
I00
S'\x00\x00\x00\x00\x00\x80F\xc0\x00\x00\x00\x00\x00\x00\x04@\x00\x00\x00\x00\x00\x18e\xc0'
p26
tp27
bsS'center_target_pixels'
p28
(I1235
I342
tp29
sS'center_actual_pixels'
p30
(I1260
I306
tp31
s.(dp0
S'actual_pos'
p1
(lp2
F0.005775184673733567
aF0.0283004390392051
aF-0.1638498381704753
asS'actual_rot'
p3
(lp4
F-44.851619053153996
aF3.6978775107646955
aF-173.3446013309442
asS'target_pos'
p5
cnumpy.core.multiarray
_reconstruct
p6
(cnumpy
ndarray
p7
(I0
tp8
S'b'
p9
tp10
Rp11
(I1
(I3
tp12
cnumpy
dtype
p13
(S'f8'
p14
I0
I1
tp15
Rp16
(I3
S'<'
p17
NNNI-1
I-1
I0
tp18
bI00
S'\x10\x829=\x84\x08z?\x96\xf8az\xddm\x9c? i2\x9bD\x04\xc5\xbf'
p19
tp20
bsS'target_rot'
p21
g6
(g7
(I0
tp22
g9
tp23
Rp24
(I1
(I3
tp25
g16
I00
S'\x00\x00\x00\x00\x00\x80F\xc0\x00\x00\x00\x00\x00\x00\x04@\x00\x00\x00\x00\x00\x18e\xc0'
p26
tp27
bsS'center_target_pixels'
p28
(I1404
I354
tp29
sS'center_actual_pixels'
p30
(I1450
I320
tp31
s.(dp0
S'actual_pos'
p1
(lp2
F0.06118710191342819
aF0.04048377933222784
aF-0.1666586433755069
asS'actual_rot'
p3
(lp4
F-47.12370916589316
aF-2.2748474027643497
aF-163.3644763237451
asS'target_pos'
p5
cnumpy.core.multiarray
_reconstruct
p6
(cnumpy
ndarray
p7
(I0
tp8
S'b'
p9
tp10
Rp11
(I1
(I3
tp12
cnumpy
dtype
p13
(S'f8'
p14
I0
I1
tp15
Rp16
(I3
S'<'
p17
NNNI-1
I-1
I0
tp18
bI00
S'\xc6$\xadn\xe9r\xaf?(I\xd7s\xae\xc9\xa4?\x82a\x82\xd5 [\xc5\xbf'
p19
tp20
bsS'target_rot'
p21
g6
(g7
(I0
tp22
g9
tp23
Rp24
(I1
(I3
tp25
g16
I00
S'\x00\x00\x00\x00\x00\x80F\xc0\x00\x00\x00\x00\x00\x00\x04@\x00\x00\x00\x00\x00\x18e\xc0'
p26
tp27
bsS'center_target_pixels'
p28
(I796
I399
tp29
sS'center_actual_pixels'
p30
(I824
I363
tp31
s.(dp0
S'actual_pos'
p1
(lp2
F0.04550761121835532
aF0.03865230915709017
aF-0.16840323774547214
asS'actual_rot'
p3
(lp4
F-46.52549197564125
aF-1.7166066590951983
aF-165.6364878821042
asS'target_pos'
p5
cnumpy.core.multiarray
_reconstruct
p6
(cnumpy
ndarray
p7
(I0
tp8
S'b'
p9
tp10
Rp11
(I1
(I3
tp12
cnumpy
dtype
p13
(S'f8'
p14
I0
I1
tp15
Rp16
(I3
S'<'
p17
NNNI-1
I-1
I0
tp18
bI00
S'\xe1\xa7"78d\xa7?\xca\xe1?\x81\xed\xc4\xa3?8\x82W0N\x9c\xc5\xbf'
p19
tp20
bsS'target_rot'
p21
g6
(g7
(I0
tp22
g9
tp23
Rp24
(I1
(I3
tp25
g16
I00
S'\x00\x00\x00\x00\x00\x80F\xc0\x00\x00\x00\x00\x00\x00\x04@\x00\x00\x00\x00\x00\x18e\xc0'
p26
tp27
bsS'center_target_pixels'
p28
(I970
I411
tp29
sS'center_actual_pixels'
p30
(I997
I368
tp31
s.(dp0
S'actual_pos'
p1
(lp2
F0.029460585306185328
aF0.037512876530623726
aF-0.1674943642560075
asS'actual_rot'
p3
(lp4
F-45.66314928784019
aF0.19881750530470826
aF-168.29035493988533
asS'target_pos'
p5
cnumpy.core.multiarray
_reconstruct
p6
(cnumpy
ndarray
p7
(I0
tp8
S'b'
p9
tp10
Rp11
(I1
(I3
tp12
cnumpy
dtype
p13
(S'f8'
p14
I0
I1
tp15
Rp16
(I3
S'<'
p17
NNNI-1
I-1
I0
tp18
bI00
S'\xc2\xe2\x06\x8c\xc7q\x9e?~\xf5\xa9[\xe6\x0e\xa3?u\x88\xe41\x8e\x84\xc5\xbf'
p19
tp20
bsS'target_rot'
p21
g6
(g7
(I0
tp22
g9
tp23
Rp24
(I1
(I3
tp25
g16
I00
S'\x00\x00\x00\x00\x00\x80F\xc0\x00\x00\x00\x00\x00\x00\x04@\x00\x00\x00\x00\x00\x18e\xc0'
p26
tp27
bsS'center_target_pixels'
p28
(I1143
I422
tp29
sS'center_actual_pixels'
p30
(I1173
I384
tp31
s.(dp0
S'actual_pos'
p1
(lp2
F0.014653345784593852
aF0.03793226032464658
aF-0.16145421576014254
asS'actual_rot'
p3
(lp4
F-44.98693814097244
aF2.7657656736762424
aF-170.92460028821208
asS'target_pos'
p5
cnumpy.core.multiarray
_reconstruct
p6
(cnumpy
ndarray
p7
(I0
tp8
S'b'
p9
tp10
Rp11
(I1
(I3
tp12
cnumpy
dtype
p13
(S'f8'
p14
I0
I1
tp15
Rp16
(I3
S'<'
p17
NNNI-1
I-1
I0
tp18
bI00
S"\xa0\xf2\xe4\xc7'\x07\x8f?\xc0m\xf9\x0e\x1c*\xa3?\x90\x9c\xf0j\xf2\xb5\xc4\xbf"
p19
tp20
bsS'target_rot'
p21
g6
(g7
(I0
tp22
g9
tp23
Rp24
(I1
(I3
tp25
g16
I00
S'\x00\x00\x00\x00\x00\x80F\xc0\x00\x00\x00\x00\x00\x00\x04@\x00\x00\x00\x00\x00\x18e\xc0'
p26
tp27
bsS'center_target_pixels'
p28
(I1315
I433
tp29
sS'center_actual_pixels'
p30
(I1344
I399
tp31
s.(dp0
S'actual_pos'
p1
(lp2
F0.06827629975815609
aF0.04814329068692507
aF-0.16972482623195728
asS'actual_rot'
p3
(lp4
F-47.42085930720901
aF-2.338247982358451
aF-163.04595311314097
asS'target_pos'
p5
cnumpy.core.multiarray
_reconstruct
p6
(cnumpy
ndarray
p7
(I0
tp8
S'b'
p9
tp10
Rp11
(I1
(I3
tp12
cnumpy
dtype
p13
(S'f8'
p14
I0
I1
tp15
Rp16
(I3
S'<'
p17
NNNI-1
I-1
I0
tp18
bI00
S'\xb3+w\xee;\x84\xb1?\x97\t\xff5i\xc6\xa8?\x00\x87\x0b\xdc\xa4\xc0\xc5\xbf'
p19
tp20
bsS'target_rot'
p21
g6
(g7
(I0
tp22
g9
tp23
Rp24
(I1
(I3
tp25
g16
I00
S'\x00\x00\x00\x00\x00\x80F\xc0\x00\x00\x00\x00\x00\x00\x04@\x00\x00\x00\x00\x00\x18e\xc0'
p26
tp27
bsS'center_target_pixels'
p28
(I702
I480
tp29
sS'center_actual_pixels'
p30
(I733
I436
tp31
s.(dp0
S'actual_pos'
p1
(lp2
F0.052859790458034975
aF0.04715739771115016
aF-0.1687548906254575
asS'actual_rot'
p3
(lp4
F-46.853941382125655
aF-1.8099348477876596
aF-164.74245362653608
asS'target_pos'
p5
cnumpy.core.multiarray
_reconstruct
p6
(cnumpy
ndarray
p7
(I0
tp8
S'b'
p9
tp10
Rp11
(I1
(I3
tp12
cnumpy
dtype
p13
(S'f8'
p14
I0
I1
tp15
Rp16
(I3
S'<'
p17
NNNI-1
I-1
I0
tp18
bI00
S"\xa0|>\xd13'\xab?\x12\x1b\xe0\xa1\x8c5\xa8?\xa9\xb6\x95*\xd1\xa3\xc5\xbf"
p19
tp20
bsS'target_rot'
p21
g6
(g7
(I0
tp22
g9
tp23
Rp24
(I1
(I3
tp25
g16
I00
S'\x00\x00\x00\x00\x00\x80F\xc0\x00\x00\x00\x00\x00\x00\x04@\x00\x00\x00\x00\x00\x18e\xc0'
p26
tp27
bsS'center_target_pixels'
p28
(I878
I492
tp29
sS'center_actual_pixels'
p30
(I908
I454
tp31
s.(dp0
S'actual_pos'
p1
(lp2
F0.037197104379393955
aF0.04609360811836592
aF-0.1678971277967928
asS'actual_rot'
p3
(lp4
F-46.08459841050309
aF-0.48144667057744234
aF-167.09969380335158
asS'target_pos'
p5
cnumpy.core.multiarray
_reconstruct
p6
(cnumpy
ndarray
p7
(I0
tp8
S'b'
p9
tp10
Rp11
(I1
(I3
tp12
cnumpy
dtype
p13
(S'f8'
p14
I0
I1
tp15
Rp16
(I3
S'<'
p17
NNNI-1
I-1
I0
tp18
bI00
S'#\xa0\xe1\x0cz*\xa3?(\x98\x13|\xca\x92\xa7?D\xdf\xfc\x11\xb7\x8d\xc5\xbf'
p19
tp20
bsS'target_rot'
p21
g6
(g7
(I0
tp22
g9
tp23
Rp24
(I1
(I3
tp25
g16
I00
S'\x00\x00\x00\x00\x00\x80F\xc0\x00\x00\x00\x00\x00\x00\x04@\x00\x00\x00\x00\x00\x18e\xc0'
p26
tp27
bsS'center_target_pixels'
p28
(I1051
I503
tp29
sS'center_actual_pixels'
p30
(I1078
I466
tp31
s.(dp0
S'actual_pos'
p1
(lp2
F0.021660567087372917
aF0.04570496604013613
aF-0.16444834496433638
asS'actual_rot'
p3
(lp4
F-45.129808048994896
aF2.2280735817289052
aF-169.24835142310658
asS'target_pos'
p5
cnumpy.core.multiarray
_reconstruct
p6
(cnumpy
ndarray
p7
(I0
tp8
S'b'
p9
tp10
Rp11
(I1
(I3
tp12
cnumpy
dtype
p13
(S'f8'
p14
I0
I1
tp15
Rp16
(I3
S'<'
p17
NNNI-1
I-1
I0
tp18
bI00
S'*4Sr\x0e\xb0\x96?D\xafI\x07\xc6;\xa7?r\xf6\x9f\xe3}\x17\xc5\xbf'
p19
tp20
bsS'target_rot'
p21
g6
(g7
(I0
tp22
g9
tp23
Rp24
(I1
(I3
tp25
g16
I00
S'\x00\x00\x00\x00\x00\x80F\xc0\x00\x00\x00\x00\x00\x00\x04@\x00\x00\x00\x00\x00\x18e\xc0'
p26
tp27
bsS'center_target_pixels'
p28
(I1224
I513
tp29
sS'center_actual_pixels'
p30
(I1256
I475
tp31
s.(dp0
S'actual_pos'
p1
(lp2
F0.006457681061777606
aF0.045153470650748054
aF-0.16108404169201507
asS'actual_rot'
p3
(lp4
F-44.53612246952526
aF4.673202087855051
aF-172.76001348861067
asS'target_pos'
p5
cnumpy.core.multiarray
_reconstruct
p6
(cnumpy
ndarray
p7
(I0
tp8
S'b'
p9
tp10
Rp11
(I1
(I3
tp12
cnumpy
dtype
p13
(S'f8'
p14
I0
I1
tp15
Rp16
(I3
S'<'
p17
NNNI-1
I-1
I0
tp18
bI00
S'\xb0\xde\x00\x9c\xdc\xfe|?\x8d\r\xb5Ln\xef\xa6?c\xac>\xdbL\xa8\xc4\xbf'
p19
tp20
bsS'target_rot'
p21
g6
(g7
(I0
tp22
g9
tp23
Rp24
(I1
(I3
tp25
g16
I00
S'\x00\x00\x00\x00\x00\x80F\xc0\x00\x00\x00\x00\x00\x00\x04@\x00\x00\x00\x00\x00\x18e\xc0'
p26
tp27
bsS'center_target_pixels'
p28
(I1394
I524
tp29
sS'center_actual_pixels'
p30
(I1430
I493
tp31
s.(dp0
S'actual_pos'
p1
(lp2
F0.05974781346332779
aF0.05499900084295344
aF-0.1703418848417962
asS'actual_rot'
p3
(lp4
F-47.11291515564932
aF-1.790185346396879
aF-163.5365956591496
asS'target_pos'
p5
cnumpy.core.multiarray
_reconstruct
p6
(cnumpy
ndarray
p7
(I0
tp8
S'b'
p9
tp10
Rp11
(I1
(I3
tp12
cnumpy
dtype
p13
(S'f8'
p14
I0
I1
tp15
Rp16
(I3
S'<'
p17
NNNI-1
I-1
I0
tp18
bI00
S'&\xb7\x1b\xd7\x8e\xc5\xae?\xef\xbab"\xd0D\xac?\x16\xd9\xce\xf7S\xe3\xc5\xbf'
p19
tp20
bsS'target_rot'
p21
g6
(g7
(I0
tp22
g9
tp23
Rp24
(I1
(I3
tp25
g16
I00
S'\x00\x00\x00\x00\x00\x80F\xc0\x00\x00\x00\x00\x00\x00\x04@\x00\x00\x00\x00\x00\x18e\xc0'
p26
tp27
bsS'center_target_pixels'
p28
(I784
I574
tp29
sS'center_actual_pixels'
p30
(I821
I543
tp31
s.(dp0
S'actual_pos'
p1
(lp2
F0.04359966086886773
aF0.05418513397857076
aF-0.1697368597866612
asS'actual_rot'
p3
(lp4
F-46.16472320938064
aF-0.18247381933373621
aF-165.72941883596218
asS'target_pos'
p5
cnumpy.core.multiarray
_reconstruct
p6
(cnumpy
ndarray
p7
(I0
tp8
S'b'
p9
tp10
Rp11
(I1
(I3
tp12
cnumpy
dtype
p13
(S'f8'
p14
I0
I1
tp15
Rp16
(I3
S'<'
p17
NNNI-1
I-1
I0
tp18
bI00
S'\xdc\xd5\xa7\xd9p\xc8\xa6?\xb1G\x8c\xdf\x9c\xb0\xab?\x16\xd9\xce\xf7S\xe3\xc5\xbf'
p19
tp20
bsS'target_rot'
p21
g6
(g7
(I0
tp22
g9
tp23
Rp24
(I1
(I3
tp25
g16
I00
S'\x00\x00\x00\x00\x00\x80F\xc0\x00\x00\x00\x00\x00\x00\x04@\x00\x00\x00\x00\x00\x18e\xc0'
p26
tp27
bsS'center_target_pixels'
p28
(I959
I584
tp29
sS'center_actual_pixels'
p30
(I1005
I554
tp31
s.(dp0
S'actual_pos'
p1
(lp2
F0.027396485763175674
aF0.0533328869058516
aF-0.16891983926163362
asS'actual_rot'
p3
(lp4
F-45.21479136906813
aF2.1600296989520946
aF-168.4175955137804
asS'target_pos'
p5
cnumpy.core.multiarray
_reconstruct
p6
(cnumpy
ndarray
p7
(I0
tp8
S'b'
p9
tp10
Rp11
(I1
(I3
tp12
cnumpy
dtype
p13
(S'f8'
p14
I0
I1
tp15
Rp16
(I3
S'<'
p17
NNNI-1
I-1
I0
tp18
bI00
S'\xca,MBi:\x9d?[\xe8K\xf8\xb1\r\xab?8\xae\xff\xa6<\xd9\xc5\xbf'
p19
tp20
bsS'target_rot'
p21
g6
(g7
(I0
tp22
g9
tp23
Rp24
(I1
(I3
tp25
g16
I00
S'\x00\x00\x00\x00\x00\x80F\xc0\x00\x00\x00\x00\x00\x00\x04@\x00\x00\x00\x00\x00\x18e\xc0'
p26
tp27
bsS'center_target_pixels'
p28
(I1132
I594
tp29
sS'center_actual_pixels'
p30
(I1178
I570
tp31
s.(dp0
S'actual_pos'
p1
(lp2
F0.013317220673015266
aF0.05306512101694342
aF-0.16420151354685328
asS'actual_rot'
p3
(lp4
F-44.653083108975395
aF3.9033616258115167
aF-171.01837866591504
asS'target_pos'
p5
cnumpy.core.multiarray
_reconstruct
p6
(cnumpy
ndarray
p7
(I0
tp8
S'b'
p9
tp10
Rp11
(I1
(I3
tp12
cnumpy
dtype
p13
(S'f8'
p14
I0
I1
tp15
Rp16
(I3
S'<'
p17
NNNI-1
I-1
I0
tp18
bI00
S'l\x1c\xd9x\xbd\x8f\x8c?P\xc3I\x12"\x07\xab?\x1c\xe8\x81`\x1f\x0e\xc5\xbf'
p19
tp20
bsS'target_rot'
p21
g6
(g7
(I0
tp22
g9
tp23
Rp24
(I1
(I3
tp25
g16
I00
S'\x00\x00\x00\x00\x00\x80F\xc0\x00\x00\x00\x00\x00\x00\x04@\x00\x00\x00\x00\x00\x18e\xc0'
p26
tp27
bsS'center_target_pixels'
p28
(I1304
I605
tp29
sS'center_actual_pixels'
p30
(I1346
I585
tp31
s.(dp0
S'actual_pos'
p1
(lp2
F0.06687601173877565
aF0.06274063709525385
aF-0.1705942018113552
asS'actual_rot'
p3
(lp4
F-47.534561104716836
aF-2.068209800343513
aF-163.20167680466332
asS'target_pos'
p5
cnumpy.core.multiarray
_reconstruct
p6
(cnumpy
ndarray
p7
(I0
tp8
S'b'
p9
tp10
Rp11
(I1
(I3
tp12
cnumpy
dtype
p13
(S'f8'
p14
I0
I1
tp15
Rp16
(I3
S'<'
p17
NNNI-1
I-1
I0
tp18
bI00
S'\xe4j:\xc0Z0\xb1?\xcb\xab\x83\x0ba-\xb0?\x16\xd9\xce\xf7S\xe3\xc5\xbf'
p19
tp20
bsS'target_rot'
p21
g6
(g7
(I0
tp22
g9
tp23
Rp24
(I1
(I3
tp25
g16
I00
S'\x00\x00\x00\x00\x00\x80F\xc0\x00\x00\x00\x00\x00\x00\x04@\x00\x00\x00\x00\x00\x18e\xc0'
p26
tp27
bsS'center_target_pixels'
p28
(I691
I655
tp29
sS'center_actual_pixels'
p30
(I726
I612
tp31
s.(dp0
S'actual_pos'
p1
(lp2
F0.05130578882504289
aF0.06235618564521878
aF-0.17003320560350413
asS'actual_rot'
p3
(lp4
F-46.714033930578644
aF-1.017451346441235
aF-164.4491334749868
asS'target_pos'
p5
cnumpy.core.multiarray
_reconstruct
p6
(cnumpy
ndarray
p7
(I0
tp8
S'b'
p9
tp10
Rp11
(I1
(I3
tp12
cnumpy
dtype
p13
(S'f8'
p14
I0
I1
tp15
Rp16
(I3
S'<'
p17
NNNI-1
I-1
I0
tp18
bI00
S'P:U\xfd\xa3\x88\xaa?\x06|\xb93\x82\x04\xb0?\x16\xd9\xce\xf7S\xe3\xc5\xbf'
p19
tp20
bsS'target_rot'
p21
g6
(g7
(I0
tp22
g9
tp23
Rp24
(I1
(I3
tp25
g16
I00
S'\x00\x00\x00\x00\x00\x80F\xc0\x00\x00\x00\x00\x00\x00\x04@\x00\x00\x00\x00\x00\x18e\xc0'
p26
tp27
bsS'center_target_pixels'
p28
(I867
I666
tp29
sS'center_actual_pixels'
p30
(I906
I633
tp31
s.(dp0
S'actual_pos'
p1
(lp2
F0.03615205858792243
aF0.06177663872647787
aF-0.16777988756326062
asS'actual_rot'
p3
(lp4
F-45.82445439851148
aF0.6718691788950363
aF-166.47926705821737
asS'target_pos'
p5
cnumpy.core.multiarray
_reconstruct
p6
(cnumpy
ndarray
p7
(I0
tp8
S'b'
p9
tp10
Rp11
(I1
(I3
tp12
cnumpy
dtype
p13
(S'f8'
p14
I0
I1
tp15
Rp16
(I3
S'<'
p17
NNNI-1
I-1
I0
tp18
bI00
S'\xd0\x18t\xae3\xc5\xa2?7\xe4a[\xb7\xae\xaf?\xcf\xec\xcc\x91 \x8c\xc5\xbf'
p19
tp20
bsS'target_rot'
p21
g6
(g7
(I0
tp22
g9
tp23
Rp24
(I1
(I3
tp25
g16
I00
S'\x00\x00\x00\x00\x00\x80F\xc0\x00\x00\x00\x00\x00\x00\x04@\x00\x00\x00\x00\x00\x18e\xc0'
p26
tp27
bsS'center_target_pixels'
p28
(I1041
I676
tp29
sS'center_actual_pixels'
p30
(I1069
I643
tp31
s.(dp0
S'actual_pos'
p1
(lp2
F0.020297901478037842
aF0.06093182744342216
aF-0.1667224245515785
asS'actual_rot'
p3
(lp4
F-44.86117075866311
aF3.050793741965242
aF-169.30725383154598
asS'target_pos'
p5
cnumpy.core.multiarray
_reconstruct
p6
(cnumpy
ndarray
p7
(I0
tp8
S'b'
p9
tp10
Rp11
(I1
(I3
tp12
cnumpy
dtype
p13
(S'f8'
p14
I0
I1
tp15
Rp16
(I3
S'<'
p17
NNNI-1
I-1
I0
tp18
bI00
S'\xf8@\x89G\x96t\x95?\xb6AD,G\x17\xaf?\xae\x83\xa1\xd0\x99o\xc5\xbf'
p19
tp20
bsS'target_rot'
p21
g6
(g7
(I0
tp22
g9
tp23
Rp24
(I1
(I3
tp25
g16
I00
S'\x00\x00\x00\x00\x00\x80F\xc0\x00\x00\x00\x00\x00\x00\x04@\x00\x00\x00\x00\x00\x18e\xc0'
p26
tp27
bsS'center_target_pixels'
p28
(I1213
I685
tp29
sS'center_actual_pixels'
p30
(I1250
I655
tp31
s.(dp0
S'actual_pos'
p1
(lp2
F0.003941522252279801
aF0.06008182611893836
aF-0.1660527226850961
asS'actual_rot'
p3
(lp4
F-44.09595238233851
aF6.033245072153658
aF-172.9733479770182
asS'target_pos'
p5
cnumpy.core.multiarray
_reconstruct
p6
(cnumpy
ndarray
p7
(I0
tp8
S'b'
p9
tp10
Rp11
(I1
(I3
tp12
cnumpy
dtype
p13
(S'f8'
p14
I0
I1
tp15
Rp16
(I3
S'<'
p17
NNNI-1
I-1
I0
tp18
bI00
S'\xd0\xe2\x99\x12\xbe\x06t?C\x8b\x0f\x05l\x86\xae?\xf2j\x8fK\xd7X\xc5\xbf'
p19
tp20
bsS'target_rot'
p21
g6
(g7
(I0
tp22
g9
tp23
Rp24
(I1
(I3
tp25
g16
I00
S'\x00\x00\x00\x00\x00\x80F\xc0\x00\x00\x00\x00\x00\x00\x04@\x00\x00\x00\x00\x00\x18e\xc0'
p26
tp27
bsS'center_target_pixels'
p28
(I1383
I695
tp29
sS'center_actual_pixels'
p30
(I1424
I671
tp31
s.(dp0
S'actual_pos'
p1
(lp2
F0.058457148612771404
aF0.07010573492008254
aF-0.17032832547063095
asS'actual_rot'
p3
(lp4
F-47.16492932083479
aF-1.4210254809248228
aF-163.58613632835653
asS'target_pos'
p5
cnumpy.core.multiarray
_reconstruct
p6
(cnumpy
ndarray
p7
(I0
tp8
S'b'
p9
tp10
Rp11
(I1
(I3
tp12
cnumpy
dtype
p13
(S'f8'
p14
I0
I1
tp15
Rp16
(I3
S'<'
p17
NNNI-1
I-1
I0
tp18
bI00
S'\xc4\x05\xb5\x8e\x9c \xae?\xad\x80\xbf\xb2\xd5\x10\xb2?\x16\xd9\xce\xf7S\xe3\xc5\xbf'
p19
tp20
bsS'target_rot'
p21
g6
(g7
(I0
tp22
g9
tp23
Rp24
(I1
(I3
tp25
g16
I00
S'\x00\x00\x00\x00\x00\x80F\xc0\x00\x00\x00\x00\x00\x00\x04@\x00\x00\x00\x00\x00\x18e\xc0'
p26
tp27
bsS'center_target_pixels'
p28
(I774
I748
tp29
sS'center_actual_pixels'
p30
(I810
I710
tp31
s.(dp0
S'actual_pos'
p1
(lp2
F0.042241984909997525
aF0.06910839483030394
aF-0.16977612381503215
asS'actual_rot'
p3
(lp4
F-46.09929729841447
aF0.33545810011074917
aF-165.65210171666902
asS'target_pos'
p5
cnumpy.core.multiarray
_reconstruct
p6
(cnumpy
ndarray
p7
(I0
tp8
S'b'
p9
tp10
Rp11
(I1
(I3
tp12
cnumpy
dtype
p13
(S'f8'
p14
I0
I1
tp15
Rp16
(I3
S'<'
p17
NNNI-1
I-1
I0
tp18
bI00
S'\xf6\xff2\x925)\xa6?\x18\xd6\x84\x8b\xe3\xca\xb1?\x16\xd9\xce\xf7S\xe3\xc5\xbf'
p19
tp20
bsS'target_rot'
p21
g6
(g7
(I0
tp22
g9
tp23
Rp24
(I1
(I3
tp25
g16
I00
S'\x00\x00\x00\x00\x00\x80F\xc0\x00\x00\x00\x00\x00\x00\x04@\x00\x00\x00\x00\x00\x18e\xc0'
p26
tp27
bsS'center_target_pixels'
p28
(I948
I757
tp29
sS'center_actual_pixels'
p30
(I1004
I717
tp31
s.(dp0
S'actual_pos'
p1
(lp2
F0.026744464828214486
aF0.06832374632857326
aF-0.16914497029676293
asS'actual_rot'
p3
(lp4
F-45.09165221818616
aF2.4918107587387195
aF-168.2505493661749
asS'target_pos'
p5
cnumpy.core.multiarray
_reconstruct
p6
(cnumpy
ndarray
p7
(I0
tp8
S'b'
p9
tp10
Rp11
(I1
(I3
tp12
cnumpy
dtype
p13
(S'f8'
p14
I0
I1
tp15
Rp16
(I3
S'<'
p17
NNNI-1
I-1
I0
tp18
bI00
S'\x08\\]&\n\x8f\x9c?\xda\xe4\x12\xf3}\x9d\xb1?\\ \xb6\x06\x86\xd6\xc5\xbf'
p19
tp20
bsS'target_rot'
p21
g6
(g7
(I0
tp22
g9
tp23
Rp24
(I1
(I3
tp25
g16
I00
S'\x00\x00\x00\x00\x00\x80F\xc0\x00\x00\x00\x00\x00\x00\x04@\x00\x00\x00\x00\x00\x18e\xc0'
p26
tp27
bsS'center_target_pixels'
p28
(I1122
I767
tp29
sS'center_actual_pixels'
p30
(I1169
I729
tp31
s.(dp0
S'actual_pos'
p1
(lp2
F0.011809578696783438
aF0.06744789985855593
aF-0.1664070416056254
asS'actual_rot'
p3
(lp4
F-44.12303602985369
aF5.146225052139236
aF-170.76116772635112
asS'target_pos'
p5
cnumpy.core.multiarray
_reconstruct
p6
(cnumpy
ndarray
p7
(I0
tp8
S'b'
p9
tp10
Rp11
(I1
(I3
tp12
cnumpy
dtype
p13
(S'f8'
p14
I0
I1
tp15
Rp16
(I3
S'<'
p17
NNNI-1
I-1
I0
tp18
bI00
S'\xc8E\x0c\xa5\xb96\x8a?\xe0V\x0c\x1dYm\xb1?\x13\x7f\xe1\tAa\xc5\xbf'
p19
tp20
bsS'target_rot'
p21
g6
(g7
(I0
tp22
g9
tp23
Rp24
(I1
(I3
tp25
g16
I00
S'\x00\x00\x00\x00\x00\x80F\xc0\x00\x00\x00\x00\x00\x00\x04@\x00\x00\x00\x00\x00\x18e\xc0'
p26
tp27
bsS'center_target_pixels'
p28
(I1293
I776
tp29
sS'center_actual_pixels'
p30
(I1340
I743
tp31
s.