(dp0
S'actual_pos'
p1
(lp2
F0.07075599597166986
aF0.01989264169131063
aF-0.16640208367715456
asS'actual_rot'
p3
(lp4
F45.017184060911696
aF7.910498364248556
aF-170.94877698397943
asS'target_pos'
p5
cnumpy.core.multiarray
_reconstruct
p6
(cnumpy
ndarray
p7
(I0
tp8
S'b'
p9
tp10
Rp11
(I1
(I3
tp12
cnumpy
dtype
p13
(S'f8'
p14
I0
I1
tp15
Rp16
(I3
S'<'
p17
NNNI-1
I-1
I0
tp18
bI00
S'\x1c{\xbb\xfbOU\xb2?\xaaNp\xa1\xfb\xe9\x93?l\xfbo\xc0\x1cO\xc5\xbf'
p19
tp20
bsS'target_rot'
p21
g6
(g7
(I0
tp22
g9
tp23
Rp24
(I1
(I3
tp25
g16
I00
S'\x00\x00\x00\x00\x00\x80F@\x00\x00\x00\x00\x00\x00\x1e@\x00\x00\x00\x00\x00\xc8d\xc0'
p26
tp27
bsS'center_target_pixels'
p28
(I709
I129
tp29
sS'center_actual_pixels'
p30
(I741
I130
tp31
s.(dp0
S'actual_pos'
p1
(lp2
F0.05560560713630299
aF0.01761390161659473
aF-0.16443404979874607
asS'actual_rot'
p3
(lp4
F44.78180681492268
aF9.310614128360516
aF-171.14705367256718
asS'target_pos'
p5
cnumpy.core.multiarray
_reconstruct
p6
(cnumpy
ndarray
p7
(I0
tp8
S'b'
p9
tp10
Rp11
(I1
(I3
tp12
cnumpy
dtype
p13
(S'f8'
p14
I0
I1
tp15
Rp16
(I3
S'<'
p17
NNNI-1
I-1
I0
tp18
bI00
S'\x1fC\xcc2\xb8\xf2\xac?2Jo,\xfe\xbb\x91?{L0;6\x12\xc5\xbf'
p19
tp20
bsS'target_rot'
p21
g6
(g7
(I0
tp22
g9
tp23
Rp24
(I1
(I3
tp25
g16
I00
S'\x00\x00\x00\x00\x00\x80F@\x00\x00\x00\x00\x00\x00\x1e@\x00\x00\x00\x00\x00\xc8d\xc0'
p26
tp27
bsS'center_target_pixels'
p28
(I886
I139
tp29
sS'center_actual_pixels'
p30
(I914
I112
tp31
s.(dp0
S'actual_pos'
p1
(lp2
F0.0396166679626372
aF0.014034854910482057
aF-0.16485823167453248
asS'actual_rot'
p3
(lp4
F44.61511446013879
aF11.471896917196121
aF-171.13802896370456
asS'target_pos'
p5
cnumpy.core.multiarray
_reconstruct
p6
(cnumpy
ndarray
p7
(I0
tp8
S'b'
p9
tp10
Rp11
(I1
(I3
tp12
cnumpy
dtype
p13
(S'f8'
p14
I0
I1
tp15
Rp16
(I3
S'<'
p17
NNNI-1
I-1
I0
tp18
bI00
S'h\x8a\xd5\xd2"\xd7\xa4?\xdc\x87\xf5&v\xac\x8c?\xf57\xfa\xe6\xa4"\xc5\xbf'
p19
tp20
bsS'target_rot'
p21
g6
(g7
(I0
tp22
g9
tp23
Rp24
(I1
(I3
tp25
g16
I00
S'\x00\x00\x00\x00\x00\x80F@\x00\x00\x00\x00\x00\x00\x1e@\x00\x00\x00\x00\x00\xc8d\xc0'
p26
tp27
bsS'center_target_pixels'
p28
(I1060
I148
tp29
sS'center_actual_pixels'
p30
(I1101
I115
tp31
s.(dp0
S'actual_pos'
p1
(lp2
F0.022054040240557054
aF0.010116443546554206
aF-0.1672404036138912
asS'actual_rot'
p3
(lp4
F44.85315997224549
aF12.647275077772811
aF-170.03626097179495
asS'target_pos'
p5
cnumpy.core.multiarray
_reconstruct
p6
(cnumpy
ndarray
p7
(I0
tp8
S'b'
p9
tp10
Rp11
(I1
(I3
tp12
cnumpy
dtype
p13
(S'f8'
p14
I0
I1
tp15
Rp16
(I3
S'<'
p17
NNNI-1
I-1
I0
tp18
bI00
S'\x94\xcf~j\xbd\xda\x97?\x18\xd6\xf6\xeb\xb2/\x83?@GFao\x8d\xc5\xbf'
p19
tp20
bsS'target_rot'
p21
g6
(g7
(I0
tp22
g9
tp23
Rp24
(I1
(I3
tp25
g16
I00
S'\x00\x00\x00\x00\x00\x80F@\x00\x00\x00\x00\x00\x00\x1e@\x00\x00\x00\x00\x00\xc8d\xc0'
p26
tp27
bsS'center_target_pixels'
p28
(I1231
I158
tp29
sS'center_actual_pixels'
p30
(I1300
I108
tp31
s.(dp0
S'actual_pos'
p1
(lp2
F0.062152117215979436
aF0.02570271279297915
aF-0.16798151346768886
asS'actual_rot'
p3
(lp4
F45.047902873047086
aF7.705098555058495
aF-171.09539099754676
asS'target_pos'
p5
cnumpy.core.multiarray
_reconstruct
p6
(cnumpy
ndarray
p7
(I0
tp8
S'b'
p9
tp10
Rp11
(I1
(I3
tp12
cnumpy
dtype
p13
(S'f8'
p14
I0
I1
tp15
Rp16
(I3
S'<'
p17
NNNI-1
I-1
I0
tp18
bI00
S'\xdc\x06\xd9\x9b\xda\x1e\xb0?\x8ce\x8f\x15B\xfa\x99?\x83f\x15\xbb\xf4\x83\xc5\xbf'
p19
tp20
bsS'target_rot'
p21
g6
(g7
(I0
tp22
g9
tp23
Rp24
(I1
(I3
tp25
g16
I00
S'\x00\x00\x00\x00\x00\x80F@\x00\x00\x00\x00\x00\x00\x1e@\x00\x00\x00\x00\x00\xc8d\xc0'
p26
tp27
bsS'center_target_pixels'
p28
(I794
I221
tp29
sS'center_actual_pixels'
p30
(I821
I203
tp31
s.(dp0
S'actual_pos'
p1
(lp2
F0.046302628475068754
aF0.02240130423937857
aF-0.16818931627574424
asS'actual_rot'
p3
(lp4
F44.83894152081693
aF9.677310827800289
aF-170.71680127628846
asS'target_pos'
p5
cnumpy.core.multiarray
_reconstruct
p6
(cnumpy
ndarray
p7
(I0
tp8
S'b'
p9
tp10
Rp11
(I1
(I3
tp12
cnumpy
dtype
p13
(S'f8'
p14
I0
I1
tp15
Rp16
(I3
S'<'
p17
NNNI-1
I-1
I0
tp18
bI00
S'\x10h}Y|4\xa8?\x943:\xaba\xba\x96?r\x91\xba\xea\x14\x96\xc5\xbf'
p19
tp20
bsS'target_rot'
p21
g6
(g7
(I0
tp22
g9
tp23
Rp24
(I1
(I3
tp25
g16
I00
S'\x00\x00\x00\x00\x00\x80F@\x00\x00\x00\x00\x00\x00\x1e@\x00\x00\x00\x00\x00\xc8d\xc0'
p26
tp27
bsS'center_target_pixels'
p28
(I969
I229
tp29
sS'center_actual_pixels'
p30
(I1008
I205
tp31
s.(dp0
S'actual_pos'
p1
(lp2
F0.0312173337186076
aF0.02098686535639111
aF-0.16393611421268764
asS'actual_rot'
p3
(lp4
F44.8750548714564
aF11.051789437688862
aF-170.71772417807333
asS'target_pos'
p5
cnumpy.core.multiarray
_reconstruct
p6
(cnumpy
ndarray
p7
(I0
tp8
S'b'
p9
tp10
Rp11
(I1
(I3
tp12
cnumpy
dtype
p13
(S'f8'
p14
I0
I1
tp15
Rp16
(I3
S'<'
p17
NNNI-1
I-1
I0
tp18
bI00
S'=f\xcb\xa1-u\xa0?\xb8\xf4u3\xd0\xa4\x95?\xf1w\xf9\x86\x95\x04\xc5\xbf'
p19
tp20
bsS'target_rot'
p21
g6
(g7
(I0
tp22
g9
tp23
Rp24
(I1
(I3
tp25
g16
I00
S'\x00\x00\x00\x00\x00\x80F@\x00\x00\x00\x00\x00\x00\x1e@\x00\x00\x00\x00\x00\xc8d\xc0'
p26
tp27
bsS'center_target_pixels'
p28
(I1143
I239
tp29
sS'center_actual_pixels'
p30
(I1184
I207
tp31
s.(dp0
S'actual_pos'
p1
(lp2
F0.014279871144282554
aF0.017568947075773292
aF-0.16435705444570164
asS'actual_rot'
p3
(lp4
F45.1066611339385
aF12.997280682816303
aF-170.72287297886973
asS'target_pos'
p5
cnumpy.core.multiarray
_reconstruct
p6
(cnumpy
ndarray
p7
(I0
tp8
S'b'
p9
tp10
Rp11
(I1
(I3
tp12
cnumpy
dtype
p13
(S'f8'
p14
I0
I1
tp15
Rp16
(I3
S'<'
p17
NNNI-1
I-1
I0
tp18
bI00
S'8\xda\x9e\x9f]{\x8f?\x9aw\xf6\xfb\xd63\x92?(\x19pud\x17\xc5\xbf'
p19
tp20
bsS'target_rot'
p21
g6
(g7
(I0
tp22
g9
tp23
Rp24
(I1
(I3
tp25
g16
I00
S'\x00\x00\x00\x00\x00\x80F@\x00\x00\x00\x00\x00\x00\x1e@\x00\x00\x00\x00\x00\xc8d\xc0'
p26
tp27
bsS'center_target_pixels'
p28
(I1314
I247
tp29
sS'center_actual_pixels'
p30
(I1388
I187
tp31
s.(dp0
S'actual_pos'
p1
(lp2
F0.06835508485543976
aF0.03417233227118508
aF-0.17083694438430397
asS'actual_rot'
p3
(lp4
F45.08954123747095
aF7.823685287303135
aF-170.80429242001193
asS'target_pos'
p5
cnumpy.core.multiarray
_reconstruct
p6
(cnumpy
ndarray
p7
(I0
tp8
S'b'
p9
tp10
Rp11
(I1
(I3
tp12
cnumpy
dtype
p13
(S'f8'
p14
I0
I1
tp15
Rp16
(I3
S'<'
p17
NNNI-1
I-1
I0
tp18
bI00
S'z\x8e\xfa\xde\x0c\xc2\xb1?\xb9k\xf4Mo"\xa1?\x8e\xd2\x133\xbf\xf7\xc5\xbf'
p19
tp20
bsS'target_rot'
p21
g6
(g7
(I0
tp22
g9
tp23
Rp24
(I1
(I3
tp25
g16
I00
S'\x00\x00\x00\x00\x00\x80F@\x00\x00\x00\x00\x00\x00\x1e@\x00\x00\x00\x00\x00\xc8d\xc0'
p26
tp27
bsS'center_target_pixels'
p28
(I702
I304
tp29
sS'center_actual_pixels'
p30
(I745
I301
tp31
s.(dp0
S'actual_pos'
p1
(lp2
F0.0537954274599363
aF0.03261608635300934
aF-0.16695866283086405
asS'actual_rot'
p3
(lp4
F45.03886341807762
aF7.882044807651616
aF-170.92409108130786
asS'target_pos'
p5
cnumpy.core.multiarray
_reconstruct
p6
(cnumpy
ndarray
p7
(I0
tp8
S'b'
p9
tp10
Rp11
(I1
(I3
tp12
cnumpy
dtype
p13
(S'f8'
p14
I0
I1
tp15
Rp16
(I3
S'<'
p17
NNNI-1
I-1
I0
tp18
bI00
S'\x92\xd7\x864J\xe7\xab?\x10\xe9ZS\xe9\x85\xa0?]]6\xa2\x06e\xc5\xbf'
p19
tp20
bsS'target_rot'
p21
g6
(g7
(I0
tp22
g9
tp23
Rp24
(I1
(I3
tp25
g16
I00
S'\x00\x00\x00\x00\x00\x80F@\x00\x00\x00\x00\x00\x00\x1e@\x00\x00\x00\x00\x00\xc8d\xc0'
p26
tp27
bsS'center_target_pixels'
p28
(I879
I312
tp29
sS'center_actual_pixels'
p30
(I913
I300
tp31
s.(dp0
S'actual_pos'
p1
(lp2
F0.03772616748546135
aF0.02948575171758974
aF-0.16737548825576287
asS'actual_rot'
p3
(lp4
F44.98558917455407
aF9.639869050806745
aF-170.53866090580382
asS'target_pos'
p5
cnumpy.core.multiarray
_reconstruct
p6
(cnumpy
ndarray
p7
(I0
tp8
S'b'
p9
tp10
Rp11
(I1
(I3
tp12
cnumpy
dtype
p13
(S'f8'
p14
I0
I1
tp15
Rp16
(I3
S'<'
p17
NNNI-1
I-1
I0
tp18
bI00
S"\xaa'\xa48f\xc4\xa3?\xd8Q\x88\xa4\xe2\xf6\x9d?\xbe\x86\xf0\xa1\x99{\xc5\xbf"
p19
tp20
bsS'target_rot'
p21
g6
(g7
(I0
tp22
g9
tp23
Rp24
(I1
(I3
tp25
g16
I00
S'\x00\x00\x00\x00\x00\x80F@\x00\x00\x00\x00\x00\x00\x1e@\x00\x00\x00\x00\x00\xc8d\xc0'
p26
tp27
bsS'center_target_pixels'
p28
(I1053
I320
tp29
sS'center_actual_pixels'
p30
(I1097
I295
tp31
s.(dp0
S'actual_pos'
p1
(lp2
F0.022772464593077652
aF0.028075960973745335
aF-0.16291996930368058
asS'actual_rot'
p3
(lp4
F45.115172087646386
aF10.899841064923699
aF-170.24191642246444
asS'target_pos'
p5
cnumpy.core.multiarray
_reconstruct
p6
(cnumpy
ndarray
p7
(I0
tp8
S'b'
p9
tp10
Rp11
(I1
(I3
tp12
cnumpy
dtype
p13
(S'f8'
p14
I0
I1
tp15
Rp16
(I3
S'<'
p17
NNNI-1
I-1
I0
tp18
bI00
S'Hq&G\x96*\x98?\xe2J\x11\x90M\xdc\x9c?\xf0L7|\x06\xe6\xc4\xbf'
p19
tp20
bsS'target_rot'
p21
g6
(g7
(I0
tp22
g9
tp23
Rp24
(I1
(I3
tp25
g16
I00
S'\x00\x00\x00\x00\x00\x80F@\x00\x00\x00\x00\x00\x00\x1e@\x00\x00\x00\x00\x00\xc8d\xc0'
p26
tp27
bsS'center_target_pixels'
p28
(I1226
I329
tp29
sS'center_actual_pixels'
p30
(I1274
I291
tp31
s.(dp0
S'actual_pos'
p1
(lp2
F0.006805311742782547
aF0.02575537365191363
aF-0.16076814765471106
asS'actual_rot'
p3
(lp4
F45.4775922799103
aF12.62337020657716
aF-169.44880956784294
asS'target_pos'
p5
cnumpy.core.multiarray
_reconstruct
p6
(cnumpy
ndarray
p7
(I0
tp8
S'b'
p9
tp10
Rp11
(I1
(I3
tp12
cnumpy
dtype
p13
(S'f8'
p14
I0
I1
tp15
Rp16
(I3
S'<'
p17
NNNI-1
I-1
I0
tp18
bI00
S'\x90Ax\xb1?\xf9\x7f?L_\xe2\xeb\xb3\x9d\x9a?\xe2\x9f\x08\xf1f\xa2\xc4\xbf'
p19
tp20
bsS'target_rot'
p21
g6
(g7
(I0
tp22
g9
tp23
Rp24
(I1
(I3
tp25
g16
I00
S'\x00\x00\x00\x00\x00\x80F@\x00\x00\x00\x00\x00\x00\x1e@\x00\x00\x00\x00\x00\xc8d\xc0'
p26
tp27
bsS'center_target_pixels'
p28
(I1396
I336
tp29
sS'center_actual_pixels'
p30
(I1458
I285
tp31
s.(dp0
S'actual_pos'
p1
(lp2
F0.05987293205714939
aF0.0410291269345825
aF-0.17003667484468996
asS'actual_rot'
p3
(lp4
F45.116892926129964
aF7.933661247875116
aF-170.06800451919733
asS'target_pos'
p5
cnumpy.core.multiarray
_reconstruct
p6
(cnumpy
ndarray
p7
(I0
tp8
S'b'
p9
tp10
Rp11
(I1
(I3
tp12
cnumpy
dtype
p13
(S'f8'
p14
I0
I1
tp15
Rp16
(I3
S'<'
p17
NNNI-1
I-1
I0
tp18
bI00
S'\x08\xd7\x02\xbd\x18,\xaf?\xf1A\xbe\x94\xe9\xa3\xa4?\xbe\xda\x16\xa8R\xde\xc5\xbf'
p19
tp20
bsS'target_rot'
p21
g6
(g7
(I0
tp22
g9
tp23
Rp24
(I1
(I3
tp25
g16
I00
S'\x00\x00\x00\x00\x00\x80F@\x00\x00\x00\x00\x00\x00\x1e@\x00\x00\x00\x00\x00\xc8d\xc0'
p26
tp27
bsS'center_target_pixels'
p28
(I787
I395
tp29
sS'center_actual_pixels'
p30
(I822
I383
tp31
s.(dp0
S'actual_pos'
p1
(lp2
F0.04475127836610482
aF0.03892294624379418
aF-0.16825253389388037
asS'actual_rot'
p3
(lp4
F45.08560562867261
aF7.8121754852364385
aF-170.08236573596932
asS'target_pos'
p5
cnumpy.core.multiarray
_reconstruct
p6
(cnumpy
ndarray
p7
(I0
tp8
S'b'
p9
tp10
Rp11
(I1
(I3
tp12
cnumpy
dtype
p13
(S'f8'
p14
I0
I1
tp15
Rp16
(I3
S'<'
p17
NNNI-1
I-1
I0
tp18
bI00
S'J\xf0\xde\x15\xc1X\xa7?\xfd\xb5\xb7\x90/\x9c\xa3?\xca\xab\x1d\xc1\xdb\x9a\xc5\xbf'
p19
tp20
bsS'target_rot'
p21
g6
(g7
(I0
tp22
g9
tp23
Rp24
(I1
(I3
tp25
g16
I00
S'\x00\x00\x00\x00\x00\x80F@\x00\x00\x00\x00\x00\x00\x1e@\x00\x00\x00\x00\x00\xc8d\xc0'
p26
tp27
bsS'center_target_pixels'
p28
(I963
I402
tp29
sS'center_actual_pixels'
p30
(I1002
I382
tp31
s.(dp0
S'actual_pos'
p1
(lp2
F0.028335328987510365
aF0.03620811194427934
aF-0.16787733969306184
asS'actual_rot'
p3
(lp4
F45.171151197144695
aF9.379940707869478
aF-168.92164446589024
asS'target_pos'
p5
cnumpy.core.multiarray
_reconstruct
p6
(cnumpy
ndarray
p7
(I0
tp8
S'b'
p9
tp10
Rp11
(I1
(I3
tp12
cnumpy
dtype
p13
(S'f8'
p14
I0
I1
tp15
Rp16
(I3
S'<'
p17
NNNI-1
I-1
I0
tp18
bI00
S'P\xe5e\x9a\x195\x9e?\xbc`e.\n\x1d\xa2?D[\xb3\xb4\xbf\xa9\xc5\xbf'
p19
tp20
bsS'target_rot'
p21
g6
(g7
(I0
tp22
g9
tp23
Rp24
(I1
(I3
tp25
g16
I00
S'\x00\x00\x00\x00\x00\x80F@\x00\x00\x00\x00\x00\x00\x1e@\x00\x00\x00\x00\x00\xc8d\xc0'
p26
tp27
bsS'center_target_pixels'
p28
(I1135
I408
tp29
sS'center_actual_pixels'
p30
(I1198
I387
tp31
s.(dp0
S'actual_pos'
p1
(lp2
F0.014505647724556798
aF0.035209572822383274
aF-0.1618894282491715
asS'actual_rot'
p3
(lp4
F45.25874365313391
aF9.790624084379958
aF-168.46010582568476
asS'target_pos'
p5
cnumpy.core.multiarray
_reconstruct
p6
(cnumpy
ndarray
p7
(I0
tp8
S'b'
p9
tp10
Rp11
(I1
(I3
tp12
cnumpy
dtype
p13
(S'f8'
p14
I0
I1
tp15
Rp16
(I3
S'<'
p17
NNNI-1
I-1
I0
tp18
bI00
S'(\xc4\x11\xcfF&\x8f?\xd1D\xbb\xe6c\xf8\xa1?^\x97aTK\xc4\xc4\xbf'
p19
tp20
bsS'target_rot'
p21
g6
(g7
(I0
tp22
g9
tp23
Rp24
(I1
(I3
tp25
g16
I00
S'\x00\x00\x00\x00\x00\x80F@\x00\x00\x00\x00\x00\x00\x1e@\x00\x00\x00\x00\x00\xc8d\xc0'
p26
tp27
bsS'center_target_pixels'
p28
(I1308
I417
tp29
sS'center_actual_pixels'
p30
(I1362
I388
tp31
s.(dp0
S'actual_pos'
p1
(lp2
F0.065823242247514
aF0.049376402460736116
aF-0.17241320102432
asS'actual_rot'
p3
(lp4
F44.92854252176253
aF8.227577692515043
aF-168.24689567584502
asS'target_pos'
p5
cnumpy.core.multiarray
_reconstruct
p6
(cnumpy
ndarray
p7
(I0
tp8
S'b'
p9
tp10
Rp11
(I1
(I3
tp12
cnumpy
dtype
p13
(S'f8'
p14
I0
I1
tp15
Rp16
(I3
S'<'
p17
NNNI-1
I-1
I0
tp18
bI00
S'\xb0\xe9\x0cl]8\xb1?\x80V\xa9\xd3\x9e\xd2\xa8?\x89k[\xbc\x83R\xc6\xbf'
p19
tp20
bsS'target_rot'
p21
g6
(g7
(I0
tp22
g9
tp23
Rp24
(I1
(I3
tp25
g16
I00
S'\x00\x00\x00\x00\x00\x80F@\x00\x00\x00\x00\x00\x00\x1e@\x00\x00\x00\x00\x00\xc8d\xc0'
p26
tp27
bsS'center_target_pixels'
p28
(I695
I479
tp29
sS'center_actual_pixels'
p30
(I758
I488
tp31
s.(dp0
S'actual_pos'
p1
(lp2
F0.051601845472981495
aF0.04775109372321622
aF-0.16922558085053316
asS'actual_rot'
p3
(lp4
F45.121815924728665
aF7.32583212511407
aF-168.47072938180492
asS'target_pos'
p5
cnumpy.core.multiarray
_reconstruct
p6
(cnumpy
ndarray
p7
(I0
tp8
S'b'
p9
tp10
Rp11
(I1
(I3
tp12
cnumpy
dtype
p13
(S'f8'
p14
I0
I1
tp15
Rp16
(I3
S'<'
p17
NNNI-1
I-1
I0
tp18
bI00
S'\xe4\xa0\xd7\xb9\xad\xd5\xaa?;xQ\xdd\xb1,\xa8?\x98\xd17\x8fd\xbf\xc5\xbf'
p19
tp20
bsS'target_rot'
p21
g6
(g7
(I0
tp22
g9
tp23
Rp24
(I1
(I3
tp25
g16
I00
S'\x00\x00\x00\x00\x00\x80F@\x00\x00\x00\x00\x00\x00\x1e@\x00\x00\x00\x00\x00\xc8d\xc0'
p26
tp27
bsS'center_target_pixels'
p28
(I872
I486
tp29
sS'center_actual_pixels'
p30
(I915
I479
tp31
s.(dp0
S'actual_pos'
p1
(lp2
F0.03508910450416817
aF0.045403872224824
aF-0.16890145151917518
asS'actual_rot'
p3
(lp4
F45.02438486363279
aF8.255017044572751
aF-167.38413987148292
asS'target_pos'
p5
cnumpy.core.multiarray
_reconstruct
p6
(cnumpy
ndarray
p7
(I0
tp8
S'b'
p9
tp10
Rp11
(I1
(I3
tp12
cnumpy
dtype
p13
(S'f8'
p14
I0
I1
tp15
Rp16
(I3
S'<'
p17
NNNI-1
I-1
I0
tp18
bI00
S'\xe3B\x97I0\xb1\xa2?u\x84\xde\xd8\x8c\xd6\xa6?\x1b4)\xa2\xab\xd3\xc5\xbf'
p19
tp20
bsS'target_rot'
p21
g6
(g7
(I0
tp22
g9
tp23
Rp24
(I1
(I3
tp25
g16
I00
S'\x00\x00\x00\x00\x00\x80F@\x00\x00\x00\x00\x00\x00\x1e@\x00\x00\x00\x00\x00\xc8d\xc0'
p26
tp27
bsS'center_target_pixels'
p28
(I1046
I493
tp29
sS'center_actual_pixels'
p30
(I1118
I489
tp31
s.(dp0
S'actual_pos'
p1
(lp2
F0.020933372237813542
aF0.043653644743452874
aF-0.1656167016915705
asS'actual_rot'
p3
(lp4
F45.148893909085544
aF8.480574292291685
aF-167.44665367997612
asS'target_pos'
p5
cnumpy.core.multiarray
_reconstruct
p6
(cnumpy
ndarray
p7
(I0
tp8
S'b'
p9
tp10
Rp11
(I1
(I3
tp12
cnumpy
dtype
p13
(S'f8'
p14
I0
I1
tp15
Rp16
(I3
S'<'
p17
NNNI-1
I-1
I0
tp18
bI00
S'|\xef7p\xad\x0b\x96?\x06u,g\xef1\xa6?\xef\xe6X\xfe\x83>\xc5\xbf'
p19
tp20
bsS'target_rot'
p21
g6
(g7
(I0
tp22
g9
tp23
Rp24
(I1
(I3
tp25
g16
I00
S'\x00\x00\x00\x00\x00\x80F@\x00\x00\x00\x00\x00\x00\x1e@\x00\x00\x00\x00\x00\xc8d\xc0'
p26
tp27
bsS'center_target_pixels'
p28
(I1219
I500
tp29
sS'center_actual_pixels'
p30
(I1269
I467
tp31
s.(dp0
S'actual_pos'
p1
(lp2
F0.004912250004688366
aF0.041186161025371634
aF-0.16353493297196303
asS'actual_rot'
p3
(lp4
F45.48177386853365
aF10.387543457397651
aF-166.32297202610334
asS'target_pos'
p5
cnumpy.core.multiarray
_reconstruct
p6
(cnumpy
ndarray
p7
(I0
tp8
S'b'
p9
tp10
Rp11
(I1
(I3
tp12
cnumpy
dtype
p13
(S'f8'
p14
I0
I1
tp15
Rp16
(I3
S'<'
p17
NNNI-1
I-1
I0
tp18
bI00
S'\xc0}^x\x8c\x1cw?C#v3Z#\xa5?W\x85\xfe\xfb\xc5\xfa\xc4\xbf'
p19
tp20
bsS'target_rot'
p21
g6
(g7
(I0
tp22
g9
tp23
Rp24
(I1
(I3
tp25
g16
I00
S'\x00\x00\x00\x00\x00\x80F@\x00\x00\x00\x00\x00\x00\x1e@\x00\x00\x00\x00\x00\xc8d\xc0'
p26
tp27
bsS'center_target_pixels'
p28
(I1390
I506
tp29
sS'center_actual_pixels'
p30
(I1449
I458
tp31
s.(dp0
S'actual_pos'
p1
(lp2
F0.05753317027330498
aF0.056059485630038944
aF-0.17155364388055722
asS'actual_rot'
p3
(lp4
F44.97603116845415
aF7.394249045582265
aF-166.59619886643813
asS'target_pos'
p5
cnumpy.core.multiarray
_reconstruct
p6
(cnumpy
ndarray
p7
(I0
tp8
S'b'
p9
tp10
Rp11
(I1
(I3
tp12
cnumpy
dtype
p13
(S'f8'
p14
I0
I1
tp15
Rp16
(I3
S'<'
p17
NNNI-1
I-1
I0
tp18
bI00
S'\x16,\xd8\xafS\x1b\xae?\xcf\x1b\x8b`\x93Z\xac?\xf5\xacq\xe0\x9c3\xc6\xbf'
p19
tp20
bsS'target_rot'
p21
g6
(g7
(I0
tp22
g9
tp23
Rp24
(I1
(I3
tp25
g16
I00
S'\x00\x00\x00\x00\x00\x80F@\x00\x00\x00\x00\x00\x00\x1e@\x00\x00\x00\x00\x00\xc8d\xc0'
p26
tp27
bsS'center_target_pixels'
p28
(I780
I570
tp29
sS'center_actual_pixels'
p30
(I841
I575
tp31
s.(dp0
S'actual_pos'
p1
(lp2
F0.04185011381689776
aF0.05408245568323977
aF-0.16964026723331607
asS'actual_rot'
p3
(lp4
F44.76030956283192
aF8.065150048671466
aF-165.42755353259946
asS'target_pos'
p5
cnumpy.core.multiarray
_reconstruct
p6
(cnumpy
ndarray
p7
(I0
tp8
S'b'
p9
tp10
Rp11
(I1
(I3
tp12
cnumpy
dtype
p13
(S'f8'
p14
I0
I1
tp15
Rp16
(I3
S'<'
p17
NNNI-1
I-1
I0
tp18
bI00
S'\xcf\xc5\xc4P\x03H\xa6?4\x98J\xc1Nd\xab?\xc2ms\xf2\xde\xf0\xc5\xbf'
p19
tp20
bsS'target_rot'
p21
g6
(g7
(I0
tp22
g9
tp23
Rp24
(I1
(I3
tp25
g16
I00
S'\x00\x00\x00\x00\x00\x80F@\x00\x00\x00\x00\x00\x00\x1e@\x00\x00\x00\x00\x00\xc8d\xc0'
p26
tp27
bsS'center_target_pixels'
p28
(I956
I576
tp29
sS'center_actual_pixels'
p30
(I1035
I576
tp31
s.(dp0
S'actual_pos'
p1
(lp2
F0.02679091403699441
aF0.05209825961025721
aF-0.16811295786829814
asS'actual_rot'
p3
(lp4
F44.980532929741884
aF7.780153082702444
aF-165.76884614574436
asS'target_pos'
p5
cnumpy.core.multiarray
_reconstruct
p6
(cnumpy
ndarray
p7
(I0
tp8
S'b'
p9
tp10
Rp11
(I1
(I3
tp12
cnumpy
dtype
p13
(S'f8'
p14
I0
I1
tp15
Rp16
(I3
S'<'
p17
NNNI-1
I-1
I0
tp18
bI00
S'nN\x80\x82\x81\xa5\x9c?\xe5>\xe5\x89\x19q\xaa?\xea\x93\xc6\xb6&\xb5\xc5\xbf'
p19
tp20
bsS'target_rot'
p21
g6
(g7
(I0
tp22
g9
tp23
Rp24
(I1
(I3
tp25
g16
I00
S'\x00\x00\x00\x00\x00\x80F@\x00\x00\x00\x00\x00\x00\x1e@\x00\x00\x00\x00\x00\xc8d\xc0'
p26
tp27
bsS'center_target_pixels'
p28
(I1129
I583
tp29
sS'center_actual_pixels'
p30
(I1202
I570
tp31
s.(dp0
S'actual_pos'
p1
(lp2
F0.01131943463876815
aF0.05011844981705728
aF-0.16644605054015077
asS'actual_rot'
p3
(lp4
F45.11221759563194
aF7.708430954387112
aF-165.9032695132293
asS'target_pos'
p5
cnumpy.core.multiarray
_reconstruct
p6
(cnumpy
ndarray
p7
(I0
tp8
S'b'
p9
tp10
Rp11
(I1
(I3
tp12
cnumpy
dtype
p13
(S'f8'
p14
I0
I1
tp15
Rp16
(I3
S'<'
p17
NNNI-1
I-1
I0
tp18
bI00
S' \xeb\x90\x15r\xcd\x88?\xf1\x86\xae \x90q\xa9?\x95\xf9T\x04=r\xc5\xbf'
p19
tp20
bsS'target_rot'
p21
g6
(g7
(I0
tp22
g9
tp23
Rp24
(I1
(I3
tp25
g16
I00
S'\x00\x00\x00\x00\x00\x80F@\x00\x00\x00\x00\x00\x00\x1e@\x00\x00\x00\x00\x00\xc8d\xc0'
p26
tp27
bsS'center_target_pixels'
p28
(I1301
I589
tp29
sS'center_actual_pixels'
p30
(I1374
I563
tp31
s.(dp0
S'actual_pos'
p1
(lp2
F0.06326506614613049
aF0.06428812133934787
aF-0.1740453724275076
asS'actual_rot'
p3
(lp4
F44.676812932446495
aF7.643711267595733
aF-164.2696906958826
asS'target_pos'
p5
cnumpy.core.multiarray
_reconstruct
p6
(cnumpy
ndarray
p7
(I0
tp8
S'b'
p9
tp10
Rp11
(I1
(I3
tp12
cnumpy
dtype
p13
(S'f8'
p14
I0
I1
tp15
Rp16
(I3
S'<'
p17
NNNI-1
I-1
I0
tp18
bI00
S'F\xfd\x0f\xeb\xf3\xaf\xb0?\x80E\xd2\xbd\xa8C\xb0?.<\xd8\xe8^\xa6\xc6\xbf'
p19
tp20
bsS'target_rot'
p21
g6
(g7
(I0
tp22
g9
tp23
Rp24
(I1
(I3
tp25
g16
I00
S'\x00\x00\x00\x00\x00\x80F@\x00\x00\x00\x00\x00\x00\x1e@\x00\x00\x00\x00\x00\xc8d\xc0'
p26
tp27
bsS'center_target_pixels'
p28
(I688
I654
tp29
sS'center_actual_pixels'
p30
(I779
I662
tp31
s.(dp0
S'actual_pos'
p1
(lp2
F0.047668981237031234
aF0.06223042226598577
aF-0.17222564898032905
asS'actual_rot'
p3
(lp4
F44.68214335794321
aF8.233058526821189
aF-163.31325019828927
asS'target_pos'
p5
cnumpy.core.multiarray
_reconstruct
p6
(cnumpy
ndarray
p7
(I0
tp8
S'b'
p9
tp10
Rp11
(I1
(I3
tp12
cnumpy
dtype
p13
(S'f8'
p14
I0
I1
tp15
Rp16
(I3
S'<'
p17
NNNI-1
I-1
I0
tp18
bI00
S'\xf2y\xf2,\x03\x8b\xa9?\x19\xc8n\x97\x83\x9a\xaf?g>\x1e\x99fk\xc6\xbf'
p19
tp20
bsS'target_rot'
p21
g6
(g7
(I0
tp22
g9
tp23
Rp24
(I1
(I3
tp25
g16
I00
S'\x00\x00\x00\x00\x00\x80F@\x00\x00\x00\x00\x00\x00\x1e@\x00\x00\x00\x00\x00\xc8d\xc0'
p26
tp27
bsS'center_target_pixels'
p28
(I865
I660
tp29
sS'center_actual_pixels'
p30
(I968
I665
tp31
s.(dp0
S'actual_pos'
p1
(lp2
F0.03240831462615476
aF0.06043859034554085
aF-0.17065053009395853
asS'actual_rot'
p3
(lp4
F44.71618492233357
aF7.817525280962365
aF-163.35273935165318
asS'target_pos'
p5
cnumpy.core.multiarray
_reconstruct
p6
(cnumpy
ndarray
p7
(I0
tp8
S'b'
p9
tp10
Rp11
(I1
(I3
tp12
cnumpy
dtype
p13
(S'f8'
p14
I0
I1
tp15
Rp16
(I3
S'<'
p17
NNNI-1
I-1
I0
tp18
bI00
S'\xa8\xf4\xe2\xad\x8e\x97\xa1?\xdc\xe9_\xbd\xbf\xb6\xae?\x0b!\xef\xa7\xaf0\xc6\xbf'
p19
tp20
bsS'target_rot'
p21
g6
(g7
(I0
tp22
g9
tp23
Rp24
(I1
(I3
tp25
g16
I00
S'\x00\x00\x00\x00\x00\x80F@\x00\x00\x00\x00\x00\x00\x1e@\x00\x00\x00\x00\x00\xc8d\xc0'
p26
tp27
bsS'center_target_pixels'
p28
(I1039
I667
tp29
sS'center_actual_pixels'
p30
(I1147
I668
tp31
s.(dp0
S'actual_pos'
p1
(lp2
F0.01838768167129282
aF0.058998445800313895
aF-0.16736064080509047
asS'actual_rot'
p3
(lp4
F44.86233745903051
aF6.507448117231173
aF-164.0977512934984
asS'target_pos'
p5
cnumpy.core.multiarray
_reconstruct
p6
(cnumpy
ndarray
p7
(I0
tp8
S'b'
p9
tp10
Rp11
(I1
(I3
tp12
cnumpy
dtype
p13
(S'f8'
p14
I0
I1
tp15
Rp16
(I3
S'<'
p17
NNNI-1
I-1
I0
tp18
bI00
S'\xbc\xc5\xa6\'"\xdc\x93?\'\xe7\x15\xc9\x1d\x08\xae?\x08\xfdef\x1a\x9b\xc5\xbf'
p19
tp20
bsS'target_rot'
p21
g6
(g7
(I0
tp22
g9
tp23
Rp24
(I1
(I3
tp25
g16
I00
S'\x00\x00\x00\x00\x00\x80F@\x00\x00\x00\x00\x00\x00\x1e@\x00\x00\x00\x00\x00\xc8d\xc0'
p26
tp27
bsS'center_target_pixels'
p28
(I1212
I673
tp29
sS'center_actual_pixels'
p30
(I1298
I647
tp31
s.(dp0
S'actual_pos'
p1
(lp2
F0.004300447797139891
aF0.05743313791655248
aF-0.1637438549405777
asS'actual_rot'
p3
(lp4
F45.02788489462984
aF7.504779703112522
aF-163.07354939378112
asS'target_pos'
p5
cnumpy.core.multiarray
_reconstruct
p6
(cnumpy
ndarray
p7
(I0
tp8
S'b'
p9
tp10
Rp11
(I1
(I3
tp12
cnumpy
dtype
p13
(S'f8'
p14
I0
I1
tp15
Rp16
(I3
S'<'
p17
NNNI-1
I-1
I0
tp18
bI00
S'\xf0\xec[\xf5\xdcLs?\xf0]w\xce\xcbW\xad?&\xcfJ4\xe5\xfd\xc4\xbf'
p19
tp20
bsS'target_rot'
p21
g6
(g7
(I0
tp22
g9
tp23
Rp24
(I1
(I3
tp25
g16
I00
S'\x00\x00\x00\x00\x00\x80F@\x00\x00\x00\x00\x00\x00\x1e@\x00\x00\x00\x00\x00\xc8d\xc0'
p26
tp27
bsS'center_target_pixels'
p28
(I1383
I678
tp29
sS'center_actual_pixels'
p30
(I1444
I639
tp31
s.(dp0
S'actual_pos'
p1
(lp2
F0.051962817247910034
aF0.0690145240128456
aF-0.1728782791435384
asS'actual_rot'
p3
(lp4
F43.796522660285525
aF8.453404481407478
aF-160.9619363558604
asS'target_pos'
p5
cnumpy.core.multiarray
_reconstruct
p6
(cnumpy
ndarray
p7
(I0
tp8
S'b'
p9
tp10
Rp11
(I1
(I3
tp12
cnumpy
dtype
p13
(S'f8'
p14
I0
I1
tp15
Rp16
(I3
S'<'
p17
NNNI-1
I-1
I0
tp18
bI00
S'\xd4\x80\xd1\xe6\x07\xd7\xac?>\xd9\x80\x9b\xb8\xee\xb1?a,\x0f\x9bP\xe7\xc6\xbf'
p19
tp20
bsS'target_rot'
p21
g6
(g7
(I0
tp22
g9
tp23
Rp24
(I1
(I3
tp25
g16
I00
S'\x00\x00\x00\x00\x00\x80F@\x00\x00\x00\x00\x00\x00\x1e@\x00\x00\x00\x00\x00\xc8d\xc0'
p26
tp27
bsS'center_target_pixels'
p28
(I773
I745
tp29
sS'center_actual_pixels'
p30
(I940
I736
tp31
s.(dp0
S'actual_pos'
p1
(lp2
F0.03739821654285437
aF0.06744678716261426
aF-0.17215367166355638
asS'actual_rot'
p3
(lp4
F44.249261555015025
aF8.481947244567325
aF-161.0108220209875
asS'target_pos'
p5
cnumpy.core.multiarray
_reconstruct
p6
(cnumpy
ndarray
p7
(I0
tp8
S'b'
p9
tp10
Rp11
(I1
(I3
tp12
cnumpy
dtype
p13
(S'f8'
p14
I0
I1
tp15
Rp16
(I3
S'<'
p17
NNNI-1
I-1
I0
tp18
bI00
S'n\xcb\x94\xed\xbd\xe3\xa4?\x9c\xb8\xfc\x85\x17z\xb1?\xfd\x00\xd5\x90\xb8\xa5\xc6\xbf'
p19
tp20
bsS'target_rot'
p21
g6
(g7
(I0
tp22
g9
tp23
Rp24
(I1
(I3
tp25
g16
I00
S'\x00\x00\x00\x00\x00\x80F@\x00\x00\x00\x00\x00\x00\x1e@\x00\x00\x00\x00\x00\xc8d\xc0'
p26
tp27
bsS'center_target_pixels'
p28
(I949
I750
tp29
sS'center_actual_pixels'
p30
(I1102
I730
tp31
s.(dp0
S'actual_pos'
p1
(lp2
F0.0241485253371017
aF0.06648046160450084
aF-0.1700020942983722
asS'actual_rot'
p3
(lp4
F44.60914332649506
aF7.402042862709329
aF-161.72495568517292
asS'target_pos'
p5
cnumpy.core.multiarray
_reconstruct
p6
(cnumpy
ndarray
p7
(I0
tp8
S'b'
p9
tp10
Rp11
(I1
(I3
tp12
cnumpy
dtype
p13
(S'f8'
p14
I0
I1
tp15
Rp16
(I3
S'<'
p17
NNNI-1
I-1
I0
tp18
bI00
S'L{%Qbv\x9a?\x87G\xec/\xe2"\xb1?j5\x15<\xab\x11\xc6\xbf'
p19
tp20
bsS'target_rot'
p21
g6
(g7
(I0
tp22
g9
tp23
Rp24
(I1
(I3
tp25
g16
I00
S'\x00\x00\x00\x00\x00\x80F@\x00\x00\x00\x00\x00\x00\x1e@\x00\x00\x00\x00\x00\xc8d\xc0'
p26
tp27
bsS'center_target_pixels'
p28
(I1122
I756
tp29
sS'center_actual_pixels'
p30
(I1240
I720
tp31
s.(dp0
S'actual_pos'
p1
(lp2
F0.010293035396893696
aF0.06539842749169143
aF-0.16661819784123919
asS'actual_rot'
p3
(lp4
F44.61852776350406
aF5.979835155941898
aF-162.510024133858
asS'target_pos'
p5
cnumpy.core.multiarray
_reconstruct
p6
(cnumpy
ndarray
p7
(I0
tp8
S'b'
p9
tp10
Rp11
(I1
(I3
tp12
cnumpy
dtype
p13
(S'f8'
p14
I0
I1
tp15
Rp16
(I3
S'<'
p17
NNNI-1
I-1
I0
tp18
bI00
S'\xe8\xd1\xe9\x89\x02\x95\x86?<\x9f\x8e0C\xc8\xb0?\xbff\x07B\x06x\xc5\xbf'
p19
tp20
bsS'target_rot'
p21
g6
(g7
(I0
tp22
g9
tp23
Rp24
(I1
(I3
tp25
g16
I00
S'\x00\x00\x00\x00\x00\x80F@\x00\x00\x00\x00\x00\x00\x1e@\x00\x00\x00\x00\x00\xc8d\xc0'
p26
tp27
bsS'center_target_pixels'
p28
(I1294
I761
tp29
sS'center_actual_pixels'
p30
(I1376
I723
tp31
s.