(dp0
S'actual_pos'
p1
(lp2
F0.07261141853572836
aF0.019820671452590352
aF-0.1707198810574768
asS'actual_rot'
p3
(lp4
F-46.755963719746354
aF-2.0897450600213054
aF-165.10551049879933
asS'target_pos'
p5
(lp6
F0.07288967072963715
aF0.01958262175321579
aF-0.17133960127830505
asS'target_rot'
p7
(lp8
F-45.0
aF2.5
aF-168.75
asS'center_target_pixels'
p9
(I700
I116
tp10
sS'center_actual_pixels'
p11
(I721
I103
tp12
s.(dp0
S'actual_pos'
p1
(lp2
F0.058778380736578234
aF0.017807621283782802
aF-0.1682989860498525
asS'actual_rot'
p3
(lp4
F-46.70863526349244
aF-2.6830579394714986
aF-165.86932757163217
asS'target_pos'
p5
(lp6
F0.05884941667318344
aF0.01793026551604271
aF-0.1684483289718628
asS'target_rot'
p7
(lp8
F-45.0
aF2.5
aF-168.75
asS'center_target_pixels'
p9
(I881
I127
tp10
sS'center_actual_pixels'
p11
(I874
I98
tp12
s.(dp0
S'actual_pos'
p1
(lp2
F0.04223978586149497
aF0.016609230051673952
aF-0.16761515316985146
asS'actual_rot'
p3
(lp4
F-46.10321955909605
aF-1.8778031735126348
aF-166.8912850877335
asS'target_pos'
p5
(lp6
F0.04240439087152481
aF0.016476446762681007
aF-0.1680406928062439
asS'target_rot'
p7
(lp8
F-45.0
aF2.5
aF-168.75
asS'center_target_pixels'
p9
(I1060
I137
tp10
sS'center_actual_pixels'
p11
(I1060
I118
tp12
s.(dp0
S'actual_pos'
p1
(lp2
F0.026459403910618223
aF0.01612335891029217
aF-0.16352666402527902
asS'actual_rot'
p3
(lp4
F-45.396595910481324
aF0.4411009087393505
aF-168.85979609181953
asS'target_pos'
p5
(lp6
F0.026689184829592705
aF0.015936490148305893
aF-0.16372206807136536
asS'target_rot'
p7
(lp8
F-45.0
aF2.5
aF-168.75
asS'center_target_pixels'
p9
(I1236
I148
tp10
sS'center_actual_pixels'
p11
(I1240
I127
tp12
s.(dp0
S'actual_pos'
p1
(lp2
F0.06594705182072318
aF0.025919490641341532
aF-0.16940252220586277
asS'actual_rot'
p3
(lp4
F-46.8941949115753
aF-2.329490277092315
aF-163.5855691505546
asS'target_pos'
p5
(lp6
F0.06607698649168015
aF0.026107635349035263
aF-0.1697419285774231
asS'target_rot'
p7
(lp8
F-45.0
aF2.5
aF-168.75
asS'center_target_pixels'
p9
(I787
I211
tp10
sS'center_actual_pixels'
p11
(I778
I183
tp12
s.(dp0
S'actual_pos'
p1
(lp2
F0.04947935496930811
aF0.02499471369473162
aF-0.16674043258768295
asS'actual_rot'
p3
(lp4
F-46.54776954054135
aF-2.24896177682458
aF-165.56229322231462
asS'target_pos'
p5
(lp6
F0.04966915398836136
aF0.025212708860635757
aF-0.16692346334457397
asS'target_rot'
p7
(lp8
F-45.0
aF2.5
aF-168.75
asS'center_target_pixels'
p9
(I966
I221
tp10
sS'center_actual_pixels'
p11
(I969
I192
tp12
s.(dp0
S'actual_pos'
p1
(lp2
F0.034055100745114225
aF0.023704538065410376
aF-0.16557787068220373
asS'actual_rot'
p3
(lp4
F-45.87852313630337
aF-0.9403869381553263
aF-167.78374948064328
asS'target_pos'
p5
(lp6
F0.03423236683011055
aF0.023796262219548225
aF-0.16576853394508362
asS'target_rot'
p7
(lp8
F-45.0
aF2.5
aF-168.75
asS'center_target_pixels'
p9
(I1144
I231
tp10
sS'center_actual_pixels'
p11
(I1140
I206
tp12
s.(dp0
S'actual_pos'
p1
(lp2
F0.01693234706521751
aF0.023093701603714104
aF-0.16505345855204923
asS'actual_rot'
p3
(lp4
F-45.02468504365592
aF2.470001356383056
aF-170.79992699360858
asS'target_pos'
p5
(lp6
F0.017408860847353935
aF0.022663459181785583
aF-0.16546541452407837
asS'target_rot'
p7
(lp8
F-45.0
aF2.5
aF-168.75
asS'center_target_pixels'
p9
(I1321
I241
tp10
sS'center_actual_pixels'
p11
(I1337
I232
tp12
s.(dp0
S'actual_pos'
p1
(lp2
F0.07145902942071877
aF0.03446699421940991
aF-0.16912996882653517
asS'actual_rot'
p3
(lp4
F-47.16537800903236
aF-2.222264502837613
aF-163.42406939207527
asS'target_pos'
p5
(lp6
F0.07173815369606018
aF0.03464125469326973
aF-0.1692834496498108
asS'target_rot'
p7
(lp8
F-45.0
aF2.5
aF-168.75
asS'center_target_pixels'
p9
(I692
I295
tp10
sS'center_actual_pixels'
p11
(I718
I266
tp12
s.(dp0
S'actual_pos'
p1
(lp2
F0.05740470891181614
aF0.03342375812762713
aF-0.16828579958176895
asS'actual_rot'
p3
(lp4
F-46.82784069293883
aF-2.1934037223286773
aF-164.76186590128628
asS'target_pos'
p5
(lp6
F0.057611994445323944
aF0.033554308116436005
aF-0.16857053339481354
asS'target_rot'
p7
(lp8
F-45.0
aF2.5
aF-168.75
asS'center_target_pixels'
p9
(I872
I306
tp10
sS'center_actual_pixels'
p11
(I875
I276
tp12
s.(dp0
S'actual_pos'
p1
(lp2
F0.040457714085325724
aF0.03187785576067314
aF-0.16650212656043606
asS'actual_rot'
p3
(lp4
F-46.28053100874225
aF-1.5848622523661038
aF-166.8921982003477
asS'target_pos'
p5
(lp6
F0.04050283879041672
aF0.03211923688650131
aF-0.16669920086860657
asS'target_rot'
p7
(lp8
F-45.0
aF2.5
aF-168.75
asS'center_target_pixels'
p9
(I1052
I315
tp10
sS'center_actual_pixels'
p11
(I1060
I284
tp12
s.(dp0
S'actual_pos'
p1
(lp2
F0.024832698843914695
aF0.03096201976669061
aF-0.16418832286176063
asS'actual_rot'
p3
(lp4
F-45.36947436508405
aF1.0825879136522913
aF-169.07048582839593
asS'target_pos'
p5
(lp6
F0.02512872964143753
aF0.030802149325609207
aF-0.16443338990211487
asS'target_rot'
p7
(lp8
F-45.0
aF2.5
aF-168.75
asS'center_target_pixels'
p9
(I1228
I324
tp10
sS'center_actual_pixels'
p11
(I1242
I298
tp12
s.(dp0
S'actual_pos'
p1
(lp2
F0.009465836966266848
aF0.030338844452294747
aF-0.16272825400363441
asS'actual_rot'
p3
(lp4
F-44.85642743998097
aF3.468308545425111
aF-172.77318148732368
asS'target_pos'
p5
(lp6
F0.009918109513819218
aF0.030082501471042633
aF-0.16286449134349823
asS'target_rot'
p7
(lp8
F-45.0
aF2.5
aF-168.75
asS'center_target_pixels'
p9
(I1403
I333
tp10
sS'center_actual_pixels'
p11
(I1413
I316
tp12
s.(dp0
S'actual_pos'
p1
(lp2
F0.06540107246053509
aF0.04150251894464766
aF-0.16913154916316206
asS'actual_rot'
p3
(lp4
F-47.078247290075794
aF-2.0227708390912627
aF-163.46950791478065
asS'target_pos'
p5
(lp6
F0.06568312644958496
aF0.04151969775557518
aF-0.1695592701435089
asS'target_rot'
p7
(lp8
F-45.0
aF2.5
aF-168.75
asS'center_target_pixels'
p9
(I778
I390
tp10
sS'center_actual_pixels'
p11
(I769
I367
tp12
s.(dp0
S'actual_pos'
p1
(lp2
F0.048365058741684286
aF0.04003509339042945
aF-0.16722922691176562
asS'actual_rot'
p3
(lp4
F-46.60409863701138
aF-1.6557144019705896
aF-165.3736416484386
asS'target_pos'
p5
(lp6
F0.04856034368276596
aF0.040077004581689835
aF-0.16750484704971313
asS'target_rot'
p7
(lp8
F-45.0
aF2.5
aF-168.75
asS'center_target_pixels'
p9
(I958
I399
tp10
sS'center_actual_pixels'
p11
(I966
I369
tp12
s.(dp0
S'actual_pos'
p1
(lp2
F0.03259637869390074
aF0.038645062456578345
aF-0.16569997990785
asS'actual_rot'
p3
(lp4
F-45.86216394844297
aF-0.22105939311282768
aF-167.89794676842396
asS'target_pos'
p5
(lp6
F0.0328650176525116
aF0.03850513696670532
aF-0.16597135365009308
asS'target_rot'
p7
(lp8
F-45.0
aF2.5
aF-168.75
asS'center_target_pixels'
p9
(I1136
I408
tp10
sS'center_actual_pixels'
p11
(I1141
I379
tp12
s.(dp0
S'actual_pos'
p1
(lp2
F0.015770088016358225
aF0.03813616413575911
aF-0.163631259239328
asS'actual_rot'
p3
(lp4
F-44.98632353971755
aF2.6811403262306657
aF-171.22390119291907
asS'target_pos'
p5
(lp6
F0.01617383025586605
aF0.03787025064229965
aF-0.16390317678451538
asS'target_rot'
p7
(lp8
F-45.0
aF2.5
aF-168.75
asS'center_target_pixels'
p9
(I1312
I416
tp10
sS'center_actual_pixels'
p11
(I1329
I394
tp12
s.(dp0
S'actual_pos'
p1
(lp2
F0.07270383283482944
aF0.05025954750934508
aF-0.16953942021418844
asS'actual_rot'
p3
(lp4
F-47.40942155435563
aF-2.053253634534524
aF-163.18364894114148
asS'target_pos'
p5
(lp6
F0.07303734868764877
aF0.050380807369947433
aF-0.1698833405971527
asS'target_rot'
p7
(lp8
F-45.0
aF2.5
aF-168.75
asS'center_target_pixels'
p9
(I683
I474
tp10
sS'center_actual_pixels'
p11
(I684
I445
tp12
s.(dp0
S'actual_pos'
p1
(lp2
F0.05629578479216359
aF0.04816822656113157
aF-0.16821550964154913
asS'actual_rot'
p3
(lp4
F-46.868542346094394
aF-1.6726913748847896
aF-164.48537062039438
asS'target_pos'
p5
(lp6
F0.05652298778295517
aF0.04827220365405083
aF-0.16862261295318604
asS'target_rot'
p7
(lp8
F-45.0
aF2.5
aF-168.75
asS'center_target_pixels'
p9
(I864
I483
tp10
sS'center_actual_pixels'
p11
(I861
I452
tp12
s.(dp0
S'actual_pos'
p1
(lp2
F0.03949298622444062
aF0.04714605433030325
aF-0.16605350322885376
asS'actual_rot'
p3
(lp4
F-46.22371584359576
aF-0.6745551566463829
aF-166.6183896309567
asS'target_pos'
p5
(lp6
F0.039784468710422516
aF0.047170281410217285
aF-0.1662958860397339
asS'target_rot'
p7
(lp8
F-45.0
aF2.5
aF-168.75
asS'center_target_pixels'
p9
(I1043
I491
tp10
sS'center_actual_pixels'
p11
(I1052
I456
tp12
s.(dp0
S'actual_pos'
p1
(lp2
F0.02437778810264326
aF0.04602974960613177
aF-0.16452350252061765
asS'actual_rot'
p3
(lp4
F-45.21288360185108
aF1.9336038464209568
aF-168.97490558841454
asS'target_pos'
p5
(lp6
F0.024782339110970497
aF0.04576411843299866
aF-0.1647932529449463
asS'target_rot'
p7
(lp8
F-45.0
aF2.5
aF-168.75
asS'center_target_pixels'
p9
(I1219
I500
tp10
sS'center_actual_pixels'
p11
(I1221
I467
tp12
s.(dp0
S'actual_pos'
p1
(lp2
F0.007031652178638256
aF0.046493908451977095
aF-0.16197587624455956
asS'actual_rot'
p3
(lp4
F-44.47763522741385
aF4.887781515962167
aF-172.8215502397886
asS'target_pos'
p5
(lp6
F0.007738825865089893
aF0.04596126079559326
aF-0.16233786940574646
asS'target_rot'
p7
(lp8
F-45.0
aF2.5
aF-168.75
asS'center_target_pixels'
p9
(I1396
I507
tp10
sS'center_actual_pixels'
p11
(I1416
I494
tp12
s.(dp0
S'actual_pos'
p1
(lp2
F0.06337153022041704
aF0.05716663281441333
aF-0.16912286596610146
asS'actual_rot'
p3
(lp4
F-47.18567051699733
aF-1.7116019672045257
aF-163.60755881457212
asS'target_pos'
p5
(lp6
F0.06358728557825089
aF0.05750906467437744
aF-0.16957134008407593
asS'target_rot'
p7
(lp8
F-45.0
aF2.5
aF-168.75
asS'center_target_pixels'
p9
(I770
I567
tp10
sS'center_actual_pixels'
p11
(I765
I540
tp12
s.(dp0
S'actual_pos'
p1
(lp2
F0.04708268213052967
aF0.05562894718285501
aF-0.16673189620241985
asS'actual_rot'
p3
(lp4
F-46.60609123359457
aF-1.0460606839233035
aF-165.0916001091085
asS'target_pos'
p5
(lp6
F0.047325119376182556
aF0.05596928671002388
aF-0.16693921387195587
asS'target_rot'
p7
(lp8
F-45.0
aF2.5
aF-168.75
asS'center_target_pixels'
p9
(I949
I575
tp10
sS'center_actual_pixels'
p11
(I952
I544
tp12
s.(dp0
S'actual_pos'
p1
(lp2
F0.03164517280967893
aF0.054763415620695345
aF-0.16438129211587713
asS'actual_rot'
p3
(lp4
F-45.60230437533591
aF0.9220735827807882
aF-167.6058008994384
asS'target_pos'
p5
(lp6
F0.03188936039805412
aF0.05489574745297432
aF-0.16459761559963226
asS'target_rot'
p7
(lp8
F-45.0
aF2.5
aF-168.75
asS'center_target_pixels'
p9
(I1127
I583
tp10
sS'center_actual_pixels'
p11
(I1129
I553
tp12
s.(dp0
S'actual_pos'
p1
(lp2
F0.014084461050732286
aF0.05362466537652443
aF-0.16173793072904227
asS'actual_rot'
p3
(lp4
F-44.61586111106379
aF3.933704224447471
aF-171.05718399660856
asS'target_pos'
p5
(lp6
F0.014715499244630337
aF0.05336230620741844
aF-0.16203591227531433
asS'target_rot'
p7
(lp8
F-45.0
aF2.5
aF-168.75
asS'center_target_pixels'
p9
(I1303
I591
tp10
sS'center_actual_pixels'
p11
(I1327
I570
tp12
s.(dp0
S'actual_pos'
p1
(lp2
F0.07049001628835931
aF0.06615935100071169
aF-0.16906451562024033
asS'actual_rot'
p3
(lp4
F-47.63426861603914
aF-1.9563336277341896
aF-163.2277603243211
asS'target_pos'
p5
(lp6
F0.07075510919094086
aF0.06674231588840485
aF-0.16928209364414215
asS'target_rot'
p7
(lp8
F-45.0
aF2.5
aF-168.75
asS'center_target_pixels'
p9
(I674
I652
tp10
sS'center_actual_pixels'
p11
(I680
I624
tp12
s.(dp0
S'actual_pos'
p1
(lp2
F0.05422858395779313
aF0.06473400272521154
aF-0.16657994160390274
asS'actual_rot'
p3
(lp4
F-46.94322635685679
aF-1.2299073224771961
aF-164.14309061495385
asS'target_pos'
p5
(lp6
F0.05448193848133087
aF0.06523828208446503
aF-0.1666886955499649
asS'target_rot'
p7
(lp8
F-45.0
aF2.5
aF-168.75
asS'center_target_pixels'
p9
(I855
I660
tp10
sS'center_actual_pixels'
p11
(I860
I632
tp12
s.(dp0
S'actual_pos'
p1
(lp2
F0.038359956445611874
aF0.06330783934253378
aF-0.16535037396727567
asS'actual_rot'
p3
(lp4
F-45.940745385085485
aF0.4602301603883255
aF-166.0056742739521
asS'target_pos'
p5
(lp6
F0.03870042413473129
aF0.06354264169931412
aF-0.16550254821777344
asS'target_rot'
p7
(lp8
F-45.0
aF2.5
aF-168.75
asS'center_target_pixels'
p9
(I1035
I667
tp10
sS'center_actual_pixels'
p11
(I1038
I640
tp12
s.(dp0
S'actual_pos'
p1
(lp2
F0.022704085352969725
aF0.06253650610587078
aF-0.16383825254080556
asS'actual_rot'
p3
(lp4
F-44.99132400431168
aF2.631141612531649
aF-168.86071210279266
asS'target_pos'
p5
(lp6
F0.023147623986005783
aF0.06252913922071457
aF-0.1639958620071411
asS'target_rot'
p7
(lp8
F-45.0
aF2.5
aF-168.75
asS'center_target_pixels'
p9
(I1211
I675
tp10
sS'center_actual_pixels'
p11
(I1220
I655
tp12
s.(dp0
S'actual_pos'
p1
(lp2
F0.006058156354085057
aF0.062452711820660874
aF-0.15966479908229944
asS'actual_rot'
p3
(lp4
F-43.969211117049944
aF6.085428139138886
aF-172.21929719529646
asS'target_pos'
p5
(lp6
F0.0069054001942276955
aF0.062126144766807556
aF-0.1598772555589676
asS'target_rot'
p7
(lp8
F-45.0
aF2.5
aF-168.75
asS'center_target_pixels'
p9
(I1387
I682
tp10
sS'center_actual_pixels'
p11
(I1407
I673
tp12
s.(dp0
S'actual_pos'
p1
(lp2
F0.06146309291753751
aF0.07307566019180294
aF-0.16752348172224837
asS'actual_rot'
p3
(lp4
F-47.4649152060191
aF-1.6882042450025392
aF-163.41791320000783
asS'target_pos'
p5
(lp6
F0.0615667998790741
aF0.07430294901132584
aF-0.1673743575811386
asS'target_rot'
p7
(lp8
F-45.0
aF2.5
aF-168.75
asS'center_target_pixels'
p9
(I761
I746
tp10
sS'center_actual_pixels'
p11
(I772
I712
tp12
s.(dp0
S'actual_pos'
p1
(lp2
F0.04533107880320242
aF0.07117518017476533
aF-0.16665123028467574
asS'actual_rot'
p3
(lp4
F-46.49495860034585
aF-0.42765788167395075
aF-165.0329722596683
asS'target_pos'
p5
(lp6
F0.04550076648592949
aF0.07240623235702515
aF-0.16651198267936707
asS'target_rot'
p7
(lp8
F-45.0
aF2.5
aF-168.75
asS'center_target_pixels'
p9
(I941
I752
tp10
sS'center_actual_pixels'
p11
(I956
I724
tp12
s.(dp0
S'actual_pos'
p1
(lp2
F0.02961423827925687
aF0.07000582029813597
aF-0.1655268230361736
asS'actual_rot'
p3
(lp4
F-45.24647431250475
aF1.9768856358688223
aF-167.41904879792054
asS'target_pos'
p5
(lp6
F0.03009302169084549
aF0.07099495828151703
aF-0.16555991768836975
asS'target_rot'
p7
(lp8
F-45.0
aF2.5
aF-168.75
asS'center_target_pixels'
p9
(I1119
I759
tp10
sS'center_actual_pixels'
p11
(I1129
I731
tp12
s.(dp0
S'actual_pos'
p1
(lp2
F0.012331252649902546
aF0.069195163594439
aF-0.16201280118178626
asS'actual_rot'
p3
(lp4
F-43.966649651687774
aF5.3866286519518445
aF-170.30465868440402
asS'target_pos'
p5
(lp6
F0.013025368563830853
aF0.06968145072460175
aF-0.16186897456645966
asS'target_rot'
p7
(lp8
F-45.0
aF2.5
aF-168.75
asS'center_target_pixels'
p9
(I1295
I766
tp10
sS'center_actual_pixels'
p11
(I1325
I751
tp12
s.