(dp0
S'actual_pos'
p1
(cnumpy.core.multiarray
_reconstruct
p2
(cnumpy.matrixlib.defmatrix
matrix
p3
(I0
tp4
S'b'
p5
tp6
Rp7
(I1
(I1
I1
tp8
cnumpy
dtype
p9
(S'f8'
p10
I0
I1
tp11
Rp12
(I3
S'<'
p13
NNNI-1
I-1
I0
tp14
bI00
S'\x8f\xa5\xe3\x1ax\x0f\xb0?'
p15
tp16
bg2
(g3
(I0
tp17
g5
tp18
Rp19
(I1
(I1
I1
tp20
g12
I00
S'vs\xf5s\xec&\x91?'
p21
tp22
bg2
(g3
(I0
tp23
g5
tp24
Rp25
(I1
(I1
I1
tp26
g12
I00
S'\xda\x19l\x07Nc\xc5\xbf'
p27
tp28
btp29
sS'actual_rot'
p30
(F-0.23091193797720017
F-12.203416953439843
F-171.55367187013024
tp31
sS'target_pos'
p32
(lp33
cnumpy.core.multiarray
scalar
p34
(g12
S'\x91\x1f\x98\x04@:\xb0?'
p35
tp36
Rp37
ag34
(g12
S'N[(\x0e\x00\x80\x90?'
p38
tp39
Rp40
ag34
(g12
S'\x9dR%Swj\xc5\xbf'
p41
tp42
Rp43
asS'target_rot'
p44
g2
(cnumpy
ndarray
p45
(I0
tp46
g5
tp47
Rp48
(I1
(I3
tp49
g12
I00
S'~\x98\t\xee@\xf3\xc4\xbf>\x9eN\x87\x0f"\'\xc0\xf0\x89\xf5\xf2\xb9\x1fe\xc0'
p50
tp51
bsS'center_target_pixels'
p52
(I800
I94
tp53
sS'center_actual_pixels'
p54
(I806
I96
tp55
s.(dp0
S'actual_pos'
p1
(cnumpy.core.multiarray
_reconstruct
p2
(cnumpy.matrixlib.defmatrix
matrix
p3
(I0
tp4
S'b'
p5
tp6
Rp7
(I1
(I1
I1
tp8
cnumpy
dtype
p9
(S'f8'
p10
I0
I1
tp11
Rp12
(I3
S'<'
p13
NNNI-1
I-1
I0
tp14
bI00
S'\xfb#\xdfv\xc8<\xa8?'
p15
tp16
bg2
(g3
(I0
tp17
g5
tp18
Rp19
(I1
(I1
I1
tp20
g12
I00
S'\x96\xdb\xc5\x90\xf7\xfd\x8e?'
p21
tp22
bg2
(g3
(I0
tp23
g5
tp24
Rp25
(I1
(I1
I1
tp26
g12
I00
S'\xe85j\x16\x00)\xc5\xbf'
p27
tp28
btp29
sS'actual_rot'
p30
(F-0.08090910084008915
F-10.626790083118234
F-172.72949087281162
tp31
sS'target_pos'
p32
(lp33
cnumpy.core.multiarray
scalar
p34
(g12
S'8\xf4m\xd8f\xa3\xa8?'
p35
tp36
Rp37
ag34
(g12
S'\xe1E\xdbE\xf3\xac\x8d?'
p38
tp39
Rp40
ag34
(g12
S'X\x8f\xe1\x80T.\xc5\xbf'
p41
tp42
Rp43
asS'target_rot'
p44
g2
(cnumpy
ndarray
p45
(I0
tp46
g5
tp47
Rp48
(I1
(I3
tp49
g12
I00
S'~\x98\t\xee@\xf3\xc4\xbf>\x9eN\x87\x0f"\'\xc0\xf0\x89\xf5\xf2\xb9\x1fe\xc0'
p50
tp51
bsS'center_target_pixels'
p52
(I979
I106
tp53
sS'center_actual_pixels'
p54
(I984
I107
tp55
s.(dp0
S'actual_pos'
p1
(cnumpy.core.multiarray
_reconstruct
p2
(cnumpy.matrixlib.defmatrix
matrix
p3
(I0
tp4
S'b'
p5
tp6
Rp7
(I1
(I1
I1
tp8
cnumpy
dtype
p9
(S'f8'
p10
I0
I1
tp11
Rp12
(I3
S'<'
p13
NNNI-1
I-1
I0
tp14
bI00
S'\xdd\xb5\xaag\xbcK\xa0?'
p15
tp16
bg2
(g3
(I0
tp17
g5
tp18
Rp19
(I1
(I1
I1
tp20
g12
I00
S'\x94z\xe4\xb8\x95%\x8c?'
p21
tp22
bg2
(g3
(I0
tp23
g5
tp24
Rp25
(I1
(I1
I1
tp26
g12
I00
S'\x81\xadK\x19C\xee\xc4\xbf'
p27
tp28
btp29
sS'actual_rot'
p30
(F0.15625906286823488
F-7.588170071612528
F-173.29001994511282
tp31
sS'target_pos'
p32
(lp33
cnumpy.core.multiarray
scalar
p34
(g12
S'\xbdv\xd58\x12\xe2\xa0?'
p35
tp36
Rp37
ag34
(g12
S'X\x15\x81`-\xeb\x8a?'
p38
tp39
Rp40
ag34
(g12
S';\xb9\xc3\x08\x7f\xf1\xc4\xbf'
p41
tp42
Rp43
asS'target_rot'
p44
g2
(cnumpy
ndarray
p45
(I0
tp46
g5
tp47
Rp48
(I1
(I3
tp49
g12
I00
S'~\x98\t\xee@\xf3\xc4\xbf>\x9eN\x87\x0f"\'\xc0\xf0\x89\xf5\xf2\xb9\x1fe\xc0'
p50
tp51
bsS'center_target_pixels'
p52
(I1156
I117
tp53
sS'center_actual_pixels'
p54
(I1162
I117
tp55
s.(dp0
S'actual_pos'
p1
(cnumpy.core.multiarray
_reconstruct
p2
(cnumpy.matrixlib.defmatrix
matrix
p3
(I0
tp4
S'b'
p5
tp6
Rp7
(I1
(I1
I1
tp8
cnumpy
dtype
p9
(S'f8'
p10
I0
I1
tp11
Rp12
(I3
S'<'
p13
NNNI-1
I-1
I0
tp14
bI00
S'\xfcT\x03\xaa\xaez\x90?'
p15
tp16
bg2
(g3
(I0
tp17
g5
tp18
Rp19
(I1
(I1
I1
tp20
g12
I00
S'\xf9\xc7-\x83\xe5\x01\x8a?'
p21
tp22
bg2
(g3
(I0
tp23
g5
tp24
Rp25
(I1
(I1
I1
tp26
g12
I00
S'\xbd\x18\xc1\x1c\xf9\xae\xc4\xbf'
p27
tp28
btp29
sS'actual_rot'
p30
(F0.2671521093761064
F-5.68611383731182
F-173.58420008920663
tp31
sS'target_pos'
p32
(lp33
cnumpy.core.multiarray
scalar
p34
(g12
S'\x88\x17\xc1\xfe\xd5\xec\x91?'
p35
tp36
Rp37
ag34
(g12
S'.F60\xda\x97\x88?'
p38
tp39
Rp40
ag34
(g12
S'\x84\xe3\t\xb3\x91\xb3\xc4\xbf'
p41
tp42
Rp43
asS'target_rot'
p44
g2
(cnumpy
ndarray
p45
(I0
tp46
g5
tp47
Rp48
(I1
(I3
tp49
g12
I00
S'~\x98\t\xee@\xf3\xc4\xbf>\x9eN\x87\x0f"\'\xc0\xf0\x89\xf5\xf2\xb9\x1fe\xc0'
p50
tp51
bsS'center_target_pixels'
p52
(I1332
I129
tp53
sS'center_actual_pixels'
p54
(I1337
I131
tp55
s.(dp0
S'actual_pos'
p1
(cnumpy.core.multiarray
_reconstruct
p2
(cnumpy.matrixlib.defmatrix
matrix
p3
(I0
tp4
S'b'
p5
tp6
Rp7
(I1
(I1
I1
tp8
cnumpy
dtype
p9
(S'f8'
p10
I0
I1
tp11
Rp12
(I3
S'<'
p13
NNNI-1
I-1
I0
tp14
bI00
S'\xb8b.\x04\xfd\x00\xb2?'
p15
tp16
bg2
(g3
(I0
tp17
g5
tp18
Rp19
(I1
(I1
I1
tp20
g12
I00
S'\x00\xb2\xf7#\xbcm\x99?'
p21
tp22
bg2
(g3
(I0
tp23
g5
tp24
Rp25
(I1
(I1
I1
tp26
g12
I00
S'\xf3\xbb\xc5\x97\xa2|\xc5\xbf'
p27
tp28
btp29
sS'actual_rot'
p30
(F-0.7746018536317564
F-15.822027036946126
F-168.07087567910588
tp31
sS'target_pos'
p32
(lp33
cnumpy.core.multiarray
scalar
p34
(g12
S'\x04<y\xaeB\x07\xb2?'
p35
tp36
Rp37
ag34
(g12
S'7_\xfaD\xda\x06\x99?'
p38
tp39
Rp40
ag34
(g12
S'\xdf\x1d\xa0\x12\x80\x86\xc5\xbf'
p41
tp42
Rp43
asS'target_rot'
p44
g2
(cnumpy
ndarray
p45
(I0
tp46
g5
tp47
Rp48
(I1
(I3
tp49
g12
I00
S'~\x98\t\xee@\xf3\xc4\xbf>\x9eN\x87\x0f"\'\xc0\xf0\x89\xf5\xf2\xb9\x1fe\xc0'
p50
tp51
bsS'center_target_pixels'
p52
(I705
I178
tp53
sS'center_actual_pixels'
p54
(I708
I180
tp55
s.(dp0
S'actual_pos'
p1
(cnumpy.core.multiarray
_reconstruct
p2
(cnumpy.matrixlib.defmatrix
matrix
p3
(I0
tp4
S'b'
p5
tp6
Rp7
(I1
(I1
I1
tp8
cnumpy
dtype
p9
(S'f8'
p10
I0
I1
tp11
Rp12
(I3
S'<'
p13
NNNI-1
I-1
I0
tp14
bI00
S'\xa0\xc7\x0b\xaf\xe4\xf4\xab?'
p15
tp16
bg2
(g3
(I0
tp17
g5
tp18
Rp19
(I1
(I1
I1
tp20
g12
I00
S'\xcebY\x86\xd0\xd7\x97?'
p21
tp22
bg2
(g3
(I0
tp23
g5
tp24
Rp25
(I1
(I1
I1
tp26
g12
I00
S'\x7f\xfaTb\x99C\xc5\xbf'
p27
tp28
btp29
sS'actual_rot'
p30
(F-0.3639319536827101
F-12.806005448969227
F-169.7855164045109
tp31
sS'target_pos'
p32
(lp33
cnumpy.core.multiarray
scalar
p34
(g12
S']\x1aa,}:\xac?'
p35
tp36
Rp37
ag34
(g12
S'\x13E\x074\xfd^\x97?'
p38
tp39
Rp40
ag34
(g12
S'\xb0Pj\xd3\xf7J\xc5\xbf'
p41
tp42
Rp43
asS'target_rot'
p44
g2
(cnumpy
ndarray
p45
(I0
tp46
g5
tp47
Rp48
(I1
(I3
tp49
g12
I00
S'~\x98\t\xee@\xf3\xc4\xbf>\x9eN\x87\x0f"\'\xc0\xf0\x89\xf5\xf2\xb9\x1fe\xc0'
p50
tp51
bsS'center_target_pixels'
p52
(I885
I189
tp53
sS'center_actual_pixels'
p54
(I888
I189
tp55
s.(dp0
S'actual_pos'
p1
(cnumpy.core.multiarray
_reconstruct
p2
(cnumpy.matrixlib.defmatrix
matrix
p3
(I0
tp4
S'b'
p5
tp6
Rp7
(I1
(I1
I1
tp8
cnumpy
dtype
p9
(S'f8'
p10
I0
I1
tp11
Rp12
(I3
S'<'
p13
NNNI-1
I-1
I0
tp14
bI00
S'j\x91;\x93\xf2\xff\xa3?'
p15
tp16
bg2
(g3
(I0
tp17
g5
tp18
Rp19
(I1
(I1
I1
tp20
g12
I00
S'\xe0\xc3\xcd[is\x96?'
p21
tp22
bg2
(g3
(I0
tp23
g5
tp24
Rp25
(I1
(I1
I1
tp26
g12
I00
S'}\t\x00\xb7\xb3\t\xc5\xbf'
p27
tp28
btp29
sS'actual_rot'
p30
(F-0.004722296109918867
F-10.140386999740798
F-171.14511197482094
tp31
sS'target_pos'
p32
(lp33
cnumpy.core.multiarray
scalar
p34
(g12
S'\x9e\x91\xce\x14\xa1p\xa4?'
p35
tp36
Rp37
ag34
(g12
S'Ju9\xf3\x82\x04\x96?'
p38
tp39
Rp40
ag34
(g12
S'm\x0c\xa6\x06\xa8\x0e\xc5\xbf'
p41
tp42
Rp43
asS'target_rot'
p44
g2
(cnumpy
ndarray
p45
(I0
tp46
g5
tp47
Rp48
(I1
(I3
tp49
g12
I00
S'~\x98\t\xee@\xf3\xc4\xbf>\x9eN\x87\x0f"\'\xc0\xf0\x89\xf5\xf2\xb9\x1fe\xc0'
p50
tp51
bsS'center_target_pixels'
p52
(I1063
I201
tp53
sS'center_actual_pixels'
p54
(I1064
I202
tp55
s.(dp0
S'actual_pos'
p1
(cnumpy.core.multiarray
_reconstruct
p2
(cnumpy.matrixlib.defmatrix
matrix
p3
(I0
tp4
S'b'
p5
tp6
Rp7
(I1
(I1
I1
tp8
cnumpy
dtype
p9
(S'f8'
p10
I0
I1
tp11
Rp12
(I3
S'<'
p13
NNNI-1
I-1
I0
tp14
bI00
S'\xd1{e*\x0c\x13\x98?'
p15
tp16
bg2
(g3
(I0
tp17
g5
tp18
Rp19
(I1
(I1
I1
tp20
g12
I00
S'$Mb/\xf0\xfa\x94?'
p21
tp22
bg2
(g3
(I0
tp23
g5
tp24
Rp25
(I1
(I1
I1
tp26
g12
I00
S'\xe2s\x03 }\xcd\xc4\xbf'
p27
tp28
btp29
sS'actual_rot'
p30
(F0.36906998441481326
F-7.113922184374231
F-172.22432392528697
tp31
sS'target_pos'
p32
(lp33
cnumpy.core.multiarray
scalar
p34
(g12
S'\xae\xa4[\x01\x1cA\x99?'
p35
tp36
Rp37
ag34
(g12
S'\x91\x1e;\x9f\xa2\x9b\x94?'
p38
tp39
Rp40
ag34
(g12
S'iJN\x16W\xd1\xc4\xbf'
p41
tp42
Rp43
asS'target_rot'
p44
g2
(cnumpy
ndarray
p45
(I0
tp46
g5
tp47
Rp48
(I1
(I3
tp49
g12
I00
S'~\x98\t\xee@\xf3\xc4\xbf>\x9eN\x87\x0f"\'\xc0\xf0\x89\xf5\xf2\xb9\x1fe\xc0'
p50
tp51
bsS'center_target_pixels'
p52
(I1240
I211
tp53
sS'center_actual_pixels'
p54
(I1248
I208
tp55
s.(dp0
S'actual_pos'
p1
(cnumpy.core.multiarray
_reconstruct
p2
(cnumpy.matrixlib.defmatrix
matrix
p3
(I0
tp4
S'b'
p5
tp6
Rp7
(I1
(I1
I1
tp8
cnumpy
dtype
p9
(S'f8'
p10
I0
I1
tp11
Rp12
(I3
S'<'
p13
NNNI-1
I-1
I0
tp14
bI00
S'\xe1\x9ciZ\x1b\x15\x81?'
p15
tp16
bg2
(g3
(I0
tp17
g5
tp18
Rp19
(I1
(I1
I1
tp20
g12
I00
S'\xc8:\xbd\x01\xb4\xfd\x93?'
p21
tp22
bg2
(g3
(I0
tp23
g5
tp24
Rp25
(I1
(I1
I1
tp26
g12
I00
S"\xc9\xe8\x8a'\x89\x90\xc4\xbf"
p27
tp28
btp29
sS'actual_rot'
p30
(F0.5148701339249403
F-5.766048352509554
F-172.83146486240798
tp31
sS'target_pos'
p32
(lp33
cnumpy.core.multiarray
scalar
p34
(g12
S'\xfc\xc1\xe8-\x05\xc2\x83?'
p35
tp36
Rp37
ag34
(g12
S'\xc7z)"Q\xb9\x93?'
p38
tp39
Rp40
ag34
(g12
S'\x85\x7f\x96kF\x93\xc4\xbf'
p41
tp42
Rp43
asS'target_rot'
p44
g2
(cnumpy
ndarray
p45
(I0
tp46
g5
tp47
Rp48
(I1
(I3
tp49
g12
I00
S'~\x98\t\xee@\xf3\xc4\xbf>\x9eN\x87\x0f"\'\xc0\xf0\x89\xf5\xf2\xb9\x1fe\xc0'
p50
tp51
bsS'center_target_pixels'
p52
(I1415
I222
tp53
sS'center_actual_pixels'
p54
(I1416
I222
tp55
s.(dp0
S'actual_pos'
p1
(cnumpy.core.multiarray
_reconstruct
p2
(cnumpy.matrixlib.defmatrix
matrix
p3
(I0
tp4
S'b'
p5
tp6
Rp7
(I1
(I1
I1
tp8
cnumpy
dtype
p9
(S'f8'
p10
I0
I1
tp11
Rp12
(I3
S'<'
p13
NNNI-1
I-1
I0
tp14
bI00
S')J\xa7\x11\x01\xcc\xaf?'
p15
tp16
bg2
(g3
(I0
tp17
g5
tp18
Rp19
(I1
(I1
I1
tp20
g12
I00
S'\x87\xda\xd3}rC\xa0?'
p21
tp22
bg2
(g3
(I0
tp23
g5
tp24
Rp25
(I1
(I1
I1
tp26
g12
I00
S'\xe2\x0b*v;]\xc5\xbf'
p27
tp28
btp29
sS'actual_rot'
p30
(F-0.9578598281833638
F-15.717641756885993
F-167.30778872426254
tp31
sS'target_pos'
p32
(lp33
cnumpy.core.multiarray
scalar
p34
(g12
S'a\xec\xf7\xebd\xdc\xaf?'
p35
tp36
Rp37
ag34
(g12
S'\xc0\xc5]\x1f\xfa\x04\xa0?'
p38
tp39
Rp40
ag34
(g12
S'\x03\x19\x86VKg\xc5\xbf'
p41
tp42
Rp43
asS'target_rot'
p44
g2
(cnumpy
ndarray
p45
(I0
tp46
g5
tp47
Rp48
(I1
(I3
tp49
g12
I00
S'~\x98\t\xee@\xf3\xc4\xbf>\x9eN\x87\x0f"\'\xc0\xf0\x89\xf5\xf2\xb9\x1fe\xc0'
p50
tp51
bsS'center_target_pixels'
p52
(I790
I272
tp53
sS'center_actual_pixels'
p54
(I787
I275
tp55
s.(dp0
S'actual_pos'
p1
(cnumpy.core.multiarray
_reconstruct
p2
(cnumpy.matrixlib.defmatrix
matrix
p3
(I0
tp4
S'b'
p5
tp6
Rp7
(I1
(I1
I1
tp8
cnumpy
dtype
p9
(S'f8'
p10
I0
I1
tp11
Rp12
(I3
S'<'
p13
NNNI-1
I-1
I0
tp14
bI00
S'\xd1HQ\xa2M\xc6\xa7?'
p15
tp16
bg2
(g3
(I0
tp17
g5
tp18
Rp19
(I1
(I1
I1
tp20
g12
I00
S'R$\x916\x9f\xd9\x9e?'
p21
tp22
bg2
(g3
(I0
tp23
g5
tp24
Rp25
(I1
(I1
I1
tp26
g12
I00
S'p\xb7\xa2x>%\xc5\xbf'
p27
tp28
btp29
sS'actual_rot'
p30
(F-0.32361536061664214
F-12.276618957743848
F-168.80636007008098
tp31
sS'target_pos'
p32
(lp33
cnumpy.core.multiarray
scalar
p34
(g12
S'w\xb6\xfbJ\x9f\x05\xa8?'
p35
tp36
Rp37
ag34
(g12
S'\x90\x93[{\x8ar\x9e?'
p38
tp39
Rp40
ag34
(g12
S'w\xfc\xb9*\x8c+\xc5\xbf'
p41
tp42
Rp43
asS'target_rot'
p44
g2
(cnumpy
ndarray
p45
(I0
tp46
g5
tp47
Rp48
(I1
(I3
tp49
g12
I00
S'~\x98\t\xee@\xf3\xc4\xbf>\x9eN\x87\x0f"\'\xc0\xf0\x89\xf5\xf2\xb9\x1fe\xc0'
p50
tp51
bsS'center_target_pixels'
p52
(I969
I284
tp53
sS'center_actual_pixels'
p54
(I969
I281
tp55
s.(dp0
S'actual_pos'
p1
(cnumpy.core.multiarray
_reconstruct
p2
(cnumpy.matrixlib.defmatrix
matrix
p3
(I0
tp4
S'b'
p5
tp6
Rp7
(I1
(I1
I1
tp8
cnumpy
dtype
p9
(S'f8'
p10
I0
I1
tp11
Rp12
(I3
S'<'
p13
NNNI-1
I-1
I0
tp14
bI00
S';X\xeay\xff\xa6\x9f?'
p15
tp16
bg2
(g3
(I0
tp17
g5
tp18
Rp19
(I1
(I1
I1
tp20
g12
I00
S'\xa1\xb4^8\xf2\x93\x9d?'
p21
tp22
bg2
(g3
(I0
tp23
g5
tp24
Rp25
(I1
(I1
I1
tp26
g12
I00
S'\xd1\x03\xe1:\x18\xe9\xc4\xbf'
p27
tp28
btp29
sS'actual_rot'
p30
(F0.1671554303429591
F-9.555468371562498
F-170.28306858952158
tp31
sS'target_pos'
p32
(lp33
cnumpy.core.multiarray
scalar
p34
(g12
S'Sm?\xaa\x10I\xa0?'
p35
tp36
Rp37
ag34
(g12
S'\x0e\x81-^\x1d\x1f\x9d?'
p38
tp39
Rp40
ag34
(g12
S'\xcch#\xbf"\xef\xc4\xbf'
p41
tp42
Rp43
asS'target_rot'
p44
g2
(cnumpy
ndarray
p45
(I0
tp46
g5
tp47
Rp48
(I1
(I3
tp49
g12
I00
S'~\x98\t\xee@\xf3\xc4\xbf>\x9eN\x87\x0f"\'\xc0\xf0\x89\xf5\xf2\xb9\x1fe\xc0'
p50
tp51
bsS'center_target_pixels'
p52
(I1146
I294
tp53
sS'center_actual_pixels'
p54
(I1149
I293
tp55
s.(dp0
S'actual_pos'
p1
(cnumpy.core.multiarray
_reconstruct
p2
(cnumpy.matrixlib.defmatrix
matrix
p3
(I0
tp4
S'b'
p5
tp6
Rp7
(I1
(I1
I1
tp8
cnumpy
dtype
p9
(S'f8'
p10
I0
I1
tp11
Rp12
(I3
S'<'
p13
NNNI-1
I-1
I0
tp14
bI00
S'\x91\xb3\xb3\x0f\\\xb9\x8e?'
p15
tp16
bg2
(g3
(I0
tp17
g5
tp18
Rp19
(I1
(I1
I1
tp20
g12
I00
S'H\xcd\x1dQU<\x9c?'
p21
tp22
bg2
(g3
(I0
tp23
g5
tp24
Rp25
(I1
(I1
I1
tp26
g12
I00
S'\xe0\x9d\xdbk@\xab\xc4\xbf'
p27
tp28
btp29
sS'actual_rot'
p30
(F0.7078175891222263
F-6.282483470877982
F-171.05411648125548
tp31
sS'target_pos'
p32
(lp33
cnumpy.core.multiarray
scalar
p34
(g12
S'\x9c\xc6\x02\xa8e\xad\x90?'
p35
tp36
Rp37
ag34
(g12
S'k\x9cy\x03\xb6\xd8\x9b?'
p38
tp39
Rp40
ag34
(g12
S'\x86`&\xeaM\xb1\xc4\xbf'
p41
tp42
Rp43
asS'target_rot'
p44
g2
(cnumpy
ndarray
p45
(I0
tp46
g5
tp47
Rp48
(I1
(I3
tp49
g12
I00
S'~\x98\t\xee@\xf3\xc4\xbf>\x9eN\x87\x0f"\'\xc0\xf0\x89\xf5\xf2\xb9\x1fe\xc0'
p50
tp51
bsS'center_target_pixels'
p52
(I1323
I304
tp53
sS'center_actual_pixels'
p54
(I1328
I305
tp55
s.(dp0
S'actual_pos'
p1
(cnumpy.core.multiarray
_reconstruct
p2
(cnumpy.matrixlib.defmatrix
matrix
p3
(I0
tp4
S'b'
p5
tp6
Rp7
(I1
(I1
I1
tp8
cnumpy
dtype
p9
(S'f8'
p10
I0
I1
tp11
Rp12
(I3
S'<'
p13
NNNI-1
I-1
I0
tp14
bI00
S'\xccf|\x05\xb2\xb6\xb1?'
p15
tp16
bg2
(g3
(I0
tp17
g5
tp18
Rp19
(I1
(I1
I1
tp20
g12
I00
S'\xad\x8b\xea\t\xf3\x91\xa4?'
p21
tp22
bg2
(g3
(I0
tp23
g5
tp24
Rp25
(I1
(I1
I1
tp26
g12
I00
S'J\xfa\x01!Mu\xc5\xbf'
p27
tp28
btp29
sS'actual_rot'
p30
(F-1.2540697403944203
F-16.1678405445608
F-165.64071492846242
tp31
sS'target_pos'
p32
(lp33
cnumpy.core.multiarray
scalar
p34
(g12
S'/\xbc\x97\x83\xf2\xba\xb1?'
p35
tp36
Rp37
ag34
(g12
S'\xb2/\xc9\x10TF\xa4?'
p38
tp39
Rp40
ag34
(g12
S'\xf8\xad5+\x9d\x82\xc5\xbf'
p41
tp42
Rp43
asS'target_rot'
p44
g2
(cnumpy
ndarray
p45
(I0
tp46
g5
tp47
Rp48
(I1
(I3
tp49
g12
I00
S'~\x98\t\xee@\xf3\xc4\xbf>\x9eN\x87\x0f"\'\xc0\xf0\x89\xf5\xf2\xb9\x1fe\xc0'
p50
tp51
bsS'center_target_pixels'
p52
(I696
I356
tp53
sS'center_actual_pixels'
p54
(I698
I356
tp55
s.(dp0
S'actual_pos'
p1
(cnumpy.core.multiarray
_reconstruct
p2
(cnumpy.matrixlib.defmatrix
matrix
p3
(I0
tp4
S'b'
p5
tp6
Rp7
(I1
(I1
I1
tp8
cnumpy
dtype
p9
(S'f8'
p10
I0
I1
tp11
Rp12
(I3
S'<'
p13
NNNI-1
I-1
I0
tp14
bI00
S'\xbd\xf2\r,\xbd\x82\xab?'
p15
tp16
bg2
(g3
(I0
tp17
g5
tp18
Rp19
(I1
(I1
I1
tp20
g12
I00
S'O\xbb\xfcEx\xe2\xa3?'
p21
tp22
bg2
(g3
(I0
tp23
g5
tp24
Rp25
(I1
(I1
I1
tp26
g12
I00
S'j\x9c|\xd8n?\xc5\xbf'
p27
tp28
btp29
sS'actual_rot'
p30
(F-0.6291165089209635
F-13.52047309937786
F-167.0706502593439
tp31
sS'target_pos'
p32
(lp33
cnumpy.core.multiarray
scalar
p34
(g12
S'\xeb4N\xfe;\xb4\xab?'
p35
tp36
Rp37
ag34
(g12
S'\xf3\xed\xfc\xe3<\x98\xa3?'
p38
tp39
Rp40
ag34
(g12
S'\xae)\x99\xcb\xcbG\xc5\xbf'
p41
tp42
Rp43
asS'target_rot'
p44
g2
(cnumpy
ndarray
p45
(I0
tp46
g5
tp47
Rp48
(I1
(I3
tp49
g12
I00
S'~\x98\t\xee@\xf3\xc4\xbf>\x9eN\x87\x0f"\'\xc0\xf0\x89\xf5\xf2\xb9\x1fe\xc0'
p50
tp51
bsS'center_target_pixels'
p52
(I875
I367
tp53
sS'center_actual_pixels'
p54
(I878
I368
tp55
s.(dp0
S'actual_pos'
p1
(cnumpy.core.multiarray
_reconstruct
p2
(cnumpy.matrixlib.defmatrix
matrix
p3
(I0
tp4
S'b'
p5
tp6
Rp7
(I1
(I1
I1
tp8
cnumpy
dtype
p9
(S'f8'
p10
I0
I1
tp11
Rp12
(I3
S'<'
p13
NNNI-1
I-1
I0
tp14
bI00
S'\xf6q\x85\xe8\\|\xa3?'
p15
tp16
bg2
(g3
(I0
tp17
g5
tp18
Rp19
(I1
(I1
I1
tp20
g12
I00
S'<\x17\x0c\xdc\xfe\x0b\xa3?'
p21
tp22
bg2
(g3
(I0
tp23
g5
tp24
Rp25
(I1
(I1
I1
tp26
g12
I00
S'\\o\xc3f\x07\x03\xc5\xbf'
p27
tp28
btp29
sS'actual_rot'
p30
(F-0.05548041008095282
F-10.80835741544318
F-168.8015760178132
tp31
sS'target_pos'
p32
(lp33
cnumpy.core.multiarray
scalar
p34
(g12
S'\xc4\xcaV@\xf5\xe3\xa3?'
p35
tp36
Rp37
ag34
(g12
S'6\x94\xe4v\xfc\xc6\xa2?'
p38
tp39
Rp40
ag34
(g12
S'\x05>\x1dx\xf1\x0b\xc5\xbf'
p41
tp42
Rp43
asS'target_rot'
p44
g2
(cnumpy
ndarray
p45
(I0
tp46
g5
tp47
Rp48
(I1
(I3
tp49
g12
I00
S'~\x98\t\xee@\xf3\xc4\xbf>\x9eN\x87\x0f"\'\xc0\xf0\x89\xf5\xf2\xb9\x1fe\xc0'
p50
tp51
bsS'center_target_pixels'
p52
(I1053
I377
tp53
sS'center_actual_pixels'
p54
(I1059
I375
tp55
s.(dp0
S'actual_pos'
p1
(cnumpy.core.multiarray
_reconstruct
p2
(cnumpy.matrixlib.defmatrix
matrix
p3
(I0
tp4
S'b'
p5
tp6
Rp7
(I1
(I1
I1
tp8
cnumpy
dtype
p9
(S'f8'
p10
I0
I1
tp11
Rp12
(I3
S'<'
p13
NNNI-1
I-1
I0
tp14
bI00
S'\x0b55\x05V\xef\x96?'
p15
tp16
bg2
(g3
(I0
tp17
g5
tp18
Rp19
(I1
(I1
I1
tp20
g12
I00
S'\xac\xcb%%;b\xa2?'
p21
tp22
bg2
(g3
(I0
tp23
g5
tp24
Rp25
(I1
(I1
I1
tp26
g12
I00
S'\x9au\xf9\x08&\xc7\xc4\xbf'
p27
tp28
btp29
sS'actual_rot'
p30
(F0.7288266628774669
F-7.293780284319188
F-169.37549841338117
tp31
sS'target_pos'
p32
(lp33
cnumpy.core.multiarray
scalar
p34
(g12
S'P!n/\xcb\x1f\x98?'
p35
tp36
Rp37
ag34
(g12
S'\x96\xf2\x06\x8eD\x1e\xa2?'
p38
tp39
Rp40
ag34
(g12
S'\x83\xcby\xa5\x03\xcf\xc4\xbf'
p41
tp42
Rp43
asS'target_rot'
p44
g2
(cnumpy
ndarray
p45
(I0
tp46
g5
tp47
Rp48
(I1
(I3
tp49
g12
I00
S'~\x98\t\xee@\xf3\xc4\xbf>\x9eN\x87\x0f"\'\xc0\xf0\x89\xf5\xf2\xb9\x1fe\xc0'
p50
tp51
bsS'center_target_pixels'
p52
(I1230
I387
tp53
sS'center_actual_pixels'
p54
(I1241
I388
tp55
s.(dp0
S'actual_pos'
p1
(cnumpy.core.multiarray
_reconstruct
p2
(cnumpy.matrixlib.defmatrix
matrix
p3
(I0
tp4
S'b'
p5
tp6
Rp7
(I1
(I1
I1
tp8
cnumpy
dtype
p9
(S'f8'
p10
I0
I1
tp11
Rp12
(I3
S'<'
p13
NNNI-1
I-1
I0
tp14
bI00
S'/\xbf\xddK\xd8\xac~?'
p15
tp16
bg2
(g3
(I0
tp17
g5
tp18
Rp19
(I1
(I1
I1
tp20
g12
I00
S'\x02\xdc@\xe4>\xe2\xa1?'
p21
tp22
bg2
(g3
(I0
tp23
g5
tp24
Rp25
(I1
(I1
I1
tp26
g12
I00
S'\x8b\x0e\xfc\xb7\xf8\x8a\xc4\xbf'
p27
tp28
btp29
sS'actual_rot'
p30
(F0.9390698465652321
F-6.310985380185448
F-171.3773936831297
tp31
sS'target_pos'
p32
(lp33
cnumpy.core.multiarray
scalar
p34
(g12
S'^\xe3\x89\xcd\xa3\xd3\x81?'
p35
tp36
Rp37
ag34
(g12
S'/i\xe2&O\xa3\xa1?'
p38
tp39
Rp40
ag34
(g12
S'\xe2M\x07Z\n\x91\xc4\xbf'
p41
tp42
Rp43
asS'target_rot'
p44
g2
(cnumpy
ndarray
p45
(I0
tp46
g5
tp47
Rp48
(I1
(I3
tp49
g12
I00
S'~\x98\t\xee@\xf3\xc4\xbf>\x9eN\x87\x0f"\'\xc0\xf0\x89\xf5\xf2\xb9\x1fe\xc0'
p50
tp51
bsS'center_target_pixels'
p52
(I1406
I396
tp53
sS'center_actual_pixels'
p54
(I1402
I390
tp55
s.(dp0
S'actual_pos'
p1
(cnumpy.core.multiarray
_reconstruct
p2
(cnumpy.matrixlib.defmatrix
matrix
p3
(I0
tp4
S'b'
p5
tp6
Rp7
(I1
(I1
I1
tp8
cnumpy
dtype
p9
(S'f8'
p10
I0
I1
tp11
Rp12
(I3
S'<'
p13
NNNI-1
I-1
I0
tp14
bI00
S'`z\xb9<\xb08\xaf?'
p15
tp16
bg2
(g3
(I0
tp17
g5
tp18
Rp19
(I1
(I1
I1
tp20
g12
I00
S'\xbbc\x0c`L\x10\xa8?'
p21
tp22
bg2
(g3
(I0
tp23
g5
tp24
Rp25
(I1
(I1
I1
tp26
g12
I00
S'{\x1e\x81\xe7(V\xc5\xbf'
p27
tp28
btp29
sS'actual_rot'
p30
(F-1.3007547119062408
F-15.622481788344214
F-166.6456125256675
tp31
sS'target_pos'
p32
(lp33
cnumpy.core.multiarray
scalar
p34
(g12
S'^YR\x1c\xb5E\xaf?'
p35
tp36
Rp37
ag34
(g12
S'\x17\xec\x1c\xa9\xdd\xcd\xa7?'
p38
tp39
Rp40
ag34
(g12
S'"\t\xbf\xfbgc\xc5\xbf'
p41
tp42
Rp43
asS'target_rot'
p44
g2
(cnumpy
ndarray
p45
(I0
tp46
g5
tp47
Rp48
(I1
(I3
tp49
g12
I00
S'~\x98\t\xee@\xf3\xc4\xbf>\x9eN\x87\x0f"\'\xc0\xf0\x89\xf5\xf2\xb9\x1fe\xc0'
p50
tp51
bsS'center_target_pixels'
p52
(I781
I450
tp53
sS'center_actual_pixels'
p54
(I775
I441
tp55
s.(dp0
S'actual_pos'
p1
(cnumpy.core.multiarray
_reconstruct
p2
(cnumpy.matrixlib.defmatrix
matrix
p3
(I0
tp4
S'b'
p5
tp6
Rp7
(I1
(I1
I1
tp8
cnumpy
dtype
p9
(S'f8'
p10
I0
I1
tp11
Rp12
(I3
S'<'
p13
NNNI-1
I-1
I0
tp14
bI00
S'\xba\xc0\x9b\xdf\x04*\xa7?'
p15
tp16
bg2
(g3
(I0
tp17
g5
tp18
Rp19
(I1
(I1
I1
tp20
g12
I00
S"'\x19\x8b\xb6,6\xa7?"
p21
tp22
bg2
(g3
(I0
tp23
g5
tp24
Rp25
(I1
(I1
I1
tp26
g12
I00
S'\xfa\xcf\x19\xb1B\x1d\xc5\xbf'
p27
tp28
btp29
sS'actual_rot'
p30
(F-0.3966160567952434
F-12.276465757630627
F-167.8245694616932
tp31
sS'target_pos'
p32
(lp33
cnumpy.core.multiarray
scalar
p34
(g12
S'C\xeeZ\xa3Jl\xa7?'
p35
tp36
Rp37
ag34
(g12
S'\xf1B\x92\x90\x9e\xfd\xa6?'
p38
tp39
Rp40
ag34
(g12
S'\x80\xbe\x91n\x1d(\xc5\xbf'
p41
tp42
Rp43
asS'target_rot'
p44
g2
(cnumpy
ndarray
p45
(I0
tp46
g5
tp47
Rp48
(I1
(I3
tp49
g12
I00
S'~\x98\t\xee@\xf3\xc4\xbf>\x9eN\x87\x0f"\'\xc0\xf0\x89\xf5\xf2\xb9\x1fe\xc0'
p50
tp51
bsS'center_target_pixels'
p52
(I960
I460
tp53
sS'center_actual_pixels'
p54
(I961
I448
tp55
s.(dp0
S'actual_pos'
p1
(cnumpy.core.multiarray
_reconstruct
p2
(cnumpy.matrixlib.defmatrix
matrix
p3
(I0
tp4
S'b'
p5
tp6
Rp7
(I1
(I1
I1
tp8
cnumpy
dtype
p9
(S'f8'
p10
I0
I1
tp11
Rp12
(I3
S'<'
p13
NNNI-1
I-1
I0
tp14
bI00
S'L\xdai7\xfd\x89\x9e?'
p15
tp16
bg2
(g3
(I0
tp17
g5
tp18
Rp19
(I1
(I1
I1
tp20
g12
I00
S'\x9a\x07\t\xa1\x83\x8d\xa6?'
p21
tp22
bg2
(g3
(I0
tp23
g5
tp24
Rp25
(I1
(I1
I1
tp26
g12
I00
S'\xe4h\xa4C\xaf\xe4\xc4\xbf'
p27
tp28
btp29
sS'actual_rot'
p30
(F0.4282327348327011
F-9.208387859963358
F-169.14388919612742
tp31
sS'target_pos'
p32
(lp33
cnumpy.core.multiarray
scalar
p34
(g12
S'\xc5\xa1i\x91\xa8y\x9f?'
p35
tp36
Rp37
ag34
(g12
S'[\xdc\x1b\xe4\x91J\xa6?'
p38
tp39
Rp40
ag34
(g12
S'*\xa6\xbbTu\xec\xc4\xbf'
p41
tp42
Rp43
asS'target_rot'
p44
g2
(cnumpy
ndarray
p45
(I0
tp46
g5
tp47
Rp48
(I1
(I3
tp49
g12
I00
S'~\x98\t\xee@\xf3\xc4\xbf>\x9eN\x87\x0f"\'\xc0\xf0\x89\xf5\xf2\xb9\x1fe\xc0'
p50
tp51
bsS'center_target_pixels'
p52
(I1136
I469
tp53
sS'center_actual_pixels'
p54
(I1140
I462
tp55
s.(dp0
S'actual_pos'
p1
(cnumpy.core.multiarray
_reconstruct
p2
(cnumpy.matrixlib.defmatrix
matrix
p3
(I0
tp4
S'b'
p5
tp6
Rp7
(I1
(I1
I1
tp8
cnumpy
dtype
p9
(S'f8'
p10
I0
I1
tp11
Rp12
(I3
S'<'
p13
NNNI-1
I-1
I0
tp14
bI00
S'\x80\xab.|\x85\x96\x8c?'
p15
tp16
bg2
(g3
(I0
tp17
g5
tp18
Rp19
(I1
(I1
I1
tp20
g12
I00
S'\x00^}\xf5Z\xfc\xa5?'
p21
tp22
bg2
(g3
(I0
tp23
g5
tp24
Rp25
(I1
(I1
I1
tp26
g12
I00
S'3\xae0>\xae\xaa\xc4\xbf'
p27
tp28
btp29
sS'actual_rot'
p30
(F1.0816597585554328
F-6.7112276344117765
F-170.13445069194526
tp31
sS'target_pos'
p32
(lp33
cnumpy.core.multiarray
scalar
p34
(g12
S'\x9f=\xae\xc2\x02\x19\x8f?'
p35
tp36
Rp37
ag34
(g12
S'\xaf?\xc0m\xe1\xba\xa5?'
p38
tp39
Rp40
ag34
(g12
S'@\xb2\x04@\x03\xaf\xc4\xbf'
p41
tp42
Rp43
asS'target_rot'
p44
g2
(cnumpy
ndarray
p45
(I0
tp46
g5
tp47
Rp48
(I1
(I3
tp49
g12
I00
S'~\x98\t\xee@\xf3\xc4\xbf>\x9eN\x87\x0f"\'\xc0\xf0\x89\xf5\xf2\xb9\x1fe\xc0'
p50
tp51
bsS'center_target_pixels'
p52
(I1313
I479
tp53
sS'center_actual_pixels'
p54
(I1317
I472
tp55
s.(dp0
S'actual_pos'
p1
(cnumpy.core.multiarray
_reconstruct
p2
(cnumpy.matrixlib.defmatrix
matrix
p3
(I0
tp4
S'b'
p5
tp6
Rp7
(I1
(I1
I1
tp8
cnumpy
dtype
p9
(S'f8'
p10
I0
I1
tp11
Rp12
(I3
S'<'
p13
NNNI-1
I-1
I0
tp14
bI00
S'\x9a\xcf8^\xb0t\xb1?'
p15
tp16
bg2
(g3
(I0
tp17
g5
tp18
Rp19
(I1
(I1
I1
tp20
g12
I00
S'\x0ba\xa6j\xa25\xac?'
p21
tp22
bg2
(g3
(I0
tp23
g5
tp24
Rp25
(I1
(I1
I1
tp26
g12
I00
S'w\xfaSA\x9fp\xc5\xbf'
p27
tp28
btp29
sS'actual_rot'
p30
(F-1.6614760963757125
F-16.082126781739667
F-165.41621348400838
tp31
sS'target_pos'
p32
(lp33
cnumpy.core.multiarray
scalar
p34
(g12
S'=\xe9\xa1G\xd7w\xb1?'
p35
tp36
Rp37
ag34
(g12
S'\xd4H=\xf6\xc4\t\xac?'
p38
tp39
Rp40
ag34
(g12
S'\xe2\xf2\x08B\xa9~\xc5\xbf'
p41
tp42
Rp43
asS'target_rot'
p44
g2
(cnumpy
ndarray
p45
(I0
tp46
g5
tp47
Rp48
(I1
(I3
tp49
g12
I00
S'~\x98\t\xee@\xf3\xc4\xbf>\x9eN\x87\x0f"\'\xc0\xf0\x89\xf5\xf2\xb9\x1fe\xc0'
p50
tp51
bsS'center_target_pixels'
p52
(I686
I534
tp53
sS'center_actual_pixels'
p54
(I687
I519
tp55
s.(dp0
S'actual_pos'
p1
(cnumpy.core.multiarray
_reconstruct
p2
(cnumpy.matrixlib.defmatrix
matrix
p3
(I0
tp4
S'b'
p5
tp6
Rp7
(I1
(I1
I1
tp8
cnumpy
dtype
p9
(S'f8'
p10
I0
I1
tp11
Rp12
(I3
S'<'
p13
NNNI-1
I-1
I0
tp14
bI00
S'\xd6\xe1{\xad\xc1\xea\xaa?'
p15
tp16
bg2
(g3
(I0
tp17
g5
tp18
Rp19
(I1
(I1
I1
tp20
g12
I00
S'\xfa\x11\xc2p\xf7\x8e\xab?'
p21
tp22
bg2
(g3
(I0
tp23
g5
tp24
Rp25
(I1
(I1
I1
tp26
g12
I00
S'\x91\xf7\xfe\xf108\xc5\xbf'
p27
tp28
btp29
sS'actual_rot'
p30
(F-0.6792478338597493
F-13.02833476546234
F-166.31418242128615
tp31
sS'target_pos'
p32
(lp33
cnumpy.core.multiarray
scalar
p34
(g12
S'\xf8AJ\x85!.\xab?'
p35
tp36
Rp37
ag34
(g12
S'I\x82\x95\xcc\xd6b\xab?'
p38
tp39
Rp40
ag34
(g12
S'v\xda#uED\xc5\xbf'
p41
tp42
Rp43
asS'target_rot'
p44
g2
(cnumpy
ndarray
p45
(I0
tp46
g5
tp47
Rp48
(I1
(I3
tp49
g12
I00
S'~\x98\t\xee@\xf3\xc4\xbf>\x9eN\x87\x0f"\'\xc0\xf0\x89\xf5\xf2\xb9\x1fe\xc0'
p50
tp51
bsS'center_target_pixels'
p52
(I865
I544
tp53
sS'center_actual_pixels'
p54
(I866
I531
tp55
s.(dp0
S'actual_pos'
p1
(cnumpy.core.multiarray
_reconstruct
p2
(cnumpy.matrixlib.defmatrix
matrix
p3
(I0
tp4
S'b'
p5
tp6
Rp7
(I1
(I1
I1
tp8
cnumpy
dtype
p9
(S'f8'
p10
I0
I1
tp11
Rp12
(I3
S'<'
p13
NNNI-1
I-1
I0
tp14
bI00
S'R\xb9\x16h\xfe\xe3\xa2?'
p15
tp16
bg2
(g3
(I0
tp17
g5
tp18
Rp19
(I1
(I1
I1
tp20
g12
I00
S'\xe4\xd3?}\x18\xb5\xaa?'
p21
tp22
bg2
(g3
(I0
tp23
g5
tp24
Rp25
(I1
(I1
I1
tp26
g12
I00
S'\x1dE\xaaY\x83\xff\xc4\xbf'
p27
tp28
btp29
sS'actual_rot'
p30
(F0.1976177557435195
F-10.240644242297442
F-167.84286385313808
tp31
sS'target_pos'
p32
(lp33
cnumpy.core.multiarray
scalar
p34
(g12
S'~x\xae@\xc0S\xa3?'
p35
tp36
Rp37
ag34
(g12
S"\xc4'\xb7\x9b\x8f\x8b\xaa?"
p38
tp39
Rp40
ag34
(g12
S'\x84N\xb9[\xd8\x08\xc5\xbf'
p41
tp42
Rp43
asS'target_rot'
p44
g2
(cnumpy
ndarray
p45
(I0
tp46
g5
tp47
Rp48
(I1
(I3
tp49
g12
I00
S'~\x98\t\xee@\xf3\xc4\xbf>\x9eN\x87\x0f"\'\xc0\xf0\x89\xf5\xf2\xb9\x1fe\xc0'
p50
tp51
bsS'center_target_pixels'
p52
(I1043
I553
tp53
sS'center_actual_pixels'
p54
(I1050
I544
tp55
s.(dp0
S'actual_pos'
p1
(cnumpy.core.multiarray
_reconstruct
p2
(cnumpy.matrixlib.defmatrix
matrix
p3
(I0
tp4
S'b'
p5
tp6
Rp7
(I1
(I1
I1
tp8
cnumpy
dtype
p9
(S'f8'
p10
I0
I1
tp11
Rp12
(I3
S'<'
p13
NNNI-1
I-1
I0
tp14
bI00
S'}\xd8Y\xf1\x8e\xd3\x95?'
p15
tp16
bg2
(g3
(I0
tp17
g5
tp18
Rp19
(I1
(I1
I1
tp20
g12
I00
S'\x99ne?\xfc\x0e\xaa?'
p21
tp22
bg2
(g3
(I0
tp23
g5
tp24
Rp25
(I1
(I1
I1
tp26
g12
I00
S'$!\xe3\xaa\xae\xc7\xc4\xbf'
p27
tp28
btp29
sS'actual_rot'
p30
(F1.0778902634832896
F-7.422803571925506
F-169.08015568067603
tp31
sS'target_pos'
p32
(lp33
cnumpy.core.multiarray
scalar
p34
(g12
S'\xd0\x05\xed\xed\xff\xf6\x96?'
p35
tp36
Rp37
ag34
(g12
S'\x7f\xc4\xdb\xa2\xda\xe5\xa9?'
p38
tp39
Rp40
ag34
(g12
S'\xabd\x0e\xbcV\xcc\xc4\xbf'
p41
tp42
Rp43
asS'target_rot'
p44
g2
(cnumpy
ndarray
p45
(I0
tp46
g5
tp47
Rp48
(I1
(I3
tp49
g12
I00
S'~\x98\t\xee@\xf3\xc4\xbf>\x9eN\x87\x0f"\'\xc0\xf0\x89\xf5\xf2\xb9\x1fe\xc0'
p50
tp51
bsS'center_target_pixels'
p52
(I1220
I562
tp53
sS'center_actual_pixels'
p54
(I1229
I551
tp55
s.(dp0
S'actual_pos'
p1
(cnumpy.core.multiarray
_reconstruct
p2
(cnumpy.matrixlib.defmatrix
matrix
p3
(I0
tp4
S'b'
p5
tp6
Rp7
(I1
(I1
I1
tp8
cnumpy
dtype
p9
(S'f8'
p10
I0
I1
tp11
Rp12
(I3
S'<'
p13
NNNI-1
I-1
I0
tp14
bI00
S'\xb9V\x15(aBz?'
p15
tp16
bg2
(g3
(I0
tp17
g5
tp18
Rp19
(I1
(I1
I1
tp20
g12
I00
S'\xfc\xb5\xffg\xe7\x9f\xa9?'
p21
tp22
bg2
(g3
(I0
tp23
g5
tp24
Rp25
(I1
(I1
I1
tp26
g12
I00
S'm\x9e\xf0\xa1\x8e\x87\xc4\xbf'
p27
tp28
btp29
sS'actual_rot'
p30
(F1.4166761321055126
F-6.389922099532693
F-169.71636755990983
tp31
sS'target_pos'
p32
(lp33
cnumpy.core.multiarray
scalar
p34
(g12
S'_\x01\xcc;\x8eT\x7f?'
p35
tp36
Rp37
ag34
(g12
S'\xc2\xd2\xbbh\xb7}\xa9?'
p38
tp39
Rp40
ag34
(g12
S'O\xae\xfd2\xc0\x8e\xc4\xbf'
p41
tp42
Rp43
asS'target_rot'
p44
g2
(cnumpy
ndarray
p45
(I0
tp46
g5
tp47
Rp48
(I1
(I3
tp49
g12
I00
S'~\x98\t\xee@\xf3\xc4\xbf>\x9eN\x87\x0f"\'\xc0\xf0\x89\xf5\xf2\xb9\x1fe\xc0'
p50
tp51
bsS'center_target_pixels'
p52
(I1396
I571
tp53
sS'center_actual_pixels'
p54
(I1394
I564
tp55
s.(dp0
S'actual_pos'
p1
(cnumpy.core.multiarray
_reconstruct
p2
(cnumpy.matrixlib.defmatrix
matrix
p3
(I0
tp4
S'b'
p5
tp6
Rp7
(I1
(I1
I1
tp8
cnumpy
dtype
p9
(S'f8'
p10
I0
I1
tp11
Rp12
(I3
S'<'
p13
NNNI-1
I-1
I0
tp14
bI00
S'\x93\x85IO?\xc7\xae?'
p15
tp16
bg2
(g3
(I0
tp17
g5
tp18
Rp19
(I1
(I1
I1
tp20
g12
I00
S'\xdeD\x01N\xe5\xad\xaf?'
p21
tp22
bg2
(g3
(I0
tp23
g5
tp24
Rp25
(I1
(I1
I1
tp26
g12
I00
S'\xb0\xe7\xf9\xe6\xcaR\xc5\xbf'
p27
tp28
btp29
sS'actual_rot'
p30
(F-1.893204155965723
F-16.102249101669525
F-164.77294013525508
tp31
sS'target_pos'
p32
(lp33
cnumpy.core.multiarray
scalar
p34
(g12
S'\xcd{* 9\xbf\xae?'
p35
tp36
Rp37
ag34
(g12
S'Z\x9e\xae\x8a\x8f\x99\xaf?'
p38
tp39
Rp40
ag34
(g12
S',RP\rt_\xc5\xbf'
p41
tp42
Rp43
asS'target_rot'
p44
g2
(cnumpy
ndarray
p45
(I0
tp46
g5
tp47
Rp48
(I1
(I3
tp49
g12
I00
S'~\x98\t\xee@\xf3\xc4\xbf>\x9eN\x87\x0f"\'\xc0\xf0\x89\xf5\xf2\xb9\x1fe\xc0'
p50
tp51
bsS'center_target_pixels'
p52
(I771
I628
tp53
sS'center_actual_pixels'
p54
(I762
I615
tp55
s.(dp0
S'actual_pos'
p1
(cnumpy.core.multiarray
_reconstruct
p2
(cnumpy.matrixlib.defmatrix
matrix
p3
(I0
tp4
S'b'
p5
tp6
Rp7
(I1
(I1
I1
tp8
cnumpy
dtype
p9
(S'f8'
p10
I0
I1
tp11
Rp12
(I3
S'<'
p13
NNNI-1
I-1
I0
tp14
bI00
S'\xe2+\xcb\xae\x7f\xb0\xa6?'
p15
tp16
bg2
(g3
(I0
tp17
g5
tp18
Rp19
(I1
(I1
I1
tp20
g12
I00
S'(\x10"k\xd1\xec\xae?'
p21
tp22
bg2
(g3
(I0
tp23
g5
tp24
Rp25
(I1
(I1
I1
tp26
g12
I00
S'6UW\xe8N\x1b\xc5\xbf'
p27
tp28
btp29
sS'actual_rot'
p30
(F-0.7067435482842864
F-12.912928192989927
F-165.8024060218157
tp31
sS'target_pos'
p32
(lp33
cnumpy.core.multiarray
scalar
p34
(g12
S')\xf1\xb0\xba\x9f\xde\xa6?'
p35
tp36
Rp37
ag34
(g12
S'\x1ftT*u\xd3\xae?'
p38
tp39
Rp40
ag34
(g12
S'\x07@\xfc\xcc\x97$\xc5\xbf'
p41
tp42
Rp43
asS'target_rot'
p44
g2
(cnumpy
ndarray
p45
(I0
tp46
g5
tp47
Rp48
(I1
(I3
tp49
g12
I00
S'~\x98\t\xee@\xf3\xc4\xbf>\x9eN\x87\x0f"\'\xc0\xf0\x89\xf5\xf2\xb9\x1fe\xc0'
p50
tp51
bsS'center_target_pixels'
p52
(I950
I637
tp53
sS'center_actual_pixels'
p54
(I951
I620
tp55
s.(dp0
S'actual_pos'
p1
(cnumpy.core.multiarray
_reconstruct
p2
(cnumpy.matrixlib.defmatrix
matrix
p3
(I0
tp4
S'b'
p5
tp6
Rp7
(I1
(I1
I1
tp8
cnumpy
dtype
p9
(S'f8'
p10
I0
I1
tp11
Rp12
(I3
S'<'
p13
NNNI-1
I-1
I0
tp14
bI00
S'\x88\x0e\x88\xb9\x8d\x85\x9d?'
p15
tp16
bg2
(g3
(I0
tp17
g5
tp18
Rp19
(I1
(I1
I1
tp20
g12
I00
S'\x1e\xd3KT\xf31\xae?'
p21
tp22
bg2
(g3
(I0
tp23
g5
tp24
Rp25
(I1
(I1
I1
tp26
g12
I00
S'\x04\x8fF6W\xe0\xc4\xbf'
p27
tp28
btp29
sS'actual_rot'
p30
(F0.15014180346207215
F-10.518383813625393
F-166.58173539456584
tp31
sS'target_pos'
p32
(lp33
cnumpy.core.multiarray
scalar
p34
(g12
S'\xd6r\xfa\xfb\xc5;\x9e?'
p35
tp36
Rp37
ag34
(g12
S'\t\xad\xa0K\xa7\x15\xae?'
p38
tp39
Rp40
ag34
(g12
S'\xdbmk\xb5\x05\xe9\xc4\xbf'
p41
tp42
Rp43
asS'target_rot'
p44
g2
(cnumpy
ndarray
p45
(I0
tp46
g5
tp47
Rp48
(I1
(I3
tp49
g12
I00
S'~\x98\t\xee@\xf3\xc4\xbf>\x9eN\x87\x0f"\'\xc0\xf0\x89\xf5\xf2\xb9\x1fe\xc0'
p50
tp51
bsS'center_target_pixels'
p52
(I1127
I645
tp53
sS'center_actual_pixels'
p54
(I1132
I630
tp55
s.(dp0
S'actual_pos'
p1
(cnumpy.core.multiarray
_reconstruct
p2
(cnumpy.matrixlib.defmatrix
matrix
p3
(I0
tp4
S'b'
p5
tp6
Rp7
(I1
(I1
I1
tp8
cnumpy
dtype
p9
(S'f8'
p10
I0
I1
tp11
Rp12
(I3
S'<'
p13
NNNI-1
I-1
I0
tp14
bI00
S'\xb2\xcbFw\x02\xa7\x8a?'
p15
tp16
bg2
(g3
(I0
tp17
g5
tp18
Rp19
(I1
(I1
I1
tp20
g12
I00
S'Au\x0bL\xad\xa8\xad?'
p21
tp22
bg2
(g3
(I0
tp23
g5
tp24
Rp25
(I1
(I1
I1
tp26
g12
I00
S'\xb5\x1aZ\x0c\x9e\xa8\xc4\xbf'
p27
tp28
btp29
sS'actual_rot'
p30
(F0.9075011466920481
F-8.357247365135315
F-168.36229998507827
tp31
sS'target_pos'
p32
(lp33
cnumpy.core.multiarray
scalar
p34
(g12
S'\xa4\xa5L\xd4;\xb3\x8c?'
p35
tp36
Rp37
ag34
(g12
S'\x10\x8b#1\x07\x85\xad?'
p38
tp39
Rp40
ag34
(g12
S'\x92\x9b\x9e\xdd\xfd\xab\xc4\xbf'
p41
tp42
Rp43
asS'target_rot'
p44
g2
(cnumpy
ndarray
p45
(I0
tp46
g5
tp47
Rp48
(I1
(I3
tp49
g12
I00
S'~\x98\t\xee@\xf3\xc4\xbf>\x9eN\x87\x0f"\'\xc0\xf0\x89\xf5\xf2\xb9\x1fe\xc0'
p50
tp51
bsS'center_target_pixels'
p52
(I1304
I654
tp53
sS'center_actual_pixels'
p54
(I1308
I646
tp55
s.(dp0
S'actual_pos'
p1
(cnumpy.core.multiarray
_reconstruct
p2
(cnumpy.matrixlib.defmatrix
matrix
p3
(I0
tp4
S'b'
p5
tp6
Rp7
(I1
(I1
I1
tp8
cnumpy
dtype
p9
(S'f8'
p10
I0
I1
tp11
Rp12
(I3
S'<'
p13
NNNI-1
I-1
I0
tp14
bI00
S'_\x08\xd4\xcd\xad1\xb1?'
p15
tp16
bg2
(g3
(I0
tp17
g5
tp18
Rp19
(I1
(I1
I1
tp20
g12
I00
S'\x03\xde\xfaD\xe3\xf5\xb1?'
p21
tp22
bg2
(g3
(I0
tp23
g5
tp24
Rp25
(I1
(I1
I1
tp26
g12
I00
S'8\xd7\x8e\xaeJk\xc5\xbf'
p27
tp28
btp29
sS'actual_rot'
p30
(F-2.2240308646012195
F-16.336294926052492
F-163.61878713334892
tp31
sS'target_pos'
p32
(lp33
cnumpy.core.multiarray
scalar
p34
(g12
S'\x06W\xa4\x01\x191\xb1?'
p35
tp36
Rp37
ag34
(g12
S'\x1a\xa2\xba\xe8\xe9\xed\xb1?'
p38
tp39
Rp40
ag34
(g12
S'cam\xf8Ez\xc5\xbf'
p41
tp42
Rp43
asS'target_rot'
p44
g2
(cnumpy
ndarray
p45
(I0
tp46
g5
tp47
Rp48
(I1
(I3
tp49
g12
I00
S'~\x98\t\xee@\xf3\xc4\xbf>\x9eN\x87\x0f"\'\xc0\xf0\x89\xf5\xf2\xb9\x1fe\xc0'
p50
tp51
bsS'center_target_pixels'
p52
(I676
I713
tp53
sS'center_actual_pixels'
p54
(I678
I694
tp55
s.(dp0
S'actual_pos'
p1
(cnumpy.core.multiarray
_reconstruct
p2
(cnumpy.matrixlib.defmatrix
matrix
p3
(I0
tp4
S'b'
p5
tp6
Rp7
(I1
(I1
I1
tp8
cnumpy
dtype
p9
(S'f8'
p10
I0
I1
tp11
Rp12
(I3
S'<'
p13
NNNI-1
I-1
I0
tp14
bI00
S'l\xcf\xb1N\xa8h\xaa?'
p15
tp16
bg2
(g3
(I0
tp17
g5
tp18
Rp19
(I1
(I1
I1
tp20
g12
I00
S'Jj\xd5p\x0e\xa3\xb1?'
p21
tp22
bg2
(g3
(I0
tp23
g5
tp24
Rp25
(I1
(I1
I1
tp26
g12
I00
S'\x81\tv\x82\x0f3\xc5\xbf'
p27
tp28
btp29
sS'actual_rot'
p30
(F-1.0847626421763819
F-13.646653725913106
F-164.5599116543159
tp31
sS'target_pos'
p32
(lp33
cnumpy.core.multiarray
scalar
p34
(g12
S'PT\xe0\xccH\x96\xaa?'
p35
tp36
Rp37
ag34
(g12
S'n\xf2\xbf\xb7\xb6\x94\xb1?'
p38
tp39
Rp40
ag34
(g12
S'\x89\x9b\x17%\x08@\xc5\xbf'
p41
tp42
Rp43
asS'target_rot'
p44
g2
(cnumpy
ndarray
p45
(I0
tp46
g5
tp47
Rp48
(I1
(I3
tp49
g12
I00
S'~\x98\t\xee@\xf3\xc4\xbf>\x9eN\x87\x0f"\'\xc0\xf0\x89\xf5\xf2\xb9\x1fe\xc0'
p50
tp51
bsS'center_target_pixels'
p52
(I856
I721
tp53
sS'center_actual_pixels'
p54
(I860
I706
tp55
s.(dp0
S'actual_pos'
p1
(cnumpy.core.multiarray
_reconstruct
p2
(cnumpy.matrixlib.defmatrix
matrix
p3
(I0
tp4
S'b'
p5
tp6
Rp7
(I1
(I1
I1
tp8
cnumpy
dtype
p9
(S'f8'
p10
I0
I1
tp11
Rp12
(I3
S'<'
p13
NNNI-1
I-1
I0
tp14
bI00
S'\x0c\x9eH\xe0\x94Y\xa2?'
p15
tp16
bg2
(g3
(I0
tp17
g5
tp18
Rp19
(I1
(I1
I1
tp20
g12
I00
S'\x89pU\xaa\xbc;\xb1?'
p21
tp22
bg2
(g3
(I0
tp23
g5
tp24
Rp25
(I1
(I1
I1
tp26
g12
I00
S')y\x98\x11d\xf9\xc4\xbf'
p27
tp28
btp29
sS'actual_rot'
p30
(F-0.0021712360963240932
F-10.93489062910953
F-165.7789351493862
tp31
sS'target_pos'
p32
(lp33
cnumpy.core.multiarray
scalar
p34
(g12
S'\x0f\x02\xc3pK\xb9\xa2?'
p35
tp36
Rp37
ag34
(g12
S'`\xca\xc5\xea\xaf/\xb1?'
p38
tp39
Rp40
ag34
(g12
S'\x036\xb5\xc6\xfc\x04\xc5\xbf'
p41
tp42
Rp43
asS'target_rot'
p44
g2
(cnumpy
ndarray
p45
(I0
tp46
g5
tp47
Rp48
(I1
(I3
tp49
g12
I00
S'~\x98\t\xee@\xf3\xc4\xbf>\x9eN\x87\x0f"\'\xc0\xf0\x89\xf5\xf2\xb9\x1fe\xc0'
p50
tp51
bsS'center_target_pixels'
p52
(I1034
I730
tp53
sS'center_actual_pixels'
p54
(I1043
I714
tp55
s.(dp0
S'actual_pos'
p1
(cnumpy.core.multiarray
_reconstruct
p2
(cnumpy.matrixlib.defmatrix
matrix
p3
(I0
tp4
S'b'
p5
tp6
Rp7
(I1
(I1
I1
tp8
cnumpy
dtype
p9
(S'f8'
p10
I0
I1
tp11
Rp12
(I3
S'<'
p13
NNNI-1
I-1
I0
tp14
bI00
S'\xa6\x90y(_\xcb\x94?'
p15
tp16
bg2
(g3
(I0
tp17
g5
tp18
Rp19
(I1
(I1
I1
tp20
g12
I00
S'\x8d\x8e\xb0kz\xe8\xb0?'
p21
tp22
bg2
(g3
(I0
tp23
g5
tp24
Rp25
(I1
(I1
I1
tp26
g12
I00
S'\xf8\xf1\xcd;>\xbf\xc4\xbf'
p27
tp28
btp29
sS'actual_rot'
p30
(F0.8550490336905424
F-8.915719063890021
F-167.35477282446053
tp31
sS'target_pos'
p32
(lp33
cnumpy.core.multiarray
scalar
p34
(g12
S'\x10\x9c\x92\x8c\x15\xbe\x95?'
p35
tp36
Rp37
ag34
(g12
S'\x01\x08\x96\xc4\xa1\xdd\xb0?'
p38
tp39
Rp40
ag34
(g12
S'\r\x86x\x91\xe6\xc8\xc4\xbf'
p41
tp42
Rp43
asS'target_rot'
p44
g2
(cnumpy
ndarray
p45
(I0
tp46
g5
tp47
Rp48
(I1
(I3
tp49
g12
I00
S'~\x98\t\xee@\xf3\xc4\xbf>\x9eN\x87\x0f"\'\xc0\xf0\x89\xf5\xf2\xb9\x1fe\xc0'
p50
tp51
bsS'center_target_pixels'
p52
(I1211
I738
tp53
sS'center_actual_pixels'
p54
(I1216
I727
tp55
s.(dp0
S'actual_pos'
p1
(cnumpy.core.multiarray
_reconstruct
p2
(cnumpy.matrixlib.defmatrix
matrix
p3
(I0
tp4
S'b'
p5
tp6
Rp7
(I1
(I1
I1
tp8
cnumpy
dtype
p9
(S'f8'
p10
I0
I1
tp11
Rp12
(I3
S'<'
p13
NNNI-1
I-1
I0
tp14
bI00
S'\x1a\xc2\xe1\xcd/\xc1u?'
p15
tp16
bg2
(g3
(I0
tp17
g5
tp18
Rp19
(I1
(I1
I1
tp20
g12
I00
S'@/\xf1\x83\xa4\xb6\xb0?'
p21
tp22
bg2
(g3
(I0
tp23
g5
tp24
Rp25
(I1
(I1
I1
tp26
g12
I00
S'\xf2A\x99\xab\xb0\x88\xc4\xbf'
p27
tp28
btp29
sS'actual_rot'
p30
(F1.4771375159658346
F-7.435971443146454
F-169.14358342142268
tp31
sS'target_pos'
p32
(lp33
cnumpy.core.multiarray
scalar
p34
(g12
S'\xe7x\xd1\xfd)Fz?'
p35
tp36
Rp37
ag34
(g12
S'v\x83dWY\xaa\xb0?'
p38
tp39
Rp40
ag34
(g12
S'U\x07<T\xba\x8b\xc4\xbf'
p41
tp42
Rp43
asS'target_rot'
p44
g2
(cnumpy
ndarray
p45
(I0
tp46
g5
tp47
Rp48
(I1
(I3
tp49
g12
I00
S'~\x98\t\xee@\xf3\xc4\xbf>\x9eN\x87\x0f"\'\xc0\xf0\x89\xf5\xf2\xb9\x1fe\xc0'
p50
tp51
bsS'center_target_pixels'
p52
(I1387
I746
tp53
sS'center_actual_pixels'
p54
(I1386
I729
tp55
s.