(dp0
S'actual_pos'
p1
(cnumpy.core.multiarray
_reconstruct
p2
(cnumpy.matrixlib.defmatrix
matrix
p3
(I0
tp4
S'b'
p5
tp6
Rp7
(I1
(I1
I1
tp8
cnumpy
dtype
p9
(S'f8'
p10
I0
I1
tp11
Rp12
(I3
S'<'
p13
NNNI-1
I-1
I0
tp14
bI00
S'\x80\x9bL\xa5=\x9a\xb0?'
p15
tp16
bg2
(g3
(I0
tp17
g5
tp18
Rp19
(I1
(I1
I1
tp20
g12
I00
S'U\x89_\x1c\x12\xda\x92?'
p21
tp22
bg2
(g3
(I0
tp23
g5
tp24
Rp25
(I1
(I1
I1
tp26
g12
I00
S'\xa8\xc6Y\\\xf7\xdc\xc5\xbf'
p27
tp28
btp29
sS'actual_rot'
p30
(F0.03477491298494983
F-12.664131672128274
F-171.14071579205395
tp31
sS'target_pos'
p32
(lp33
cnumpy.core.multiarray
scalar
p34
(g12
S';*\xc4\x0c\xf8\xc3\xb0?'
p35
tp36
Rp37
ag34
(g12
S'\xdb\t\xfa\xddk]\x92?'
p38
tp39
Rp40
ag34
(g12
S'\xea"\xe8I\x1c\xe3\xc5\xbf'
p41
tp42
Rp43
asS'target_rot'
p44
g2
(cnumpy
ndarray
p45
(I0
tp46
g5
tp47
Rp48
(I1
(I3
tp49
g12
I00
S'C\xc7\xe7\xe7\x91\t\xb4?\xf5\x11>!\xe6d(\xc0a@\tTb4e\xc0'
p50
tp51
bsS'center_target_pixels'
p52
(I794
I96
tp53
sS'center_actual_pixels'
p54
(I782
I93
tp55
s.(dp0
S'actual_pos'
p1
(cnumpy.core.multiarray
_reconstruct
p2
(cnumpy.matrixlib.defmatrix
matrix
p3
(I0
tp4
S'b'
p5
tp6
Rp7
(I1
(I1
I1
tp8
cnumpy
dtype
p9
(S'f8'
p10
I0
I1
tp11
Rp12
(I3
S'<'
p13
NNNI-1
I-1
I0
tp14
bI00
S'\x1c\xdb\xe9\xac\xdb\x1b\xa9?'
p15
tp16
bg2
(g3
(I0
tp17
g5
tp18
Rp19
(I1
(I1
I1
tp20
g12
I00
S'\xa4F\xb2\x98\xed\x1f\x91?'
p21
tp22
bg2
(g3
(I0
tp23
g5
tp24
Rp25
(I1
(I1
I1
tp26
g12
I00
S'b\x17\xdc\xd3\\\xa4\xc5\xbf'
p27
tp28
btp29
sS'actual_rot'
p30
(F0.1390278650728039
F-11.450771631066349
F-172.9173856296672
tp31
sS'target_pos'
p32
(lp33
cnumpy.core.multiarray
scalar
p34
(g12
S'sf\xed\xb1\x91\x8a\xa9?'
p35
tp36
Rp37
ag34
(g12
S"%\xe7'\xe0K\x8b\x90?"
p38
tp39
Rp40
ag34
(g12
S'\x11\xe5p\xf2H\xa9\xc5\xbf'
p41
tp42
Rp43
asS'target_rot'
p44
g2
(cnumpy
ndarray
p45
(I0
tp46
g5
tp47
Rp48
(I1
(I3
tp49
g12
I00
S'C\xc7\xe7\xe7\x91\t\xb4?\xf5\x11>!\xe6d(\xc0a@\tTb4e\xc0'
p50
tp51
bsS'center_target_pixels'
p52
(I973
I104
tp53
sS'center_actual_pixels'
p54
(I963
I103
tp55
s.(dp0
S'actual_pos'
p1
(cnumpy.core.multiarray
_reconstruct
p2
(cnumpy.matrixlib.defmatrix
matrix
p3
(I0
tp4
S'b'
p5
tp6
Rp7
(I1
(I1
I1
tp8
cnumpy
dtype
p9
(S'f8'
p10
I0
I1
tp11
Rp12
(I3
S'<'
p13
NNNI-1
I-1
I0
tp14
bI00
S'S^"\xad:\xff\xa0?'
p15
tp16
bg2
(g3
(I0
tp17
g5
tp18
Rp19
(I1
(I1
I1
tp20
g12
I00
S'\xf3?\\`\xa4L\x8e?'
p21
tp22
bg2
(g3
(I0
tp23
g5
tp24
Rp25
(I1
(I1
I1
tp26
g12
I00
S'i\xe2\xd6\xc4&l\xc5\xbf'
p27
tp28
btp29
sS'actual_rot'
p30
(F0.34989900221624576
F-8.898000100362431
F-173.95668874340865
tp31
sS'target_pos'
p32
(lp33
cnumpy.core.multiarray
scalar
p34
(g12
S'\x97\x10\x87\x91\xb5\x8c\xa1?'
p35
tp36
Rp37
ag34
(g12
S'\x8a\x18ffVJ\x8d?'
p38
tp39
Rp40
ag34
(g12
S'\xf6\xfaI\xb1\x13o\xc5\xbf'
p41
tp42
Rp43
asS'target_rot'
p44
g2
(cnumpy
ndarray
p45
(I0
tp46
g5
tp47
Rp48
(I1
(I3
tp49
g12
I00
S'C\xc7\xe7\xe7\x91\t\xb4?\xf5\x11>!\xe6d(\xc0a@\tTb4e\xc0'
p50
tp51
bsS'center_target_pixels'
p52
(I1149
I111
tp53
sS'center_actual_pixels'
p54
(I1144
I110
tp55
s.(dp0
S'actual_pos'
p1
(cnumpy.core.multiarray
_reconstruct
p2
(cnumpy.matrixlib.defmatrix
matrix
p3
(I0
tp4
S'b'
p5
tp6
Rp7
(I1
(I1
I1
tp8
cnumpy
dtype
p9
(S'f8'
p10
I0
I1
tp11
Rp12
(I3
S'<'
p13
NNNI-1
I-1
I0
tp14
bI00
S"\x81y*\xce'l\x91?"
p15
tp16
bg2
(g3
(I0
tp17
g5
tp18
Rp19
(I1
(I1
I1
tp20
g12
I00
S'\x8e\x86\xaaY&\xac\x8a?'
p21
tp22
bg2
(g3
(I0
tp23
g5
tp24
Rp25
(I1
(I1
I1
tp26
g12
I00
S'\x1d\xb5=\x1c\x1c-\xc5\xbf'
p27
tp28
btp29
sS'actual_rot'
p30
(F0.4550145465276484
F-6.679325013350131
F-174.29959047479278
tp31
sS'target_pos'
p32
(lp33
cnumpy.core.multiarray
scalar
p34
(g12
S'i\x88}\xcdf\xcc\x92?'
p35
tp36
Rp37
ag34
(g12
S'\xf2\x1c!\xc2;n\x89?'
p38
tp39
Rp40
ag34
(g12
S'\xf3\xeb8\x9bm3\xc5\xbf'
p41
tp42
Rp43
asS'target_rot'
p44
g2
(cnumpy
ndarray
p45
(I0
tp46
g5
tp47
Rp48
(I1
(I3
tp49
g12
I00
S'C\xc7\xe7\xe7\x91\t\xb4?\xf5\x11>!\xe6d(\xc0a@\tTb4e\xc0'
p50
tp51
bsS'center_target_pixels'
p52
(I1325
I118
tp53
sS'center_actual_pixels'
p54
(I1330
I117
tp55
s.(dp0
S'actual_pos'
p1
(cnumpy.core.multiarray
_reconstruct
p2
(cnumpy.matrixlib.defmatrix
matrix
p3
(I0
tp4
S'b'
p5
tp6
Rp7
(I1
(I1
I1
tp8
cnumpy
dtype
p9
(S'f8'
p10
I0
I1
tp11
Rp12
(I3
S'<'
p13
NNNI-1
I-1
I0
tp14
bI00
S' \xb9s\x02\xe4t\xb2?'
p15
tp16
bg2
(g3
(I0
tp17
g5
tp18
Rp19
(I1
(I1
I1
tp20
g12
I00
S'\xbb\xda\xe8\xf6\xf2\xb9\x9b?'
p21
tp22
bg2
(g3
(I0
tp23
g5
tp24
Rp25
(I1
(I1
I1
tp26
g12
I00
S"'\xf4\xd8lc\xf2\xc5\xbf"
p27
tp28
btp29
sS'actual_rot'
p30
(F-0.37769612902421307
F-15.094266680286085
F-169.1128582511557
tp31
sS'target_pos'
p32
(lp33
cnumpy.core.multiarray
scalar
p34
(g12
S';\xd1\x06\xa3\xf1\x92\xb2?'
p35
tp36
Rp37
ag34
(g12
S'm\x9a\xa9\x12\x02F\x9b?'
p38
tp39
Rp40
ag34
(g12
S'\x81F\xad\xa11\xfa\xc5\xbf'
p41
tp42
Rp43
asS'target_rot'
p44
g2
(cnumpy
ndarray
p45
(I0
tp46
g5
tp47
Rp48
(I1
(I3
tp49
g12
I00
S'C\xc7\xe7\xe7\x91\t\xb4?\xf5\x11>!\xe6d(\xc0a@\tTb4e\xc0'
p50
tp51
bsS'center_target_pixels'
p52
(I700
I181
tp53
sS'center_actual_pixels'
p54
(I690
I181
tp55
s.(dp0
S'actual_pos'
p1
(cnumpy.core.multiarray
_reconstruct
p2
(cnumpy.matrixlib.defmatrix
matrix
p3
(I0
tp4
S'b'
p5
tp6
Rp7
(I1
(I1
I1
tp8
cnumpy
dtype
p9
(S'f8'
p10
I0
I1
tp11
Rp12
(I3
S'<'
p13
NNNI-1
I-1
I0
tp14
bI00
S'Y\x16\x17\x932\xc0\xac?'
p15
tp16
bg2
(g3
(I0
tp17
g5
tp18
Rp19
(I1
(I1
I1
tp20
g12
I00
S'\xbe\x99(\x8f\xad\xf0\x99?'
p21
tp22
bg2
(g3
(I0
tp23
g5
tp24
Rp25
(I1
(I1
I1
tp26
g12
I00
S'\x18\xb7\xbb\x01\x13\xbb\xc5\xbf'
p27
tp28
btp29
sS'actual_rot'
p30
(F0.051291578131294875
F-12.294417936200945
F-170.9042867113958
tp31
sS'target_pos'
p32
(lp33
cnumpy.core.multiarray
scalar
p34
(g12
S'\xeb\xa9\x81\x8a\xa3#\xad?'
p35
tp36
Rp37
ag34
(g12
S'\xbb\x0b\xc6\x97\xf1\x82\x99?'
p38
tp39
Rp40
ag34
(g12
S'\xa7\xab>\x9f\xa6\xc0\xc5\xbf'
p41
tp42
Rp43
asS'target_rot'
p44
g2
(cnumpy
ndarray
p45
(I0
tp46
g5
tp47
Rp48
(I1
(I3
tp49
g12
I00
S'C\xc7\xe7\xe7\x91\t\xb4?\xf5\x11>!\xe6d(\xc0a@\tTb4e\xc0'
p50
tp51
bsS'center_target_pixels'
p52
(I881
I189
tp53
sS'center_actual_pixels'
p54
(I872
I186
tp55
s.(dp0
S'actual_pos'
p1
(cnumpy.core.multiarray
_reconstruct
p2
(cnumpy.matrixlib.defmatrix
matrix
p3
(I0
tp4
S'b'
p5
tp6
Rp7
(I1
(I1
I1
tp8
cnumpy
dtype
p9
(S'f8'
p10
I0
I1
tp11
Rp12
(I3
S'<'
p13
NNNI-1
I-1
I0
tp14
bI00
S'R\x85$\xdf\xfb\xb1\xa4?'
p15
tp16
bg2
(g3
(I0
tp17
g5
tp18
Rp19
(I1
(I1
I1
tp20
g12
I00
S'\xb2\x90\xa9\x1c \x08\x98?'
p21
tp22
bg2
(g3
(I0
tp23
g5
tp24
Rp25
(I1
(I1
I1
tp26
g12
I00
S'\xaek9\xd6\xd1\x82\xc5\xbf'
p27
tp28
btp29
sS'actual_rot'
p30
(F0.2971624729093299
F-10.388435295591812
F-172.54850916860977
tp31
sS'target_pos'
p32
(lp33
cnumpy.core.multiarray
scalar
p34
(g12
S'9#T\xc0z+\xa5?'
p35
tp36
Rp37
ag34
(g12
S'\xb7`\xf1i-\xaf\x97?'
p38
tp39
Rp40
ag34
(g12
S'\xf4\xb5R\xa3\x07\x87\xc5\xbf'
p41
tp42
Rp43
asS'target_rot'
p44
g2
(cnumpy
ndarray
p45
(I0
tp46
g5
tp47
Rp48
(I1
(I3
tp49
g12
I00
S'C\xc7\xe7\xe7\x91\t\xb4?\xf5\x11>!\xe6d(\xc0a@\tTb4e\xc0'
p50
tp51
bsS'center_target_pixels'
p52
(I1058
I196
tp53
sS'center_actual_pixels'
p54
(I1047
I191
tp55
s.(dp0
S'actual_pos'
p1
(cnumpy.core.multiarray
_reconstruct
p2
(cnumpy.matrixlib.defmatrix
matrix
p3
(I0
tp4
S'b'
p5
tp6
Rp7
(I1
(I1
I1
tp8
cnumpy
dtype
p9
(S'f8'
p10
I0
I1
tp11
Rp12
(I3
S'<'
p13
NNNI-1
I-1
I0
tp14
bI00
S'!\xa1\x91\xb4\x18\x02\x99?'
p15
tp16
bg2
(g3
(I0
tp17
g5
tp18
Rp19
(I1
(I1
I1
tp20
g12
I00
S'\x19)Jb\xa7*\x96?'
p21
tp22
bg2
(g3
(I0
tp23
g5
tp24
Rp25
(I1
(I1
I1
tp26
g12
I00
S'x\xc6\xa9\xad\xbaF\xc5\xbf'
p27
tp28
btp29
sS'actual_rot'
p30
(F0.6114910494164809
F-7.831162412979231
F-173.83482530962837
tp31
sS'target_pos'
p32
(lp33
cnumpy.core.multiarray
scalar
p34
(g12
S'\xf4\xb7\x8dm\xe74\x9a?'
p35
tp36
Rp37
ag34
(g12
S'\x9dO\xc7\xa5,\xd7\x95?'
p38
tp39
Rp40
ag34
(g12
S"k\x11\x9e'OL\xc5\xbf"
p41
tp42
Rp43
asS'target_rot'
p44
g2
(cnumpy
ndarray
p45
(I0
tp46
g5
tp47
Rp48
(I1
(I3
tp49
g12
I00
S'C\xc7\xe7\xe7\x91\t\xb4?\xf5\x11>!\xe6d(\xc0a@\tTb4e\xc0'
p50
tp51
bsS'center_target_pixels'
p52
(I1234
I203
tp53
sS'center_actual_pixels'
p54
(I1238
I202
tp55
s.(dp0
S'actual_pos'
p1
(cnumpy.core.multiarray
_reconstruct
p2
(cnumpy.matrixlib.defmatrix
matrix
p3
(I0
tp4
S'b'
p5
tp6
Rp7
(I1
(I1
I1
tp8
cnumpy
dtype
p9
(S'f8'
p10
I0
I1
tp11
Rp12
(I3
S'<'
p13
NNNI-1
I-1
I0
tp14
bI00
S'\x9a\x1e6\xfcD\xd6\x80?'
p15
tp16
bg2
(g3
(I0
tp17
g5
tp18
Rp19
(I1
(I1
I1
tp20
g12
I00
S'6$5\x90\xae-\x94?'
p21
tp22
bg2
(g3
(I0
tp23
g5
tp24
Rp25
(I1
(I1
I1
tp26
g12
I00
S'\xf4\xa8\xef$\xb3\x0b\xc5\xbf'
p27
tp28
btp29
sS'actual_rot'
p30
(F0.7125886930651337
F-6.628763931333818
F-174.35149105692375
tp31
sS'target_pos'
p32
(lp33
cnumpy.core.multiarray
scalar
p34
(g12
S'}\x06\xbb\xb6\xfa\x81\x83?'
p35
tp36
Rp37
ag34
(g12
S't:\x1e\\\xb7\xdf\x93?'
p38
tp39
Rp40
ag34
(g12
S'*\x9c(\\3\x10\xc5\xbf'
p41
tp42
Rp43
asS'target_rot'
p44
g2
(cnumpy
ndarray
p45
(I0
tp46
g5
tp47
Rp48
(I1
(I3
tp49
g12
I00
S'C\xc7\xe7\xe7\x91\t\xb4?\xf5\x11>!\xe6d(\xc0a@\tTb4e\xc0'
p50
tp51
bsS'center_target_pixels'
p52
(I1410
I209
tp53
sS'center_actual_pixels'
p54
(I1418
I207
tp55
s.(dp0
S'actual_pos'
p1
(cnumpy.core.multiarray
_reconstruct
p2
(cnumpy.matrixlib.defmatrix
matrix
p3
(I0
tp4
S'b'
p5
tp6
Rp7
(I1
(I1
I1
tp8
cnumpy
dtype
p9
(S'f8'
p10
I0
I1
tp11
Rp12
(I3
S'<'
p13
NNNI-1
I-1
I0
tp14
bI00
S'\x06\xee\x0b\x86\xd2F\xb0?'
p15
tp16
bg2
(g3
(I0
tp17
g5
tp18
Rp19
(I1
(I1
I1
tp20
g12
I00
S'2\xcfb\xf5Mt\xa1?'
p21
tp22
bg2
(g3
(I0
tp23
g5
tp24
Rp25
(I1
(I1
I1
tp26
g12
I00
S'R\xd0[\x0e!\xce\xc5\xbf'
p27
tp28
btp29
sS'actual_rot'
p30
(F-0.5094890254818258
F-15.109738639060822
F-168.64354159019913
tp31
sS'target_pos'
p32
(lp33
cnumpy.core.multiarray
scalar
p34
(g12
S'\xf6<*\xeczY\xb0?'
p35
tp36
Rp37
ag34
(g12
S'?\x91\xcdn\xa2>\xa1?'
p38
tp39
Rp40
ag34
(g12
S'\x81\x12F\xca;\xd7\xc5\xbf'
p41
tp42
Rp43
asS'target_rot'
p44
g2
(cnumpy
ndarray
p45
(I0
tp46
g5
tp47
Rp48
(I1
(I3
tp49
g12
I00
S'C\xc7\xe7\xe7\x91\t\xb4?\xf5\x11>!\xe6d(\xc0a@\tTb4e\xc0'
p50
tp51
bsS'center_target_pixels'
p52
(I789
I275
tp53
sS'center_actual_pixels'
p54
(I770
I272
tp55
s.(dp0
S'actual_pos'
p1
(cnumpy.core.multiarray
_reconstruct
p2
(cnumpy.matrixlib.defmatrix
matrix
p3
(I0
tp4
S'b'
p5
tp6
Rp7
(I1
(I1
I1
tp8
cnumpy
dtype
p9
(S'f8'
p10
I0
I1
tp11
Rp12
(I3
S'<'
p13
NNNI-1
I-1
I0
tp14
bI00
S'\x8a\x93\xbeMDY\xa8?'
p15
tp16
bg2
(g3
(I0
tp17
g5
tp18
Rp19
(I1
(I1
I1
tp20
g12
I00
S'y\xfb)\xe6\xdb\x8d\xa0?'
p21
tp22
bg2
(g3
(I0
tp23
g5
tp24
Rp25
(I1
(I1
I1
tp26
g12
I00
S'\x95\x98\xfc\xd8l\x96\xc5\xbf'
p27
tp28
btp29
sS'actual_rot'
p30
(F0.1205812292280336
F-11.81797622131131
F-170.49732527948538
tp31
sS'target_pos'
p32
(lp33
cnumpy.core.multiarray
scalar
p34
(g12
S'\xd8U\t\xfbC\xc2\xa8?'
p35
tp36
Rp37
ag34
(g12
S"\x1e\xd6'\xcb\x92R\xa0?"
p38
tp39
Rp40
ag34
(g12
S'\x9e\xd9@\x8aE\x9e\xc5\xbf'
p41
tp42
Rp43
asS'target_rot'
p44
g2
(cnumpy
ndarray
p45
(I0
tp46
g5
tp47
Rp48
(I1
(I3
tp49
g12
I00
S'C\xc7\xe7\xe7\x91\t\xb4?\xf5\x11>!\xe6d(\xc0a@\tTb4e\xc0'
p50
tp51
bsS'center_target_pixels'
p52
(I967
I281
tp53
sS'center_actual_pixels'
p54
(I957
I278
tp55
s.(dp0
S'actual_pos'
p1
(cnumpy.core.multiarray
_reconstruct
p2
(cnumpy.matrixlib.defmatrix
matrix
p3
(I0
tp4
S'b'
p5
tp6
Rp7
(I1
(I1
I1
tp8
cnumpy
dtype
p9
(S'f8'
p10
I0
I1
tp11
Rp12
(I3
S'<'
p13
NNNI-1
I-1
I0
tp14
bI00
S'\xc6F=)~:\xa0?'
p15
tp16
bg2
(g3
(I0
tp17
g5
tp18
Rp19
(I1
(I1
I1
tp20
g12
I00
S'o+\x91\rQP\x9f?'
p21
tp22
bg2
(g3
(I0
tp23
g5
tp24
Rp25
(I1
(I1
I1
tp26
g12
I00
S'G\xc9|?\xf0\\\xc5\xbf'
p27
tp28
btp29
sS'actual_rot'
p30
(F0.5200237018490594
F-9.473874222856885
F-172.0836646051425
tp31
sS'target_pos'
p32
(lp33
cnumpy.core.multiarray
scalar
p34
(g12
S'\xd7B{\xa8~\xc2\xa0?'
p35
tp36
Rp37
ag34
(g12
S'\x8b\x82\xb4\x85=\xe3\x9e?'
p38
tp39
Rp40
ag34
(g12
S'-sJ\xd6vd\xc5\xbf'
p41
tp42
Rp43
asS'target_rot'
p44
g2
(cnumpy
ndarray
p45
(I0
tp46
g5
tp47
Rp48
(I1
(I3
tp49
g12
I00
S'C\xc7\xe7\xe7\x91\t\xb4?\xf5\x11>!\xe6d(\xc0a@\tTb4e\xc0'
p50
tp51
bsS'center_target_pixels'
p52
(I1143
I288
tp53
sS'center_actual_pixels'
p54
(I1142
I286
tp55
s.(dp0
S'actual_pos'
p1
(cnumpy.core.multiarray
_reconstruct
p2
(cnumpy.matrixlib.defmatrix
matrix
p3
(I0
tp4
S'b'
p5
tp6
Rp7
(I1
(I1
I1
tp8
cnumpy
dtype
p9
(S'f8'
p10
I0
I1
tp11
Rp12
(I3
S'<'
p13
NNNI-1
I-1
I0
tp14
bI00
S'N\x1c3\x84\x92\xd0\x8f?'
p15
tp16
bg2
(g3
(I0
tp17
g5
tp18
Rp19
(I1
(I1
I1
tp20
g12
I00
S'\x1b\x9d]\x8c\xc7H\x9d?'
p21
tp22
bg2
(g3
(I0
tp23
g5
tp24
Rp25
(I1
(I1
I1
tp26
g12
I00
S'\xdcz\xeb-\xee$\xc5\xbf'
p27
tp28
btp29
sS'actual_rot'
p30
(F0.9329952854993547
F-7.056993598716057
F-173.34237727397414
tp31
sS'target_pos'
p32
(lp33
cnumpy.core.multiarray
scalar
p34
(g12
S'\xe3\x02\xd3\xb4\x8a6\x91?'
p35
tp36
Rp37
ag34
(g12
S'4;\xd4\xba \x02\x9d?'
p38
tp39
Rp40
ag34
(g12
S'P\x9e\xa4ZK)\xc5\xbf'
p41
tp42
Rp43
asS'target_rot'
p44
g2
(cnumpy
ndarray
p45
(I0
tp46
g5
tp47
Rp48
(I1
(I3
tp49
g12
I00
S'C\xc7\xe7\xe7\x91\t\xb4?\xf5\x11>!\xe6d(\xc0a@\tTb4e\xc0'
p50
tp51
bsS'center_target_pixels'
p52
(I1319
I294
tp53
sS'center_actual_pixels'
p54
(I1326
I295
tp55
s.(dp0
S'actual_pos'
p1
(cnumpy.core.multiarray
_reconstruct
p2
(cnumpy.matrixlib.defmatrix
matrix
p3
(I0
tp4
S'b'
p5
tp6
Rp7
(I1
(I1
I1
tp8
cnumpy
dtype
p9
(S'f8'
p10
I0
I1
tp11
Rp12
(I3
S'<'
p13
NNNI-1
I-1
I0
tp14
bI00
S'\xae\x08f\x98G\x1f\xb2?'
p15
tp16
bg2
(g3
(I0
tp17
g5
tp18
Rp19
(I1
(I1
I1
tp20
g12
I00
S'\xea0\xb9\xd8\xc9\xe5\xa5?'
p21
tp22
bg2
(g3
(I0
tp23
g5
tp24
Rp25
(I1
(I1
I1
tp26
g12
I00
S'\x89\xe06\xef\x1b\xe1\xc5\xbf'
p27
tp28
btp29
sS'actual_rot'
p30
(F-1.0049886295403763
F-16.584558040785925
F-166.68393252695552
tp31
sS'target_pos'
p32
(lp33
cnumpy.core.multiarray
scalar
p34
(g12
S'\xdb^\x82\xa8\xa3)\xb2?'
p35
tp36
Rp37
ag34
(g12
S',F\x89u\xd6\x9d\xa5?'
p38
tp39
Rp40
ag34
(g12
S')\x94\x1b8\xe4\xed\xc5\xbf'
p41
tp42
Rp43
asS'target_rot'
p44
g2
(cnumpy
ndarray
p45
(I0
tp46
g5
tp47
Rp48
(I1
(I3
tp49
g12
I00
S'C\xc7\xe7\xe7\x91\t\xb4?\xf5\x11>!\xe6d(\xc0a@\tTb4e\xc0'
p50
tp51
bsS'center_target_pixels'
p52
(I695
I359
tp53
sS'center_actual_pixels'
p54
(I675
I355
tp55
s.(dp0
S'actual_pos'
p1
(cnumpy.core.multiarray
_reconstruct
p2
(cnumpy.matrixlib.defmatrix
matrix
p3
(I0
tp4
S'b'
p5
tp6
Rp7
(I1
(I1
I1
tp8
cnumpy
dtype
p9
(S'f8'
p10
I0
I1
tp11
Rp12
(I3
S'<'
p13
NNNI-1
I-1
I0
tp14
bI00
S'\xd9\xa8\x88\xf2n\x12\xac?'
p15
tp16
bg2
(g3
(I0
tp17
g5
tp18
Rp19
(I1
(I1
I1
tp20
g12
I00
S'|\x00N-)\x0f\xa5?'
p21
tp22
bg2
(g3
(I0
tp23
g5
tp24
Rp25
(I1
(I1
I1
tp26
g12
I00
S'H^\xcf4a\xaa\xc5\xbf'
p27
tp28
btp29
sS'actual_rot'
p30
(F-0.3100207774767315
F-13.770699881389456
F-168.385818772667
tp31
sS'target_pos'
p32
(lp33
cnumpy.core.multiarray
scalar
p34
(g12
S'\x8d\x1eP\xafS\\\xac?'
p35
tp36
Rp37
ag34
(g12
S'\x92$\xfe\xbf\x0f\xc5\xa4?'
p38
tp39
Rp40
ag34
(g12
S'I#\xbf#!\xb5\xc5\xbf'
p41
tp42
Rp43
asS'target_rot'
p44
g2
(cnumpy
ndarray
p45
(I0
tp46
g5
tp47
Rp48
(I1
(I3
tp49
g12
I00
S'C\xc7\xe7\xe7\x91\t\xb4?\xf5\x11>!\xe6d(\xc0a@\tTb4e\xc0'
p50
tp51
bsS'center_target_pixels'
p52
(I875
I366
tp53
sS'center_actual_pixels'
p54
(I857
I362
tp55
s.(dp0
S'actual_pos'
p1
(cnumpy.core.multiarray
_reconstruct
p2
(cnumpy.matrixlib.defmatrix
matrix
p3
(I0
tp4
S'b'
p5
tp6
Rp7
(I1
(I1
I1
tp8
cnumpy
dtype
p9
(S'f8'
p10
I0
I1
tp11
Rp12
(I3
S'<'
p13
NNNI-1
I-1
I0
tp14
bI00
S'\xf3A\x91\xb6\x82\xe6\xa3?'
p15
tp16
bg2
(g3
(I0
tp17
g5
tp18
Rp19
(I1
(I1
I1
tp20
g12
I00
S'3\xe7\xce\xa3\x9f*\xa4?'
p21
tp22
bg2
(g3
(I0
tp23
g5
tp24
Rp25
(I1
(I1
I1
tp26
g12
I00
S'8\xde\xa2\x88\xacs\xc5\xbf'
p27
tp28
btp29
sS'actual_rot'
p30
(F0.26892235013120797
F-11.152425976770362
F-169.98033461088562
tp31
sS'target_pos'
p32
(lp33
cnumpy.core.multiarray
scalar
p34
(g12
S'\x12\xa8\xecvtX\xa4?'
p35
tp36
Rp37
ag34
(g12
S'6N\xe2\xb9(\xe0\xa3?'
p38
tp39
Rp40
ag34
(g12
S'/\x8a\xf2\xb2\xa7{\xc5\xbf'
p41
tp42
Rp43
asS'target_rot'
p44
g2
(cnumpy
ndarray
p45
(I0
tp46
g5
tp47
Rp48
(I1
(I3
tp49
g12
I00
S'C\xc7\xe7\xe7\x91\t\xb4?\xf5\x11>!\xe6d(\xc0a@\tTb4e\xc0'
p50
tp51
bsS'center_target_pixels'
p52
(I1053
I372
tp53
sS'center_actual_pixels'
p54
(I1046
I372
tp55
s.(dp0
S'actual_pos'
p1
(cnumpy.core.multiarray
_reconstruct
p2
(cnumpy.matrixlib.defmatrix
matrix
p3
(I0
tp4
S'b'
p5
tp6
Rp7
(I1
(I1
I1
tp8
cnumpy
dtype
p9
(S'f8'
p10
I0
I1
tp11
Rp12
(I3
S'<'
p13
NNNI-1
I-1
I0
tp14
bI00
S'\xc9\xd5\tB\xd4\x89\x97?'
p15
tp16
bg2
(g3
(I0
tp17
g5
tp18
Rp19
(I1
(I1
I1
tp20
g12
I00
S"V\xc4'\\\x855\xa3?"
p21
tp22
bg2
(g3
(I0
tp23
g5
tp24
Rp25
(I1
(I1
I1
tp26
g12
I00
S'\x86\x7fB\xf4\xfe:\xc5\xbf'
p27
tp28
btp29
sS'actual_rot'
p30
(F0.8911258159306531
F-8.390962400806568
F-171.35342941763423
tp31
sS'target_pos'
p32
(lp33
cnumpy.core.multiarray
scalar
p34
(g12
S'\x94\x9e)\xd8&\xa5\x98?'
p35
tp36
Rp37
ag34
(g12
S'\xcaR9\x13^\xfc\xa2?'
p38
tp39
Rp40
ag34
(g12
S'|{00\xbbA\xc5\xbf'
p41
tp42
Rp43
asS'target_rot'
p44
g2
(cnumpy
ndarray
p45
(I0
tp46
g5
tp47
Rp48
(I1
(I3
tp49
g12
I00
S'C\xc7\xe7\xe7\x91\t\xb4?\xf5\x11>!\xe6d(\xc0a@\tTb4e\xc0'
p50
tp51
bsS'center_target_pixels'
p52
(I1228
I378
tp53
sS'center_actual_pixels'
p54
(I1231
I378
tp55
s.(dp0
S'actual_pos'
p1
(cnumpy.core.multiarray
_reconstruct
p2
(cnumpy.matrixlib.defmatrix
matrix
p3
(I0
tp4
S'b'
p5
tp6
Rp7
(I1
(I1
I1
tp8
cnumpy
dtype
p9
(S'f8'
p10
I0
I1
tp11
Rp12
(I3
S'<'
p13
NNNI-1
I-1
I0
tp14
bI00
S'\x13\xa1HS\xe9\xaa{?'
p15
tp16
bg2
(g3
(I0
tp17
g5
tp18
Rp19
(I1
(I1
I1
tp20
g12
I00
S"\xdc\x92`7'E\xa2?"
p21
tp22
bg2
(g3
(I0
tp23
g5
tp24
Rp25
(I1
(I1
I1
tp26
g12
I00
S'\xc6\x15\xa8\xf2\xff\x07\xc5\xbf'
p27
tp28
btp29
sS'actual_rot'
p30
(F1.1660954074099454
F-7.001294148528239
F-172.6729152390057
tp31
sS'target_pos'
p32
(lp33
cnumpy.core.multiarray
scalar
p34
(g12
S'\rijwl_\x80?'
p35
tp36
Rp37
ag34
(g12
S'3\xfd\x97S\x19\x07\xa2?'
p38
tp39
Rp40
ag34
(g12
S'\xdb\t8\x14\x1a\x06\xc5\xbf'
p41
tp42
Rp43
asS'target_rot'
p44
g2
(cnumpy
ndarray
p45
(I0
tp46
g5
tp47
Rp48
(I1
(I3
tp49
g12
I00
S'C\xc7\xe7\xe7\x91\t\xb4?\xf5\x11>!\xe6d(\xc0a@\tTb4e\xc0'
p50
tp51
bsS'center_target_pixels'
p52
(I1404
I383
tp53
sS'center_actual_pixels'
p54
(I1408
I383
tp55
s.(dp0
S'actual_pos'
p1
(cnumpy.core.multiarray
_reconstruct
p2
(cnumpy.matrixlib.defmatrix
matrix
p3
(I0
tp4
S'b'
p5
tp6
Rp7
(I1
(I1
I1
tp8
cnumpy
dtype
p9
(S'f8'
p10
I0
I1
tp11
Rp12
(I3
S'<'
p13
NNNI-1
I-1
I0
tp14
bI00
S'dh\x0e\xc9l\xe3\xaf?'
p15
tp16
bg2
(g3
(I0
tp17
g5
tp18
Rp19
(I1
(I1
I1
tp20
g12
I00
S'\xb1a\xffDQa\xa9?'
p21
tp22
bg2
(g3
(I0
tp23
g5
tp24
Rp25
(I1
(I1
I1
tp26
g12
I00
S'\x83\x15\x90\xe9\x9a\xbf\xc5\xbf'
p27
tp28
btp29
sS'actual_rot'
p30
(F-1.1537810336481977
F-16.355314665155078
F-166.41430109577576
tp31
sS'target_pos'
p32
(lp33
cnumpy.core.multiarray
scalar
p34
(g12
S'\xda\x8f\x98=\xfd\xed\xaf?'
p35
tp36
Rp37
ag34
(g12
S',\x12\xcf\xd6!-\xa9?'
p38
tp39
Rp40
ag34
(g12
S'G\r\x9e\xafI\xcb\xc5\xbf'
p41
tp42
Rp43
asS'target_rot'
p44
g2
(cnumpy
ndarray
p45
(I0
tp46
g5
tp47
Rp48
(I1
(I3
tp49
g12
I00
S'C\xc7\xe7\xe7\x91\t\xb4?\xf5\x11>!\xe6d(\xc0a@\tTb4e\xc0'
p50
tp51
bsS'center_target_pixels'
p52
(I783
I451
tp53
sS'center_actual_pixels'
p54
(I761
I443
tp55
s.(dp0
S'actual_pos'
p1
(cnumpy.core.multiarray
_reconstruct
p2
(cnumpy.matrixlib.defmatrix
matrix
p3
(I0
tp4
S'b'
p5
tp6
Rp7
(I1
(I1
I1
tp8
cnumpy
dtype
p9
(S'f8'
p10
I0
I1
tp11
Rp12
(I3
S'<'
p13
NNNI-1
I-1
I0
tp14
bI00
S's_\x02\xa6\xc8\xab\xa7?'
p15
tp16
bg2
(g3
(I0
tp17
g5
tp18
Rp19
(I1
(I1
I1
tp20
g12
I00
S'k\xb0\xa9\xe3\n\x82\xa8?'
p21
tp22
bg2
(g3
(I0
tp23
g5
tp24
Rp25
(I1
(I1
I1
tp26
g12
I00
S'Q.\x97d\x06\x8a\xc5\xbf'
p27
tp28
btp29
sS'actual_rot'
p30
(F-0.19477134685748643
F-13.043951105340252
F-167.7053472447894
tp31
sS'target_pos'
p32
(lp33
cnumpy.core.multiarray
scalar
p34
(g12
S'\xaa8\xe05i\xf0\xa7?'
p35
tp36
Rp37
ag34
(g12
S'\xf6\xd0\x96J\xd5Q\xa8?'
p38
tp39
Rp40
ag34
(g12
S'\xc4Rh\xe6e\x92\xc5\xbf'
p41
tp42
Rp43
asS'target_rot'
p44
g2
(cnumpy
ndarray
p45
(I0
tp46
g5
tp47
Rp48
(I1
(I3
tp49
g12
I00
S'C\xc7\xe7\xe7\x91\t\xb4?\xf5\x11>!\xe6d(\xc0a@\tTb4e\xc0'
p50
tp51
bsS'center_target_pixels'
p52
(I962
I457
tp53
sS'center_actual_pixels'
p54
(I949
I454
tp55
s.(dp0
S'actual_pos'
p1
(cnumpy.core.multiarray
_reconstruct
p2
(cnumpy.matrixlib.defmatrix
matrix
p3
(I0
tp4
S'b'
p5
tp6
Rp7
(I1
(I1
I1
tp8
cnumpy
dtype
p9
(S'f8'
p10
I0
I1
tp11
Rp12
(I3
S'<'
p13
NNNI-1
I-1
I0
tp14
bI00
S'\xe8e&f\xaa\n\x9f?'
p15
tp16
bg2
(g3
(I0
tp17
g5
tp18
Rp19
(I1
(I1
I1
tp20
g12
I00
S'3F\xed\xdd\x95\xa9\xa7?'
p21
tp22
bg2
(g3
(I0
tp23
g5
tp24
Rp25
(I1
(I1
I1
tp26
g12
I00
S'\x94\xe8G\xf0\xddP\xc5\xbf'
p27
tp28
btp29
sS'actual_rot'
p30
(F0.5218260872124547
F-10.402854559278806
F-169.48560642237973
tp31
sS'target_pos'
p32
(lp33
cnumpy.core.multiarray
scalar
p34
(g12
S'\xb6\xc3\xb5\xca\x82\xe0\x9f?'
p35
tp36
Rp37
ag34
(g12
S'\xa6\xc7\xc2\x0b\x84w\xa7?'
p38
tp39
Rp40
ag34
(g12
S'\xa2XW\xd6\x0cY\xc5\xbf'
p41
tp42
Rp43
asS'target_rot'
p44
g2
(cnumpy
ndarray
p45
(I0
tp46
g5
tp47
Rp48
(I1
(I3
tp49
g12
I00
S'C\xc7\xe7\xe7\x91\t\xb4?\xf5\x11>!\xe6d(\xc0a@\tTb4e\xc0'
p50
tp51
bsS'center_target_pixels'
p52
(I1138
I463
tp53
sS'center_actual_pixels'
p54
(I1136
I460
tp55
s.(dp0
S'actual_pos'
p1
(cnumpy.core.multiarray
_reconstruct
p2
(cnumpy.matrixlib.defmatrix
matrix
p3
(I0
tp4
S'b'
p5
tp6
Rp7
(I1
(I1
I1
tp8
cnumpy
dtype
p9
(S'f8'
p10
I0
I1
tp11
Rp12
(I3
S'<'
p13
NNNI-1
I-1
I0
tp14
bI00
S'-j\xcf#\xbe\x05\x8d?'
p15
tp16
bg2
(g3
(I0
tp17
g5
tp18
Rp19
(I1
(I1
I1
tp20
g12
I00
S'\x9b\xec\xad{X\xc0\xa6?'
p21
tp22
bg2
(g3
(I0
tp23
g5
tp24
Rp25
(I1
(I1
I1
tp26
g12
I00
S'\xc6,\no\x03\x18\xc5\xbf'
p27
tp28
btp29
sS'actual_rot'
p30
(F1.0887374547287232
F-8.228488679629859
F-170.72642963982298
tp31
sS'target_pos'
p32
(lp33
cnumpy.core.multiarray
scalar
p34
(g12
S'\xfa\x1d\xeaA\xe9P\x8f?'
p35
tp36
Rp37
ag34
(g12
S'\xfe3!c9\x8f\xa6?'
p38
tp39
Rp40
ag34
(g12
S'\\#\x07\xab\xae\x1e\xc5\xbf'
p41
tp42
Rp43
asS'target_rot'
p44
g2
(cnumpy
ndarray
p45
(I0
tp46
g5
tp47
Rp48
(I1
(I3
tp49
g12
I00
S'C\xc7\xe7\xe7\x91\t\xb4?\xf5\x11>!\xe6d(\xc0a@\tTb4e\xc0'
p50
tp51
bsS'center_target_pixels'
p52
(I1313
I468
tp53
sS'center_actual_pixels'
p54
(I1319
I472
tp55
s.(dp0
S'actual_pos'
p1
(cnumpy.core.multiarray
_reconstruct
p2
(cnumpy.matrixlib.defmatrix
matrix
p3
(I0
tp4
S'b'
p5
tp6
Rp7
(I1
(I1
I1
tp8
cnumpy
dtype
p9
(S'f8'
p10
I0
I1
tp11
Rp12
(I3
S'<'
p13
NNNI-1
I-1
I0
tp14
bI00
S'@\xcfnS\xe9\xc5\xb1?'
p15
tp16
bg2
(g3
(I0
tp17
g5
tp18
Rp19
(I1
(I1
I1
tp20
g12
I00
S'\xaa\x9c\xf5\xea\xbc\xb2\xad?'
p21
tp22
bg2
(g3
(I0
tp23
g5
tp24
Rp25
(I1
(I1
I1
tp26
g12
I00
S'\xd2\xd0\xc6\x9bE\xd6\xc5\xbf'
p27
tp28
btp29
sS'actual_rot'
p30
(F-1.5894640867145515
F-17.056459965302576
F-164.86149138048307
tp31
sS'target_pos'
p32
(lp33
cnumpy.core.multiarray
scalar
p34
(g12
S'Ut\xb0\x03\x01\xc6\xb1?'
p35
tp36
Rp37
ag34
(g12
S'\xf23j>)\x99\xad?'
p38
tp39
Rp40
ag34
(g12
S'\x1di\x0f\xa8I\xe1\xc5\xbf'
p41
tp42
Rp43
asS'target_rot'
p44
g2
(cnumpy
ndarray
p45
(I0
tp46
g5
tp47
Rp48
(I1
(I3
tp49
g12
I00
S'C\xc7\xe7\xe7\x91\t\xb4?\xf5\x11>!\xe6d(\xc0a@\tTb4e\xc0'
p50
tp51
bsS'center_target_pixels'
p52
(I689
I537
tp53
sS'center_actual_pixels'
p54
(I668
I530
tp55
s.(dp0
S'actual_pos'
p1
(cnumpy.core.multiarray
_reconstruct
p2
(cnumpy.matrixlib.defmatrix
matrix
p3
(I0
tp4
S'b'
p5
tp6
Rp7
(I1
(I1
I1
tp8
cnumpy
dtype
p9
(S'f8'
p10
I0
I1
tp11
Rp12
(I3
S'<'
p13
NNNI-1
I-1
I0
tp14
bI00
S'`\x12$\xe9\x0eZ\xab?'
p15
tp16
bg2
(g3
(I0
tp17
g5
tp18
Rp19
(I1
(I1
I1
tp20
g12
I00
S'{\xd6\x0b\x05(\xe3\xac?'
p21
tp22
bg2
(g3
(I0
tp23
g5
tp24
Rp25
(I1
(I1
I1
tp26
g12
I00
S'\xec\xd7G\xf89\x9e\xc5\xbf'
p27
tp28
btp29
sS'actual_rot'
p30
(F-0.7891792956066083
F-14.666424836043406
F-165.82651382978204
tp31
sS'target_pos'
p32
(lp33
cnumpy.core.multiarray
scalar
p34
(g12
S'%\xf8\xbd\x9d\xfc\x89\xab?'
p35
tp36
Rp37
ag34
(g12
S'\xe4V\x1c\xda)\xc6\xac?'
p38
tp39
Rp40
ag34
(g12
S'\x867\xc9@\xae\xa8\xc5\xbf'
p41
tp42
Rp43
asS'target_rot'
p44
g2
(cnumpy
ndarray
p45
(I0
tp46
g5
tp47
Rp48
(I1
(I3
tp49
g12
I00
S'C\xc7\xe7\xe7\x91\t\xb4?\xf5\x11>!\xe6d(\xc0a@\tTb4e\xc0'
p50
tp51
bsS'center_target_pixels'
p52
(I870
I543
tp53
sS'center_actual_pixels'
p54
(I853
I539
tp55
s.(dp0
S'actual_pos'
p1
(cnumpy.core.multiarray
_reconstruct
p2
(cnumpy.matrixlib.defmatrix
matrix
p3
(I0
tp4
S'b'
p5
tp6
Rp7
(I1
(I1
I1
tp8
cnumpy
dtype
p9
(S'f8'
p10
I0
I1
tp11
Rp12
(I3
S'<'
p13
NNNI-1
I-1
I0
tp14
bI00
S'\x9e\x98\x02u\xa5/\xa3?'
p15
tp16
bg2
(g3
(I0
tp17
g5
tp18
Rp19
(I1
(I1
I1
tp20
g12
I00
S'\x87\x9f\r\xcb\xc1\x07\xac?'
p21
tp22
bg2
(g3
(I0
tp23
g5
tp24
Rp25
(I1
(I1
I1
tp26
g12
I00
S'%\x1edw\xacf\xc5\xbf'
p27
tp28
btp29
sS'actual_rot'
p30
(F0.08365771731710879
F-11.98019322345439
F-166.96954292012558
tp31
sS'target_pos'
p32
(lp33
cnumpy.core.multiarray
scalar
p34
(g12
S'\xf73fh\x87\x91\xa3?'
p35
tp36
Rp37
ag34
(g12
S'\x88Wf\xe9\xec\xe9\xab?'
p38
tp39
Rp40
ag34
(g12
S'\x1c3\xb4$\xfeo\xc5\xbf'
p41
tp42
Rp43
asS'target_rot'
p44
g2
(cnumpy
ndarray
p45
(I0
tp46
g5
tp47
Rp48
(I1
(I3
tp49
g12
I00
S'C\xc7\xe7\xe7\x91\t\xb4?\xf5\x11>!\xe6d(\xc0a@\tTb4e\xc0'
p50
tp51
bsS'center_target_pixels'
p52
(I1047
I548
tp53
sS'center_actual_pixels'
p54
(I1041
I547
tp55
s.(dp0
S'actual_pos'
p1
(cnumpy.core.multiarray
_reconstruct
p2
(cnumpy.matrixlib.defmatrix
matrix
p3
(I0
tp4
S'b'
p5
tp6
Rp7
(I1
(I1
I1
tp8
cnumpy
dtype
p9
(S'f8'
p10
I0
I1
tp11
Rp12
(I3
S'<'
p13
NNNI-1
I-1
I0
tp14
bI00
S'#\x80n\xf6\xca4\x96?'
p15
tp16
bg2
(g3
(I0
tp17
g5
tp18
Rp19
(I1
(I1
I1
tp20
g12
I00
S'S\xda\xc44\xfd\x1f\xab?'
p21
tp22
bg2
(g3
(I0
tp23
g5
tp24
Rp25
(I1
(I1
I1
tp26
g12
I00
S'\x85<\x90h\x1d0\xc5\xbf'
p27
tp28
btp29
sS'actual_rot'
p30
(F0.6649295144404486
F-10.186498249120225
F-169.2538040437937
tp31
sS'target_pos'
p32
(lp33
cnumpy.core.multiarray
scalar
p34
(g12
S'\x86\xe7\xfd\xa37\xff\x96?'
p35
tp36
Rp37
ag34
(g12
S'41)=G\x0b\xab?'
p38
tp39
Rp40
ag34
(g12
S'm\x0b\xa3R56\xc5\xbf'
p41
tp42
Rp43
asS'target_rot'
p44
g2
(cnumpy
ndarray
p45
(I0
tp46
g5
tp47
Rp48
(I1
(I3
tp49
g12
I00
S'C\xc7\xe7\xe7\x91\t\xb4?\xf5\x11>!\xe6d(\xc0a@\tTb4e\xc0'
p50
tp51
bsS'center_target_pixels'
p52
(I1223
I553
tp53
sS'center_actual_pixels'
p54
(I1222
I553
tp55
s.(dp0
S'actual_pos'
p1
(cnumpy.core.multiarray
_reconstruct
p2
(cnumpy.matrixlib.defmatrix
matrix
p3
(I0
tp4
S'b'
p5
tp6
Rp7
(I1
(I1
I1
tp8
cnumpy
dtype
p9
(S'f8'
p10
I0
I1
tp11
Rp12
(I3
S'<'
p13
NNNI-1
I-1
I0
tp14
bI00
S'\xf8\xab^\x01z\xa7u?'
p15
tp16
bg2
(g3
(I0
tp17
g5
tp18
Rp19
(I1
(I1
I1
tp20
g12
I00
S'\xd7T\xebq\xc3A\xaa?'
p21
tp22
bg2
(g3
(I0
tp23
g5
tp24
Rp25
(I1
(I1
I1
tp26
g12
I00
S'\xd9L\x0f\xb1\xea\xf4\xc4\xbf'
p27
tp28
btp29
sS'actual_rot'
p30
(F1.283730181972102
F-8.232546132839976
F-170.44151943354288
tp31
sS'target_pos'
p32
(lp33
cnumpy.core.multiarray
scalar
p34
(g12
S'J\xd5\xe6hN\x14z?'
p35
tp36
Rp37
ag34
(g12
S'\x17n\xa2\x01\xa5(\xaa?'
p38
tp39
Rp40
ag34
(g12
S'\xa1\xe3f\x84\xf9\xfa\xc4\xbf'
p41
tp42
Rp43
asS'target_rot'
p44
g2
(cnumpy
ndarray
p45
(I0
tp46
g5
tp47
Rp48
(I1
(I3
tp49
g12
I00
S'C\xc7\xe7\xe7\x91\t\xb4?\xf5\x11>!\xe6d(\xc0a@\tTb4e\xc0'
p50
tp51
bsS'center_target_pixels'
p52
(I1399
I558
tp53
sS'center_actual_pixels'
p54
(I1406
I556
tp55
s.(dp0
S'actual_pos'
p1
(cnumpy.core.multiarray
_reconstruct
p2
(cnumpy.matrixlib.defmatrix
matrix
p3
(I0
tp4
S'b'
p5
tp6
Rp7
(I1
(I1
I1
tp8
cnumpy
dtype
p9
(S'f8'
p10
I0
I1
tp11
Rp12
(I3
S'<'
p13
NNNI-1
I-1
I0
tp14
bI00
S'l1\xb8!\xdf\x1b\xaf?'
p15
tp16
bg2
(g3
(I0
tp17
g5
tp18
Rp19
(I1
(I1
I1
tp20
g12
I00
S'\xe8z\xf6q\xd1\x9f\xb0?'
p21
tp22
bg2
(g3
(I0
tp23
g5
tp24
Rp25
(I1
(I1
I1
tp26
g12
I00
S'\x80\xe0\xd80\xd9\xb0\xc5\xbf'
p27
tp28
btp29
sS'actual_rot'
p30
(F-1.6801820185625496
F-16.662984670675645
F-164.19903413500134
tp31
sS'target_pos'
p32
(lp33
cnumpy.core.multiarray
scalar
p34
(g12
S'\xe8\xf8\x13\xa3N&\xaf?'
p35
tp36
Rp37
ag34
(g12
S'\xa8\x95\xfaN\x99\x98\xb0?'
p38
tp39
Rp40
ag34
(g12
S'\xc1\xado$\x93\xbe\xc5\xbf'
p41
tp42
Rp43
asS'target_rot'
p44
g2
(cnumpy
ndarray
p45
(I0
tp46
g5
tp47
Rp48
(I1
(I3
tp49
g12
I00
S'C\xc7\xe7\xe7\x91\t\xb4?\xf5\x11>!\xe6d(\xc0a@\tTb4e\xc0'
p50
tp51
bsS'center_target_pixels'
p52
(I777
I629
tp53
sS'center_actual_pixels'
p54
(I755
I620
tp55
s.(dp0
S'actual_pos'
p1
(cnumpy.core.multiarray
_reconstruct
p2
(cnumpy.matrixlib.defmatrix
matrix
p3
(I0
tp4
S'b'
p5
tp6
Rp7
(I1
(I1
I1
tp8
cnumpy
dtype
p9
(S'f8'
p10
I0
I1
tp11
Rp12
(I3
S'<'
p13
NNNI-1
I-1
I0
tp14
bI00
S'\xc0\xcc\xb3\x9ae\xeb\xa6?'
p15
tp16
bg2
(g3
(I0
tp17
g5
tp18
Rp19
(I1
(I1
I1
tp20
g12
I00
S'YIW\x14\n=\xb0?'
p21
tp22
bg2
(g3
(I0
tp23
g5
tp24
Rp25
(I1
(I1
I1
tp26
g12
I00
S'\xce\x16Q\x86\x02~\xc5\xbf'
p27
tp28
btp29
sS'actual_rot'
p30
(F-0.5579434923508935
F-13.699482357464964
F-165.32598616997103
tp31
sS'target_pos'
p32
(lp33
cnumpy.core.multiarray
scalar
p34
(g12
S'\x8b\x87\xa4R\xfb(\xa7?'
p35
tp36
Rp37
ag34
(g12
S'NpR\xfe\xaa.\xb0?'
p38
tp39
Rp40
ag34
(g12
S"IO\x1c\xf2'\x86\xc5\xbf"
p41
tp42
Rp43
asS'target_rot'
p44
g2
(cnumpy
ndarray
p45
(I0
tp46
g5
tp47
Rp48
(I1
(I3
tp49
g12
I00
S'C\xc7\xe7\xe7\x91\t\xb4?\xf5\x11>!\xe6d(\xc0a@\tTb4e\xc0'
p50
tp51
bsS'center_target_pixels'
p52
(I956
I634
tp53
sS'center_actual_pixels'
p54
(I945
I634
tp55
s.(dp0
S'actual_pos'
p1
(cnumpy.core.multiarray
_reconstruct
p2
(cnumpy.matrixlib.defmatrix
matrix
p3
(I0
tp4
S'b'
p5
tp6
Rp7
(I1
(I1
I1
tp8
cnumpy
dtype
p9
(S'f8'
p10
I0
I1
tp11
Rp12
(I3
S'<'
p13
NNNI-1
I-1
I0
tp14
bI00
S'L\x05\xf0\x04\xfa\xaa\x9d?'
p15
tp16
bg2
(g3
(I0
tp17
g5
tp18
Rp19
(I1
(I1
I1
tp20
g12
I00
S'\xab\\\x99\xcb\xcc\xa0\xaf?'
p21
tp22
bg2
(g3
(I0
tp23
g5
tp24
Rp25
(I1
(I1
I1
tp26
g12
I00
S'I\xae\xc0\xa4vD\xc5\xbf'
p27
tp28
btp29
sS'actual_rot'
p30
(F0.08624567757673773
F-11.996330356236614
F-166.8192493136987
tp31
sS'target_pos'
p32
(lp33
cnumpy.core.multiarray
scalar
p34
(g12
S'0\rI\x038:\x9e?'
p35
tp36
Rp37
ag34
(g12
S'\xbeq\xc6\xde\x91\x88\xaf?'
p38
tp39
Rp40
ag34
(g12
S'"\xcb\x9f\xb1\xf3L\xc5\xbf'
p41
tp42
Rp43
asS'target_rot'
p44
g2
(cnumpy
ndarray
p45
(I0
tp46
g5
tp47
Rp48
(I1
(I3
tp49
g12
I00
S'C\xc7\xe7\xe7\x91\t\xb4?\xf5\x11>!\xe6d(\xc0a@\tTb4e\xc0'
p50
tp51
bsS'center_target_pixels'
p52
(I1133
I639
tp53
sS'center_actual_pixels'
p54
(I1128
I637
tp55
s.(dp0
S'actual_pos'
p1
(cnumpy.core.multiarray
_reconstruct
p2
(cnumpy.matrixlib.defmatrix
matrix
p3
(I0
tp4
S'b'
p5
tp6
Rp7
(I1
(I1
I1
tp8
cnumpy
dtype
p9
(S'f8'
p10
I0
I1
tp11
Rp12
(I3
S'<'
p13
NNNI-1
I-1
I0
tp14
bI00
S'B\x9f\xba@\xbd]\x8a?'
p15
tp16
bg2
(g3
(I0
tp17
g5
tp18
Rp19
(I1
(I1
I1
tp20
g12
I00
S'\xdaD\xb2/\x8e\xc0\xae?'
p21
tp22
bg2
(g3
(I0
tp23
g5
tp24
Rp25
(I1
(I1
I1
tp26
g12
I00
S'\x91"x\xc4\x8b\x07\xc5\xbf'
p27
tp28
btp29
sS'actual_rot'
p30
(F0.6767390276953938
F-10.390322787067507
F-168.6389038518091
tp31
sS'target_pos'
p32
(lp33
cnumpy.core.multiarray
scalar
p34
(g12
S'\x82\x88\x81\x0e5\x02\x8c?'
p35
tp36
Rp37
ag34
(g12
S'R\xbf\x83b5\xa7\xae?'
p38
tp39
Rp40
ag34
(g12
S'\x1b?W\xbe\x0c\x13\xc5\xbf'
p41
tp42
Rp43
asS'target_rot'
p44
g2
(cnumpy
ndarray
p45
(I0
tp46
g5
tp47
Rp48
(I1
(I3
tp49
g12
I00
S'C\xc7\xe7\xe7\x91\t\xb4?\xf5\x11>!\xe6d(\xc0a@\tTb4e\xc0'
p50
tp51
bsS'center_target_pixels'
p52
(I1308
I643
tp53
sS'center_actual_pixels'
p54
(I1309
I642
tp55
s.(dp0
S'actual_pos'
p1
(cnumpy.core.multiarray
_reconstruct
p2
(cnumpy.matrixlib.defmatrix
matrix
p3
(I0
tp4
S'b'
p5
tp6
Rp7
(I1
(I1
I1
tp8
cnumpy
dtype
p9
(S'f8'
p10
I0
I1
tp11
Rp12
(I3
S'<'
p13
NNNI-1
I-1
I0
tp14
bI00
S'[\x96D=\x14l\xb1?'
p15
tp16
bg2
(g3
(I0
tp17
g5
tp18
Rp19
(I1
(I1
I1
tp20
g12
I00
S'\\b/\x8f\x81\xde\xb2?'
p21
tp22
bg2
(g3
(I0
tp23
g5
tp24
Rp25
(I1
(I1
I1
tp26
g12
I00
S'::\xf7^\xae\xc8\xc5\xbf'
p27
tp28
btp29
sS'actual_rot'
p30
(F-2.0875886556616794
F-17.097691006255033
F-163.32320418147015
tp31
sS'target_pos'
p32
(lp33
cnumpy.core.multiarray
scalar
p34
(g12
S'\xa1rE^+l\xb1?'
p35
tp36
Rp37
ag34
(g12
S'\\\x0cL2(\xd6\xb2?'
p38
tp39
Rp40
ag34
(g12
S'\xde\xa0\xec.\x83\xd4\xc5\xbf'
p41
tp42
Rp43
asS'target_rot'
p44
g2
(cnumpy
ndarray
p45
(I0
tp46
g5
tp47
Rp48
(I1
(I3
tp49
g12
I00
S'C\xc7\xe7\xe7\x91\t\xb4?\xf5\x11>!\xe6d(\xc0a@\tTb4e\xc0'
p50
tp51
bsS'center_target_pixels'
p52
(I681
I717
tp53
sS'center_actual_pixels'
p54
(I662
I706
tp55
s.(dp0
S'actual_pos'
p1
(cnumpy.core.multiarray
_reconstruct
p2
(cnumpy.matrixlib.defmatrix
matrix
p3
(I0
tp4
S'b'
p5
tp6
Rp7
(I1
(I1
I1
tp8
cnumpy
dtype
p9
(S'f8'
p10
I0
I1
tp11
Rp12
(I3
S'<'
p13
NNNI-1
I-1
I0
tp14
bI00
S'\xab\xe1\x94\x94\xf8\xa2\xaa?'
p15
tp16
bg2
(g3
(I0
tp17
g5
tp18
Rp19
(I1
(I1
I1
tp20
g12
I00
S'`R\x08e\xefr\xb2?'
p21
tp22
bg2
(g3
(I0
tp23
g5
tp24
Rp25
(I1
(I1
I1
tp26
g12
I00
S'\xf7\x88\xdc\xder\x8e\xc5\xbf'
p27
tp28
btp29
sS'actual_rot'
p30
(F-1.2683373234870352
F-15.15624204977149
F-163.84851691798934
tp31
sS'target_pos'
p32
(lp33
cnumpy.core.multiarray
scalar
p34
(g12
S'\x1f4\x83\x0fP\xcd\xaa?'
p35
tp36
Rp37
ag34
(g12
S'\xb2n)\x13/j\xb2?'
p38
tp39
Rp40
ag34
(g12
S'\xc3%\xb9\xc7*\x9c\xc5\xbf'
p41
tp42
Rp43
asS'target_rot'
p44
g2
(cnumpy
ndarray
p45
(I0
tp46
g5
tp47
Rp48
(I1
(I3
tp49
g12
I00
S'C\xc7\xe7\xe7\x91\t\xb4?\xf5\x11>!\xe6d(\xc0a@\tTb4e\xc0'
p50
tp51
bsS'center_target_pixels'
p52
(I863
I721
tp53
sS'center_actual_pixels'
p54
(I852
I718
tp55
s.(dp0
S'actual_pos'
p1
(cnumpy.core.multiarray
_reconstruct
p2
(cnumpy.matrixlib.defmatrix
matrix
p3
(I0
tp4
S'b'
p5
tp6
Rp7
(I1
(I1
I1
tp8
cnumpy
dtype
p9
(S'f8'
p10
I0
I1
tp11
Rp12
(I3
S'<'
p13
NNNI-1
I-1
I0
tp14
bI00
S'X\x08\xb3:\xbcg\xa2?'
p15
tp16
bg2
(g3
(I0
tp17
g5
tp18
Rp19
(I1
(I1
I1
tp20
g12
I00
S'jg\xad\x91\n\x08\xb2?'
p21
tp22
bg2
(g3
(I0
tp23
g5
tp24
Rp25
(I1
(I1
I1
tp26
g12
I00
S'\xad;9\x82\xe3W\xc5\xbf'
p27
tp28
btp29
sS'actual_rot'
p30
(F-0.15480292047148084
F-12.482142888265322
F-164.77001794605846
tp31
sS'target_pos'
p32
(lp33
cnumpy.core.multiarray
scalar
p34
(g12
S'\x1d\xd4\xf1^\x12\xbe\xa2?'
p35
tp36
Rp37
ag34
(g12
S'\x97:\xdc\x04Q\xfe\xb1?'
p38
tp39
Rp40
ag34
(g12
S'\xcfot\x86Qc\xc5\xbf'
p41
tp42
Rp43
asS'target_rot'
p44
g2
(cnumpy
ndarray
p45
(I0
tp46
g5
tp47
Rp48
(I1
(I3
tp49
g12
I00
S'C\xc7\xe7\xe7\x91\t\xb4?\xf5\x11>!\xe6d(\xc0a@\tTb4e\xc0'
p50
tp51
bsS'center_target_pixels'
p52
(I1042
I725
tp53
sS'center_actual_pixels'
p54
(I1035
I725
tp55
s.(dp0
S'actual_pos'
p1
(cnumpy.core.multiarray
_reconstruct
p2
(cnumpy.matrixlib.defmatrix
matrix
p3
(I0
tp4
S'b'
p5
tp6
Rp7
(I1
(I1
I1
tp8
cnumpy
dtype
p9
(S'f8'
p10
I0
I1
tp11
Rp12
(I3
S'<'
p13
NNNI-1
I-1
I0
tp14
bI00
S'\xaa\xff4\xe7\xa9\xc6\x94?'
p15
tp16
bg2
(g3
(I0
tp17
g5
tp18
Rp19
(I1
(I1
I1
tp20
g12
I00
S'V6\xd3\xcc6\xa1\xb1?'
p21
tp22
bg2
(g3
(I0
tp23
g5
tp24
Rp25
(I1
(I1
I1
tp26
g12
I00
S"\x98\xd9\x0f?'\x1e\xc5\xbf"
p27
tp28
btp29
sS'actual_rot'
p30
(F0.10898398333990682
F-11.915966604472432
F-166.5380917473127
tp31
sS'target_pos'
p32
(lp33
cnumpy.core.multiarray
scalar
p34
(g12
S'h6\xb9F\xa1T\x95?'
p35
tp36
Rp37
ag34
(g12
S'{\x8c\xbb\xcc\x7f\x98\xb1?'
p38
tp39
Rp40
ag34
(g12
S'\x0c~\xc0 \xeb)\xc5\xbf'
p41
tp42
Rp43
asS'target_rot'
p44
g2
(cnumpy
ndarray
p45
(I0
tp46
g5
tp47
Rp48
(I1
(I3
tp49
g12
I00
S'C\xc7\xe7\xe7\x91\t\xb4?\xf5\x11>!\xe6d(\xc0a@\tTb4e\xc0'
p50
tp51
bsS'center_target_pixels'
p52
(I1218
I730
tp53
sS'center_actual_pixels'
p54
(I1213
I734
tp55
s.(dp0
S'actual_pos'
p1
(cnumpy.core.multiarray
_reconstruct
p2
(cnumpy.matrixlib.defmatrix
matrix
p3
(I0
tp4
S'b'
p5
tp6
Rp7
(I1
(I1
I1
tp8
cnumpy
dtype
p9
(S'f8'
p10
I0
I1
tp11
Rp12
(I3
S'<'
p13
NNNI-1
I-1
I0
tp14
bI00
S'\xcb\xa4\xe1kE\x91p?'
p15
tp16
bg2
(g3
(I0
tp17
g5
tp18
Rp19
(I1
(I1
I1
tp20
g12
I00
S'\x89\xba\xa0\x14\x0b6\xb1?'
p21
tp22
bg2
(g3
(I0
tp23
g5
tp24
Rp25
(I1
(I1
I1
tp26
g12
I00
S'\xeex\xf8\xb1\xb6\xe3\xc4\xbf'
p27
tp28
btp29
sS'actual_rot'
p30
(F0.7185853662629124
F-10.449915306913912
F-168.44338833849542
tp31
sS'target_pos'
p32
(lp33
cnumpy.core.multiarray
scalar
p34
(g12
S'j?,o\xd8ds?'
p35
tp36
Rp37
ag34
(g12
S'\x95+\x13\xb4\xdb*\xb1?'
p38
tp39
Rp40
ag34
(g12
S"\xb6pJ\xda'\xef\xc4\xbf"
p41
tp42
Rp43
asS'target_rot'
p44
g2
(cnumpy
ndarray
p45
(I0
tp46
g5
tp47
Rp48
(I1
(I3
tp49
g12
I00
S'C\xc7\xe7\xe7\x91\t\xb4?\xf5\x11>!\xe6d(\xc0a@\tTb4e\xc0'
p50
tp51
bsS'center_target_pixels'
p52
(I1394
I734
tp53
sS'center_actual_pixels'
p54
(I1397
I734
tp55
s.