(dp0
S'actual_pos'
p1
(cnumpy.core.multiarray
_reconstruct
p2
(cnumpy.matrixlib.defmatrix
matrix
p3
(I0
tp4
S'b'
p5
tp6
Rp7
(I1
(I1
I1
tp8
cnumpy
dtype
p9
(S'f8'
p10
I0
I1
tp11
Rp12
(I3
S'<'
p13
NNNI-1
I-1
I0
tp14
bI00
S'\xf5\x91\x9c\x14\xe0\x12\xb0?'
p15
tp16
bg2
(g3
(I0
tp17
g5
tp18
Rp19
(I1
(I1
I1
tp20
g12
I00
S'd\x99\xa3\xae"s\x92?'
p21
tp22
bg2
(g3
(I0
tp23
g5
tp24
Rp25
(I1
(I1
I1
tp26
g12
I00
S',;\xb7N\xb2\xd5\xc5\xbf'
p27
tp28
btp29
sS'actual_rot'
p30
(F-0.002093331803284763
F-13.089933056606084
F-170.88954929066261
tp31
sS'target_pos'
p32
(lp33
cnumpy.core.multiarray
scalar
p34
(g12
S'\xeb\xacS\xd0W7\xb0?'
p35
tp36
Rp37
ag34
(g12
S'\xe9"\xfa\x05\xfc\xb7\x91?'
p38
tp39
Rp40
ag34
(g12
S'@\xb3\xb2\x13\r\xdf\xc5\xbf'
p41
tp42
Rp43
asS'target_rot'
p44
g2
(cnumpy
ndarray
p45
(I0
tp46
g5
tp47
Rp48
(I1
(I3
tp49
g12
I00
S'C\xc7\xe7\xe7\x91\t\xb4?\xf5\x11>!\xe6d(\xc0a@\tTb4e\xc0'
p50
tp51
bsS'center_target_pixels'
p52
(I808
I91
tp53
sS'center_actual_pixels'
p54
(I808
I96
tp55
s.(dp0
S'actual_pos'
p1
(cnumpy.core.multiarray
_reconstruct
p2
(cnumpy.matrixlib.defmatrix
matrix
p3
(I0
tp4
S'b'
p5
tp6
Rp7
(I1
(I1
I1
tp8
cnumpy
dtype
p9
(S'f8'
p10
I0
I1
tp11
Rp12
(I3
S'<'
p13
NNNI-1
I-1
I0
tp14
bI00
S'\xb0\xd4\r\x16M\xf4\xa7?'
p15
tp16
bg2
(g3
(I0
tp17
g5
tp18
Rp19
(I1
(I1
I1
tp20
g12
I00
S'\x14\x8f\xa3,\x81\x0c\x91?'
p21
tp22
bg2
(g3
(I0
tp23
g5
tp24
Rp25
(I1
(I1
I1
tp26
g12
I00
S'~\xa3=4\xc2\x9a\xc5\xbf'
p27
tp28
btp29
sS'actual_rot'
p30
(F0.1870933730974891
F-11.020937753046475
F-172.5853733238037
tp31
sS'target_pos'
p32
(lp33
cnumpy.core.multiarray
scalar
p34
(g12
S'\xbe\x8f\xcb"rh\xa8?'
p35
tp36
Rp37
ag34
(g12
S'\x9f\xac\xa1\x9c\xd4@\x90?'
p38
tp39
Rp40
ag34
(g12
S'\xe9#SM\xd1\xa4\xc5\xbf'
p41
tp42
Rp43
asS'target_rot'
p44
g2
(cnumpy
ndarray
p45
(I0
tp46
g5
tp47
Rp48
(I1
(I3
tp49
g12
I00
S'C\xc7\xe7\xe7\x91\t\xb4?\xf5\x11>!\xe6d(\xc0a@\tTb4e\xc0'
p50
tp51
bsS'center_target_pixels'
p52
(I987
I103
tp53
sS'center_actual_pixels'
p54
(I990
I108
tp55
s.(dp0
S'actual_pos'
p1
(cnumpy.core.multiarray
_reconstruct
p2
(cnumpy.matrixlib.defmatrix
matrix
p3
(I0
tp4
S'b'
p5
tp6
Rp7
(I1
(I1
I1
tp8
cnumpy
dtype
p9
(S'f8'
p10
I0
I1
tp11
Rp12
(I3
S'<'
p13
NNNI-1
I-1
I0
tp14
bI00
S'\xb45\x06-\x86\x92\x9f?'
p15
tp16
bg2
(g3
(I0
tp17
g5
tp18
Rp19
(I1
(I1
I1
tp20
g12
I00
S'\x1bo\xec\x7f,\xc1\x8e?'
p21
tp22
bg2
(g3
(I0
tp23
g5
tp24
Rp25
(I1
(I1
I1
tp26
g12
I00
S'\xdb\xabP\xa8Gb\xc5\xbf'
p27
tp28
btp29
sS'actual_rot'
p30
(F0.4107165410234059
F-8.305189849877712
F-173.93335700972605
tp31
sS'target_pos'
p32
(lp33
cnumpy.core.multiarray
scalar
p34
(g12
S'\xa89\xed\x9c\x94a\xa0?'
p35
tp36
Rp37
ag34
(g12
S'\xb6K\xa9\x1e\x90n\x8d?'
p38
tp39
Rp40
ag34
(g12
S'\xbfU\x16P7j\xc5\xbf'
p41
tp42
Rp43
asS'target_rot'
p44
g2
(cnumpy
ndarray
p45
(I0
tp46
g5
tp47
Rp48
(I1
(I3
tp49
g12
I00
S'C\xc7\xe7\xe7\x91\t\xb4?\xf5\x11>!\xe6d(\xc0a@\tTb4e\xc0'
p50
tp51
bsS'center_target_pixels'
p52
(I1163
I114
tp53
sS'center_actual_pixels'
p54
(I1172
I120
tp55
s.(dp0
S'actual_pos'
p1
(cnumpy.core.multiarray
_reconstruct
p2
(cnumpy.matrixlib.defmatrix
matrix
p3
(I0
tp4
S'b'
p5
tp6
Rp7
(I1
(I1
I1
tp8
cnumpy
dtype
p9
(S'f8'
p10
I0
I1
tp11
Rp12
(I3
S'<'
p13
NNNI-1
I-1
I0
tp14
bI00
S';\xaf=\xeb]\xaa\x8d?'
p15
tp16
bg2
(g3
(I0
tp17
g5
tp18
Rp19
(I1
(I1
I1
tp20
g12
I00
S'\xea\x86\x1f\x88g\xe8\x8b?'
p21
tp22
bg2
(g3
(I0
tp23
g5
tp24
Rp25
(I1
(I1
I1
tp26
g12
I00
S"S-\x88\xdf\xc6'\xc5\xbf"
p27
tp28
btp29
sS'actual_rot'
p30
(F0.49929250474527176
F-6.5197620782515076
F-174.42513122277654
tp31
sS'target_pos'
p32
(lp33
cnumpy.core.multiarray
scalar
p34
(g12
S'\xc3\x8f\xfb\xef\xd0H\x90?'
p35
tp36
Rp37
ag34
(g12
S'\x02\xcd\xb46{v\x8a?'
p38
tp39
Rp40
ag34
(g12
S'\xa1\xb8\xf3E\xc7-\xc5\xbf'
p41
tp42
Rp43
asS'target_rot'
p44
g2
(cnumpy
ndarray
p45
(I0
tp46
g5
tp47
Rp48
(I1
(I3
tp49
g12
I00
S'C\xc7\xe7\xe7\x91\t\xb4?\xf5\x11>!\xe6d(\xc0a@\tTb4e\xc0'
p50
tp51
bsS'center_target_pixels'
p52
(I1340
I126
tp53
sS'center_actual_pixels'
p54
(I1360
I132
tp55
s.(dp0
S'actual_pos'
p1
(cnumpy.core.multiarray
_reconstruct
p2
(cnumpy.matrixlib.defmatrix
matrix
p3
(I0
tp4
S'b'
p5
tp6
Rp7
(I1
(I1
I1
tp8
cnumpy
dtype
p9
(S'f8'
p10
I0
I1
tp11
Rp12
(I3
S'<'
p13
NNNI-1
I-1
I0
tp14
bI00
S'\xc0\x80U\x82\xea\x08\xb2?'
p15
tp16
bg2
(g3
(I0
tp17
g5
tp18
Rp19
(I1
(I1
I1
tp20
g12
I00
S'\xc6\x86\xdf&\x1a\xfc\x9a?'
p21
tp22
bg2
(g3
(I0
tp23
g5
tp24
Rp25
(I1
(I1
I1
tp26
g12
I00
S'\xb3\x91\xa6\x14Q\xea\xc5\xbf'
p27
tp28
btp29
sS'actual_rot'
p30
(F-0.6107223275195945
F-16.735940260342367
F-167.08720000891344
tp31
sS'target_pos'
p32
(lp33
cnumpy.core.multiarray
scalar
p34
(g12
S'\x07\x04_D\xa9\x13\xb2?'
p35
tp36
Rp37
ag34
(g12
S'eK\xcbW\x1a|\x9a?'
p38
tp39
Rp40
ag34
(g12
S'";]\xb3\xfe\xf6\xc5\xbf'
p41
tp42
Rp43
asS'target_rot'
p44
g2
(cnumpy
ndarray
p45
(I0
tp46
g5
tp47
Rp48
(I1
(I3
tp49
g12
I00
S'C\xc7\xe7\xe7\x91\t\xb4?\xf5\x11>!\xe6d(\xc0a@\tTb4e\xc0'
p50
tp51
bsS'center_target_pixels'
p52
(I712
I174
tp53
sS'center_actual_pixels'
p54
(I711
I185
tp55
s.(dp0
S'actual_pos'
p1
(cnumpy.core.multiarray
_reconstruct
p2
(cnumpy.matrixlib.defmatrix
matrix
p3
(I0
tp4
S'b'
p5
tp6
Rp7
(I1
(I1
I1
tp8
cnumpy
dtype
p9
(S'f8'
p10
I0
I1
tp11
Rp12
(I3
S'<'
p13
NNNI-1
I-1
I0
tp14
bI00
S'\xbd;\xcf\xbe~\xe2\xab?'
p15
tp16
bg2
(g3
(I0
tp17
g5
tp18
Rp19
(I1
(I1
I1
tp20
g12
I00
S'[!P\x84[\xae\x99?'
p21
tp22
bg2
(g3
(I0
tp23
g5
tp24
Rp25
(I1
(I1
I1
tp26
g12
I00
S'\x11\t\x16%\x1a\xb3\xc5\xbf'
p27
tp28
btp29
sS'actual_rot'
p30
(F-0.17636146612669826
F-13.82265443812662
F-168.88066809947392
tp31
sS'target_pos'
p32
(lp33
cnumpy.core.multiarray
scalar
p34
(g12
S'\x86\xf7\xc2\xc1\x84&\xac?'
p35
tp36
Rp37
ag34
(g12
S'\xbd\xabb\x15\xe8-\x99?'
p38
tp39
Rp40
ag34
(g12
S'9{O\x8cJ\xbd\xc5\xbf'
p41
tp42
Rp43
asS'target_rot'
p44
g2
(cnumpy
ndarray
p45
(I0
tp46
g5
tp47
Rp48
(I1
(I3
tp49
g12
I00
S'C\xc7\xe7\xe7\x91\t\xb4?\xf5\x11>!\xe6d(\xc0a@\tTb4e\xc0'
p50
tp51
bsS'center_target_pixels'
p52
(I892
I187
tp53
sS'center_actual_pixels'
p54
(I894
I201
tp55
s.(dp0
S'actual_pos'
p1
(cnumpy.core.multiarray
_reconstruct
p2
(cnumpy.matrixlib.defmatrix
matrix
p3
(I0
tp4
S'b'
p5
tp6
Rp7
(I1
(I1
I1
tp8
cnumpy
dtype
p9
(S'f8'
p10
I0
I1
tp11
Rp12
(I3
S'<'
p13
NNNI-1
I-1
I0
tp14
bI00
S'HU(b\xa5\xaf\xa3?'
p15
tp16
bg2
(g3
(I0
tp17
g5
tp18
Rp19
(I1
(I1
I1
tp20
g12
I00
S'pn\x1bi\x90,\x98?'
p21
tp22
bg2
(g3
(I0
tp23
g5
tp24
Rp25
(I1
(I1
I1
tp26
g12
I00
S'1q\t\xc7\xa2x\xc5\xbf'
p27
tp28
btp29
sS'actual_rot'
p30
(F0.19251440884144233
F-11.191353992687173
F-170.58179567998215
tp31
sS'target_pos'
p32
(lp33
cnumpy.core.multiarray
scalar
p34
(g12
S'KLs\x0bp\x1a\xa4?'
p35
tp36
Rp37
ag34
(g12
S'\xcf\xd5\xd7\x13\xb2\xb2\x97?'
p38
tp39
Rp40
ag34
(g12
S'\x1b\x87^@\xf6\x82\xc5\xbf'
p41
tp42
Rp43
asS'target_rot'
p44
g2
(cnumpy
ndarray
p45
(I0
tp46
g5
tp47
Rp48
(I1
(I3
tp49
g12
I00
S'C\xc7\xe7\xe7\x91\t\xb4?\xf5\x11>!\xe6d(\xc0a@\tTb4e\xc0'
p50
tp51
bsS'center_target_pixels'
p52
(I1070
I198
tp53
sS'center_actual_pixels'
p54
(I1079
I211
tp55
s.(dp0
S'actual_pos'
p1
(cnumpy.core.multiarray
_reconstruct
p2
(cnumpy.matrixlib.defmatrix
matrix
p3
(I0
tp4
S'b'
p5
tp6
Rp7
(I1
(I1
I1
tp8
cnumpy
dtype
p9
(S'f8'
p10
I0
I1
tp11
Rp12
(I3
S'<'
p13
NNNI-1
I-1
I0
tp14
bI00
S'\xba|\x8b[\xcf\xbf\x96?'
p15
tp16
bg2
(g3
(I0
tp17
g5
tp18
Rp19
(I1
(I1
I1
tp20
g12
I00
S'\x0c\x05-\xf7\xcf\xbd\x96?'
p21
tp22
bg2
(g3
(I0
tp23
g5
tp24
Rp25
(I1
(I1
I1
tp26
g12
I00
S't\xd7P\x1a\x0f@\xc5\xbf'
p27
tp28
btp29
sS'actual_rot'
p30
(F0.6621205282255695
F-7.529314232526609
F-173.66434888177542
tp31
sS'target_pos'
p32
(lp33
cnumpy.core.multiarray
scalar
p34
(g12
S'\xa2t\xba\xfdb\x01\x98?'
p35
tp36
Rp37
ag34
(g12
S'\xa1y\xae\x0bj8\x96?'
p38
tp39
Rp40
ag34
(g12
S'\xaaw\xa6\xaa\xddG\xc5\xbf'
p41
tp42
Rp43
asS'target_rot'
p44
g2
(cnumpy
ndarray
p45
(I0
tp46
g5
tp47
Rp48
(I1
(I3
tp49
g12
I00
S'C\xc7\xe7\xe7\x91\t\xb4?\xf5\x11>!\xe6d(\xc0a@\tTb4e\xc0'
p50
tp51
bsS'center_target_pixels'
p52
(I1246
I209
tp53
sS'center_actual_pixels'
p54
(I1264
I218
tp55
s.(dp0
S'actual_pos'
p1
(cnumpy.core.multiarray
_reconstruct
p2
(cnumpy.matrixlib.defmatrix
matrix
p3
(I0
tp4
S'b'
p5
tp6
Rp7
(I1
(I1
I1
tp8
cnumpy
dtype
p9
(S'f8'
p10
I0
I1
tp11
Rp12
(I3
S'<'
p13
NNNI-1
I-1
I0
tp14
bI00
S'o\x85\xfe\xdeXtx?'
p15
tp16
bg2
(g3
(I0
tp17
g5
tp18
Rp19
(I1
(I1
I1
tp20
g12
I00
S'i\xd2\x00\x80]\x19\x95?'
p21
tp22
bg2
(g3
(I0
tp23
g5
tp24
Rp25
(I1
(I1
I1
tp26
g12
I00
S'\x14\xf42\x1fE\x03\xc5\xbf'
p27
tp28
btp29
sS'actual_rot'
p30
(F0.747354195843958
F-6.508744437616723
F-174.32070928227478
tp31
sS'target_pos'
p32
(lp33
cnumpy.core.multiarray
scalar
p34
(g12
S'\xeci.\x01y\xee}?'
p35
tp36
Rp37
ag34
(g12
S'\x98\x9b*\xebM\xa0\x94?'
p38
tp39
Rp40
ag34
(g12
S'T_/:e\x0b\xc5\xbf'
p41
tp42
Rp43
asS'target_rot'
p44
g2
(cnumpy
ndarray
p45
(I0
tp46
g5
tp47
Rp48
(I1
(I3
tp49
g12
I00
S'C\xc7\xe7\xe7\x91\t\xb4?\xf5\x11>!\xe6d(\xc0a@\tTb4e\xc0'
p50
tp51
bsS'center_target_pixels'
p52
(I1422
I219
tp53
sS'center_actual_pixels'
p54
(I1441
I224
tp55
s.(dp0
S'actual_pos'
p1
(cnumpy.core.multiarray
_reconstruct
p2
(cnumpy.matrixlib.defmatrix
matrix
p3
(I0
tp4
S'b'
p5
tp6
Rp7
(I1
(I1
I1
tp8
cnumpy
dtype
p9
(S'f8'
p10
I0
I1
tp11
Rp12
(I3
S'<'
p13
NNNI-1
I-1
I0
tp14
bI00
S'JV\x92OC\xa3\xaf?'
p15
tp16
bg2
(g3
(I0
tp17
g5
tp18
Rp19
(I1
(I1
I1
tp20
g12
I00
S'\x06{\x87\xb0v.\xa1?'
p21
tp22
bg2
(g3
(I0
tp23
g5
tp24
Rp25
(I1
(I1
I1
tp26
g12
I00
S'\xf5\xe7\x14\xbe\x97\xc8\xc5\xbf'
p27
tp28
btp29
sS'actual_rot'
p30
(F-0.5068968657109023
F-15.14833431228434
F-168.7539851699907
tp31
sS'target_pos'
p32
(lp33
cnumpy.core.multiarray
scalar
p34
(g12
S'B\xd7N\xeex\xd3\xaf?'
p35
tp36
Rp37
ag34
(g12
S'\xbc\x05\x82\xebc\xea\xa0?'
p38
tp39
Rp40
ag34
(g12
S'\xe6r\xf9\xe0\xde\xd4\xc5\xbf'
p41
tp42
Rp43
asS'target_rot'
p44
g2
(cnumpy
ndarray
p45
(I0
tp46
g5
tp47
Rp48
(I1
(I3
tp49
g12
I00
S'C\xc7\xe7\xe7\x91\t\xb4?\xf5\x11>!\xe6d(\xc0a@\tTb4e\xc0'
p50
tp51
bsS'center_target_pixels'
p52
(I798
I269
tp53
sS'center_actual_pixels'
p54
(I798
I274
tp55
s.(dp0
S'actual_pos'
p1
(cnumpy.core.multiarray
_reconstruct
p2
(cnumpy.matrixlib.defmatrix
matrix
p3
(I0
tp4
S'b'
p5
tp6
Rp7
(I1
(I1
I1
tp8
cnumpy
dtype
p9
(S'f8'
p10
I0
I1
tp11
Rp12
(I3
S'<'
p13
NNNI-1
I-1
I0
tp14
bI00
S'\xa2\xae.\xb9xs\xa7?'
p15
tp16
bg2
(g3
(I0
tp17
g5
tp18
Rp19
(I1
(I1
I1
tp20
g12
I00
S'\xaae\x97\x02\x95|\xa0?'
p21
tp22
bg2
(g3
(I0
tp23
g5
tp24
Rp25
(I1
(I1
I1
tp26
g12
I00
S'\x08\x8f}_6\x90\xc5\xbf'
p27
tp28
btp29
sS'actual_rot'
p30
(F0.09616012216011963
F-11.904459147374867
F-170.05710511433935
tp31
sS'target_pos'
p32
(lp33
cnumpy.core.multiarray
scalar
p34
(g12
S'\xaa_@jl\xd9\xa7?'
p35
tp36
Rp37
ag34
(g12
S'\xf2ww\x97l7\xa0?'
p38
tp39
Rp40
ag34
(g12
S'\xfd\xe1\xf6\x86s\x9b\xc5\xbf'
p41
tp42
Rp43
asS'target_rot'
p44
g2
(cnumpy
ndarray
p45
(I0
tp46
g5
tp47
Rp48
(I1
(I3
tp49
g12
I00
S'C\xc7\xe7\xe7\x91\t\xb4?\xf5\x11>!\xe6d(\xc0a@\tTb4e\xc0'
p50
tp51
bsS'center_target_pixels'
p52
(I976
I280
tp53
sS'center_actual_pixels'
p54
(I981
I290
tp55
s.(dp0
S'actual_pos'
p1
(cnumpy.core.multiarray
_reconstruct
p2
(cnumpy.matrixlib.defmatrix
matrix
p3
(I0
tp4
S'b'
p5
tp6
Rp7
(I1
(I1
I1
tp8
cnumpy
dtype
p9
(S'f8'
p10
I0
I1
tp11
Rp12
(I3
S'<'
p13
NNNI-1
I-1
I0
tp14
bI00
S"\xab+'\x03\x80\xaf\x9e?"
p15
tp16
bg2
(g3
(I0
tp17
g5
tp18
Rp19
(I1
(I1
I1
tp20
g12
I00
S'\xf5\xd5\xc3\x14\rs\x9f?'
p21
tp22
bg2
(g3
(I0
tp23
g5
tp24
Rp25
(I1
(I1
I1
tp26
g12
I00
S'\x13\xe0]\xb9\xe1V\xc5\xbf'
p27
tp28
btp29
sS'actual_rot'
p30
(F0.5172241795184194
F-9.573853780184468
F-171.75503493403457
tp31
sS'target_pos'
p32
(lp33
cnumpy.core.multiarray
scalar
p34
(g12
S'.\xb7\x1d\xaeS\xa3\x9f?'
p35
tp36
Rp37
ag34
(g12
S'\xe9\xb4\xd2\x89\xcf\t\x9f?'
p38
tp39
Rp40
ag34
(g12
S'/\xf9!\x0cGa\xc5\xbf'
p41
tp42
Rp43
asS'target_rot'
p44
g2
(cnumpy
ndarray
p45
(I0
tp46
g5
tp47
Rp48
(I1
(I3
tp49
g12
I00
S'C\xc7\xe7\xe7\x91\t\xb4?\xf5\x11>!\xe6d(\xc0a@\tTb4e\xc0'
p50
tp51
bsS'center_target_pixels'
p52
(I1152
I291
tp53
sS'center_actual_pixels'
p54
(I1162
I300
tp55
s.(dp0
S'actual_pos'
p1
(cnumpy.core.multiarray
_reconstruct
p2
(cnumpy.matrixlib.defmatrix
matrix
p3
(I0
tp4
S'b'
p5
tp6
Rp7
(I1
(I1
I1
tp8
cnumpy
dtype
p9
(S'f8'
p10
I0
I1
tp11
Rp12
(I3
S'<'
p13
NNNI-1
I-1
I0
tp14
bI00
S'\xa8\ncf\xbc\xe9\x8b?'
p15
tp16
bg2
(g3
(I0
tp17
g5
tp18
Rp19
(I1
(I1
I1
tp20
g12
I00
S'\xf6D1\x94\xd8\xfe\x9d?'
p21
tp22
bg2
(g3
(I0
tp23
g5
tp24
Rp25
(I1
(I1
I1
tp26
g12
I00
S'7nv\xe3\x03\x1e\xc5\xbf'
p27
tp28
btp29
sS'actual_rot'
p30
(F0.937114017856914
F-7.127911665811803
F-173.13658584315792
tp31
sS'target_pos'
p32
(lp33
cnumpy.core.multiarray
scalar
p34
(g12
S'\x0b\xf5\nG\xd8\x82\x8e?'
p35
tp36
Rp37
ag34
(g12
S'\xa6\x98ys\xcb\x9e\x9d?'
p38
tp39
Rp40
ag34
(g12
S"Dh\xf3'\xaf%\xc5\xbf"
p41
tp42
Rp43
asS'target_rot'
p44
g2
(cnumpy
ndarray
p45
(I0
tp46
g5
tp47
Rp48
(I1
(I3
tp49
g12
I00
S'C\xc7\xe7\xe7\x91\t\xb4?\xf5\x11>!\xe6d(\xc0a@\tTb4e\xc0'
p50
tp51
bsS'center_target_pixels'
p52
(I1328
I302
tp53
sS'center_actual_pixels'
p54
(I1345
I309
tp55
s.(dp0
S'actual_pos'
p1
(cnumpy.core.multiarray
_reconstruct
p2
(cnumpy.matrixlib.defmatrix
matrix
p3
(I0
tp4
S'b'
p5
tp6
Rp7
(I1
(I1
I1
tp8
cnumpy
dtype
p9
(S'f8'
p10
I0
I1
tp11
Rp12
(I3
S'<'
p13
NNNI-1
I-1
I0
tp14
bI00
S'b\xfc\x07/.\xb9\xb1?'
p15
tp16
bg2
(g3
(I0
tp17
g5
tp18
Rp19
(I1
(I1
I1
tp20
g12
I00
S'\xf4\xe9\xb6\xf5\x06\x88\xa5?'
p21
tp22
bg2
(g3
(I0
tp23
g5
tp24
Rp25
(I1
(I1
I1
tp26
g12
I00
S'7>\xa2\xdc\xde\xdc\xc5\xbf'
p27
tp28
btp29
sS'actual_rot'
p30
(F-0.9157510963989808
F-16.295033825871492
F-167.06578417973088
tp31
sS'target_pos'
p32
(lp33
cnumpy.core.multiarray
scalar
p34
(g12
S'R\x88\n\xfe\xfe\xc6\xb1?'
p35
tp36
Rp37
ag34
(g12
S'J\x8c\xc9\xb6\xe86\xa5?'
p38
tp39
Rp40
ag34
(g12
S'\xe8<S\xe1]\xec\xc5\xbf'
p41
tp42
Rp43
asS'target_rot'
p44
g2
(cnumpy
ndarray
p45
(I0
tp46
g5
tp47
Rp48
(I1
(I3
tp49
g12
I00
S'C\xc7\xe7\xe7\x91\t\xb4?\xf5\x11>!\xe6d(\xc0a@\tTb4e\xc0'
p50
tp51
bsS'center_target_pixels'
p52
(I702
I351
tp53
sS'center_actual_pixels'
p54
(I701
I360
tp55
s.(dp0
S'actual_pos'
p1
(cnumpy.core.multiarray
_reconstruct
p2
(cnumpy.matrixlib.defmatrix
matrix
p3
(I0
tp4
S'b'
p5
tp6
Rp7
(I1
(I1
I1
tp8
cnumpy
dtype
p9
(S'f8'
p10
I0
I1
tp11
Rp12
(I3
S'<'
p13
NNNI-1
I-1
I0
tp14
bI00
S'}\xff\xdb\xc3\xff@\xab?'
p15
tp16
bg2
(g3
(I0
tp17
g5
tp18
Rp19
(I1
(I1
I1
tp20
g12
I00
S'\xda\x92\x13vY\xe7\xa4?'
p21
tp22
bg2
(g3
(I0
tp23
g5
tp24
Rp25
(I1
(I1
I1
tp26
g12
I00
S'\x94\x9d\xb4\xbd\xb2\xa4\xc5\xbf'
p27
tp28
btp29
sS'actual_rot'
p30
(F-0.26626045746896077
F-13.514467116900335
F-168.45092587569664
tp31
sS'target_pos'
p32
(lp33
cnumpy.core.multiarray
scalar
p34
(g12
S']\xeb\xb5\xe2&\x8e\xab?'
p35
tp36
Rp37
ag34
(g12
S'\xc2l\x8c\xb5\xcd\x96\xa4?'
p38
tp39
Rp40
ag34
(g12
S'\xbb\x01M\x8d%\xb3\xc5\xbf'
p41
tp42
Rp43
asS'target_rot'
p44
g2
(cnumpy
ndarray
p45
(I0
tp46
g5
tp47
Rp48
(I1
(I3
tp49
g12
I00
S'C\xc7\xe7\xe7\x91\t\xb4?\xf5\x11>!\xe6d(\xc0a@\tTb4e\xc0'
p50
tp51
bsS'center_target_pixels'
p52
(I882
I363
tp53
sS'center_actual_pixels'
p54
(I883
I372
tp55
s.(dp0
S'actual_pos'
p1
(cnumpy.core.multiarray
_reconstruct
p2
(cnumpy.matrixlib.defmatrix
matrix
p3
(I0
tp4
S'b'
p5
tp6
Rp7
(I1
(I1
I1
tp8
cnumpy
dtype
p9
(S'f8'
p10
I0
I1
tp11
Rp12
(I3
S'<'
p13
NNNI-1
I-1
I0
tp14
bI00
S'5\x8e\xa7\x06F\x17\xa3?'
p15
tp16
bg2
(g3
(I0
tp17
g5
tp18
Rp19
(I1
(I1
I1
tp20
g12
I00
S'\xda\x99r\x11\xa5;\xa4?'
p21
tp22
bg2
(g3
(I0
tp23
g5
tp24
Rp25
(I1
(I1
I1
tp26
g12
I00
S'\x84\xe5+\xf3\xf2k\xc5\xbf'
p27
tp28
btp29
sS'actual_rot'
p30
(F0.3282259132031432
F-10.935667310436251
F-170.0767183052258
tp31
sS'target_pos'
p32
(lp33
cnumpy.core.multiarray
scalar
p34
(g12
S']\xd1\xa9X\xd3\x8c\xa3?'
p35
tp36
Rp37
ag34
(g12
S'\x0e%\x8e\x9eL\xed\xa3?'
p38
tp39
Rp40
ag34
(g12
S'\xf7\xe3\xa6\x94\x8ey\xc5\xbf'
p41
tp42
Rp43
asS'target_rot'
p44
g2
(cnumpy
ndarray
p45
(I0
tp46
g5
tp47
Rp48
(I1
(I3
tp49
g12
I00
S'C\xc7\xe7\xe7\x91\t\xb4?\xf5\x11>!\xe6d(\xc0a@\tTb4e\xc0'
p50
tp51
bsS'center_target_pixels'
p52
(I1059
I374
tp53
sS'center_actual_pixels'
p54
(I1070
I386
tp55
s.(dp0
S'actual_pos'
p1
(cnumpy.core.multiarray
_reconstruct
p2
(cnumpy.matrixlib.defmatrix
matrix
p3
(I0
tp4
S'b'
p5
tp6
Rp7
(I1
(I1
I1
tp8
cnumpy
dtype
p9
(S'f8'
p10
I0
I1
tp11
Rp12
(I3
S'<'
p13
NNNI-1
I-1
I0
tp14
bI00
S'Z\xaf\x0f\xe7\x91\xaa\x95?'
p15
tp16
bg2
(g3
(I0
tp17
g5
tp18
Rp19
(I1
(I1
I1
tp20
g12
I00
S"\x98\x13't\x03~\xa3?"
p21
tp22
bg2
(g3
(I0
tp23
g5
tp24
Rp25
(I1
(I1
I1
tp26
g12
I00
S'\xf2\xd5\x7f\xc7\xee2\xc5\xbf'
p27
tp28
btp29
sS'actual_rot'
p30
(F1.0224392900559789
F-7.898151561268118
F-171.36030850268497
tp31
sS'target_pos'
p32
(lp33
cnumpy.core.multiarray
scalar
p34
(g12
S'\xc0\x074\xfb`\xe7\x96?'
p35
tp36
Rp37
ag34
(g12
S'\xd0Q\xaa\xe2\xd16\xa3?'
p38
tp39
Rp40
ag34
(g12
S'\xad\x0c\xb2\xf6\xf5>\xc5\xbf'
p41
tp42
Rp43
asS'target_rot'
p44
g2
(cnumpy
ndarray
p45
(I0
tp46
g5
tp47
Rp48
(I1
(I3
tp49
g12
I00
S'C\xc7\xe7\xe7\x91\t\xb4?\xf5\x11>!\xe6d(\xc0a@\tTb4e\xc0'
p50
tp51
bsS'center_target_pixels'
p52
(I1235
I384
tp53
sS'center_actual_pixels'
p54
(I1250
I393
tp55
s.(dp0
S'actual_pos'
p1
(cnumpy.core.multiarray
_reconstruct
p2
(cnumpy.matrixlib.defmatrix
matrix
p3
(I0
tp4
S'b'
p5
tp6
Rp7
(I1
(I1
I1
tp8
cnumpy
dtype
p9
(S'f8'
p10
I0
I1
tp11
Rp12
(I3
S'<'
p13
NNNI-1
I-1
I0
tp14
bI00
S'\xc6q8\xe5\xf6=t?'
p15
tp16
bg2
(g3
(I0
tp17
g5
tp18
Rp19
(I1
(I1
I1
tp20
g12
I00
S'\xd0\x92\xaf\xc9\x12\xbd\xa2?'
p21
tp22
bg2
(g3
(I0
tp23
g5
tp24
Rp25
(I1
(I1
I1
tp26
g12
I00
S'B5?\xcb\xf6\xf7\xc4\xbf'
p27
tp28
btp29
sS'actual_rot'
p30
(F1.3028580162288985
F-6.456466926425873
F-172.50929040150712
tp31
sS'target_pos'
p32
(lp33
cnumpy.core.multiarray
scalar
p34
(g12
S"\x0c\xff'\x04\xe9\xe8y?"
p35
tp36
Rp37
ag34
(g12
S's\x8dK\xd1\x1fs\xa2?'
p38
tp39
Rp40
ag34
(g12
S')zp\xd5V\x03\xc5\xbf'
p41
tp42
Rp43
asS'target_rot'
p44
g2
(cnumpy
ndarray
p45
(I0
tp46
g5
tp47
Rp48
(I1
(I3
tp49
g12
I00
S'C\xc7\xe7\xe7\x91\t\xb4?\xf5\x11>!\xe6d(\xc0a@\tTb4e\xc0'
p50
tp51
bsS'center_target_pixels'
p52
(I1410
I393
tp53
sS'center_actual_pixels'
p54
(I1433
I401
tp55
s.(dp0
S'actual_pos'
p1
(cnumpy.core.multiarray
_reconstruct
p2
(cnumpy.matrixlib.defmatrix
matrix
p3
(I0
tp4
S'b'
p5
tp6
Rp7
(I1
(I1
I1
tp8
cnumpy
dtype
p9
(S'f8'
p10
I0
I1
tp11
Rp12
(I3
S'<'
p13
NNNI-1
I-1
I0
tp14
bI00
S'%#\x8cHo?\xaf?'
p15
tp16
bg2
(g3
(I0
tp17
g5
tp18
Rp19
(I1
(I1
I1
tp20
g12
I00
S'\x9cw\xbd1x-\xa9?'
p21
tp22
bg2
(g3
(I0
tp23
g5
tp24
Rp25
(I1
(I1
I1
tp26
g12
I00
S'\x9d]biv\xbb\xc5\xbf'
p27
tp28
btp29
sS'actual_rot'
p30
(F-1.230128661146664
F-16.659099599742454
F-165.7108796953423
tp31
sS'target_pos'
p32
(lp33
cnumpy.core.multiarray
scalar
p34
(g12
S'\x02\xbf\x08HTE\xaf?'
p35
tp36
Rp37
ag34
(g12
S'\x00\x95\xc4\xffS\xed\xa8?'
p38
tp39
Rp40
ag34
(g12
S'\xf8\xb1\xd7xq\xca\xc5\xbf'
p41
tp42
Rp43
asS'target_rot'
p44
g2
(cnumpy
ndarray
p45
(I0
tp46
g5
tp47
Rp48
(I1
(I3
tp49
g12
I00
S'C\xc7\xe7\xe7\x91\t\xb4?\xf5\x11>!\xe6d(\xc0a@\tTb4e\xc0'
p50
tp51
bsS'center_target_pixels'
p52
(I787
I446
tp53
sS'center_actual_pixels'
p54
(I779
I451
tp55
s.(dp0
S'actual_pos'
p1
(cnumpy.core.multiarray
_reconstruct
p2
(cnumpy.matrixlib.defmatrix
matrix
p3
(I0
tp4
S'b'
p5
tp6
Rp7
(I1
(I1
I1
tp8
cnumpy
dtype
p9
(S'f8'
p10
I0
I1
tp11
Rp12
(I3
S'<'
p13
NNNI-1
I-1
I0
tp14
bI00
S'\xe7\x00\x12\x92\x07\x0f\xa7?'
p15
tp16
bg2
(g3
(I0
tp17
g5
tp18
Rp19
(I1
(I1
I1
tp20
g12
I00
S'\x08\xfaU3\x9b\x89\xa8?'
p21
tp22
bg2
(g3
(I0
tp23
g5
tp24
Rp25
(I1
(I1
I1
tp26
g12
I00
S'0\xfc\x01\x9b\xf5\x88\xc5\xbf'
p27
tp28
btp29
sS'actual_rot'
p30
(F-0.3630752037272016
F-13.57803385921136
F-166.95582235825015
tp31
sS'target_pos'
p32
(lp33
cnumpy.core.multiarray
scalar
p34
(g12
S'\xa4)\xd6\xd4\xeb@\xa7?'
p35
tp36
Rp37
ag34
(g12
S'F\x9d\xf9^\xbf?\xa8?'
p38
tp39
Rp40
ag34
(g12
S']\xab\x1c\xfb2\x91\xc5\xbf'
p41
tp42
Rp43
asS'target_rot'
p44
g2
(cnumpy
ndarray
p45
(I0
tp46
g5
tp47
Rp48
(I1
(I3
tp49
g12
I00
S'C\xc7\xe7\xe7\x91\t\xb4?\xf5\x11>!\xe6d(\xc0a@\tTb4e\xc0'
p50
tp51
bsS'center_target_pixels'
p52
(I966
I456
tp53
sS'center_actual_pixels'
p54
(I965
I467
tp55
s.(dp0
S'actual_pos'
p1
(cnumpy.core.multiarray
_reconstruct
p2
(cnumpy.matrixlib.defmatrix
matrix
p3
(I0
tp4
S'b'
p5
tp6
Rp7
(I1
(I1
I1
tp8
cnumpy
dtype
p9
(S'f8'
p10
I0
I1
tp11
Rp12
(I3
S'<'
p13
NNNI-1
I-1
I0
tp14
bI00
S'\xbb\xc3\x07m\x87\xb9\x9d?'
p15
tp16
bg2
(g3
(I0
tp17
g5
tp18
Rp19
(I1
(I1
I1
tp20
g12
I00
S'\x0bv\xc0\xb8h\xdb\xa7?'
p21
tp22
bg2
(g3
(I0
tp23
g5
tp24
Rp25
(I1
(I1
I1
tp26
g12
I00
S'\xde*(\x8f\xb9I\xc5\xbf'
p27
tp28
btp29
sS'actual_rot'
p30
(F0.2642634253437182
F-11.327385904315532
F-169.12364255925576
tp31
sS'target_pos'
p32
(lp33
cnumpy.core.multiarray
scalar
p34
(g12
S'>\x84Q=\x8fp\x9e?'
p35
tp36
Rp37
ag34
(g12
S'~P\x95\xb6\xad\x9f\xa7?'
p38
tp39
Rp40
ag34
(g12
S'0\xcf\xdf~oW\xc5\xbf'
p41
tp42
Rp43
asS'target_rot'
p44
g2
(cnumpy
ndarray
p45
(I0
tp46
g5
tp47
Rp48
(I1
(I3
tp49
g12
I00
S'C\xc7\xe7\xe7\x91\t\xb4?\xf5\x11>!\xe6d(\xc0a@\tTb4e\xc0'
p50
tp51
bsS'center_target_pixels'
p52
(I1142
I467
tp53
sS'center_actual_pixels'
p54
(I1154
I477
tp55
s.(dp0
S'actual_pos'
p1
(cnumpy.core.multiarray
_reconstruct
p2
(cnumpy.matrixlib.defmatrix
matrix
p3
(I0
tp4
S'b'
p5
tp6
Rp7
(I1
(I1
I1
tp8
cnumpy
dtype
p9
(S'f8'
p10
I0
I1
tp11
Rp12
(I3
S'<'
p13
NNNI-1
I-1
I0
tp14
bI00
S'B\xe0M+\xe7\xd3\x89?'
p15
tp16
bg2
(g3
(I0
tp17
g5
tp18
Rp19
(I1
(I1
I1
tp20
g12
I00
S'c\x9c\x08\xee\xa53\xa7?'
p21
tp22
bg2
(g3
(I0
tp23
g5
tp24
Rp25
(I1
(I1
I1
tp26
g12
I00
S'\xb6k\x84e\xd8\x0f\xc5\xbf'
p27
tp28
btp29
sS'actual_rot'
p30
(F1.044981288776663
F-8.425881986107113
F-170.1016686164095
tp31
sS'target_pos'
p32
(lp33
cnumpy.core.multiarray
scalar
p34
(g12
S'S\xad\xb1\xd7\xae\x1e\x8c?'
p35
tp36
Rp37
ag34
(g12
S'\xe3#\xd9\x0e\x02\xf1\xa6?'
p38
tp39
Rp40
ag34
(g12
S'\xd0\xbcs\xc1U\x1c\xc5\xbf'
p41
tp42
Rp43
asS'target_rot'
p44
g2
(cnumpy
ndarray
p45
(I0
tp46
g5
tp47
Rp48
(I1
(I3
tp49
g12
I00
S'C\xc7\xe7\xe7\x91\t\xb4?\xf5\x11>!\xe6d(\xc0a@\tTb4e\xc0'
p50
tp51
bsS'center_target_pixels'
p52
(I1318
I477
tp53
sS'center_actual_pixels'
p54
(I1338
I487
tp55
s.(dp0
S'actual_pos'
p1
(cnumpy.core.multiarray
_reconstruct
p2
(cnumpy.matrixlib.defmatrix
matrix
p3
(I0
tp4
S'b'
p5
tp6
Rp7
(I1
(I1
I1
tp8
cnumpy
dtype
p9
(S'f8'
p10
I0
I1
tp11
Rp12
(I3
S'<'
p13
NNNI-1
I-1
I0
tp14
bI00
S'\x8d\xf3Q\x0c\xfa|\xb1?'
p15
tp16
bg2
(g3
(I0
tp17
g5
tp18
Rp19
(I1
(I1
I1
tp20
g12
I00
S'6@b\xbf\x80f\xad?'
p21
tp22
bg2
(g3
(I0
tp23
g5
tp24
Rp25
(I1
(I1
I1
tp26
g12
I00
S'c\x8a\x1f\xd4%\xd1\xc5\xbf'
p27
tp28
btp29
sS'actual_rot'
p30
(F-1.5925149629537383
F-17.111663291791345
F-164.30076514274228
tp31
sS'target_pos'
p32
(lp33
cnumpy.core.multiarray
scalar
p34
(g12
S'?\x06\x9c\x03G\x7f\xb1?'
p35
tp36
Rp37
ag34
(g12
S'\x02Q\x8b\x10\xb3:\xad?'
p38
tp39
Rp40
ag34
(g12
S'\x8ea\x89_V\xe1\xc5\xbf'
p41
tp42
Rp43
asS'target_rot'
p44
g2
(cnumpy
ndarray
p45
(I0
tp46
g5
tp47
Rp48
(I1
(I3
tp49
g12
I00
S'C\xc7\xe7\xe7\x91\t\xb4?\xf5\x11>!\xe6d(\xc0a@\tTb4e\xc0'
p50
tp51
bsS'center_target_pixels'
p52
(I691
I529
tp53
sS'center_actual_pixels'
p54
(I690
I529
tp55
s.(dp0
S'actual_pos'
p1
(cnumpy.core.multiarray
_reconstruct
p2
(cnumpy.matrixlib.defmatrix
matrix
p3
(I0
tp4
S'b'
p5
tp6
Rp7
(I1
(I1
I1
tp8
cnumpy
dtype
p9
(S'f8'
p10
I0
I1
tp11
Rp12
(I3
S'<'
p13
NNNI-1
I-1
I0
tp14
bI00
S'\x9b9?\xda\r\xca\xaa?'
p15
tp16
bg2
(g3
(I0
tp17
g5
tp18
Rp19
(I1
(I1
I1
tp20
g12
I00
S'\xd0>\xa5K\x92\xca\xac?'
p21
tp22
bg2
(g3
(I0
tp23
g5
tp24
Rp25
(I1
(I1
I1
tp26
g12
I00
S'\xacO\x13\x05R\x9a\xc5\xbf'
p27
tp28
btp29
sS'actual_rot'
p30
(F-0.7639061464445998
F-14.565796251021586
F-165.64048433585435
tp31
sS'target_pos'
p32
(lp33
cnumpy.core.multiarray
scalar
p34
(g12
S'\xe5\xfe`@\x0f\x00\xab?'
p35
tp36
Rp37
ag34
(g12
S'"\x8b\xba\x8f\x03\xa2\xac?'
p38
tp39
Rp40
ag34
(g12
S'3\x1e\xd2\xf7\x9b\xa8\xc5\xbf'
p41
tp42
Rp43
asS'target_rot'
p44
g2
(cnumpy
ndarray
p45
(I0
tp46
g5
tp47
Rp48
(I1
(I3
tp49
g12
I00
S'C\xc7\xe7\xe7\x91\t\xb4?\xf5\x11>!\xe6d(\xc0a@\tTb4e\xc0'
p50
tp51
bsS'center_target_pixels'
p52
(I871
I540
tp53
sS'center_actual_pixels'
p54
(I873
I546
tp55
s.(dp0
S'actual_pos'
p1
(cnumpy.core.multiarray
_reconstruct
p2
(cnumpy.matrixlib.defmatrix
matrix
p3
(I0
tp4
S'b'
p5
tp6
Rp7
(I1
(I1
I1
tp8
cnumpy
dtype
p9
(S'f8'
p10
I0
I1
tp11
Rp12
(I3
S'<'
p13
NNNI-1
I-1
I0
tp14
bI00
S'j\x1d\x05~f\xa1\xa2?'
p15
tp16
bg2
(g3
(I0
tp17
g5
tp18
Rp19
(I1
(I1
I1
tp20
g12
I00
S'A,#\xe7\xc6#\xac?'
p21
tp22
bg2
(g3
(I0
tp23
g5
tp24
Rp25
(I1
(I1
I1
tp26
g12
I00
S'Yu\x90&\x93d\xc5\xbf'
p27
tp28
btp29
sS'actual_rot'
p30
(F0.06764084464278927
F-12.015280485879964
F-167.24351436649033
tp31
sS'target_pos'
p32
(lp33
cnumpy.core.multiarray
scalar
p34
(g12
S'\xe0hm;:\xf4\xa2?'
p35
tp36
Rp37
ag34
(g12
S'\xe4P\xc1k\x07\xfe\xab?'
p38
tp39
Rp40
ag34
(g12
S'm\xa6\xbe\xcd0o\xc5\xbf'
p41
tp42
Rp43
asS'target_rot'
p44
g2
(cnumpy
ndarray
p45
(I0
tp46
g5
tp47
Rp48
(I1
(I3
tp49
g12
I00
S'C\xc7\xe7\xe7\x91\t\xb4?\xf5\x11>!\xe6d(\xc0a@\tTb4e\xc0'
p50
tp51
bsS'center_target_pixels'
p52
(I1049
I550
tp53
sS'center_actual_pixels'
p54
(I1059
I557
tp55
s.(dp0
S'actual_pos'
p1
(cnumpy.core.multiarray
_reconstruct
p2
(cnumpy.matrixlib.defmatrix
matrix
p3
(I0
tp4
S'b'
p5
tp6
Rp7
(I1
(I1
I1
tp8
cnumpy
dtype
p9
(S'f8'
p10
I0
I1
tp11
Rp12
(I3
S'<'
p13
NNNI-1
I-1
I0
tp14
bI00
S'H<2\xde4\xcb\x94?'
p15
tp16
bg2
(g3
(I0
tp17
g5
tp18
Rp19
(I1
(I1
I1
tp20
g12
I00
S'8\xf0B@\xbft\xab?'
p21
tp22
bg2
(g3
(I0
tp23
g5
tp24
Rp25
(I1
(I1
I1
tp26
g12
I00
S'q\xc1\x03\xa1\xca*\xc5\xbf'
p27
tp28
btp29
sS'actual_rot'
p30
(F0.7931827820592183
F-9.801593100714866
F-169.3822289474212
tp31
sS'target_pos'
p32
(lp33
cnumpy.core.multiarray
scalar
p34
(g12
S'&h\x83\xe4`\xb7\x95?'
p35
tp36
Rp37
ag34
(g12
S'\xcaBL\x89\x82N\xab?'
p38
tp39
Rp40
ag34
(g12
S'\x88\xa2\xd0\xe1\x155\xc5\xbf'
p41
tp42
Rp43
asS'target_rot'
p44
g2
(cnumpy
ndarray
p45
(I0
tp46
g5
tp47
Rp48
(I1
(I3
tp49
g12
I00
S'C\xc7\xe7\xe7\x91\t\xb4?\xf5\x11>!\xe6d(\xc0a@\tTb4e\xc0'
p50
tp51
bsS'center_target_pixels'
p52
(I1225
I559
tp53
sS'center_actual_pixels'
p54
(I1241
I567
tp55
s.(dp0
S'actual_pos'
p1
(cnumpy.core.multiarray
_reconstruct
p2
(cnumpy.matrixlib.defmatrix
matrix
p3
(I0
tp4
S'b'
p5
tp6
Rp7
(I1
(I1
I1
tp8
cnumpy
dtype
p9
(S'f8'
p10
I0
I1
tp11
Rp12
(I3
S'<'
p13
NNNI-1
I-1
I0
tp14
bI00
S'8\xce\xe3\x95\x83\x8do?'
p15
tp16
bg2
(g3
(I0
tp17
g5
tp18
Rp19
(I1
(I1
I1
tp20
g12
I00
S'\x85]\x96MJ\xcc\xaa?'
p21
tp22
bg2
(g3
(I0
tp23
g5
tp24
Rp25
(I1
(I1
I1
tp26
g12
I00
S'%\xca:L\xff\xef\xc4\xbf'
p27
tp28
btp29
sS'actual_rot'
p30
(F1.5440274644991963
F-7.485680346079305
F-170.81991319884196
tp31
sS'target_pos'
p32
(lp33
cnumpy.core.multiarray
scalar
p34
(g12
S'\xbc\xdeL}:\xb2t?'
p35
tp36
Rp37
ag34
(g12
S'g\x81{\x8c\xb5\xa7\xaa?'
p38
tp39
Rp40
ag34
(g12
S'\x86\x01\r\xa6x\xf9\xc4\xbf'
p41
tp42
Rp43
asS'target_rot'
p44
g2
(cnumpy
ndarray
p45
(I0
tp46
g5
tp47
Rp48
(I1
(I3
tp49
g12
I00
S'C\xc7\xe7\xe7\x91\t\xb4?\xf5\x11>!\xe6d(\xc0a@\tTb4e\xc0'
p50
tp51
bsS'center_target_pixels'
p52
(I1401
I569
tp53
sS'center_actual_pixels'
p54
(I1421
I576
tp55
s.(dp0
S'actual_pos'
p1
(cnumpy.core.multiarray
_reconstruct
p2
(cnumpy.matrixlib.defmatrix
matrix
p3
(I0
tp4
S'b'
p5
tp6
Rp7
(I1
(I1
I1
tp8
cnumpy
dtype
p9
(S'f8'
p10
I0
I1
tp11
Rp12
(I3
S'<'
p13
NNNI-1
I-1
I0
tp14
bI00
S'\x14\xa9\x10\x13\xab\xae\xae?'
p15
tp16
bg2
(g3
(I0
tp17
g5
tp18
Rp19
(I1
(I1
I1
tp20
g12
I00
S'\xb86\xbc0\x83\x87\xb0?'
p21
tp22
bg2
(g3
(I0
tp23
g5
tp24
Rp25
(I1
(I1
I1
tp26
g12
I00
S'\x95%E\x9a\xf3\xb0\xc5\xbf'
p27
tp28
btp29
sS'actual_rot'
p30
(F-1.7841453979113238
F-16.927624493460176
F-164.35461082896225
tp31
sS'target_pos'
p32
(lp33
cnumpy.core.multiarray
scalar
p34
(g12
S'aMF\xfa\x04\xb6\xae?'
p35
tp36
Rp37
ag34
(g12
S'J"\xe4\xfc\xa9|\xb0?'
p38
tp39
Rp40
ag34
(g12
S'\x98V"\x1eM\xbf\xc5\xbf'
p41
tp42
Rp43
asS'target_rot'
p44
g2
(cnumpy
ndarray
p45
(I0
tp46
g5
tp47
Rp48
(I1
(I3
tp49
g12
I00
S'C\xc7\xe7\xe7\x91\t\xb4?\xf5\x11>!\xe6d(\xc0a@\tTb4e\xc0'
p50
tp51
bsS'center_target_pixels'
p52
(I776
I624
tp53
sS'center_actual_pixels'
p54
(I771
I621
tp55
s.(dp0
S'actual_pos'
p1
(cnumpy.core.multiarray
_reconstruct
p2
(cnumpy.matrixlib.defmatrix
matrix
p3
(I0
tp4
S'b'
p5
tp6
Rp7
(I1
(I1
I1
tp8
cnumpy
dtype
p9
(S'f8'
p10
I0
I1
tp11
Rp12
(I3
S'<'
p13
NNNI-1
I-1
I0
tp14
bI00
S'n\xe6)\x84|y\xa6?'
p15
tp16
bg2
(g3
(I0
tp17
g5
tp18
Rp19
(I1
(I1
I1
tp20
g12
I00
S'[\x93p)\xfa6\xb0?'
p21
tp22
bg2
(g3
(I0
tp23
g5
tp24
Rp25
(I1
(I1
I1
tp26
g12
I00
S'~\xcf\x8c\xcdJy\xc5\xbf'
p27
tp28
btp29
sS'actual_rot'
p30
(F-0.6618810309358076
F-13.959934536274476
F-165.40977761170117
tp31
sS'target_pos'
p32
(lp33
cnumpy.core.multiarray
scalar
p34
(g12
S'\xbf\x1e\xd3\xcc\xe9\xb2\xa6?'
p35
tp36
Rp37
ag34
(g12
S'{\x9f\x0f%\xa3)\xb0?'
p38
tp39
Rp40
ag34
(g12
S'\r}\xce\xf5\x8d\x86\xc5\xbf'
p41
tp42
Rp43
asS'target_rot'
p44
g2
(cnumpy
ndarray
p45
(I0
tp46
g5
tp47
Rp48
(I1
(I3
tp49
g12
I00
S'C\xc7\xe7\xe7\x91\t\xb4?\xf5\x11>!\xe6d(\xc0a@\tTb4e\xc0'
p50
tp51
bsS'center_target_pixels'
p52
(I955
I633
tp53
sS'center_actual_pixels'
p54
(I957
I636
tp55
s.(dp0
S'actual_pos'
p1
(cnumpy.core.multiarray
_reconstruct
p2
(cnumpy.matrixlib.defmatrix
matrix
p3
(I0
tp4
S'b'
p5
tp6
Rp7
(I1
(I1
I1
tp8
cnumpy
dtype
p9
(S'f8'
p10
I0
I1
tp11
Rp12
(I3
S'<'
p13
NNNI-1
I-1
I0
tp14
bI00
S'\xfc\x1a\xd6J\xa2\xac\x9c?'
p15
tp16
bg2
(g3
(I0
tp17
g5
tp18
Rp19
(I1
(I1
I1
tp20
g12
I00
S'H\xd4>K0\xd1\xaf?'
p21
tp22
bg2
(g3
(I0
tp23
g5
tp24
Rp25
(I1
(I1
I1
tp26
g12
I00
S'\xea\xd8\xe9Y\xdd?\xc5\xbf'
p27
tp28
btp29
sS'actual_rot'
p30
(F0.06812790127608856
F-12.039220163966165
F-167.33047912278514
tp31
sS'target_pos'
p32
(lp33
cnumpy.core.multiarray
scalar
p34
(g12
S'\xbe3\xcc\xf2;?\x9d?'
p35
tp36
Rp37
ag34
(g12
S'\x08\x02\xaa\x8a\xdb\xb8\xaf?'
p38
tp39
Rp40
ag34
(g12
S'\xb2\x9e\x927\xf5L\xc5\xbf'
p41
tp42
Rp43
asS'target_rot'
p44
g2
(cnumpy
ndarray
p45
(I0
tp46
g5
tp47
Rp48
(I1
(I3
tp49
g12
I00
S'C\xc7\xe7\xe7\x91\t\xb4?\xf5\x11>!\xe6d(\xc0a@\tTb4e\xc0'
p50
tp51
bsS'center_target_pixels'
p52
(I1132
I643
tp53
sS'center_actual_pixels'
p54
(I1141
I648
tp55
s.(dp0
S'actual_pos'
p1
(cnumpy.core.multiarray
_reconstruct
p2
(cnumpy.matrixlib.defmatrix
matrix
p3
(I0
tp4
S'b'
p5
tp6
Rp7
(I1
(I1
I1
tp8
cnumpy
dtype
p9
(S'f8'
p10
I0
I1
tp11
Rp12
(I3
S'<'
p13
NNNI-1
I-1
I0
tp14
bI00
S'\x10\xe81D\x1f*\x88?'
p15
tp16
bg2
(g3
(I0
tp17
g5
tp18
Rp19
(I1
(I1
I1
tp20
g12
I00
S'\xd0\xc5\xc1\xe7\x8b4\xaf?'
p21
tp22
bg2
(g3
(I0
tp23
g5
tp24
Rp25
(I1
(I1
I1
tp26
g12
I00
S'\xaa\x80\x97\xd1&\x0b\xc5\xbf'
p27
tp28
btp29
sS'actual_rot'
p30
(F0.9265986367190228
F-9.70841896983314
F-169.17927046006753
tp31
sS'target_pos'
p32
(lp33
cnumpy.core.multiarray
scalar
p34
(g12
S'O\x03\xadY\xdd\xed\x89?'
p35
tp36
Rp37
ag34
(g12
S'{+>\xa8\xe9\x12\xaf?'
p38
tp39
Rp40
ag34
(g12
S'\x11\xcb\xcd\xb7\xae\x12\xc5\xbf'
p41
tp42
Rp43
asS'target_rot'
p44
g2
(cnumpy
ndarray
p45
(I0
tp46
g5
tp47
Rp48
(I1
(I3
tp49
g12
I00
S'C\xc7\xe7\xe7\x91\t\xb4?\xf5\x11>!\xe6d(\xc0a@\tTb4e\xc0'
p50
tp51
bsS'center_target_pixels'
p52
(I1307
I652
tp53
sS'center_actual_pixels'
p54
(I1325
I659
tp55
s.(dp0
S'actual_pos'
p1
(cnumpy.core.multiarray
_reconstruct
p2
(cnumpy.matrixlib.defmatrix
matrix
p3
(I0
tp4
S'b'
p5
tp6
Rp7
(I1
(I1
I1
tp8
cnumpy
dtype
p9
(S'f8'
p10
I0
I1
tp11
Rp12
(I3
S'<'
p13
NNNI-1
I-1
I0
tp14
bI00
S'\xa8\x92`|Y5\xb1?'
p15
tp16
bg2
(g3
(I0
tp17
g5
tp18
Rp19
(I1
(I1
I1
tp20
g12
I00
S'\xb6\t\x18A\xa2\xb3\xb2?'
p21
tp22
bg2
(g3
(I0
tp23
g5
tp24
Rp25
(I1
(I1
I1
tp26
g12
I00
S'>\xa2\xcb\x9e~\xc5\xc5\xbf'
p27
tp28
btp29
sS'actual_rot'
p30
(F-2.0573110123929377
F-17.113332286974327
F-163.46288185924715
tp31
sS'target_pos'
p32
(lp33
cnumpy.core.multiarray
scalar
p34
(g12
S'\x97.D;26\xb1?'
p35
tp36
Rp37
ag34
(g12
S'$\x1e|\x018\xa9\xb2?'
p38
tp39
Rp40
ag34
(g12
S'<\x84\x14_\x81\xd5\xc5\xbf'
p41
tp42
Rp43
asS'target_rot'
p44
g2
(cnumpy
ndarray
p45
(I0
tp46
g5
tp47
Rp48
(I1
(I3
tp49
g12
I00
S'C\xc7\xe7\xe7\x91\t\xb4?\xf5\x11>!\xe6d(\xc0a@\tTb4e\xc0'
p50
tp51
bsS'center_target_pixels'
p52
(I680
I709
tp53
sS'center_actual_pixels'
p54
(I682
I704
tp55
s.(dp0
S'actual_pos'
p1
(cnumpy.core.multiarray
_reconstruct
p2
(cnumpy.matrixlib.defmatrix
matrix
p3
(I0
tp4
S'b'
p5
tp6
Rp7
(I1
(I1
I1
tp8
cnumpy
dtype
p9
(S'f8'
p10
I0
I1
tp11
Rp12
(I3
S'<'
p13
NNNI-1
I-1
I0
tp14
bI00
S'\xe7`5\xc6\x19,\xaa?'
p15
tp16
bg2
(g3
(I0
tp17
g5
tp18
Rp19
(I1
(I1
I1
tp20
g12
I00
S'g\xf2|\xe79e\xb2?'
p21
tp22
bg2
(g3
(I0
tp23
g5
tp24
Rp25
(I1
(I1
I1
tp26
g12
I00
S'\x90\x81Y\xd4\xa7\x8e\xc5\xbf'
p27
tp28
btp29
sS'actual_rot'
p30
(F-0.9949268708545308
F-14.572256780261506
F-164.59011502750297
tp31
sS'target_pos'
p32
(lp33
cnumpy.core.multiarray
scalar
p34
(g12
S'\x90\x99\xda\xe6\x87e\xaa?'
p35
tp36
Rp37
ag34
(g12
S'\xbd\x17\xa9wZZ\xb2?'
p38
tp39
Rp40
ag34
(g12
S'\x9d\x9b{\x16\x0b\x9d\xc5\xbf'
p41
tp42
Rp43
asS'target_rot'
p44
g2
(cnumpy
ndarray
p45
(I0
tp46
g5
tp47
Rp48
(I1
(I3
tp49
g12
I00
S'C\xc7\xe7\xe7\x91\t\xb4?\xf5\x11>!\xe6d(\xc0a@\tTb4e\xc0'
p50
tp51
bsS'center_target_pixels'
p52
(I861
I718
tp53
sS'center_actual_pixels'
p54
(I866
I720
tp55
s.(dp0
S'actual_pos'
p1
(cnumpy.core.multiarray
_reconstruct
p2
(cnumpy.matrixlib.defmatrix
matrix
p3
(I0
tp4
S'b'
p5
tp6
Rp7
(I1
(I1
I1
tp8
cnumpy
dtype
p9
(S'f8'
p10
I0
I1
tp11
Rp12
(I3
S'<'
p13
NNNI-1
I-1
I0
tp14
bI00
S'x\xcb"zW\x08\xa2?'
p15
tp16
bg2
(g3
(I0
tp17
g5
tp18
Rp19
(I1
(I1
I1
tp20
g12
I00
S'\xcfx\xff\xa2\x94\x18\xb2?'
p21
tp22
bg2
(g3
(I0
tp23
g5
tp24
Rp25
(I1
(I1
I1
tp26
g12
I00
S'\x9fu{U\xd0U\xc5\xbf'
p27
tp28
btp29
sS'actual_rot'
p30
(F-0.04598651775330529
F-12.243071561940702
F-165.85976639290934
tp31
sS'target_pos'
p32
(lp33
cnumpy.core.multiarray
scalar
p34
(g12
S'\xa9\xf4)W\xc0Z\xa2?'
p35
tp36
Rp37
ag34
(g12
S'\xcaT,\xea(\x0c\xb2?'
p38
tp39
Rp40
ag34
(g12
S'\xac\xf6\x88\xdd\x1cd\xc5\xbf'
p41
tp42
Rp43
asS'target_rot'
p44
g2
(cnumpy
ndarray
p45
(I0
tp46
g5
tp47
Rp48
(I1
(I3
tp49
g12
I00
S'C\xc7\xe7\xe7\x91\t\xb4?\xf5\x11>!\xe6d(\xc0a@\tTb4e\xc0'
p50
tp51
bsS'center_target_pixels'
p52
(I1039
I727
tp53
sS'center_actual_pixels'
p54
(I1050
I732
tp55
s.(dp0
S'actual_pos'
p1
(cnumpy.core.multiarray
_reconstruct
p2
(cnumpy.matrixlib.defmatrix
matrix
p3
(I0
tp4
S'b'
p5
tp6
Rp7
(I1
(I1
I1
tp8
cnumpy
dtype
p9
(S'f8'
p10
I0
I1
tp11
Rp12
(I3
S'<'
p13
NNNI-1
I-1
I0
tp14
bI00
S'\x15@\xa2\x94\xf3\xb6\x93?'
p15
tp16
bg2
(g3
(I0
tp17
g5
tp18
Rp19
(I1
(I1
I1
tp20
g12
I00
S'ii\x8aA\x1a\xc8\xb1?'
p21
tp22
bg2
(g3
(I0
tp23
g5
tp24
Rp25
(I1
(I1
I1
tp26
g12
I00
S'\xacJ\x15\xd6K\x1d\xc5\xbf'
p27
tp28
btp29
sS'actual_rot'
p30
(F0.6615939718326371
F-10.628004158660657
F-167.8178238850489
tp31
sS'target_pos'
p32
(lp33
cnumpy.core.multiarray
scalar
p34
(g12
S'4i\xc4\xae\xe9\x82\x94?'
p35
tp36
Rp37
ag34
(g12
S'f\xfc\xb2\xc0\xf5\xbd\xb1?'
p38
tp39
Rp40
ag34
(g12
S'\x9a:M6k*\xc5\xbf'
p41
tp42
Rp43
asS'target_rot'
p44
g2
(cnumpy
ndarray
p45
(I0
tp46
g5
tp47
Rp48
(I1
(I3
tp49
g12
I00
S'C\xc7\xe7\xe7\x91\t\xb4?\xf5\x11>!\xe6d(\xc0a@\tTb4e\xc0'
p50
tp51
bsS'center_target_pixels'
p52
(I1215
I736
tp53
sS'center_actual_pixels'
p54
(I1233
I742
tp55
s.(dp0
S'actual_pos'
p1
(cnumpy.core.multiarray
_reconstruct
p2
(cnumpy.matrixlib.defmatrix
matrix
p3
(I0
tp4
S'b'
p5
tp6
Rp7
(I1
(I1
I1
tp8
cnumpy
dtype
p9
(S'f8'
p10
I0
I1
tp11
Rp12
(I3
S'<'
p13
NNNI-1
I-1
I0
tp14
bI00
S'DJ([\x9b3g?'
p15
tp16
bg2
(g3
(I0
tp17
g5
tp18
Rp19
(I1
(I1
I1
tp20
g12
I00
S'\x1b\xd9\xed\xa1:s\xb1?'
p21
tp22
bg2
(g3
(I0
tp23
g5
tp24
Rp25
(I1
(I1
I1
tp26
g12
I00
S'b\xe0\xf54\xa8\xe5\xc4\xbf'
p27
tp28
btp29
sS'actual_rot'
p30
(F1.4828697013622438
F-8.792573389646266
F-169.95170425896998
tp31
sS'target_pos'
p32
(lp33
cnumpy.core.multiarray
scalar
p34
(g12
S'\x9b@Pj\x1f\x17o?'
p35
tp36
Rp37
ag34
(g12
S'\xb0\xb5\xc7r\xb3g\xb1?'
p38
tp39
Rp40
ag34
(g12
S'\xef\xc0\xda\xd5\n\xef\xc4\xbf'
p41
tp42
Rp43
asS'target_rot'
p44
g2
(cnumpy
ndarray
p45
(I0
tp46
g5
tp47
Rp48
(I1
(I3
tp49
g12
I00
S'C\xc7\xe7\xe7\x91\t\xb4?\xf5\x11>!\xe6d(\xc0a@\tTb4e\xc0'
p50
tp51
bsS'center_target_pixels'
p52
(I1392
I744
tp53
sS'center_actual_pixels'
p54
(I1413
I747
tp55
s.