(dp0
S'actual_pos'
p1
(lp2
F0.07677036617123557
aF0.02242780648086628
aF-0.1719660412184734
asS'actual_rot'
p3
(lp4
F-91.81551207723827
aF-4.03293057275562
aF-166.20217903640452
asS'target_pos'
p5
(lp6
F0.07701002933749626
aF0.02275564908878413
acnumpy.core.multiarray
scalar
p7
(cnumpy
dtype
p8
(S'f8'
p9
I0
I1
tp10
Rp11
(I3
S'<'
p12
NNNI-1
I-1
I0
tp13
bS'N\x8f\xf6`p \xc6\xbf'
p14
tp15
Rp16
asS'target_rot'
p17
cnumpy.core.multiarray
_reconstruct
p18
(cnumpy
ndarray
p19
(I0
tp20
S'b'
p21
tp22
Rp23
(I1
(I3
tp24
g11
I00
S'\x00\x00\x00\x00\x00\x80V\xc0\x00\x00\x00\x00\x00\x00\x00\x00\x00\x00\x00\x00\x00@e\xc0'
p25
tp26
bsS'center_target_pixels'
p27
(I700
I119
tp28
sS'center_actual_pixels'
p29
(I692
I122
tp30
s.