(dp0
S'actual_pos'
p1
(lp2
F0.07179689988159332
aF0.022019386242585492
aF-0.16965788166757234
asS'actual_rot'
p3
(lp4
F-47.04041142908977
aF-2.6123143192906957
aF-164.5660024130573
asS'target_pos'
p5
cnumpy.core.multiarray
_reconstruct
p6
(cnumpy
ndarray
p7
(I0
tp8
S'b'
p9
tp10
Rp11
(I1
(I3
tp12
cnumpy
dtype
p13
(S'f8'
p14
I0
I1
tp15
Rp16
(I3
S'<'
p17
NNNI-1
I-1
I0
tp18
bI00
S'\xd9\xfb\xecU\xd3o\xb2?\x7f\xa7\x17_\xcd\x96\x96?~M\xd6g\xa4\xc1\xc5\xbf'
p19
tp20
bsS'target_rot'
p21
g6
(g7
(I0
tp22
g9
tp23
Rp24
(I1
(I3
tp25
g16
I00
S'\x00\x00\x00\x00\x00\x80F\xc0\x00\x00\x00\x00\x00\x00\x04@\x00\x00\x00\x00\x00\x18e\xc0'
p26
tp27
bsS'center_target_pixels'
p28
(I713
I117
tp29
sS'center_actual_pixels'
p30
(I726
I130
tp31
s.(dp0
S'actual_pos'
p1
(lp2
F0.054891999957009545
aF0.020697863391789834
aF-0.16768169466446037
asS'actual_rot'
p3
(lp4
F-46.6314241186396
aF-2.497405462446362
aF-165.78717965364174
asS'target_pos'
p5
cnumpy.core.multiarray
_reconstruct
p6
(cnumpy
ndarray
p7
(I0
tp8
S'b'
p9
tp10
Rp11
(I1
(I3
tp12
cnumpy
dtype
p13
(S'f8'
p14
I0
I1
tp15
Rp16
(I3
S'<'
p17
NNNI-1
I-1
I0
tp18
bI00
S'(\x84\xce2@\x1c\xac?\xc8+\xf0L2i\x95?\xd4\xfa\x85\xd7x}\xc5\xbf'
p19
tp20
bsS'target_rot'
p21
g6
(g7
(I0
tp22
g9
tp23
Rp24
(I1
(I3
tp25
g16
I00
S'\x00\x00\x00\x00\x00\x80F\xc0\x00\x00\x00\x00\x00\x00\x04@\x00\x00\x00\x00\x00\x18e\xc0'
p26
tp27
bsS'center_target_pixels'
p28
(I893
I135
tp29
sS'center_actual_pixels'
p30
(I912
I130
tp31
s.(dp0
S'actual_pos'
p1
(lp2
F0.03958880991367717
aF0.020071372682979736
aF-0.16683570678797568
asS'actual_rot'
p3
(lp4
F-46.04795554981523
aF-1.5116467118402357
aF-167.12228970437502
asS'target_pos'
p5
cnumpy.core.multiarray
_reconstruct
p6
(cnumpy
ndarray
p7
(I0
tp8
S'b'
p9
tp10
Rp11
(I1
(I3
tp12
cnumpy
dtype
p13
(S'f8'
p14
I0
I1
tp15
Rp16
(I3
S'<'
p17
NNNI-1
I-1
I0
tp18
bI00
S'\xffl\xbd\x99\x9b`\xa4?z\xfa"j\x0c\x90\x94?\xaf\xca\xc0x\xfaf\xc5\xbf'
p19
tp20
bsS'target_rot'
p21
g6
(g7
(I0
tp22
g9
tp23
Rp24
(I1
(I3
tp25
g16
I00
S'\x00\x00\x00\x00\x00\x80F\xc0\x00\x00\x00\x00\x00\x00\x04@\x00\x00\x00\x00\x00\x18e\xc0'
p26
tp27
bsS'center_target_pixels'
p28
(I1072
I153
tp29
sS'center_actual_pixels'
p30
(I1087
I166
tp31
s.(dp0
S'actual_pos'
p1
(lp2
F0.025321948759738064
aF0.01899249642998445
aF-0.16458215857315722
asS'actual_rot'
p3
(lp4
F-45.3194456063204
aF0.8318094822339749
aF-169.03132048297329
asS'target_pos'
p5
cnumpy.core.multiarray
_reconstruct
p6
(cnumpy
ndarray
p7
(I0
tp8
S'b'
p9
tp10
Rp11
(I1
(I3
tp12
cnumpy
dtype
p13
(S'f8'
p14
I0
I1
tp15
Rp16
(I3
S'<'
p17
NNNI-1
I-1
I0
tp18
bI00
S'\xf4\xe2\xffx\x93;\x9a?\xc2\x13\x1f\x99<9\x93?\xc2\xee\xa7q0\x19\xc5\xbf'
p19
tp20
bsS'target_rot'
p21
g6
(g7
(I0
tp22
g9
tp23
Rp24
(I1
(I3
tp25
g16
I00
S'\x00\x00\x00\x00\x00\x80F\xc0\x00\x00\x00\x00\x00\x00\x04@\x00\x00\x00\x00\x00\x18e\xc0'
p26
tp27
bsS'center_target_pixels'
p28
(I1249
I170
tp29
sS'center_actual_pixels'
p30
(I1240
I154
tp31
s.(dp0
S'actual_pos'
p1
(lp2
F0.06382169529468754
aF0.029701651873746262
aF-0.1684737826498087
asS'actual_rot'
p3
(lp4
F-46.93307706410976
aF-2.2827875215276534
aF-163.4798087745872
asS'target_pos'
p5
cnumpy.core.multiarray
_reconstruct
p6
(cnumpy
ndarray
p7
(I0
tp8
S'b'
p9
tp10
Rp11
(I1
(I3
tp12
cnumpy
dtype
p13
(S'f8'
p14
I0
I1
tp15
Rp16
(I3
S'<'
p17
NNNI-1
I-1
I0
tp18
bI00
S'\x8dU@R\x98a\xb0?\xbb\x17\xd8t\xdc\xa5\x9e?\xd6\xf5,\x83b\x99\xc5\xbf'
p19
tp20
bsS'target_rot'
p21
g6
(g7
(I0
tp22
g9
tp23
Rp24
(I1
(I3
tp25
g16
I00
S'\x00\x00\x00\x00\x00\x80F\xc0\x00\x00\x00\x00\x00\x00\x04@\x00\x00\x00\x00\x00\x18e\xc0'
p26
tp27
bsS'center_target_pixels'
p28
(I795
I215
tp29
sS'center_actual_pixels'
p30
(I805
I222
tp31
s.(dp0
S'actual_pos'
p1
(lp2
F0.04626354108806935
aF0.02764167465847683
aF-0.16684255464593206
asS'actual_rot'
p3
(lp4
F-46.46622900104156
aF-2.078379746708946
aF-165.60717602338795
asS'target_pos'
p5
cnumpy.core.multiarray
_reconstruct
p6
(cnumpy
ndarray
p7
(I0
tp8
S'b'
p9
tp10
Rp11
(I1
(I3
tp12
cnumpy
dtype
p13
(S'f8'
p14
I0
I1
tp15
Rp16
(I3
S'<'
p17
NNNI-1
I-1
I0
tp18
bI00
S'q\x81rVN\xba\xa7?\x04\xee\x80Bz\x95\x9c?\xa3EZd_d\xc5\xbf'
p19
tp20
bsS'target_rot'
p21
g6
(g7
(I0
tp22
g9
tp23
Rp24
(I1
(I3
tp25
g16
I00
S'\x00\x00\x00\x00\x00\x80F\xc0\x00\x00\x00\x00\x00\x00\x04@\x00\x00\x00\x00\x00\x18e\xc0'
p26
tp27
bsS'center_target_pixels'
p28
(I974
I232
tp29
sS'center_actual_pixels'
p30
(I999
I217
tp31
s.(dp0
S'actual_pos'
p1
(lp2
F0.03249350986214275
aF0.027225850809723274
aF-0.16515171597954859
asS'actual_rot'
p3
(lp4
F-45.85412429347051
aF-0.6989495769336032
aF-167.73522527458826
asS'target_pos'
p5
cnumpy.core.multiarray
_reconstruct
p6
(cnumpy
ndarray
p7
(I0
tp8
S'b'
p9
tp10
Rp11
(I1
(I3
tp12
cnumpy
dtype
p13
(S'f8'
p14
I0
I1
tp15
Rp16
(I3
S'<'
p17
NNNI-1
I-1
I0
tp18
bI00
S'\x85\x92\x81y\xcb\xbf\xa0?ds\xd7\xe0C\xee\x9b?\xa8\x93\xe3\xfft+\xc5\xbf'
p19
tp20
bsS'target_rot'
p21
g6
(g7
(I0
tp22
g9
tp23
Rp24
(I1
(I3
tp25
g16
I00
S'\x00\x00\x00\x00\x00\x80F\xc0\x00\x00\x00\x00\x00\x00\x04@\x00\x00\x00\x00\x00\x18e\xc0'
p26
tp27
bsS'center_target_pixels'
p28
(I1153
I249
tp29
sS'center_actual_pixels'
p30
(I1155
I235
tp31
s.(dp0
S'actual_pos'
p1
(lp2
F0.01619897518059168
aF0.02615505004950403
aF-0.164214866877278
asS'actual_rot'
p3
(lp4
F-44.99081080482844
aF2.633512583884614
aF-170.94699909782918
asS'target_pos'
p5
cnumpy.core.multiarray
_reconstruct
p6
(cnumpy
ndarray
p7
(I0
tp8
S'b'
p9
tp10
Rp11
(I1
(I3
tp12
cnumpy
dtype
p13
(S'f8'
p14
I0
I1
tp15
Rp16
(I3
S'<'
p17
NNNI-1
I-1
I0
tp18
bI00
S'\x83\xdb\x80C\x9d\n\x91?\x0e\xe2\x04\xb7\xaa\xa0\x9a?\xf2\xf3\xfc\xe5?\x0e\xc5\xbf'
p19
tp20
bsS'target_rot'
p21
g6
(g7
(I0
tp22
g9
tp23
Rp24
(I1
(I3
tp25
g16
I00
S'\x00\x00\x00\x00\x00\x80F\xc0\x00\x00\x00\x00\x00\x00\x04@\x00\x00\x00\x00\x00\x18e\xc0'
p26
tp27
bsS'center_target_pixels'
p28
(I1329
I266
tp29
sS'center_actual_pixels'
p30
(I1336
I249
tp31
s.(dp0
S'actual_pos'
p1
(lp2
F0.07284335504857689
aF0.03754949160462217
aF-0.1693098600837543
asS'actual_rot'
p3
(lp4
F-47.22788705495523
aF-2.2150612271291883
aF-163.11007150953725
asS'target_pos'
p5
cnumpy.core.multiarray
_reconstruct
p6
(cnumpy
ndarray
p7
(I0
tp8
S'b'
p9
tp10
Rp11
(I1
(I3
tp12
cnumpy
dtype
p13
(S'f8'
p14
I0
I1
tp15
Rp16
(I3
S'<'
p17
NNNI-1
I-1
I0
tp18
bI00
S'3k">\x15\xb5\xb2?\x8d\xaf}\x9f\x15L\xa3?\xf40\x0e\x9f\x8c\xb5\xc5\xbf'
p19
tp20
bsS'target_rot'
p21
g6
(g7
(I0
tp22
g9
tp23
Rp24
(I1
(I3
tp25
g16
I00
S'\x00\x00\x00\x00\x00\x80F\xc0\x00\x00\x00\x00\x00\x00\x04@\x00\x00\x00\x00\x00\x18e\xc0'
p26
tp27
bsS'center_target_pixels'
p28
(I697
I296
tp29
sS'center_actual_pixels'
p30
(I690
I299
tp31
s.(dp0
S'actual_pos'
p1
(lp2
F0.05582810217950553
aF0.03602923447948043
aF-0.16739436960920723
asS'actual_rot'
p3
(lp4
F-46.78576612507487
aF-1.9999741865157998
aF-164.76249592923423
asS'target_pos'
p5
cnumpy.core.multiarray
_reconstruct
p6
(cnumpy
ndarray
p7
(I0
tp8
S'b'
p9
tp10
Rp11
(I1
(I3
tp12
cnumpy
dtype
p13
(S'f8'
p14
I0
I1
tp15
Rp16
(I3
S'<'
p17
NNNI-1
I-1
I0
tp18
bI00
S'G\xc5\xe6N\x85\xa0\xac?D\x12\xfd\xa6\x86\x91\xa2?\x0bC\x98\x0f\x15u\xc5\xbf'
p19
tp20
bsS'target_rot'
p21
g6
(g7
(I0
tp22
g9
tp23
Rp24
(I1
(I3
tp25
g16
I00
S'\x00\x00\x00\x00\x00\x80F\xc0\x00\x00\x00\x00\x00\x00\x04@\x00\x00\x00\x00\x00\x18e\xc0'
p26
tp27
bsS'center_target_pixels'
p28
(I877
I312
tp29
sS'center_actual_pixels'
p30
(I882
I298
tp31
s.(dp0
S'actual_pos'
p1
(lp2
F0.03891602428973401
aF0.03512925650176036
aF-0.16618070132671237
asS'actual_rot'
p3
(lp4
F-46.18499796127375
aF-1.1100284895143522
aF-166.89341065270926
asS'target_pos'
p5
cnumpy.core.multiarray
_reconstruct
p6
(cnumpy
ndarray
p7
(I0
tp8
S'b'
p9
tp10
Rp11
(I1
(I3
tp12
cnumpy
dtype
p13
(S'f8'
p14
I0
I1
tp15
Rp16
(I3
S'<'
p17
NNNI-1
I-1
I0
tp18
bI00
S'\xabz\xf1\xedu\x0f\xa4?-y\x9ff\xa2\xfc\xa1?\x87{v\x15\xccO\xc5\xbf'
p19
tp20
bsS'target_rot'
p21
g6
(g7
(I0
tp22
g9
tp23
Rp24
(I1
(I3
tp25
g16
I00
S'\x00\x00\x00\x00\x00\x80F\xc0\x00\x00\x00\x00\x00\x00\x04@\x00\x00\x00\x00\x00\x18e\xc0'
p26
tp27
bsS'center_target_pixels'
p28
(I1056
I329
tp29
sS'center_actual_pixels'
p30
(I1072
I319
tp31
s.(dp0
S'actual_pos'
p1
(lp2
F0.023469228290187508
aF0.03561255286694241
aF-0.16486839962073482
asS'actual_rot'
p3
(lp4
F-45.2481212351721
aF1.6603441976599567
aF-169.14900616909728
asS'target_pos'
p5
cnumpy.core.multiarray
_reconstruct
p6
(cnumpy
ndarray
p7
(I0
tp8
S'b'
p9
tp10
Rp11
(I1
(I3
tp12
cnumpy
dtype
p13
(S'f8'
p14
I0
I1
tp15
Rp16
(I3
S'<'
p17
NNNI-1
I-1
I0
tp18
bI00
S"\x0c\x83\xf3KYu\x98?\x10\x1eB\x18\xac\t\xa2?\x94\r\xe3\x93k'\xc5\xbf"
p19
tp20
bsS'target_rot'
p21
g6
(g7
(I0
tp22
g9
tp23
Rp24
(I1
(I3
tp25
g16
I00
S'\x00\x00\x00\x00\x00\x80F\xc0\x00\x00\x00\x00\x00\x00\x04@\x00\x00\x00\x00\x00\x18e\xc0'
p26
tp27
bsS'center_target_pixels'
p28
(I1233
I345
tp29
sS'center_actual_pixels'
p30
(I1243
I354
tp31
s.(dp0
S'actual_pos'
p1
(lp2
F0.008806069962655524
aF0.035593504011449575
aF-0.16411832472539872
asS'actual_rot'
p3
(lp4
F-44.719422330720406
aF4.140626141559128
aF-172.56077199395844
asS'target_pos'
p5
cnumpy.core.multiarray
_reconstruct
p6
(cnumpy
ndarray
p7
(I0
tp8
S'b'
p9
tp10
Rp11
(I1
(I3
tp12
cnumpy
dtype
p13
(S'f8'
p14
I0
I1
tp15
Rp16
(I3
S'<'
p17
NNNI-1
I-1
I0
tp18
bI00
S'\x81[\xfd2\xa1^\x83?\xd5\xcd\x1d\x8c\xcc\xcc\xa1?\xd6u\x87\xa4\xfa\x17\xc5\xbf'
p19
tp20
bsS'target_rot'
p21
g6
(g7
(I0
tp22
g9
tp23
Rp24
(I1
(I3
tp25
g16
I00
S'\x00\x00\x00\x00\x00\x80F\xc0\x00\x00\x00\x00\x00\x00\x04@\x00\x00\x00\x00\x00\x18e\xc0'
p26
tp27
bsS'center_target_pixels'
p28
(I1409
I361
tp29
sS'center_actual_pixels'
p30
(I1405
I382
tp31
s.(dp0
S'actual_pos'
p1
(lp2
F0.06527723266052862
aF0.04427266621322784
aF-0.16872437292167233
asS'actual_rot'
p3
(lp4
F-47.09483138907818
aF-1.9074429273809888
aF-163.3555712418864
asS'target_pos'
p5
cnumpy.core.multiarray
_reconstruct
p6
(cnumpy
ndarray
p7
(I0
tp8
S'b'
p9
tp10
Rp11
(I1
(I3
tp12
cnumpy
dtype
p13
(S'f8'
p14
I0
I1
tp15
Rp16
(I3
S'<'
p17
NNNI-1
I-1
I0
tp18
bI00
S'\x1c\xea\xc9\x15K\xcb\xb0?\xe9fK\xb1\x0c\xa8\xa6?\xd1A\xa3J\x80\xa7\xc5\xbf'
p19
tp20
bsS'target_rot'
p21
g6
(g7
(I0
tp22
g9
tp23
Rp24
(I1
(I3
tp25
g16
I00
S'\x00\x00\x00\x00\x00\x80F\xc0\x00\x00\x00\x00\x00\x00\x04@\x00\x00\x00\x00\x00\x18e\xc0'
p26
tp27
bsS'center_target_pixels'
p28
(I779
I393
tp29
sS'center_actual_pixels'
p30
(I763
I389
tp31
s.(dp0
S'actual_pos'
p1
(lp2
F0.046761028311764014
aF0.04392002268920588
aF-0.166783892796611
asS'actual_rot'
p3
(lp4
F-46.521369962062415
aF-1.3232639687860148
aF-165.32927495115865
asS'target_pos'
p5
cnumpy.core.multiarray
_reconstruct
p6
(cnumpy
ndarray
p7
(I0
tp8
S'b'
p9
tp10
Rp11
(I1
(I3
tp12
cnumpy
dtype
p13
(S'f8'
p14
I0
I1
tp15
Rp16
(I3
S'<'
p17
NNNI-1
I-1
I0
tp18
bI00
S'/\xcf\xed6A\x13\xa8?\xdf\xa6\xcf;Lz\xa6?\x00.%%\xf8d\xc5\xbf'
p19
tp20
bsS'target_rot'
p21
g6
(g7
(I0
tp22
g9
tp23
Rp24
(I1
(I3
tp25
g16
I00
S'\x00\x00\x00\x00\x00\x80F\xc0\x00\x00\x00\x00\x00\x00\x04@\x00\x00\x00\x00\x00\x18e\xc0'
p26
tp27
bsS'center_target_pixels'
p28
(I959
I409
tp29
sS'center_actual_pixels'
p30
(I975
I406
tp31
s.(dp0
S'actual_pos'
p1
(lp2
F0.03048781503463892
aF0.043871417897723176
aF-0.1653016473894851
asS'actual_rot'
p3
(lp4
F-45.66719179180503
aF0.5225601196551137
aF-167.87782837315473
asS'target_pos'
p5
cnumpy.core.multiarray
_reconstruct
p6
(cnumpy
ndarray
p7
(I0
tp8
S'b'
p9
tp10
Rp11
(I1
(I3
tp12
cnumpy
dtype
p13
(S'f8'
p14
I0
I1
tp15
Rp16
(I3
S'<'
p17
NNNI-1
I-1
I0
tp18
bI00
S'\xee|\x1e\xbc\xbey\x9f?\x99\xa6\xef=\x01e\xa6?\xea,7_\x024\xc5\xbf'
p19
tp20
bsS'target_rot'
p21
g6
(g7
(I0
tp22
g9
tp23
Rp24
(I1
(I3
tp25
g16
I00
S'\x00\x00\x00\x00\x00\x80F\xc0\x00\x00\x00\x00\x00\x00\x04@\x00\x00\x00\x00\x00\x18e\xc0'
p26
tp27
bsS'center_target_pixels'
p28
(I1137
I425
tp29
sS'center_actual_pixels'
p30
(I1151
I436
tp31
s.(dp0
S'actual_pos'
p1
(lp2
F0.015256351426641765
aF0.04280387531316631
aF-0.16427829622788082
asS'actual_rot'
p3
(lp4
F-44.86707388573889
aF3.2163597463716815
aF-170.94681237926105
asS'target_pos'
p5
cnumpy.core.multiarray
_reconstruct
p6
(cnumpy
ndarray
p7
(I0
tp8
S'b'
p9
tp10
Rp11
(I1
(I3
tp12
cnumpy
dtype
p13
(S'f8'
p14
I0
I1
tp15
Rp16
(I3
S'<'
p17
NNNI-1
I-1
I0
tp18
bI00
S'r\xe0B\x83\x99?\x90?\xc1\xf3Y\x14D\x9d\xa5?\xc1{n\x07\x86\x18\xc5\xbf'
p19
tp20
bsS'target_rot'
p21
g6
(g7
(I0
tp22
g9
tp23
Rp24
(I1
(I3
tp25
g16
I00
S'\x00\x00\x00\x00\x00\x80F\xc0\x00\x00\x00\x00\x00\x00\x04@\x00\x00\x00\x00\x00\x18e\xc0'
p26
tp27
bsS'center_target_pixels'
p28
(I1314
I441
tp29
sS'center_actual_pixels'
p30
(I1328
I453
tp31
s.(dp0
S'actual_pos'
p1
(lp2
F0.07102000610913718
aF0.053723444293179254
aF-0.16899352922168667
asS'actual_rot'
p3
(lp4
F-47.57537204030842
aF-2.2748030361123095
aF-162.8173153492674
asS'target_pos'
p5
cnumpy.core.multiarray
_reconstruct
p6
(cnumpy
ndarray
p7
(I0
tp8
S'b'
p9
tp10
Rp11
(I1
(I3
tp12
cnumpy
dtype
p13
(S'f8'
p14
I0
I1
tp15
Rp16
(I3
S'<'
p17
NNNI-1
I-1
I0
tp18
bI00
S'\xf7+\xdc>\x81@\xb2?A\x9d\xff\x82\xfd\xa2\xab?\x06q\xd7\xc6\x01\xac\xc5\xbf'
p19
tp20
bsS'target_rot'
p21
g6
(g7
(I0
tp22
g9
tp23
Rp24
(I1
(I3
tp25
g16
I00
S'\x00\x00\x00\x00\x00\x80F\xc0\x00\x00\x00\x00\x00\x00\x04@\x00\x00\x00\x00\x00\x18e\xc0'
p26
tp27
bsS'center_target_pixels'
p28
(I681
I474
tp29
sS'center_actual_pixels'
p30
(I690
I481
tp31
s.(dp0
S'actual_pos'
p1
(lp2
F0.05498824425182498
aF0.051983291410400055
aF-0.1675771619100156
asS'actual_rot'
p3
(lp4
F-46.87657386160685
aF-1.5614114290051915
aF-164.35147857172402
asS'target_pos'
p5
cnumpy.core.multiarray
_reconstruct
p6
(cnumpy
ndarray
p7
(I0
tp8
S'b'
p9
tp10
Rp11
(I1
(I3
tp12
cnumpy
dtype
p13
(S'f8'
p14
I0
I1
tp15
Rp16
(I3
S'<'
p17
NNNI-1
I-1
I0
tp18
bI00
S'Y\x11\xb5\x08yI\xac?\x96HW\x12i\xb7\xaa?\x7f\x13\xd2\x13!\x7f\xc5\xbf'
p19
tp20
bsS'target_rot'
p21
g6
(g7
(I0
tp22
g9
tp23
Rp24
(I1
(I3
tp25
g16
I00
S'\x00\x00\x00\x00\x00\x80F\xc0\x00\x00\x00\x00\x00\x00\x04@\x00\x00\x00\x00\x00\x18e\xc0'
p26
tp27
bsS'center_target_pixels'
p28
(I861
I490
tp29
sS'center_actual_pixels'
p30
(I871
I481
tp31
s.(dp0
S'actual_pos'
p1
(lp2
F0.03855145574202811
aF0.051678179986111364
aF-0.1659074256629294
asS'actual_rot'
p3
(lp4
F-46.11000510421065
aF-0.2552464155578018
aF-166.34880063137678
asS'target_pos'
p5
cnumpy.core.multiarray
_reconstruct
p6
(cnumpy
ndarray
p7
(I0
tp8
S'b'
p9
tp10
Rp11
(I1
(I3
tp12
cnumpy
dtype
p13
(S'f8'
p14
I0
I1
tp15
Rp16
(I3
S'<'
p17
NNNI-1
I-1
I0
tp18
bI00
S'\xce\xbfJT\xb5\xd6\xa3?\xd9fo\xa4\xed\x8a\xaa?\xa0w\xad3CE\xc5\xbf'
p19
tp20
bsS'target_rot'
p21
g6
(g7
(I0
tp22
g9
tp23
Rp24
(I1
(I3
tp25
g16
I00
S'\x00\x00\x00\x00\x00\x80F\xc0\x00\x00\x00\x00\x00\x00\x04@\x00\x00\x00\x00\x00\x18e\xc0'
p26
tp27
bsS'center_target_pixels'
p28
(I1040
I506
tp29
sS'center_actual_pixels'
p30
(I1053
I501
tp31
s.(dp0
S'actual_pos'
p1
(lp2
F0.02317841240739717
aF0.05034311975469425
aF-0.16488369745883538
asS'actual_rot'
p3
(lp4
F-45.03912134197759
aF2.504760913243743
aF-168.82140243023713
asS'target_pos'
p5
cnumpy.core.multiarray
_reconstruct
p6
(cnumpy
ndarray
p7
(I0
tp8
S'b'
p9
tp10
Rp11
(I1
(I3
tp12
cnumpy
dtype
p13
(S'f8'
p14
I0
I1
tp15
Rp16
(I3
S'<'
p17
NNNI-1
I-1
I0
tp18
bI00
S'+\xc6\x1cF\x815\x98?\xd0F\xe0-9\xa6\xa9?\xb1\x19\xba\xf1f*\xc5\xbf'
p19
tp20
bsS'target_rot'
p21
g6
(g7
(I0
tp22
g9
tp23
Rp24
(I1
(I3
tp25
g16
I00
S'\x00\x00\x00\x00\x00\x80F\xc0\x00\x00\x00\x00\x00\x00\x04@\x00\x00\x00\x00\x00\x18e\xc0'
p26
tp27
bsS'center_target_pixels'
p28
(I1218
I521
tp29
sS'center_actual_pixels'
p30
(I1231
I523
tp31
s.(dp0
S'actual_pos'
p1
(lp2
F0.008047221847616306
aF0.05062906053647392
aF-0.1636665659557841
asS'actual_rot'
p3
(lp4
F-44.410764078249166
aF4.9349885179639035
aF-172.32846245321
asS'target_pos'
p5
cnumpy.core.multiarray
_reconstruct
p6
(cnumpy
ndarray
p7
(I0
tp8
S'b'
p9
tp10
Rp11
(I1
(I3
tp12
cnumpy
dtype
p13
(S'f8'
p14
I0
I1
tp15
Rp16
(I3
S'<'
p17
NNNI-1
I-1
I0
tp18
bI00
S'\xc3\x84\xa6\xb8\xf1\xd0\x81?\xe4Y\x8f\xf6\xa4\xb7\xa9?\xb2\xda\xc2\xd3\xd1\xfc\xc4\xbf'
p19
tp20
bsS'target_rot'
p21
g6
(g7
(I0
tp22
g9
tp23
Rp24
(I1
(I3
tp25
g16
I00
S'\x00\x00\x00\x00\x00\x80F\xc0\x00\x00\x00\x00\x00\x00\x04@\x00\x00\x00\x00\x00\x18e\xc0'
p26
tp27
bsS'center_target_pixels'
p28
(I1393
I536
tp29
sS'center_actual_pixels'
p30
(I1399
I552
tp31
s.(dp0
S'actual_pos'
p1
(lp2
F0.06272638381936026
aF0.060481085205323325
aF-0.16860732189317862
asS'actual_rot'
p3
(lp4
F-47.36364278089335
aF-1.927621620513875
aF-163.2125657667388
asS'target_pos'
p5
cnumpy.core.multiarray
_reconstruct
p6
(cnumpy
ndarray
p7
(I0
tp8
S'b'
p9
tp10
Rp11
(I1
(I3
tp12
cnumpy
dtype
p13
(S'f8'
p14
I0
I1
tp15
Rp16
(I3
S'<'
p17
NNNI-1
I-1
I0
tp18
bI00
S'^&\xa9\xde\xb6\x1c\xb0?\xae_Z\x15\xc04\xaf?,k\xaeR\xd8\xa0\xc5\xbf'
p19
tp20
bsS'target_rot'
p21
g6
(g7
(I0
tp22
g9
tp23
Rp24
(I1
(I3
tp25
g16
I00
S'\x00\x00\x00\x00\x00\x80F\xc0\x00\x00\x00\x00\x00\x00\x04@\x00\x00\x00\x00\x00\x18e\xc0'
p26
tp27
bsS'center_target_pixels'
p28
(I763
I571
tp29
sS'center_actual_pixels'
p30
(I767
I575
tp31
s.(dp0
S'actual_pos'
p1
(lp2
F0.04676783621949844
aF0.059570358531860435
aF-0.16667063422945985
asS'actual_rot'
p3
(lp4
F-46.54538537473239
aF-0.8056652421151078
aF-164.93012383461044
asS'target_pos'
p5
cnumpy.core.multiarray
_reconstruct
p6
(cnumpy
ndarray
p7
(I0
tp8
S'b'
p9
tp10
Rp11
(I1
(I3
tp12
cnumpy
dtype
p13
(S'f8'
p14
I0
I1
tp15
Rp16
(I3
S'<'
p17
NNNI-1
I-1
I0
tp18
bI00
S'\xa28-h\x98\x0f\xa8?\xa0\x07\x7f\xcd3\xaf\xae?\x11\x86,[\x92^\xc5\xbf'
p19
tp20
bsS'target_rot'
p21
g6
(g7
(I0
tp22
g9
tp23
Rp24
(I1
(I3
tp25
g16
I00
S'\x00\x00\x00\x00\x00\x80F\xc0\x00\x00\x00\x00\x00\x00\x04@\x00\x00\x00\x00\x00\x18e\xc0'
p26
tp27
bsS'center_target_pixels'
p28
(I943
I587
tp29
sS'center_actual_pixels'
p30
(I949
I582
tp31
s.(dp0
S'actual_pos'
p1
(lp2
F0.03072900282683874
aF0.05892705817757994
aF-0.1650399140356462
asS'actual_rot'
p3
(lp4
F-45.500451366428024
aF1.2905368806841901
aF-167.36288871555192
asS'target_pos'
p5
cnumpy.core.multiarray
_reconstruct
p6
(cnumpy
ndarray
p7
(I0
tp8
S'b'
p9
tp10
Rp11
(I1
(I3
tp12
cnumpy
dtype
p13
(S'f8'
p14
I0
I1
tp15
Rp16
(I3
S'<'
p17
NNNI-1
I-1
I0
tp18
bI00
S'V\x96)w\x19\xc8\x9f?5P*\xe68:\xae?q\x0b\x8d\x9aF)\xc5\xbf'
p19
tp20
bsS'target_rot'
p21
g6
(g7
(I0
tp22
g9
tp23
Rp24
(I1
(I3
tp25
g16
I00
S'\x00\x00\x00\x00\x00\x80F\xc0\x00\x00\x00\x00\x00\x00\x04@\x00\x00\x00\x00\x00\x18e\xc0'
p26
tp27
bsS'center_target_pixels'
p28
(I1121
I601
tp29
sS'center_actual_pixels'
p30
(I1132
I595
tp31
s.(dp0
S'actual_pos'
p1
(lp2
F0.015399661484489525
aF0.05760020952003397
aF-0.16353718750100632
asS'actual_rot'
p3
(lp4
F-44.623728576362495
aF3.850767983912842
aF-170.544219052956
asS'target_pos'
p5
cnumpy.core.multiarray
_reconstruct
p6
(cnumpy
ndarray
p7
(I0
tp8
S'b'
p9
tp10
Rp11
(I1
(I3
tp12
cnumpy
dtype
p13
(S'f8'
p14
I0
I1
tp15
Rp16
(I3
S'<'
p17
NNNI-1
I-1
I0
tp18
bI00
S'\xae\xe5\xb2\xfb\xf5k\x90?\xe3;\xeb\x99\x9a\\\xad?\n\xffu-\\\xf7\xc4\xbf'
p19
tp20
bsS'target_rot'
p21
g6
(g7
(I0
tp22
g9
tp23
Rp24
(I1
(I3
tp25
g16
I00
S'\x00\x00\x00\x00\x00\x80F\xc0\x00\x00\x00\x00\x00\x00\x04@\x00\x00\x00\x00\x00\x18e\xc0'
p26
tp27
bsS'center_target_pixels'
p28
(I1298
I616
tp29
sS'center_actual_pixels'
p30
(I1306
I607
tp31
s.(dp0
S'actual_pos'
p1
(lp2
F0.07119316868148386
aF0.06930168531202105
aF-0.16890100094835295
asS'actual_rot'
p3
(lp4
F-47.79113174311367
aF-2.0861779773736675
aF-162.69559421996897
asS'target_pos'
p5
cnumpy.core.multiarray
_reconstruct
p6
(cnumpy
ndarray
p7
(I0
tp8
S'b'
p9
tp10
Rp11
(I1
(I3
tp12
cnumpy
dtype
p13
(S'f8'
p14
I0
I1
tp15
Rp16
(I3
S'<'
p17
NNNI-1
I-1
I0
tp18
bI00
S'$\x1d\xa5b\x81J\xb2?4H\x81\x07\xc5\xe7\xb1?\xfb}\x15\xe1\xa3\xa5\xc5\xbf'
p19
tp20
bsS'target_rot'
p21
g6
(g7
(I0
tp22
g9
tp23
Rp24
(I1
(I3
tp25
g16
I00
S'\x00\x00\x00\x00\x00\x80F\xc0\x00\x00\x00\x00\x00\x00\x04@\x00\x00\x00\x00\x00\x18e\xc0'
p26
tp27
bsS'center_target_pixels'
p28
(I665
I652
tp29
sS'center_actual_pixels'
p30
(I666
I650
tp31
s.(dp0
S'actual_pos'
p1
(lp2
F0.055167878328763895
aF0.06849708246935951
aF-0.1667574387878893
asS'actual_rot'
p3
(lp4
F-47.04143348177858
aF-1.2226756762138073
aF-163.82444203995547
asS'target_pos'
p5
cnumpy.core.multiarray
_reconstruct
p6
(cnumpy
ndarray
p7
(I0
tp8
S'b'
p9
tp10
Rp11
(I1
(I3
tp12
cnumpy
dtype
p13
(S'f8'
p14
I0
I1
tp15
Rp16
(I3
S'<'
p17
NNNI-1
I-1
I0
tp18
bI00
S'\x15\x03C\xb1Gf\xac?\x7f\xa8\x83\x8d\xf9\xaf\xb1?u\x14\x06\xf6\xceZ\xc5\xbf'
p19
tp20
bsS'target_rot'
p21
g6
(g7
(I0
tp22
g9
tp23
Rp24
(I1
(I3
tp25
g16
I00
S'\x00\x00\x00\x00\x00\x80F\xc0\x00\x00\x00\x00\x00\x00\x04@\x00\x00\x00\x00\x00\x18e\xc0'
p26
tp27
bsS'center_target_pixels'
p28
(I846
I668
tp29
sS'center_actual_pixels'
p30
(I846
I667
tp31
s.(dp0
S'actual_pos'
p1
(lp2
F0.03926166573226484
aF0.06741935815966121
aF-0.1658228566969103
asS'actual_rot'
p3
(lp4
F-46.05848133585807
aF0.27772690809880796
aF-165.69055957070907
asS'target_pos'
p5
cnumpy.core.multiarray
_reconstruct
p6
(cnumpy
ndarray
p7
(I0
tp8
S'b'
p9
tp10
Rp11
(I1
(I3
tp12
cnumpy
dtype
p13
(S'f8'
p14
I0
I1
tp15
Rp16
(I3
S'<'
p17
NNNI-1
I-1
I0
tp18
bI00
S'\xc6\x15\xc8\x16W@\xa4?\x00\x8c\r\xfa\x13`\xb1?\xed\x93UV\xc4@\xc5\xbf'
p19
tp20
bsS'target_rot'
p21
g6
(g7
(I0
tp22
g9
tp23
Rp24
(I1
(I3
tp25
g16
I00
S'\x00\x00\x00\x00\x00\x80F\xc0\x00\x00\x00\x00\x00\x00\x04@\x00\x00\x00\x00\x00\x18e\xc0'
p26
tp27
bsS'center_target_pixels'
p28
(I1024
I682
tp29
sS'center_actual_pixels'
p30
(I1023
I682
tp31
s.(dp0
S'actual_pos'
p1
(lp2
F0.02163980249050036
aF0.06597163313298383
aF-0.16488702752110593
asS'actual_rot'
p3
(lp4
F-44.83575366190618
aF3.055727175441554
aF-168.84794188745627
asS'target_pos'
p5
cnumpy.core.multiarray
_reconstruct
p6
(cnumpy
ndarray
p7
(I0
tp8
S'b'
p9
tp10
Rp11
(I1
(I3
tp12
cnumpy
dtype
p13
(S'f8'
p14
I0
I1
tp15
Rp16
(I3
S'<'
p17
NNNI-1
I-1
I0
tp18
bI00
S'\xea\xf2\x18FX\xc8\x96?..bn|\xeb\xb0?G\xdf\x1d\x87\xa6+\xc5\xbf'
p19
tp20
bsS'target_rot'
p21
g6
(g7
(I0
tp22
g9
tp23
Rp24
(I1
(I3
tp25
g16
I00
S'\x00\x00\x00\x00\x00\x80F\xc0\x00\x00\x00\x00\x00\x00\x04@\x00\x00\x00\x00\x00\x18e\xc0'
p26
tp27
bsS'center_target_pixels'
p28
(I1202
I696
tp29
sS'center_actual_pixels'
p30
(I1219
I709
tp31
s.(dp0
S'actual_pos'
p1
(lp2
F0.007278639342750212
aF0.06504542209796577
aF-0.1626917682485722
asS'actual_rot'
p3
(lp4
F-43.909419637168476
aF6.041005627210034
aF-171.72134590837675
asS'target_pos'
p5
cnumpy.core.multiarray
_reconstruct
p6
(cnumpy
ndarray
p7
(I0
tp8
S'b'
p9
tp10
Rp11
(I1
(I3
tp12
cnumpy
dtype
p13
(S'f8'
p14
I0
I1
tp15
Rp16
(I3
S'<'
p17
NNNI-1
I-1
I0
tp18
bI00
S'\xaa"\nMA\xa6\x80?\x15\xb0b\x1a\xb6\xb0\xb0?\xee\r\x17\\5\xd7\xc4\xbf'
p19
tp20
bsS'target_rot'
p21
g6
(g7
(I0
tp22
g9
tp23
Rp24
(I1
(I3
tp25
g16
I00
S'\x00\x00\x00\x00\x00\x80F\xc0\x00\x00\x00\x00\x00\x00\x04@\x00\x00\x00\x00\x00\x18e\xc0'
p26
tp27
bsS'center_target_pixels'
p28
(I1377
I711
tp29
sS'center_actual_pixels'
p30
(I1383
I702
tp31
s.(dp0
S'actual_pos'
p1
(lp2
F0.06310677594985369
aF0.07635994273860715
aF-0.16780780872318757
asS'actual_rot'
p3
(lp4
F-47.58481158223149
aF-1.7432396992171815
aF-163.22364494350794
asS'target_pos'
p5
cnumpy.core.multiarray
_reconstruct
p6
(cnumpy
ndarray
p7
(I0
tp8
S'b'
p9
tp10
Rp11
(I1
(I3
tp12
cnumpy
dtype
p13
(S'f8'
p14
I0
I1
tp15
Rp16
(I3
S'<'
p17
NNNI-1
I-1
I0
tp18
bI00
S']\xdb(\x96\x1b,\xb0?F\xa6\xe51G\xec\xb3?1\xf1\xf2\x84\xf3v\xc5\xbf'
p19
tp20
bsS'target_rot'
p21
g6
(g7
(I0
tp22
g9
tp23
Rp24
(I1
(I3
tp25
g16
I00
S'\x00\x00\x00\x00\x00\x80F\xc0\x00\x00\x00\x00\x00\x00\x04@\x00\x00\x00\x00\x00\x18e\xc0'
p26
tp27
bsS'center_target_pixels'
p28
(I748
I749
tp29
sS'center_actual_pixels'
p30
(I738
I743
tp31
s.(dp0
S'actual_pos'
p1
(lp2
F0.04677006880001638
aF0.07517530464881689
aF-0.16680916285357295
asS'actual_rot'
p3
(lp4
F-46.502633334661304
aF-0.32201187294549527
aF-164.6320006687784
asS'target_pos'
p5
cnumpy.core.multiarray
_reconstruct
p6
(cnumpy
ndarray
p7
(I0
tp8
S'b'
p9
tp10
Rp11
(I1
(I3
tp12
cnumpy
dtype
p13
(S'f8'
p14
I0
I1
tp15
Rp16
(I3
S'<'
p17
NNNI-1
I-1
I0
tp18
bI00
S'P\x8eg\xe8\x1b\r\xa8?\x89\x8f\xe6\xd3 \x91\xb3?\xeb\xf8\x99\x10\x0fZ\xc5\xbf'
p19
tp20
bsS'target_rot'
p21
g6
(g7
(I0
tp22
g9
tp23
Rp24
(I1
(I3
tp25
g16
I00
S'\x00\x00\x00\x00\x00\x80F\xc0\x00\x00\x00\x00\x00\x00\x04@\x00\x00\x00\x00\x00\x18e\xc0'
p26
tp27
bsS'center_target_pixels'
p28
(I928
I763
tp29
sS'center_actual_pixels'
p30
(I930
I760
tp31
s.(dp0
S'actual_pos'
p1
(lp2
F0.029883399087344924
aF0.07394936939929332
aF-0.16588116522158422
asS'actual_rot'
p3
(lp4
F-45.08658552544978
aF2.3846584902572983
aF-166.912480196077
asS'target_pos'
p5
cnumpy.core.multiarray
_reconstruct
p6
(cnumpy
ndarray
p7
(I0
tp8
S'b'
p9
tp10
Rp11
(I1
(I3
tp12
cnumpy
dtype
p13
(S'f8'
p14
I0
I1
tp15
Rp16
(I3
S'<'
p17
NNNI-1
I-1
I0
tp18
bI00
S'\x91$\x81\x16\x856\x9f?&\xdd`B\xf3*\xb3?~\xdf@Z\xb0E\xc5\xbf'
p19
tp20
bsS'target_rot'
p21
g6
(g7
(I0
tp22
g9
tp23
Rp24
(I1
(I3
tp25
g16
I00
S'\x00\x00\x00\x00\x00\x80F\xc0\x00\x00\x00\x00\x00\x00\x04@\x00\x00\x00\x00\x00\x18e\xc0'
p26
tp27
bsS'center_target_pixels'
p28
(I1105
I777
tp29
sS'center_actual_pixels'
p30
(I1124
I779
tp31
s.(dp0
S'actual_pos'
p1
(lp2
F0.0135634149614252
aF0.07224759505484238
aF-0.16429287441300355
asS'actual_rot'
p3
(lp4
F-44.02049850914004
aF5.208216130683101
aF-169.73943329335708
asS'target_pos'
p5
cnumpy.core.multiarray
_reconstruct
p6
(cnumpy
ndarray
p7
(I0
tp8
S'b'
p9
tp10
Rp11
(I1
(I3
tp12
cnumpy
dtype
p13
(S'f8'
p14
I0
I1
tp15
Rp16
(I3
S'<'
p17
NNNI-1
I-1
I0
tp18
bI00
S'S!!\x8a"\xb5\x8d?\xf4\x93.\xd0\x97\xaa\xb2?G\x0fk\xef\x87\x12\xc5\xbf'
p19
tp20
bsS'target_rot'
p21
g6
(g7
(I0
tp22
g9
tp23
Rp24
(I1
(I3
tp25
g16
I00
S'\x00\x00\x00\x00\x00\x80F\xc0\x00\x00\x00\x00\x00\x00\x04@\x00\x00\x00\x00\x00\x18e\xc0'
p26
tp27
bsS'center_target_pixels'
p28
(I1282
I791
tp29
sS'center_actual_pixels'
p30
(I1305
I783
tp31
s.