(dp0
S'actual_pos'
p1
(lp2
F0.0742565372064857
aF0.015949395604916455
aF-0.16940447832961197
asS'actual_rot'
p3
(lp4
F84.99715607197193
aF15.705429188215179
aF-172.12135326340731
asS'target_pos'
p5
(lp6
F0.07514067739248276
aF0.016365384683012962
aF-0.16980528831481934
asS'target_rot'
p7
cnumpy.core.multiarray
_reconstruct
p8
(cnumpy
ndarray
p9
(I0
tp10
S'b'
p11
tp12
Rp13
(I1
(I3
tp14
cnumpy
dtype
p15
(S'f8'
p16
I0
I1
tp17
Rp18
(I3
S'<'
p19
NNNI-1
I-1
I0
tp20
bI00
S'*\xabB\x0fS\xedU@\xa1/\x01\x95\xcf\xbe#@\x83\xf6W\x83\t\xa2d\xc0'
p21
tp22
bsS'center_target_pixels'
p23
(I699
I116
tp24
sS'center_actual_pixels'
p25
(I724
I74
tp26
s.(dp0
S'actual_pos'
p1
(lp2
F0.059006059019610695
aF0.016025177564552594
aF-0.1681575900410981
asS'actual_rot'
p3
(lp4
F62.104831855774705
aF12.460663566283888
aF-171.0724118846983
asS'target_pos'
p5
(lp6
F0.06008646637201309
aF0.01602288894355297
aF-0.16854937374591827
asS'target_rot'
p7
cnumpy.core.multiarray
_reconstruct
p8
(cnumpy
ndarray
p9
(I0
tp10
S'b'
p11
tp12
Rp13
(I1
(I3
tp14
cnumpy
dtype
p15
(S'f8'
p16
I0
I1
tp17
Rp18
(I3
S'<'
p19
NNNI-1
I-1
I0
tp20
bI00
S'\xa83>k"\x96O@&\xb6F4\xeb\x04!@O\xca]\xa6\xd8\xb7d\xc0'
p21
tp22
bsS'center_target_pixels'
p23
(I880
I127
tp24
sS'center_actual_pixels'
p25
(I890
I107
tp26
s.(dp0
S'actual_pos'
p1
(lp2
F0.04173495850829369
aF0.016492785602232697
aF-0.16742413064186557
asS'actual_rot'
p3
(lp4
F-59.90215051663315
aF-2.792345118206266
aF-165.1290253766929
asS'target_pos'
p5
(lp6
F0.0418713241815567
aF0.016803236678242683
aF-0.16770495474338531
asS'target_rot'
p7
cnumpy.core.multiarray
_reconstruct
p8
(cnumpy
ndarray
p9
(I0
tp10
S'b'
p11
tp12
Rp13
(I1
(I3
tp14
cnumpy
dtype
p15
(S'f8'
p16
I0
I1
tp17
Rp18
(I3
S'<'
p19
NNNI-1
I-1
I0
tp20
bI00
S'V\xa0S\xcc;UM\xc0\xd9\x1b\xdd[@\xda\xfb?\xe4"\xa4\xbf%$e\xc0'
p21
tp22
bsS'center_target_pixels'
p23
(I1059
I138
tp24
sS'center_actual_pixels'
p25
(I1066
I111
tp26
s.(dp0
S'actual_pos'
p1
(lp2
F0.027180581625165113
aF0.015368141671632224
aF-0.16360439335230229
asS'actual_rot'
p3
(lp4
F-0.6917635893538405
aF2.181747009656829
aF-167.1929274395944
asS'target_pos'
p5
(lp6
F0.02720271795988083
aF0.014936743304133415
aF-0.1637810468673706
asS'target_rot'
p7
cnumpy.core.multiarray
_reconstruct
p8
(cnumpy
ndarray
p9
(I0
tp10
S'b'
p11
tp12
Rp13
(I1
(I3
tp14
cnumpy
dtype
p15
(S'f8'
p16
I0
I1
tp17
Rp18
(I3
S'<'
p19
NNNI-1
I-1
I0
tp20
bI00
S'\x00\xeb\xaf\xe4\xfbQ\xdb\xbf/G\x18 \xb7\xe7\x13@\xe3\x9e\x7f#a\xf0d\xc0'
p21
tp22
bsS'center_target_pixels'
p23
(I1235
I148
tp24
sS'center_actual_pixels'
p25
(I1218
I134
tp26
s.(dp0
S'actual_pos'
p1
(lp2
F0.06691282996147668
aF0.027443488841527988
aF-0.16908627708355023
asS'actual_rot'
p3
(lp4
F12.09368587879778
aF-0.26557087675316016
aF-164.30379246992976
asS'target_pos'
p5
(lp6
F0.0668041780591011
aF0.026846524327993393
aF-0.1692045032978058
asS'target_rot'
p7
cnumpy.core.multiarray
_reconstruct
p8
(cnumpy
ndarray
p9
(I0
tp10
S'b'
p11
tp12
Rp13
(I1
(I3
tp14
cnumpy
dtype
p15
(S'f8'
p16
I0
I1
tp17
Rp18
(I3
S'<'
p19
NNNI-1
I-1
I0
tp20
bI00
S'\x80\xff$X5\x06)@\xd68\xcb\t\xcd\xc7\x16@\x1d\xd3\xd8\xcb\xe0\xe4d\xc0'
p21
tp22
bsS'center_target_pixels'
p23
(I786
I212
tp24
sS'center_actual_pixels'
p25
(I764
I214
tp26
s.(dp0
S'actual_pos'
p1
(lp2
F0.049839837659571194
aF0.025064492572430035
aF-0.16701226895271745
asS'actual_rot'
p3
(lp4
F4.884961371975477
aF2.11553904819931
aF-167.04566328549538
asS'target_pos'
p5
(lp6
F0.04996946454048157
aF0.024704858660697937
aF-0.16710971295833588
asS'target_rot'
p7
cnumpy.core.multiarray
_reconstruct
p8
(cnumpy
ndarray
p9
(I0
tp10
S'b'
p11
tp12
Rp13
(I1
(I3
tp14
cnumpy
dtype
p15
(S'f8'
p16
I0
I1
tp17
Rp18
(I3
S'<'
p19
NNNI-1
I-1
I0
tp20
bI00
S'\xf0\x8f\xe2eU\x1e\x15@\x8d\xeb\xe1\x13Z,\x15@Rx\xb0\x97N\xebd\xc0'
p21
tp22
bsS'center_target_pixels'
p23
(I965
I222
tp24
sS'center_actual_pixels'
p25
(I956
I205
tp26
s.(dp0
S'actual_pos'
p1
(lp2
F0.03368123133796685
aF0.02299631914193426
aF-0.16497939011944338
asS'actual_rot'
p3
(lp4
F46.83055713867337
aF7.988810197734806
aF-170.8743689096692
asS'target_pos'
p5
(lp6
F0.03430240973830223
aF0.0227978453040123
aF-0.1651420295238495
asS'target_rot'
p7
cnumpy.core.multiarray
_reconstruct
p8
(cnumpy
ndarray
p9
(I0
tp10
S'b'
p11
tp12
Rp13
(I1
(I3
tp14
cnumpy
dtype
p15
(S'f8'
p16
I0
I1
tp17
Rp18
(I3
S'<'
p19
NNNI-1
I-1
I0
tp20
bI00
S'\xb0/F^\xf8gG@\xf9\x86t\r\x19g\x1e@\xe4-\xca\x9bc\xc6d\xc0'
p21
tp22
bsS'center_target_pixels'
p23
(I1143
I231
tp24
sS'center_actual_pixels'
p25
(I1136
I219
tp26
s.(dp0
S'actual_pos'
p1
(lp2
F0.01793732888190308
aF0.021644127120671465
aF-0.1647711986572612
asS'actual_rot'
p3
(lp4
F10.37671247084641
aF7.20206250262465
aF-170.90994076618523
asS'target_pos'
p5
(lp6
F0.018682075664401054
aF0.021271880716085434
aF-0.16509467363357544
asS'target_rot'
p7
cnumpy.core.multiarray
_reconstruct
p8
(cnumpy
ndarray
p9
(I0
tp10
S'b'
p11
tp12
Rp13
(I1
(I3
tp14
cnumpy
dtype
p15
(S'f8'
p16
I0
I1
tp17
Rp18
(I3
S'<'
p19
NNNI-1
I-1
I0
tp20
bI00
S'(\xcd1\n\xdc_$@\x92\x88\x05:\x8aC\x16@\xde\xe9\x17\xd7\xf1\xe6d\xc0'
p21
tp22
bsS'center_target_pixels'
p23
(I1319
I242
tp24
sS'center_actual_pixels'
p25
(I1320
I221
tp26
s.(dp0
S'actual_pos'
p1
(lp2
F0.07315548532326366
aF0.03630961666741969
aF-0.1704971921310745
asS'actual_rot'
p3
(lp4
F-19.28904359963016
aF-1.240891908470452
aF-163.74782995478097
asS'target_pos'
p5
(lp6
F0.07309206575155258
aF0.036028314381837845
aF-0.17096665501594543
asS'target_rot'
p7
cnumpy.core.multiarray
_reconstruct
p8
(cnumpy
ndarray
p9
(I0
tp10
S'b'
p11
tp12
Rp13
(I1
(I3
tp14
cnumpy
dtype
p15
(S'f8'
p16
I0
I1
tp17
Rp18
(I3
S'<'
p19
NNNI-1
I-1
I0
tp20
bI00
S'(1\xeb\xd2\xb1\x841\xc0iJ\xaf\xb4f\x1b\x10@\xd6B-e\x92\xffd\xc0'
p21
tp22
bsS'center_target_pixels'
p23
(I691
I296
tp24
sS'center_actual_pixels'
p25
(I684
I291
tp26
s.(dp0
S'actual_pos'
p1
(lp2
F0.05828361224094779
aF0.03424816009208565
aF-0.16876222050993184
asS'actual_rot'
p3
(lp4
F49.557728966063344
aF7.872407525597887
aF-170.73984808844082
asS'target_pos'
p5
(lp6
F0.059007756412029266
aF0.03370339795947075
aF-0.16926175355911255
asS'target_rot'
p7
cnumpy.core.multiarray
_reconstruct
p8
(cnumpy
ndarray
p9
(I0
tp10
S'b'
p11
tp12
Rp13
(I1
(I3
tp14
cnumpy
dtype
p15
(S'f8'
p16
I0
I1
tp17
Rp18
(I3
S'<'
p19
NNNI-1
I-1
I0
tp20
bI00
S'tT\x13\t\xa8\xbeH@m^z g\xff\x1e@\x86\x16~c\x02\xc4d\xc0'
p21
tp22
bsS'center_target_pixels'
p23
(I871
I306
tp24
sS'center_actual_pixels'
p25
(I854
I321
tp26
s.(dp0
S'actual_pos'
p1
(lp2
F0.04025180047194692
aF0.03229126120481993
aF-0.166477125886471
asS'actual_rot'
p3
(lp4
F-37.57980565972638
aF0.03690617452314235
aF-166.80022484972955
asS'target_pos'
p5
(lp6
F0.040540941059589386
aF0.032165590673685074
aF-0.16668719053268433
asS'target_rot'
p7
cnumpy.core.multiarray
_reconstruct
p8
(cnumpy
ndarray
p9
(I0
tp10
S'b'
p11
tp12
Rp13
(I1
(I3
tp14
cnumpy
dtype
p15
(S'f8'
p16
I0
I1
tp17
Rp18
(I3
S'<'
p19
NNNI-1
I-1
I0
tp20
bI00
S'\xb0\xa9\x1a&\xbcQB\xc0+i\xaf\xc1X\xb7\x07@.\xa1|N\x91\x10e\xc0'
p21
tp22
bsS'center_target_pixels'
p23
(I1051
I315
tp24
sS'center_actual_pixels'
p25
(I1062
I298
tp26
s.(dp0
S'actual_pos'
p1
(lp2
F0.025044858003942426
aF0.03132116536634026
aF-0.1645322898487423
asS'actual_rot'
p3
(lp4
F-27.24717278059694
aF1.7053141857226919
aF-168.22062848618665
asS'target_pos'
p5
(lp6
F0.025203779339790344
aF0.03116363286972046
aF-0.16476553678512573
asS'target_rot'
p7
cnumpy.core.multiarray
_reconstruct
p8
(cnumpy
ndarray
p9
(I0
tp10
S'b'
p11
tp12
Rp13
(I1
(I3
tp14
cnumpy
dtype
p15
(S'f8'
p16
I0
I1
tp17
Rp18
(I3
S'<'
p19
NNNI-1
I-1
I0
tp20
bI00
S'\xca?\xe8:\xc7\xcb:\xc0\x8a\x1c\xee\xac5\x17\x0c@\xc7#\xa6\x94\xd1\x07e\xc0'
p21
tp22
bsS'center_target_pixels'
p23
(I1227
I323
tp24
sS'center_actual_pixels'
p25
(I1223
I304
tp26
s.(dp0
S'actual_pos'
p1
(lp2
F0.009277676521799096
aF0.02890711079232364
aF-0.16280495461637098
asS'actual_rot'
p3
(lp4
F37.47915357550975
aF7.355960671574228
aF-169.9601952424006
asS'target_pos'
p5
(lp6
F0.009748454205691814
aF0.02867656946182251
aF-0.1630660444498062
asS'target_rot'
p7
cnumpy.core.multiarray
_reconstruct
p8
(cnumpy
ndarray
p9
(I0
tp10
S'b'
p11
tp12
Rp13
(I1
(I3
tp14
cnumpy
dtype
p15
(S'f8'
p16
I0
I1
tp17
Rp18
(I3
S'<'
p19
NNNI-1
I-1
I0
tp20
bI00
S'\x14S\x88\xda\xc2\xb7B@{\x08Y\xef\xabQ\x1c@\xde\x9bBP\xb9\xced\xc0'
p21
tp22
bsS'center_target_pixels'
p23
(I1402
I333
tp24
sS'center_actual_pixels'
p25
(I1393
I322
tp26
s.(dp0
S'actual_pos'
p1
(lp2
F0.066138003719321
aF0.04312759072637999
aF-0.16924468562868156
asS'actual_rot'
p3
(lp4
F37.57186285519152
aF5.207878878399082
aF-167.95594433400103
asS'target_pos'
p5
(lp6
F0.0667000561952591
aF0.04242425784468651
aF-0.16959580779075623
asS'target_rot'
p7
cnumpy.core.multiarray
_reconstruct
p8
(cnumpy
ndarray
p9
(I0
tp10
S'b'
p11
tp12
Rp13
(I1
(I3
tp14
cnumpy
dtype
p15
(S'f8'
p16
I0
I1
tp17
Rp18
(I3
S'<'
p19
NNNI-1
I-1
I0
tp20
bI00
S'\xbcU\xcf\x1d\xde\xb1B@\xa9\t\x95b\rO\x1c@\xd9\xabu\xca\xc3\xced\xc0'
p21
tp22
bsS'center_target_pixels'
p23
(I777
I390
tp24
sS'center_actual_pixels'
p25
(I759
I397
tp26
s.(dp0
S'actual_pos'
p1
(lp2
F0.04820798500956464
aF0.04061721552464958
aF-0.16711880227083123
asS'actual_rot'
p3
(lp4
F71.98459950508364
aF9.81900820960168
aF-171.0225458878031
asS'target_pos'
p5
(lp6
F0.04899702966213226
aF0.04024849086999893
aF-0.1675034463405609
asS'target_rot'
p7
cnumpy.core.multiarray
_reconstruct
p8
(cnumpy
ndarray
p9
(I0
tp10
S'b'
p11
tp12
Rp13
(I1
(I3
tp14
cnumpy
dtype
p15
(S'f8'
p16
I0
I1
tp17
Rp18
(I3
S'<'
p19
NNNI-1
I-1
I0
tp20
bI00
S'\x90\x8cRw(\x06R@\xebZ\xcf\xa6\xbc\x02"@)\x85\xc9\x1a\xea\xafd\xc0'
p21
tp22
bsS'center_target_pixels'
p23
(I957
I399
tp24
sS'center_actual_pixels'
p25
(I968
I403
tp26
s.(dp0
S'actual_pos'
p1
(lp2
F0.031922842102350975
aF0.03924691385421143
aF-0.1657888828295614
asS'actual_rot'
p3
(lp4
F4.617164756944184
aF2.443650138742136
aF-166.238683239411
asS'target_pos'
p5
(lp6
F0.0320550762116909
aF0.03871095925569534
aF-0.16606825590133667
asS'target_rot'
p7
cnumpy.core.multiarray
_reconstruct
p8
(cnumpy
ndarray
p9
(I0
tp10
S'b'
p11
tp12
Rp13
(I1
(I3
tp14
cnumpy
dtype
p15
(S'f8'
p16
I0
I1
tp17
Rp18
(I3
S'<'
p19
NNNI-1
I-1
I0
tp20
bI00
S'\xd0\x10K\xa4\x9b\xe5\x14@(\x0f=P3)\x15@\xc3\x0b\xbf2[\xebd\xc0'
p21
tp22
bsS'center_target_pixels'
p23
(I1135
I408
tp24
sS'center_actual_pixels'
p25
(I1136
I394
tp26
s.(dp0
S'actual_pos'
p1
(lp2
F0.015561308232354352
aF0.03957447418683517
aF-0.16299135562666714
asS'actual_rot'
p3
(lp4
F-79.19671218742295
aF0.5945746314526412
aF-169.825862953927
asS'target_pos'
p5
(lp6
F0.01601392775774002
aF0.039255350828170776
aF-0.16328942775726318
asS'target_rot'
p7
cnumpy.core.multiarray
_reconstruct
p8
(cnumpy
ndarray
p9
(I0
tp10
S'b'
p11
tp12
Rp13
(I1
(I3
tp14
cnumpy
dtype
p15
(S'f8'
p16
I0
I1
tp17
Rp18
(I3
S'<'
p19
NNNI-1
I-1
I0
tp20
bI00
S'\xad2\xb9\xa8J\xcbS\xc0\x87\xd0L\x17\xed=\xe3?\x98Yt\ta6e\xc0'
p21
tp22
bsS'center_target_pixels'
p23
(I1311
I416
tp24
sS'center_actual_pixels'
p25
(I1330
I407
tp26
s.(dp0
S'actual_pos'
p1
(lp2
F0.07306397416743443
aF0.05011676035560912
aF-0.16959741188088895
asS'actual_rot'
p3
(lp4
F-45.311849297653396
aF-2.0978763952255757
aF-162.8311672708962
asS'target_pos'
p5
(lp6
F0.07333651185035706
aF0.05023573711514473
aF-0.1698703020811081
asS'target_rot'
p7
cnumpy.core.multiarray
_reconstruct
p8
(cnumpy
ndarray
p9
(I0
tp10
S'b'
p11
tp12
Rp13
(I1
(I3
tp14
cnumpy
dtype
p15
(S'f8'
p16
I0
I1
tp17
Rp18
(I3
S'<'
p19
NNNI-1
I-1
I0
tp20
bI00
S'\xfc\xc2\r\xc6\x86lE\xc0\xaeR\xd7\x88\xdd\xf4\x04@[Q\xeeD\x16\x16e\xc0'
p21
tp22
bsS'center_target_pixels'
p23
(I683
I475
tp24
sS'center_actual_pixels'
p25
(I664
I442
tp26
s.(dp0
S'actual_pos'
p1
(lp2
F0.056781149424315405
aF0.050096973859287824
aF-0.1684189934531351
asS'actual_rot'
p3
(lp4
F54.35058797433673
aF7.597936364985167
aF-169.48262349632952
asS'target_pos'
p5
(lp6
F0.05744411051273346
aF0.049724727869033813
aF-0.1688441038131714
asS'target_rot'
p7
cnumpy.core.multiarray
_reconstruct
p8
(cnumpy
ndarray
p9
(I0
tp10
S'b'
p11
tp12
Rp13
(I1
(I3
tp14
cnumpy
dtype
p15
(S'f8'
p16
I0
I1
tp17
Rp18
(I3
S'<'
p19
NNNI-1
I-1
I0
tp20
bI00
S'\xec\xa8e+\xbb\x1cK@\xa6\xeck{b\x06 @\x9b\xa0$\xec\xcc\xbfd\xc0'
p21
tp22
bsS'center_target_pixels'
p23
(I863
I483
tp24
sS'center_actual_pixels'
p25
(I853
I498
tp26
s.(dp0
S'actual_pos'
p1
(lp2
F0.039665688949397856
aF0.04733840549838227
aF-0.16611208566038183
asS'actual_rot'
p3
(lp4
F-39.20152368059043
aF0.13764585649152208
aF-165.46395668468458
asS'target_pos'
p5
(lp6
F0.04000658541917801
aF0.04724171757698059
aF-0.16637952625751495
asS'target_rot'
p7
cnumpy.core.multiarray
_reconstruct
p8
(cnumpy
ndarray
p9
(I0
tp10
S'b'
p11
tp12
Rp13
(I1
(I3
tp14
cnumpy
dtype
p15
(S'f8'
p16
I0
I1
tp17
Rp18
(I3
S'<'
p19
NNNI-1
I-1
I0
tp20
bI00
S'\xd6u\xf5k\xc0\x0fC\xc0%\xd0%gq\x0e\x07@`\xb41\x1d\xe3\x11e\xc0'
p21
tp22
bsS'center_target_pixels'
p23
(I1042
I492
tp24
sS'center_actual_pixels'
p25
(I1042
I465
tp26
s.(dp0
S'actual_pos'
p1
(lp2
F0.024396856972606244
aF0.046296179356927876
aF-0.16386616669867196
asS'actual_rot'
p3
(lp4
F74.41666571427558
aF8.855411724849361
aF-168.90037392712142
asS'target_pos'
p5
(lp6
F0.0248260498046875
aF0.04611511901021004
aF-0.16410818696022034
asS'target_rot'
p7
cnumpy.core.multiarray
_reconstruct
p8
(cnumpy
ndarray
p9
(I0
tp10
S'b'
p11
tp12
Rp13
(I1
(I3
tp14
cnumpy
dtype
p15
(S'f8'
p16
I0
I1
tp17
Rp18
(I3
S'<'
p19
NNNI-1
I-1
I0
tp20
bI00
S'Pf\x8d\x8d\xb8\x97R@\x07\x11\xcdwnC"@x\x97A\x8c\xe4\xadd\xc0'
p21
tp22
bsS'center_target_pixels'
p23
(I1218
I500
tp24
sS'center_actual_pixels'
p25
(I1215
I502
tp26
s.(dp0
S'actual_pos'
p1
(lp2
F0.007493397143034192
aF0.045208304657128245
aF-0.16166228537988894
asS'actual_rot'
p3
(lp4
F74.14203740377826
aF9.322414706509342
aF-165.38608782982215
asS'target_pos'
p5
(lp6
F0.007923749275505543
aF0.04506107419729233
aF-0.16196143627166748
asS'target_rot'
p7
cnumpy.core.multiarray
_reconstruct
p8
(cnumpy
ndarray
p9
(I0
tp10
S'b'
p11
tp12
Rp13
(I1
(I3
tp14
cnumpy
dtype
p15
(S'f8'
p16
I0
I1
tp17
Rp18
(I3
S'<'
p19
NNNI-1
I-1
I0
tp20
bI00
S'\xfa\x1bl\x9e\xa7\x86R@o\x0c0\xb8\xd8;"@\x9d\x7f>:!\xaed\xc0'
p21
tp22
bsS'center_target_pixels'
p23
(I1395
I508
tp24
sS'center_actual_pixels'
p25
(I1406
I513
tp26
s.(dp0
S'actual_pos'
p1
(lp2
F0.06442241506078268
aF0.05866722074810783
aF-0.1686567842483867
asS'actual_rot'
p3
(lp4
F59.00794042139984
aF8.06988065749238
aF-169.67268256370008
asS'target_pos'
p5
(lp6
F0.0651443600654602
aF0.058519743382930756
aF-0.168969064950943
asS'target_rot'
p7
cnumpy.core.multiarray
_reconstruct
p8
(cnumpy
ndarray
p9
(I0
tp10
S'b'
p11
tp12
Rp13
(I1
(I3
tp14
cnumpy
dtype
p15
(S'f8'
p16
I0
I1
tp17
Rp18
(I3
S'<'
p19
NNNI-1
I-1
I0
tp20
bI00
S'\xf4\xcf\x92\xca\x92uM@\xc4\x11=\xbb\xe7\x8b @r\x17&\xc2\xa0\xbbd\xc0'
p21
tp22
bsS'center_target_pixels'
p23
(I769
I568
tp24
sS'center_actual_pixels'
p25
(I757
I582
tp26
s.(dp0
S'actual_pos'
p1
(lp2
F0.04916622433672372
aF0.05686113185037795
aF-0.16718446512104904
asS'actual_rot'
p3
(lp4
F32.635296612131725
aF2.798350039426868
aF-165.0580540114458
asS'target_pos'
p5
(lp6
F0.049339547753334045
aF0.05638404190540314
aF-0.16736868023872375
asS'target_rot'
p7
cnumpy.core.multiarray
_reconstruct
p8
(cnumpy
ndarray
p9
(I0
tp10
S'b'
p11
tp12
Rp13
(I1
(I3
tp14
cnumpy
dtype
p15
(S'f8'
p16
I0
I1
tp17
Rp18
(I3
S'<'
p19
NNNI-1
I-1
I0
tp20
bI00
S'\x12\xc6\xfd\xc6\xd0\x91@@\xd0\xc9pX@]\x1b@\xd9<\x9e\xfe\x8a\xd2d\xc0'
p21
tp22
bsS'center_target_pixels'
p23
(I948
I576
tp24
sS'center_actual_pixels'
p25
(I920
I571
tp26
s.(dp0
S'actual_pos'
p1
(lp2
F0.03161871023080933
aF0.05451509852781575
aF-0.1644164280234682
asS'actual_rot'
p3
(lp4
F-38.66838770701859
aF1.4135158619331418
aF-166.60408257707746
asS'target_pos'
p5
(lp6
F0.03188922256231308
aF0.054566074162721634
aF-0.1646409034729004
asS'target_rot'
p7
cnumpy.core.multiarray
_reconstruct
p8
(cnumpy
ndarray
p9
(I0
tp10
S'b'
p11
tp12
Rp13
(I1
(I3
tp14
cnumpy
dtype
p15
(S'f8'
p16
I0
I1
tp17
Rp18
(I3
S'<'
p19
NNNI-1
I-1
I0
tp20
bI00
S'\xa4P\x8etN\x08C\xc0\xa8\re\x98\x0f\x15\x07@\xe55\xcf\xe0\xd5\x11e\xc0'
p21
tp22
bsS'center_target_pixels'
p23
(I1126
I584
tp24
sS'center_actual_pixels'
p25
(I1127
I555
tp26
s.(dp0
S'actual_pos'
p1
(lp2
F0.013878245761777343
aF0.05421798355056821
aF-0.1615414077310834
asS'actual_rot'
p3
(lp4
F-62.89664104861415
aF3.104196803106514
aF-171.4929063674137
asS'target_pos'
p5
(lp6
F0.014479449018836021
aF0.0539148785173893
aF-0.16182726621627808
asS'target_rot'
p7
cnumpy.core.multiarray
_reconstruct
p8
(cnumpy
ndarray
p9
(I0
tp10
S'b'
p11
tp12
Rp13
(I1
(I3
tp14
cnumpy
dtype
p15
(S'f8'
p16
I0
I1
tp17
Rp18
(I3
S'<'
p19
NNNI-1
I-1
I0
tp20
bI00
S"\x82Q&\x94$\x9fO\xc0\xa7R\xd8\x86\xa2\xc8\xf7?\xad'y]7(e\xc0"
p21
tp22
bsS'center_target_pixels'
p23
(I1302
I591
tp24
sS'center_actual_pixels'
p25
(I1333
I576
tp26
s.(dp0
S'actual_pos'
p1
(lp2
F0.07326318031702485
aF0.06722085942604744
aF-0.16879636803671638
asS'actual_rot'
p3
(lp4
F61.283352075214204
aF8.022232888222893
aF-169.6438985116785
asS'target_pos'
p5
(lp6
F0.07401236146688461
aF0.06716970354318619
aF-0.16886326670646667
asS'target_rot'
p7
cnumpy.core.multiarray
_reconstruct
p8
(cnumpy
ndarray
p9
(I0
tp10
S'b'
p11
tp12
Rp13
(I1
(I3
tp14
cnumpy
dtype
p15
(S'f8'
p16
I0
I1
tp17
Rp18
(I3
S'<'
p19
NNNI-1
I-1
I0
tp20
bI00
S'\x18>\xe6\x86+\x93N@\x94\x7f\x88\x01_\xcb @\x03\xbc\xf3\x07\xa5\xb9d\xc0'
p21
tp22
bsS'center_target_pixels'
p23
(I673
I653
tp24
sS'center_actual_pixels'
p25
(I642
I664
tp26
s.(dp0
S'actual_pos'
p1
(lp2
F0.05665315537410356
aF0.06588189654940266
aF-0.16729461434694123
asS'actual_rot'
p3
(lp4
F36.26806181421733
aF1.8796693024787203
aF-163.99578773869635
asS'target_pos'
p5
(lp6
F0.056781262159347534
aF0.0653882846236229
aF-0.16735386848449707
asS'target_rot'
p7
cnumpy.core.multiarray
_reconstruct
p8
(cnumpy
ndarray
p9
(I0
tp10
S'b'
p11
tp12
Rp13
(I1
(I3
tp14
cnumpy
dtype
p15
(S'f8'
p16
I0
I1
tp17
Rp18
(I3
S'<'
p19
NNNI-1
I-1
I0
tp20
bI00
S'\x08P\x1d\x07\xbcoB@\xca\xb1\xb7\xe6\xa81\x1c@9!e\\9\xcfd\xc0'
p21
tp22
bsS'center_target_pixels'
p23
(I855
I660
tp24
sS'center_actual_pixels'
p25
(I824
I657
tp26
s.(dp0
S'actual_pos'
p1
(lp2
F0.03835502330176031
aF0.06311462159840132
aF-0.16527106395347885
asS'actual_rot'
p3
(lp4
F-28.83780172938563
aF1.0227621706262373
aF-164.89823779351585
asS'target_pos'
p5
(lp6
F0.03856787085533142
aF0.06326548755168915
aF-0.1654931604862213
asS'target_rot'
p7
cnumpy.core.multiarray
_reconstruct
p8
(cnumpy
ndarray
p9
(I0
tp10
S'b'
p11
tp12
Rp13
(I1
(I3
tp14
cnumpy
dtype
p15
(S'f8'
p16
I0
I1
tp17
Rp18
(I3
S'<'
p19
NNNI-1
I-1
I0
tp20
bI00
S'T\x9dB\x95\x11\xae;\xc0LH\x1b\xda\xa2\xb2\x0b@o\xc9K\xba\x9a\x08e\xc0'
p21
tp22
bsS'center_target_pixels'
p23
(I1034
I668
tp24
sS'center_actual_pixels'
p25
(I1043
I644
tp26
s.(dp0
S'actual_pos'
p1
(lp2
F0.022760644032927966
aF0.0626313615774752
aF-0.1637430196834942
asS'actual_rot'
p3
(lp4
F-47.31436181838188
aF2.7109433205029942
aF-168.87023253943352
asS'target_pos'
p5
(lp6
F0.023208890110254288
aF0.06259433925151825
aF-0.1639983057975769
asS'target_rot'
p7
cnumpy.core.multiarray
_reconstruct
p8
(cnumpy
ndarray
p9
(I0
tp10
S'b'
p11
tp12
Rp13
(I1
(I3
tp14
cnumpy
dtype
p15
(S'f8'
p16
I0
I1
tp17
Rp18
(I3
S'<'
p19
NNNI-1
I-1
I0
tp20
bI00
S'z4\x85\x95\xb8\xb2G\xc0\xcc\xed\xde\xec[\xef\x02@$B&H!\x1ae\xc0'
p21
tp22
bsS'center_target_pixels'
p23
(I1210
I675
tp24
sS'center_actual_pixels'
p25
(I1216
I656
tp26
s.(dp0
S'actual_pos'
p1
(lp2
F0.007490983764115398
aF0.061399949469802394
aF-0.15994400733374303
asS'actual_rot'
p3
(lp4
F2.1625241693852844
aF0.5552102620828553
aF-163.5838960763271
asS'target_pos'
p5
(lp6
F0.007106601260602474
aF0.06133178249001503
aF-0.16015776991844177
asS'target_rot'
p7
cnumpy.core.multiarray
_reconstruct
p8
(cnumpy
ndarray
p9
(I0
tp10
S'b'
p11
tp12
Rp13
(I1
(I3
tp14
cnumpy
dtype
p15
(S'f8'
p16
I0
I1
tp17
Rp18
(I3
S'<'
p19
NNNI-1
I-1
I0
tp20
bI00
S'0r\xf9\xb4\xb8\x08\x10@\xe6i\xf1B\n\xe4\x14@X:\xf4\xd6o\xecd\xc0'
p21
tp22
bsS'center_target_pixels'
p23
(I1386
I683
tp24
sS'center_actual_pixels'
p25
(I1373
I669
tp26
s.(dp0
S'actual_pos'
p1
(lp2
F0.06500994129334163
aF0.07414418702696757
aF-0.16840437151448476
asS'actual_rot'
p3
(lp4
F25.786379941408136
aF0.0762378466680197
aF-163.027801419823
asS'target_pos'
p5
(lp6
F0.06472045928239822
aF0.07441208511590958
aF-0.16822530329227448
asS'target_rot'
p7
cnumpy.core.multiarray
_reconstruct
p8
(cnumpy
ndarray
p9
(I0
tp10
S'b'
p11
tp12
Rp13
(I1
(I3
tp14
cnumpy
dtype
p15
(S'f8'
p16
I0
I1
tp17
Rp18
(I3
S'<'
p19
NNNI-1
I-1
I0
tp20
bI00
S'\x80]cR@i;@\xe4\xdb\x87\xa0c\x17\x1a@\x90\xe0}q\xa2\xd7d\xc0'
p21
tp22
bsS'center_target_pixels'
p23
(I760
I746
tp24
sS'center_actual_pixels'
p25
(I715
I740
tp26
s.(dp0
S'actual_pos'
p1
(lp2
F0.045332471015708496
aF0.0712435977372274
aF-0.16661312429498307
asS'actual_rot'
p3
(lp4
F-43.39449915864021
aF-0.3415083875548246
aF-164.25699914328112
asS'target_pos'
p5
(lp6
F0.04548949748277664
aF0.07238629460334778
aF-0.1665077656507492
asS'target_rot'
p7
cnumpy.core.multiarray
_reconstruct
p8
(cnumpy
ndarray
p9
(I0
tp10
S'b'
p11
tp12
Rp13
(I1
(I3
tp14
cnumpy
dtype
p15
(S'f8'
p16
I0
I1
tp17
Rp18
(I3
S'<'
p19
NNNI-1
I-1
I0
tp20
bI00
S'\x17\xb1\xc8s\xec\xebD\xc0$F\xf8\xd1-g\x05@t\x0f\\\xa41\x15e\xc0'
p21
tp22
bsS'center_target_pixels'
p23
(I940
I752
tp24
sS'center_actual_pixels'
p25
(I949
I726
tp26
s.(dp0
S'actual_pos'
p1
(lp2
F0.03116156606846981
aF0.07010754531936413
aF-0.1644993367115732
asS'actual_rot'
p3
(lp4
F63.21815849887184
aF4.094267959201859
aF-165.11472187851794
asS'target_pos'
p5
(lp6
F0.03136894106864929
aF0.07037225365638733
aF-0.1642850786447525
asS'target_rot'
p7
cnumpy.core.multiarray
_reconstruct
p8
(cnumpy
ndarray
p9
(I0
tp10
S'b'
p11
tp12
Rp13
(I1
(I3
tp14
cnumpy
dtype
p15
(S'f8'
p16
I0
I1
tp17
Rp18
(I3
S'<'
p19
NNNI-1
I-1
I0
tp20
bI00
S'T+A\x0e`\xb1O@\x13&\xb9\xe6\xf8\n!@\xcf6\xca8\xa8\xb7d\xc0'
p21
tp22
bsS'center_target_pixels'
p23
(I1118
I760
tp24
sS'center_actual_pixels'
p25
(I1108
I751
tp26
s.(dp0
S'actual_pos'
p1
(lp2
F0.01248009403806761
aF0.06808320261375572
aF-0.16046360339233673
asS'actual_rot'
p3
(lp4
F49.33706406024487
aF4.61061895255667
aF-161.9312760804742
asS'target_pos'
p5
(lp6
F0.012486808001995087
aF0.06844417005777359
aF-0.16028711199760437
asS'target_rot'
p7
cnumpy.core.multiarray
_reconstruct
p8
(cnumpy
ndarray
p9
(I0
tp10
S'b'
p11
tp12
Rp13
(I1
(I3
tp14
cnumpy
dtype
p15
(S'f8'
p16
I0
I1
tp17
Rp18
(I3
S'<'
p19
NNNI-1
I-1
I0
tp20
bI00
S'\x10\xe2\xee\xdeA\x12I@\xea\x80\xbf\r\x8f$\x1f@\xfc\x01\xc9\xc3m\xc3d\xc0'
p21
tp22
bsS'center_target_pixels'
p23
(I1294
I766
tp24
sS'center_actual_pixels'
p25
(I1321
I741
tp26
s.