(dp0
S'actual_pos'
p1
(cnumpy.core.multiarray
_reconstruct
p2
(cnumpy.matrixlib.defmatrix
matrix
p3
(I0
tp4
S'b'
p5
tp6
Rp7
(I1
(I1
I1
tp8
cnumpy
dtype
p9
(S'f8'
p10
I0
I1
tp11
Rp12
(I3
S'<'
p13
NNNI-1
I-1
I0
tp14
bI00
S'\xcb\xdb\xf2G1z\xb0?'
p15
tp16
bg2
(g3
(I0
tp17
g5
tp18
Rp19
(I1
(I1
I1
tp20
g12
I00
S'\xa4V,\x81i\xdf\x92?'
p21
tp22
bg2
(g3
(I0
tp23
g5
tp24
Rp25
(I1
(I1
I1
tp26
g12
I00
S'<g\x86\x1at\xdc\xc5\xbf'
p27
tp28
btp29
sS'actual_rot'
p30
(F0.033325187031100545
F-12.664649730835828
F-171.1855938612651
tp31
sS'target_pos'
p32
(lp33
cnumpy.core.multiarray
scalar
p34
(g12
S'\xe7F\x1eq3\xa3\xb0?'
p35
tp36
Rp37
ag34
(g12
S'\xdb\t\xfa\xddk]\x92?'
p38
tp39
Rp40
ag34
(g12
S'\xea"\xe8I\x1c\xe3\xc5\xbf'
p41
tp42
Rp43
asS'target_rot'
p44
g2
(cnumpy
ndarray
p45
(I0
tp46
g5
tp47
Rp48
(I1
(I3
tp49
g12
I00
S'C\xc7\xe7\xe7\x91\t\xb4?\xf5\x11>!\xe6d(\xc0a@\tTb4e\xc0'
p50
tp51
bsS'center_target_pixels'
p52
(I794
I96
tp53
sS'center_actual_pixels'
p54
(I792
I94
tp55
s.(dp0
S'actual_pos'
p1
(cnumpy.core.multiarray
_reconstruct
p2
(cnumpy.matrixlib.defmatrix
matrix
p3
(I0
tp4
S'b'
p5
tp6
Rp7
(I1
(I1
I1
tp8
cnumpy
dtype
p9
(S'f8'
p10
I0
I1
tp11
Rp12
(I3
S'<'
p13
NNNI-1
I-1
I0
tp14
bI00
S'\xfb\xf3!\xf4\x8b\xe2\xa8?'
p15
tp16
bg2
(g3
(I0
tp17
g5
tp18
Rp19
(I1
(I1
I1
tp20
g12
I00
S'\x91\x04\xechR\x0c\x91?'
p21
tp22
bg2
(g3
(I0
tp23
g5
tp24
Rp25
(I1
(I1
I1
tp26
g12
I00
S'\xe4N\xa9=o\xa4\xc5\xbf'
p27
tp28
btp29
sS'actual_rot'
p30
(F0.15172700475308715
F-11.412259242848483
F-172.96871986295116
tp31
sS'target_pos'
p32
(lp33
cnumpy.core.multiarray
scalar
p34
(g12
S'\xcb\x9f\xa1z\x08I\xa9?'
p35
tp36
Rp37
ag34
(g12
S"%\xe7'\xe0K\x8b\x90?"
p38
tp39
Rp40
ag34
(g12
S'\x11\xe5p\xf2H\xa9\xc5\xbf'
p41
tp42
Rp43
asS'target_rot'
p44
g2
(cnumpy
ndarray
p45
(I0
tp46
g5
tp47
Rp48
(I1
(I3
tp49
g12
I00
S'C\xc7\xe7\xe7\x91\t\xb4?\xf5\x11>!\xe6d(\xc0a@\tTb4e\xc0'
p50
tp51
bsS'center_target_pixels'
p52
(I973
I104
tp53
sS'center_actual_pixels'
p54
(I972
I103
tp55
s.(dp0
S'actual_pos'
p1
(cnumpy.core.multiarray
_reconstruct
p2
(cnumpy.matrixlib.defmatrix
matrix
p3
(I0
tp4
S'b'
p5
tp6
Rp7
(I1
(I1
I1
tp8
cnumpy
dtype
p9
(S'f8'
p10
I0
I1
tp11
Rp12
(I3
S'<'
p13
NNNI-1
I-1
I0
tp14
bI00
S"\xa9\x858'\xcd\xb3\xa0?"
p15
tp16
bg2
(g3
(I0
tp17
g5
tp18
Rp19
(I1
(I1
I1
tp20
g12
I00
S'\xdc\xf2\xa1\xca\x8d\x8b\x8e?'
p21
tp22
bg2
(g3
(I0
tp23
g5
tp24
Rp25
(I1
(I1
I1
tp26
g12
I00
S'\xc5\xb0?t|i\xc5\xbf'
p27
tp28
btp29
sS'actual_rot'
p30
(F0.3576589681917826
F-8.781453192593691
F-173.96916495620815
tp31
sS'target_pos'
p32
(lp33
cnumpy.core.multiarray
scalar
p34
(g12
S'\xefI;Z,K\xa1?'
p35
tp36
Rp37
ag34
(g12
S'\x8a\x18ffVJ\x8d?'
p38
tp39
Rp40
ag34
(g12
S'\xf6\xfaI\xb1\x13o\xc5\xbf'
p41
tp42
Rp43
asS'target_rot'
p44
g2
(cnumpy
ndarray
p45
(I0
tp46
g5
tp47
Rp48
(I1
(I3
tp49
g12
I00
S'C\xc7\xe7\xe7\x91\t\xb4?\xf5\x11>!\xe6d(\xc0a@\tTb4e\xc0'
p50
tp51
bsS'center_target_pixels'
p52
(I1149
I111
tp53
sS'center_actual_pixels'
p54
(I1153
I115
tp55
s.(dp0
S'actual_pos'
p1
(cnumpy.core.multiarray
_reconstruct
p2
(cnumpy.matrixlib.defmatrix
matrix
p3
(I0
tp4
S'b'
p5
tp6
Rp7
(I1
(I1
I1
tp8
cnumpy
dtype
p9
(S'f8'
p10
I0
I1
tp11
Rp12
(I3
S'<'
p13
NNNI-1
I-1
I0
tp14
bI00
S';vj\xd6\xcc\xee\x90?'
p15
tp16
bg2
(g3
(I0
tp17
g5
tp18
Rp19
(I1
(I1
I1
tp20
g12
I00
S'/\xe1/\r-\x85\x8a?'
p21
tp22
bg2
(g3
(I0
tp23
g5
tp24
Rp25
(I1
(I1
I1
tp26
g12
I00
S'\xfc\xd2\xae*\xd6.\xc5\xbf'
p27
tp28
btp29
sS'actual_rot'
p30
(F0.4811183909289508
F-6.641580991504006
F-174.3693262010707
tp31
sS'target_pos'
p32
(lp33
cnumpy.core.multiarray
scalar
p34
(g12
S'\x19\xfb\xe5^TI\x92?'
p35
tp36
Rp37
ag34
(g12
S'\xf2\x1c!\xc2;n\x89?'
p38
tp39
Rp40
ag34
(g12
S'\xf3\xeb8\x9bm3\xc5\xbf'
p41
tp42
Rp43
asS'target_rot'
p44
g2
(cnumpy
ndarray
p45
(I0
tp46
g5
tp47
Rp48
(I1
(I3
tp49
g12
I00
S'C\xc7\xe7\xe7\x91\t\xb4?\xf5\x11>!\xe6d(\xc0a@\tTb4e\xc0'
p50
tp51
bsS'center_target_pixels'
p52
(I1325
I118
tp53
sS'center_actual_pixels'
p54
(I1338
I120
tp55
s.(dp0
S'actual_pos'
p1
(cnumpy.core.multiarray
_reconstruct
p2
(cnumpy.matrixlib.defmatrix
matrix
p3
(I0
tp4
S'b'
p5
tp6
Rp7
(I1
(I1
I1
tp8
cnumpy
dtype
p9
(S'f8'
p10
I0
I1
tp11
Rp12
(I3
S'<'
p13
NNNI-1
I-1
I0
tp14
bI00
S"\x06!'\xef\x0fT\xb2?"
p15
tp16
bg2
(g3
(I0
tp17
g5
tp18
Rp19
(I1
(I1
I1
tp20
g12
I00
S'\x02\xb9h\xddT\xac\x9b?'
p21
tp22
bg2
(g3
(I0
tp23
g5
tp24
Rp25
(I1
(I1
I1
tp26
g12
I00
S'\x15\x138\xcaP\xf2\xc5\xbf'
p27
tp28
btp29
sS'actual_rot'
p30
(F-0.3693683933855755
F-15.127225375286471
F-169.11987648775414
tp31
sS'target_pos'
p32
(lp33
cnumpy.core.multiarray
scalar
p34
(g12
S'\xdbS\x83\xb6\x98l\xb2?'
p35
tp36
Rp37
ag34
(g12
S'M\xa5\x01\xdb\x86B\x9b?'
p38
tp39
Rp40
ag34
(g12
S'7\xd7\xc3\x1c\xe2\xf9\xc5\xbf'
p41
tp42
Rp43
asS'target_rot'
p44
g2
(cnumpy
ndarray
p45
(I0
tp46
g5
tp47
Rp48
(I1
(I3
tp49
g12
I00
S'C\xc7\xe7\xe7\x91\t\xb4?\xf5\x11>!\xe6d(\xc0a@\tTb4e\xc0'
p50
tp51
bsS'center_target_pixels'
p52
(I701
I181
tp53
sS'center_actual_pixels'
p54
(I697
I179
tp55
s.(dp0
S'actual_pos'
p1
(cnumpy.core.multiarray
_reconstruct
p2
(cnumpy.matrixlib.defmatrix
matrix
p3
(I0
tp4
S'b'
p5
tp6
Rp7
(I1
(I1
I1
tp8
cnumpy
dtype
p9
(S'f8'
p10
I0
I1
tp11
Rp12
(I3
S'<'
p13
NNNI-1
I-1
I0
tp14
bI00
S'\xc8j\xd6\x1d\x95\x87\xac?'
p15
tp16
bg2
(g3
(I0
tp17
g5
tp18
Rp19
(I1
(I1
I1
tp20
g12
I00
S'\xc9e\x19`n\xd6\x99?'
p21
tp22
bg2
(g3
(I0
tp23
g5
tp24
Rp25
(I1
(I1
I1
tp26
g12
I00
S'\x9b\x9c\xde\x9d\x0c\xbb\xc5\xbf'
p27
tp28
btp29
sS'actual_rot'
p30
(F0.05688931357029729
F-12.269539821617297
F-170.96623819008346
tp31
sS'target_pos'
p32
(lp33
cnumpy.core.multiarray
scalar
p34
(g12
S'C\xe35S\x1a\xe2\xac?'
p35
tp36
Rp37
ag34
(g12
S'\xbb\x0b\xc6\x97\xf1\x82\x99?'
p38
tp39
Rp40
ag34
(g12
S'\xa7\xab>\x9f\xa6\xc0\xc5\xbf'
p41
tp42
Rp43
asS'target_rot'
p44
g2
(cnumpy
ndarray
p45
(I0
tp46
g5
tp47
Rp48
(I1
(I3
tp49
g12
I00
S'C\xc7\xe7\xe7\x91\t\xb4?\xf5\x11>!\xe6d(\xc0a@\tTb4e\xc0'
p50
tp51
bsS'center_target_pixels'
p52
(I881
I189
tp53
sS'center_actual_pixels'
p54
(I876
I188
tp55
s.(dp0
S'actual_pos'
p1
(cnumpy.core.multiarray
_reconstruct
p2
(cnumpy.matrixlib.defmatrix
matrix
p3
(I0
tp4
S'b'
p5
tp6
Rp7
(I1
(I1
I1
tp8
cnumpy
dtype
p9
(S'f8'
p10
I0
I1
tp11
Rp12
(I3
S'<'
p13
NNNI-1
I-1
I0
tp14
bI00
S'23\xeb{\xf5d\xa4?'
p15
tp16
bg2
(g3
(I0
tp17
g5
tp18
Rp19
(I1
(I1
I1
tp20
g12
I00
S'\xf1\x05\x15r\x8a\x1e\x98?'
p21
tp22
bg2
(g3
(I0
tp23
g5
tp24
Rp25
(I1
(I1
I1
tp26
g12
I00
S'\x82,\x89\x07\xc2\x80\xc5\xbf'
p27
tp28
btp29
sS'actual_rot'
p30
(F0.3193688932008114
F-10.31911076353166
F-172.55647297749996
tp31
sS'target_pos'
p32
(lp33
cnumpy.core.multiarray
scalar
p34
(g12
S'\x91\\\x08\x89\xf1\xe9\xa4?'
p35
tp36
Rp37
ag34
(g12
S'\xb7`\xf1i-\xaf\x97?'
p38
tp39
Rp40
ag34
(g12
S'\xf4\xb5R\xa3\x07\x87\xc5\xbf'
p41
tp42
Rp43
asS'target_rot'
p44
g2
(cnumpy
ndarray
p45
(I0
tp46
g5
tp47
Rp48
(I1
(I3
tp49
g12
I00
S'C\xc7\xe7\xe7\x91\t\xb4?\xf5\x11>!\xe6d(\xc0a@\tTb4e\xc0'
p50
tp51
bsS'center_target_pixels'
p52
(I1058
I196
tp53
sS'center_actual_pixels'
p54
(I1058
I196
tp55
s.(dp0
S'actual_pos'
p1
(cnumpy.core.multiarray
_reconstruct
p2
(cnumpy.matrixlib.defmatrix
matrix
p3
(I0
tp4
S'b'
p5
tp6
Rp7
(I1
(I1
I1
tp8
cnumpy
dtype
p9
(S'f8'
p10
I0
I1
tp11
Rp12
(I3
S'<'
p13
NNNI-1
I-1
I0
tp14
bI00
S'\xf6\x91\x07\x88\x07o\x98?'
p15
tp16
bg2
(g3
(I0
tp17
g5
tp18
Rp19
(I1
(I1
I1
tp20
g12
I00
S'&,\x95\xe75I\x96?'
p21
tp22
bg2
(g3
(I0
tp23
g5
tp24
Rp25
(I1
(I1
I1
tp26
g12
I00
S' \x96~\xceqE\xc5\xbf'
p27
tp28
btp29
sS'actual_rot'
p30
(F0.6316658769218167
F-7.7662147389339244
F-173.72993641718193
tp31
sS'target_pos'
p32
(lp33
cnumpy.core.multiarray
scalar
p34
(g12
S'\xa4*\xf6\xfe\xd4\xb1\x99?'
p35
tp36
Rp37
ag34
(g12
S'\x9dO\xc7\xa5,\xd7\x95?'
p38
tp39
Rp40
ag34
(g12
S"k\x11\x9e'OL\xc5\xbf"
p41
tp42
Rp43
asS'target_rot'
p44
g2
(cnumpy
ndarray
p45
(I0
tp46
g5
tp47
Rp48
(I1
(I3
tp49
g12
I00
S'C\xc7\xe7\xe7\x91\t\xb4?\xf5\x11>!\xe6d(\xc0a@\tTb4e\xc0'
p50
tp51
bsS'center_target_pixels'
p52
(I1234
I203
tp53
sS'center_actual_pixels'
p54
(I1243
I206
tp55
s.(dp0
S'actual_pos'
p1
(cnumpy.core.multiarray
_reconstruct
p2
(cnumpy.matrixlib.defmatrix
matrix
p3
(I0
tp4
S'b'
p5
tp6
Rp7
(I1
(I1
I1
tp8
cnumpy
dtype
p9
(S'f8'
p10
I0
I1
tp11
Rp12
(I3
S'<'
p13
NNNI-1
I-1
I0
tp14
bI00
S'\xca\xef\xe7\rz\xa4\x7f?'
p15
tp16
bg2
(g3
(I0
tp17
g5
tp18
Rp19
(I1
(I1
I1
tp20
g12
I00
S'ZwEc\xdeS\x94?'
p21
tp22
bg2
(g3
(I0
tp23
g5
tp24
Rp25
(I1
(I1
I1
tp26
g12
I00
S'\x1f\x8f}\x94w\t\xc5\xbf'
p27
tp28
btp29
sS'actual_rot'
p30
(F0.7156076666171068
F-6.593007635798857
F-174.3299181703269
tp31
sS'target_pos'
p32
(lp33
cnumpy.core.multiarray
scalar
p34
(g12
S'\xde\xeb\x8b\xd9\xd5{\x82?'
p35
tp36
Rp37
ag34
(g12
S't:\x1e\\\xb7\xdf\x93?'
p38
tp39
Rp40
ag34
(g12
S'*\x9c(\\3\x10\xc5\xbf'
p41
tp42
Rp43
asS'target_rot'
p44
g2
(cnumpy
ndarray
p45
(I0
tp46
g5
tp47
Rp48
(I1
(I3
tp49
g12
I00
S'C\xc7\xe7\xe7\x91\t\xb4?\xf5\x11>!\xe6d(\xc0a@\tTb4e\xc0'
p50
tp51
bsS'center_target_pixels'
p52
(I1410
I209
tp53
sS'center_actual_pixels'
p54
(I1425
I209
tp55
s.(dp0
S'actual_pos'
p1
(cnumpy.core.multiarray
_reconstruct
p2
(cnumpy.matrixlib.defmatrix
matrix
p3
(I0
tp4
S'b'
p5
tp6
Rp7
(I1
(I1
I1
tp8
cnumpy
dtype
p9
(S'f8'
p10
I0
I1
tp11
Rp12
(I3
S'<'
p13
NNNI-1
I-1
I0
tp14
bI00
S'C\xba\x80\xed\x07%\xb0?'
p15
tp16
bg2
(g3
(I0
tp17
g5
tp18
Rp19
(I1
(I1
I1
tp20
g12
I00
S'kU\xe3e\x14q\xa1?'
p21
tp22
bg2
(g3
(I0
tp23
g5
tp24
Rp25
(I1
(I1
I1
tp26
g12
I00
S'$\xc7\x00\x16\xb8\xcc\xc5\xbf'
p27
tp28
btp29
sS'actual_rot'
p30
(F-0.4843002288838382
F-15.027517629612426
F-168.70989336003532
tp31
sS'target_pos'
p32
(lp33
cnumpy.core.multiarray
scalar
p34
(g12
S'\xeb|\xbd\xd7\x18?\xb0?'
p35
tp36
Rp37
ag34
(g12
S'aZ\x90\xea\xda4\xa1?'
p38
tp39
Rp40
ag34
(g12
S'6\xa1\xae\xb4\x9f\xd7\xc5\xbf'
p41
tp42
Rp43
asS'target_rot'
p44
g2
(cnumpy
ndarray
p45
(I0
tp46
g5
tp47
Rp48
(I1
(I3
tp49
g12
I00
S'C\xc7\xe7\xe7\x91\t\xb4?\xf5\x11>!\xe6d(\xc0a@\tTb4e\xc0'
p50
tp51
bsS'center_target_pixels'
p52
(I788
I274
tp53
sS'center_actual_pixels'
p54
(I779
I271
tp55
s.(dp0
S'actual_pos'
p1
(cnumpy.core.multiarray
_reconstruct
p2
(cnumpy.matrixlib.defmatrix
matrix
p3
(I0
tp4
S'b'
p5
tp6
Rp7
(I1
(I1
I1
tp8
cnumpy
dtype
p9
(S'f8'
p10
I0
I1
tp11
Rp12
(I3
S'<'
p13
NNNI-1
I-1
I0
tp14
bI00
S'4T4W"&\xa8?'
p15
tp16
bg2
(g3
(I0
tp17
g5
tp18
Rp19
(I1
(I1
I1
tp20
g12
I00
S'h-w\xdaU\x85\xa0?'
p21
tp22
bg2
(g3
(I0
tp23
g5
tp24
Rp25
(I1
(I1
I1
tp26
g12
I00
S'E\xd3\xd8\x15x\x98\xc5\xbf'
p27
tp28
btp29
sS'actual_rot'
p30
(F0.12204833829484266
F-11.86392338923983
F-170.53330411972865
tp31
sS'target_pos'
p32
(lp33
cnumpy.core.multiarray
scalar
p34
(g12
S'0\x8f\xbd\xc3\xba\x80\xa8?'
p35
tp36
Rp37
ag34
(g12
S"\x1e\xd6'\xcb\x92R\xa0?"
p38
tp39
Rp40
ag34
(g12
S'\x9e\xd9@\x8aE\x9e\xc5\xbf'
p41
tp42
Rp43
asS'target_rot'
p44
g2
(cnumpy
ndarray
p45
(I0
tp46
g5
tp47
Rp48
(I1
(I3
tp49
g12
I00
S'C\xc7\xe7\xe7\x91\t\xb4?\xf5\x11>!\xe6d(\xc0a@\tTb4e\xc0'
p50
tp51
bsS'center_target_pixels'
p52
(I967
I281
tp53
sS'center_actual_pixels'
p54
(I965
I279
tp55
s.(dp0
S'actual_pos'
p1
(cnumpy.core.multiarray
_reconstruct
p2
(cnumpy.matrixlib.defmatrix
matrix
p3
(I0
tp4
S'b'
p5
tp6
Rp7
(I1
(I1
I1
tp8
cnumpy
dtype
p9
(S'f8'
p10
I0
I1
tp11
Rp12
(I3
S'<'
p13
NNNI-1
I-1
I0
tp14
bI00
S'\xf1\x80\x00\x088\xe5\x9f?'
p15
tp16
bg2
(g3
(I0
tp17
g5
tp18
Rp19
(I1
(I1
I1
tp20
g12
I00
S'\xf2\x9f`\x89qX\x9f?'
p21
tp22
bg2
(g3
(I0
tp23
g5
tp24
Rp25
(I1
(I1
I1
tp26
g12
I00
S'\xbeW\x8c\x8d\x8d]\xc5\xbf'
p27
tp28
btp29
sS'actual_rot'
p30
(F0.5434998996819483
F-9.362984498217843
F-172.05888719215122
tp31
sS'target_pos'
p32
(lp33
cnumpy.core.multiarray
scalar
p34
(g12
S'/|/q\xf5\x80\xa0?'
p35
tp36
Rp37
ag34
(g12
S'\x8b\x82\xb4\x85=\xe3\x9e?'
p38
tp39
Rp40
ag34
(g12
S'-sJ\xd6vd\xc5\xbf'
p41
tp42
Rp43
asS'target_rot'
p44
g2
(cnumpy
ndarray
p45
(I0
tp46
g5
tp47
Rp48
(I1
(I3
tp49
g12
I00
S'C\xc7\xe7\xe7\x91\t\xb4?\xf5\x11>!\xe6d(\xc0a@\tTb4e\xc0'
p50
tp51
bsS'center_target_pixels'
p52
(I1143
I288
tp53
sS'center_actual_pixels'
p54
(I1148
I287
tp55
s.(dp0
S'actual_pos'
p1
(cnumpy.core.multiarray
_reconstruct
p2
(cnumpy.matrixlib.defmatrix
matrix
p3
(I0
tp4
S'b'
p5
tp6
Rp7
(I1
(I1
I1
tp8
cnumpy
dtype
p9
(S'f8'
p10
I0
I1
tp11
Rp12
(I3
S'<'
p13
NNNI-1
I-1
I0
tp14
bI00
S'2:\xf0\xd6.\xc6\x8e?'
p15
tp16
bg2
(g3
(I0
tp17
g5
tp18
Rp19
(I1
(I1
I1
tp20
g12
I00
S'b\xc4\xbc\xfe\x81e\x9d?'
p21
tp22
bg2
(g3
(I0
tp23
g5
tp24
Rp25
(I1
(I1
I1
tp26
g12
I00
S'\x17\x80\xd4\x9d\x0e!\xc5\xbf'
p27
tp28
btp29
sS'actual_rot'
p30
(F0.9336027239951027
F-7.074895304865305
F-173.2882633545461
tp31
sS'target_pos'
p32
(lp33
cnumpy.core.multiarray
scalar
p34
(g12
S'\x93u;Fx\xb3\x90?'
p35
tp36
Rp37
ag34
(g12
S'4;\xd4\xba \x02\x9d?'
p38
tp39
Rp40
ag34
(g12
S'P\x9e\xa4ZK)\xc5\xbf'
p41
tp42
Rp43
asS'target_rot'
p44
g2
(cnumpy
ndarray
p45
(I0
tp46
g5
tp47
Rp48
(I1
(I3
tp49
g12
I00
S'C\xc7\xe7\xe7\x91\t\xb4?\xf5\x11>!\xe6d(\xc0a@\tTb4e\xc0'
p50
tp51
bsS'center_target_pixels'
p52
(I1319
I294
tp53
sS'center_actual_pixels'
p54
(I1328
I293
tp55
s.(dp0
S'actual_pos'
p1
(cnumpy.core.multiarray
_reconstruct
p2
(cnumpy.matrixlib.defmatrix
matrix
p3
(I0
tp4
S'b'
p5
tp6
Rp7
(I1
(I1
I1
tp8
cnumpy
dtype
p9
(S'f8'
p10
I0
I1
tp11
Rp12
(I3
S'<'
p13
NNNI-1
I-1
I0
tp14
bI00
S'\xa5LuZ|\x01\xb2?'
p15
tp16
bg2
(g3
(I0
tp17
g5
tp18
Rp19
(I1
(I1
I1
tp20
g12
I00
S'Q\xd0\xe0\x83\xa4\xe3\xa5?'
p21
tp22
bg2
(g3
(I0
tp23
g5
tp24
Rp25
(I1
(I1
I1
tp26
g12
I00
S'\x18\x18>\x8a\xae\xe1\xc5\xbf'
p27
tp28
btp29
sS'actual_rot'
p30
(F-0.9862216627044799
F-16.533121685120985
F-166.79496996591698
tp31
sS'target_pos'
p32
(lp33
cnumpy.core.multiarray
scalar
p34
(g12
S'\x87{\xdc\x0c\xdf\x08\xb2?'
p35
tp36
Rp37
ag34
(g12
S',F\x89u\xd6\x9d\xa5?'
p38
tp39
Rp40
ag34
(g12
S')\x94\x1b8\xe4\xed\xc5\xbf'
p41
tp42
Rp43
asS'target_rot'
p44
g2
(cnumpy
ndarray
p45
(I0
tp46
g5
tp47
Rp48
(I1
(I3
tp49
g12
I00
S'C\xc7\xe7\xe7\x91\t\xb4?\xf5\x11>!\xe6d(\xc0a@\tTb4e\xc0'
p50
tp51
bsS'center_target_pixels'
p52
(I695
I359
tp53
sS'center_actual_pixels'
p54
(I685
I361
tp55
s.(dp0
S'actual_pos'
p1
(cnumpy.core.multiarray
_reconstruct
p2
(cnumpy.matrixlib.defmatrix
matrix
p3
(I0
tp4
S'b'
p5
tp6
Rp7
(I1
(I1
I1
tp8
cnumpy
dtype
p9
(S'f8'
p10
I0
I1
tp11
Rp12
(I3
S'<'
p13
NNNI-1
I-1
I0
tp14
bI00
S'\xa2\xc8:\x98}\xd2\xab?'
p15
tp16
bg2
(g3
(I0
tp17
g5
tp18
Rp19
(I1
(I1
I1
tp20
g12
I00
S'\xed\x9c\x0c\xf6I\r\xa5?'
p21
tp22
bg2
(g3
(I0
tp23
g5
tp24
Rp25
(I1
(I1
I1
tp26
g12
I00
S'\xf6\xed\xe07\xad\xaa\xc5\xbf'
p27
tp28
btp29
sS'actual_rot'
p30
(F-0.29817813046125835
F-13.676389839179707
F-168.4535210548319
tp31
sS'target_pos'
p32
(lp33
cnumpy.core.multiarray
scalar
p34
(g12
S'\xe5W\x04x\xca\x1a\xac?'
p35
tp36
Rp37
ag34
(g12
S'\x92$\xfe\xbf\x0f\xc5\xa4?'
p38
tp39
Rp40
ag34
(g12
S'I#\xbf#!\xb5\xc5\xbf'
p41
tp42
Rp43
asS'target_rot'
p44
g2
(cnumpy
ndarray
p45
(I0
tp46
g5
tp47
Rp48
(I1
(I3
tp49
g12
I00
S'C\xc7\xe7\xe7\x91\t\xb4?\xf5\x11>!\xe6d(\xc0a@\tTb4e\xc0'
p50
tp51
bsS'center_target_pixels'
p52
(I875
I366
tp53
sS'center_actual_pixels'
p54
(I869
I364
tp55
s.(dp0
S'actual_pos'
p1
(cnumpy.core.multiarray
_reconstruct
p2
(cnumpy.matrixlib.defmatrix
matrix
p3
(I0
tp4
S'b'
p5
tp6
Rp7
(I1
(I1
I1
tp8
cnumpy
dtype
p9
(S'f8'
p10
I0
I1
tp11
Rp12
(I3
S'<'
p13
NNNI-1
I-1
I0
tp14
bI00
S'(1\x8d\xad\xba\xa2\xa3?'
p15
tp16
bg2
(g3
(I0
tp17
g5
tp18
Rp19
(I1
(I1
I1
tp20
g12
I00
S'\xf2\x1ej\x05@(\xa4?'
p21
tp22
bg2
(g3
(I0
tp23
g5
tp24
Rp25
(I1
(I1
I1
tp26
g12
I00
S'\xc0\xce\xb3\x1azq\xc5\xbf'
p27
tp28
btp29
sS'actual_rot'
p30
(F0.29191741273444244
F-11.101414627938835
F-170.0159871791761
tp31
sS'target_pos'
p32
(lp33
cnumpy.core.multiarray
scalar
p34
(g12
S'j\xe1\xa0?\xeb\x16\xa4?'
p35
tp36
Rp37
ag34
(g12
S'6N\xe2\xb9(\xe0\xa3?'
p38
tp39
Rp40
ag34
(g12
S'/\x8a\xf2\xb2\xa7{\xc5\xbf'
p41
tp42
Rp43
asS'target_rot'
p44
g2
(cnumpy
ndarray
p45
(I0
tp46
g5
tp47
Rp48
(I1
(I3
tp49
g12
I00
S'C\xc7\xe7\xe7\x91\t\xb4?\xf5\x11>!\xe6d(\xc0a@\tTb4e\xc0'
p50
tp51
bsS'center_target_pixels'
p52
(I1053
I372
tp53
sS'center_actual_pixels'
p54
(I1055
I374
tp55
s.(dp0
S'actual_pos'
p1
(cnumpy.core.multiarray
_reconstruct
p2
(cnumpy.matrixlib.defmatrix
matrix
p3
(I0
tp4
S'b'
p5
tp6
Rp7
(I1
(I1
I1
tp8
cnumpy
dtype
p9
(S'f8'
p10
I0
I1
tp11
Rp12
(I3
S'<'
p13
NNNI-1
I-1
I0
tp14
bI00
S'\xa3\xdbj \xbd\xe3\x96?'
p15
tp16
bg2
(g3
(I0
tp17
g5
tp18
Rp19
(I1
(I1
I1
tp20
g12
I00
S'?t\xa22\x83A\xa3?'
p21
tp22
bg2
(g3
(I0
tp23
g5
tp24
Rp25
(I1
(I1
I1
tp26
g12
I00
S'\xaa\xdc\xc8A:8\xc5\xbf'
p27
tp28
btp29
sS'actual_rot'
p30
(F0.8981059467510533
F-8.357039011862549
F-171.39465756608266
tp31
sS'target_pos'
p32
(lp33
cnumpy.core.multiarray
scalar
p34
(g12
S'\xc2\x95y\xb9\x80\n\x98?'
p35
tp36
Rp37
ag34
(g12
S'0\xf4\x17\xeb\xa6\xfa\xa2?'
p38
tp39
Rp40
ag34
(g12
S'\xab\x07}\rfA\xc5\xbf'
p41
tp42
Rp43
asS'target_rot'
p44
g2
(cnumpy
ndarray
p45
(I0
tp46
g5
tp47
Rp48
(I1
(I3
tp49
g12
I00
S'C\xc7\xe7\xe7\x91\t\xb4?\xf5\x11>!\xe6d(\xc0a@\tTb4e\xc0'
p50
tp51
bsS'center_target_pixels'
p52
(I1229
I378
tp53
sS'center_actual_pixels'
p54
(I1238
I384
tp55
s.(dp0
S'actual_pos'
p1
(cnumpy.core.multiarray
_reconstruct
p2
(cnumpy.matrixlib.defmatrix
matrix
p3
(I0
tp4
S'b'
p5
tp6
Rp7
(I1
(I1
I1
tp8
cnumpy
dtype
p9
(S'f8'
p10
I0
I1
tp11
Rp12
(I3
S'<'
p13
NNNI-1
I-1
I0
tp14
bI00
S'\xda\x07\xeb\xde\x85\x0cz?'
p15
tp16
bg2
(g3
(I0
tp17
g5
tp18
Rp19
(I1
(I1
I1
tp20
g12
I00
S'\x1e\x11\x0e\xad\x14a\xa2?'
p21
tp22
bg2
(g3
(I0
tp23
g5
tp24
Rp25
(I1
(I1
I1
tp26
g12
I00
S'\xc7\xa91\xb1\xfb\xff\xc4\xbf'
p27
tp28
btp29
sS'actual_rot'
p30
(F1.1664906976497103
F-6.991581713150082
F-172.73648117564042
tp31
sS'target_pos'
p32
(lp33
cnumpy.core.multiarray
scalar
p34
(g12
S"\x8bV'\xae\x82Y\x7f?"
p35
tp36
Rp37
ag34
(g12
S'c\x84\xe1\x1eE"\xa2?'
p38
tp39
Rp40
ag34
(g12
S'\xba\xf1\xd2\xf8\xa3\x06\xc5\xbf'
p41
tp42
Rp43
asS'target_rot'
p44
g2
(cnumpy
ndarray
p45
(I0
tp46
g5
tp47
Rp48
(I1
(I3
tp49
g12
I00
S'C\xc7\xe7\xe7\x91\t\xb4?\xf5\x11>!\xe6d(\xc0a@\tTb4e\xc0'
p50
tp51
bsS'center_target_pixels'
p52
(I1402
I385
tp53
sS'center_actual_pixels'
p54
(I1414
I390
tp55
s.(dp0
S'actual_pos'
p1
(cnumpy.core.multiarray
_reconstruct
p2
(cnumpy.matrixlib.defmatrix
matrix
p3
(I0
tp4
S'b'
p5
tp6
Rp7
(I1
(I1
I1
tp8
cnumpy
dtype
p9
(S'f8'
p10
I0
I1
tp11
Rp12
(I3
S'<'
p13
NNNI-1
I-1
I0
tp14
bI00
S'$\r\x17\xca\x83\x96\xaf?'
p15
tp16
bg2
(g3
(I0
tp17
g5
tp18
Rp19
(I1
(I1
I1
tp20
g12
I00
S'v\xdeR\xe9\x16g\xa9?'
p21
tp22
bg2
(g3
(I0
tp23
g5
tp24
Rp25
(I1
(I1
I1
tp26
g12
I00
S'\xc6?\x97\xdf\xdf\xbf\xc5\xbf'
p27
tp28
btp29
sS'actual_rot'
p30
(F-1.1070368729281743
F-16.2067958460606
F-166.5253962251298
tp31
sS'target_pos'
p32
(lp33
cnumpy.core.multiarray
scalar
p34
(g12
S'2\xc9L\x06t\xac\xaf?'
p35
tp36
Rp37
ag34
(g12
S',\x12\xcf\xd6!-\xa9?'
p38
tp39
Rp40
ag34
(g12
S'G\r\x9e\xafI\xcb\xc5\xbf'
p41
tp42
Rp43
asS'target_rot'
p44
g2
(cnumpy
ndarray
p45
(I0
tp46
g5
tp47
Rp48
(I1
(I3
tp49
g12
I00
S'C\xc7\xe7\xe7\x91\t\xb4?\xf5\x11>!\xe6d(\xc0a@\tTb4e\xc0'
p50
tp51
bsS'center_target_pixels'
p52
(I783
I451
tp53
sS'center_actual_pixels'
p54
(I772
I449
tp55
s.(dp0
S'actual_pos'
p1
(cnumpy.core.multiarray
_reconstruct
p2
(cnumpy.matrixlib.defmatrix
matrix
p3
(I0
tp4
S'b'
p5
tp6
Rp7
(I1
(I1
I1
tp8
cnumpy
dtype
p9
(S'f8'
p10
I0
I1
tp11
Rp12
(I3
S'<'
p13
NNNI-1
I-1
I0
tp14
bI00
S'\x95\x04\x9c"\xd4[\xa7?'
p15
tp16
bg2
(g3
(I0
tp17
g5
tp18
Rp19
(I1
(I1
I1
tp20
g12
I00
S'\x89\xc9\xf1\t+\x8f\xa8?'
p21
tp22
bg2
(g3
(I0
tp23
g5
tp24
Rp25
(I1
(I1
I1
tp26
g12
I00
S'\xf2\xeb\xcd0\x08\x88\xc5\xbf'
p27
tp28
btp29
sS'actual_rot'
p30
(F-0.17611816076977546
F-12.929703890627499
F-167.7433498410893
tp31
sS'target_pos'
p32
(lp33
cnumpy.core.multiarray
scalar
p34
(g12
S'\x02r\x94\xfe\xdf\xae\xa7?'
p35
tp36
Rp37
ag34
(g12
S'\xf6\xd0\x96J\xd5Q\xa8?'
p38
tp39
Rp40
ag34
(g12
S'\xc4Rh\xe6e\x92\xc5\xbf'
p41
tp42
Rp43
asS'target_rot'
p44
g2
(cnumpy
ndarray
p45
(I0
tp46
g5
tp47
Rp48
(I1
(I3
tp49
g12
I00
S'C\xc7\xe7\xe7\x91\t\xb4?\xf5\x11>!\xe6d(\xc0a@\tTb4e\xc0'
p50
tp51
bsS'center_target_pixels'
p52
(I962
I457
tp53
sS'center_actual_pixels'
p54
(I962
I461
tp55
s.(dp0
S'actual_pos'
p1
(cnumpy.core.multiarray
_reconstruct
p2
(cnumpy.matrixlib.defmatrix
matrix
p3
(I0
tp4
S'b'
p5
tp6
Rp7
(I1
(I1
I1
tp8
cnumpy
dtype
p9
(S'f8'
p10
I0
I1
tp11
Rp12
(I3
S'<'
p13
NNNI-1
I-1
I0
tp14
bI00
S'\xb4_-\xba*\x85\x9e?'
p15
tp16
bg2
(g3
(I0
tp17
g5
tp18
Rp19
(I1
(I1
I1
tp20
g12
I00
S'a\xae\x1f\x07)\xa6\xa7?'
p21
tp22
bg2
(g3
(I0
tp23
g5
tp24
Rp25
(I1
(I1
I1
tp26
g12
I00
S'5\t@\xe6\xabP\xc5\xbf'
p27
tp28
btp29
sS'actual_rot'
p30
(F0.539511055243842
F-10.346000387154488
F-169.58124732328855
tp31
sS'target_pos'
p32
(lp33
cnumpy.core.multiarray
scalar
p34
(g12
S'f6\x1e\\p]\x9f?'
p35
tp36
Rp37
ag34
(g12
S'\xa6\xc7\xc2\x0b\x84w\xa7?'
p38
tp39
Rp40
ag34
(g12
S'\xa2XW\xd6\x0cY\xc5\xbf'
p41
tp42
Rp43
asS'target_rot'
p44
g2
(cnumpy
ndarray
p45
(I0
tp46
g5
tp47
Rp48
(I1
(I3
tp49
g12
I00
S'C\xc7\xe7\xe7\x91\t\xb4?\xf5\x11>!\xe6d(\xc0a@\tTb4e\xc0'
p50
tp51
bsS'center_target_pixels'
p52
(I1138
I463
tp53
sS'center_actual_pixels'
p54
(I1139
I467
tp55
s.(dp0
S'actual_pos'
p1
(cnumpy.core.multiarray
_reconstruct
p2
(cnumpy.matrixlib.defmatrix
matrix
p3
(I0
tp4
S'b'
p5
tp6
Rp7
(I1
(I1
I1
tp8
cnumpy
dtype
p9
(S'f8'
p10
I0
I1
tp11
Rp12
(I3
S'<'
p13
NNNI-1
I-1
I0
tp14
bI00
S'\x1b\x01\xf0\x0b\x10\xc5\x8b?'
p15
tp16
bg2
(g3
(I0
tp17
g5
tp18
Rp19
(I1
(I1
I1
tp20
g12
I00
S'\xc1\xf4\x1f\xb5D\xc1\xa6?'
p21
tp22
bg2
(g3
(I0
tp23
g5
tp24
Rp25
(I1
(I1
I1
tp26
g12
I00
S'7\xb2\xee@\x8c\x16\xc5\xbf'
p27
tp28
btp29
sS'actual_rot'
p30
(F1.0934711742639924
F-8.17379122779685
F-170.73957665205572
tp31
sS'target_pos'
p32
(lp33
cnumpy.core.multiarray
scalar
p34
(g12
S'2U\x97\x84*\x1b\x8e?'
p35
tp36
Rp37
ag34
(g12
S'\x0e\x93\xddH\x8c\x8d\xa6?'
p38
tp39
Rp40
ag34
(g12
S'\xea\x052\xc4X\x1e\xc5\xbf'
p41
tp42
Rp43
asS'target_rot'
p44
g2
(cnumpy
ndarray
p45
(I0
tp46
g5
tp47
Rp48
(I1
(I3
tp49
g12
I00
S'C\xc7\xe7\xe7\x91\t\xb4?\xf5\x11>!\xe6d(\xc0a@\tTb4e\xc0'
p50
tp51
bsS'center_target_pixels'
p52
(I1314
I468
tp53
sS'center_actual_pixels'
p54
(I1326
I469
tp55
s.(dp0
S'actual_pos'
p1
(cnumpy.core.multiarray
_reconstruct
p2
(cnumpy.matrixlib.defmatrix
matrix
p3
(I0
tp4
S'b'
p5
tp6
Rp7
(I1
(I1
I1
tp8
cnumpy
dtype
p9
(S'f8'
p10
I0
I1
tp11
Rp12
(I3
S'<'
p13
NNNI-1
I-1
I0
tp14
bI00
S'\xcfe\xad\x12,\xa0\xb1?'
p15
tp16
bg2
(g3
(I0
tp17
g5
tp18
Rp19
(I1
(I1
I1
tp20
g12
I00
S'\x9b\x83C\xcc\xfe\xb7\xad?'
p21
tp22
bg2
(g3
(I0
tp23
g5
tp24
Rp25
(I1
(I1
I1
tp26
g12
I00
S'qb;vp\xd6\xc5\xbf'
p27
tp28
btp29
sS'actual_rot'
p30
(F-1.5723224586745381
F-16.963974738666703
F-164.94304007649194
tp31
sS'target_pos'
p32
(lp33
cnumpy.core.multiarray
scalar
p34
(g12
S'\x01\x91\nh<\xa5\xb1?'
p35
tp36
Rp37
ag34
(g12
S'\xf23j>)\x99\xad?'
p38
tp39
Rp40
ag34
(g12
S'\x1di\x0f\xa8I\xe1\xc5\xbf'
p41
tp42
Rp43
asS'target_rot'
p44
g2
(cnumpy
ndarray
p45
(I0
tp46
g5
tp47
Rp48
(I1
(I3
tp49
g12
I00
S'C\xc7\xe7\xe7\x91\t\xb4?\xf5\x11>!\xe6d(\xc0a@\tTb4e\xc0'
p50
tp51
bsS'center_target_pixels'
p52
(I689
I537
tp53
sS'center_actual_pixels'
p54
(I677
I529
tp55
s.(dp0
S'actual_pos'
p1
(cnumpy.core.multiarray
_reconstruct
p2
(cnumpy.matrixlib.defmatrix
matrix
p3
(I0
tp4
S'b'
p5
tp6
Rp7
(I1
(I1
I1
tp8
cnumpy
dtype
p9
(S'f8'
p10
I0
I1
tp11
Rp12
(I3
S'<'
p13
NNNI-1
I-1
I0
tp14
bI00
S'>j.M-\x15\xab?'
p15
tp16
bg2
(g3
(I0
tp17
g5
tp18
Rp19
(I1
(I1
I1
tp20
g12
I00
S'q\xbe\xfc0\xcb\xe6\xac?'
p21
tp22
bg2
(g3
(I0
tp23
g5
tp24
Rp25
(I1
(I1
I1
tp26
g12
I00
S'\xeb\xb9\xaa\x96^\x9f\xc5\xbf'
p27
tp28
btp29
sS'actual_rot'
p30
(F-0.7403231218583017
F-14.515472190685763
F-165.9496509614438
tp31
sS'target_pos'
p32
(lp33
cnumpy.core.multiarray
scalar
p34
(g12
S'}1rfsH\xab?'
p35
tp36
Rp37
ag34
(g12
S'\xe4V\x1c\xda)\xc6\xac?'
p38
tp39
Rp40
ag34
(g12
S'\x867\xc9@\xae\xa8\xc5\xbf'
p41
tp42
Rp43
asS'target_rot'
p44
g2
(cnumpy
ndarray
p45
(I0
tp46
g5
tp47
Rp48
(I1
(I3
tp49
g12
I00
S'C\xc7\xe7\xe7\x91\t\xb4?\xf5\x11>!\xe6d(\xc0a@\tTb4e\xc0'
p50
tp51
bsS'center_target_pixels'
p52
(I870
I543
tp53
sS'center_actual_pixels'
p54
(I869
I543
tp55
s.(dp0
S'actual_pos'
p1
(cnumpy.core.multiarray
_reconstruct
p2
(cnumpy.matrixlib.defmatrix
matrix
p3
(I0
tp4
S'b'
p5
tp6
Rp7
(I1
(I1
I1
tp8
cnumpy
dtype
p9
(S'f8'
p10
I0
I1
tp11
Rp12
(I3
S'<'
p13
NNNI-1
I-1
I0
tp14
bI00
S'G\xedi\xdez\xf2\xa2?'
p15
tp16
bg2
(g3
(I0
tp17
g5
tp18
Rp19
(I1
(I1
I1
tp20
g12
I00
S'x$8"`\x08\xac?'
p21
tp22
bg2
(g3
(I0
tp23
g5
tp24
Rp25
(I1
(I1
I1
tp26
g12
I00
S'#\x13\xfe\x7f\x11g\xc5\xbf'
p27
tp28
btp29
sS'actual_rot'
p30
(F0.09109709824653846
F-11.993144489499453
F-167.16555456700002
tp31
sS'target_pos'
p32
(lp33
cnumpy.core.multiarray
scalar
p34
(g12
S'Om\x1a1\xfeO\xa3?'
p35
tp36
Rp37
ag34
(g12
S'\x88Wf\xe9\xec\xe9\xab?'
p38
tp39
Rp40
ag34
(g12
S'\x1c3\xb4$\xfeo\xc5\xbf'
p41
tp42
Rp43
asS'target_rot'
p44
g2
(cnumpy
ndarray
p45
(I0
tp46
g5
tp47
Rp48
(I1
(I3
tp49
g12
I00
S'C\xc7\xe7\xe7\x91\t\xb4?\xf5\x11>!\xe6d(\xc0a@\tTb4e\xc0'
p50
tp51
bsS'center_target_pixels'
p52
(I1047
I548
tp53
sS'center_actual_pixels'
p54
(I1051
I552
tp55
s.(dp0
S'actual_pos'
p1
(cnumpy.core.multiarray
_reconstruct
p2
(cnumpy.matrixlib.defmatrix
matrix
p3
(I0
tp4
S'b'
p5
tp6
Rp7
(I1
(I1
I1
tp8
cnumpy
dtype
p9
(S'f8'
p10
I0
I1
tp11
Rp12
(I3
S'<'
p13
NNNI-1
I-1
I0
tp14
bI00
S'O\x92\xa7\x0b5\xa6\x95?'
p15
tp16
bg2
(g3
(I0
tp17
g5
tp18
Rp19
(I1
(I1
I1
tp20
g12
I00
S'\xdfL\x90\xfa\xdc%\xab?'
p21
tp22
bg2
(g3
(I0
tp23
g5
tp24
Rp25
(I1
(I1
I1
tp26
g12
I00
S'*\xc3\x87l\\0\xc5\xbf'
p27
tp28
btp29
sS'actual_rot'
p30
(F0.7000539238285576
F-10.082636182791259
F-169.31136520073792
tp31
sS'target_pos'
p32
(lp33
cnumpy.core.multiarray
scalar
p34
(g12
S'6Zf5%|\x96?'
p35
tp36
Rp37
ag34
(g12
S'41)=G\x0b\xab?'
p38
tp39
Rp40
ag34
(g12
S'm\x0b\xa3R56\xc5\xbf'
p41
tp42
Rp43
asS'target_rot'
p44
g2
(cnumpy
ndarray
p45
(I0
tp46
g5
tp47
Rp48
(I1
(I3
tp49
g12
I00
S'C\xc7\xe7\xe7\x91\t\xb4?\xf5\x11>!\xe6d(\xc0a@\tTb4e\xc0'
p50
tp51
bsS'center_target_pixels'
p52
(I1223
I553
tp53
sS'center_actual_pixels'
p54
(I1229
I551
tp55
s.(dp0
S'actual_pos'
p1
(cnumpy.core.multiarray
_reconstruct
p2
(cnumpy.matrixlib.defmatrix
matrix
p3
(I0
tp4
S'b'
p5
tp6
Rp7
(I1
(I1
I1
tp8
cnumpy
dtype
p9
(S'f8'
p10
I0
I1
tp11
Rp12
(I3
S'<'
p13
NNNI-1
I-1
I0
tp14
bI00
S'\x02\xa1\xbfG\xa0\xb7s?'
p15
tp16
bg2
(g3
(I0
tp17
g5
tp18
Rp19
(I1
(I1
I1
tp20
g12
I00
S'f4;\x9e\x1bC\xaa?'
p21
tp22
bg2
(g3
(I0
tp23
g5
tp24
Rp25
(I1
(I1
I1
tp26
g12
I00
S'\x96|\xc5\xe4\x7f\xf4\xc4\xbf'
p27
tp28
btp29
sS'actual_rot'
p30
(F1.2859419853946334
F-8.208458975904914
F-170.5752861470253
tp31
sS'target_pos'
p32
(lp33
cnumpy.core.multiarray
scalar
p34
(g12
S'\x0b\xa0\x88\xae\x04\x08x?'
p35
tp36
Rp37
ag34
(g12
S'\x17n\xa2\x01\xa5(\xaa?'
p38
tp39
Rp40
ag34
(g12
S'\xa1\xe3f\x84\xf9\xfa\xc4\xbf'
p41
tp42
Rp43
asS'target_rot'
p44
g2
(cnumpy
ndarray
p45
(I0
tp46
g5
tp47
Rp48
(I1
(I3
tp49
g12
I00
S'C\xc7\xe7\xe7\x91\t\xb4?\xf5\x11>!\xe6d(\xc0a@\tTb4e\xc0'
p50
tp51
bsS'center_target_pixels'
p52
(I1399
I558
tp53
sS'center_actual_pixels'
p54
(I1413
I559
tp55
s.(dp0
S'actual_pos'
p1
(cnumpy.core.multiarray
_reconstruct
p2
(cnumpy.matrixlib.defmatrix
matrix
p3
(I0
tp4
S'b'
p5
tp6
Rp7
(I1
(I1
I1
tp8
cnumpy
dtype
p9
(S'f8'
p10
I0
I1
tp11
Rp12
(I3
S'<'
p13
NNNI-1
I-1
I0
tp14
bI00
S'\xb5\xc3kr\xd8\xdc\xae?'
p15
tp16
bg2
(g3
(I0
tp17
g5
tp18
Rp19
(I1
(I1
I1
tp20
g12
I00
S'\xf9ii\xddF\x9f\xb0?'
p21
tp22
bg2
(g3
(I0
tp23
g5
tp24
Rp25
(I1
(I1
I1
tp26
g12
I00
S'C\xa8:\xa9\x16\xb1\xc5\xbf'
p27
tp28
btp29
sS'actual_rot'
p30
(F-1.6681722952389644
F-16.624800139730088
F-164.25925658575537
tp31
sS'target_pos'
p32
(lp33
cnumpy.core.multiarray
scalar
p34
(g12
S'@2\xc8k\xc5\xe4\xae?'
p35
tp36
Rp37
ag34
(g12
S'\xa8\x95\xfaN\x99\x98\xb0?'
p38
tp39
Rp40
ag34
(g12
S'\xc1\xado$\x93\xbe\xc5\xbf'
p41
tp42
Rp43
asS'target_rot'
p44
g2
(cnumpy
ndarray
p45
(I0
tp46
g5
tp47
Rp48
(I1
(I3
tp49
g12
I00
S'C\xc7\xe7\xe7\x91\t\xb4?\xf5\x11>!\xe6d(\xc0a@\tTb4e\xc0'
p50
tp51
bsS'center_target_pixels'
p52
(I777
I629
tp53
sS'center_actual_pixels'
p54
(I765
I620
tp55
s.(dp0
S'actual_pos'
p1
(cnumpy.core.multiarray
_reconstruct
p2
(cnumpy.matrixlib.defmatrix
matrix
p3
(I0
tp4
S'b'
p5
tp6
Rp7
(I1
(I1
I1
tp8
cnumpy
dtype
p9
(S'f8'
p10
I0
I1
tp11
Rp12
(I3
S'<'
p13
NNNI-1
I-1
I0
tp14
bI00
S'\x02`\xfa\xc3\x8a\xa5\xa6?'
p15
tp16
bg2
(g3
(I0
tp17
g5
tp18
Rp19
(I1
(I1
I1
tp20
g12
I00
S'\xafjx\xba\x129\xb0?'
p21
tp22
bg2
(g3
(I0
tp23
g5
tp24
Rp25
(I1
(I1
I1
tp26
g12
I00
S'\x8f\x9f*<\xc8z\xc5\xbf'
p27
tp28
btp29
sS'actual_rot'
p30
(F-0.504974381037149
F-13.572465214943868
F-165.38412476667264
tp31
sS'target_pos'
p32
(lp33
cnumpy.core.multiarray
scalar
p34
(g12
S'\xe3\xc0X\x1br\xe7\xa6?'
p35
tp36
Rp37
ag34
(g12
S'NpR\xfe\xaa.\xb0?'
p38
tp39
Rp40
ag34
(g12
S"IO\x1c\xf2'\x86\xc5\xbf"
p41
tp42
Rp43
asS'target_rot'
p44
g2
(cnumpy
ndarray
p45
(I0
tp46
g5
tp47
Rp48
(I1
(I3
tp49
g12
I00
S'C\xc7\xe7\xe7\x91\t\xb4?\xf5\x11>!\xe6d(\xc0a@\tTb4e\xc0'
p50
tp51
bsS'center_target_pixels'
p52
(I956
I634
tp53
sS'center_actual_pixels'
p54
(I956
I632
tp55
s.(dp0
S'actual_pos'
p1
(cnumpy.core.multiarray
_reconstruct
p2
(cnumpy.matrixlib.defmatrix
matrix
p3
(I0
tp4
S'b'
p5
tp6
Rp7
(I1
(I1
I1
tp8
cnumpy
dtype
p9
(S'f8'
p10
I0
I1
tp11
Rp12
(I3
S'<'
p13
NNNI-1
I-1
I0
tp14
bI00
S'\r\xa7\xc9}\xf0 \x9d?'
p15
tp16
bg2
(g3
(I0
tp17
g5
tp18
Rp19
(I1
(I1
I1
tp20
g12
I00
S'`\xfe\xcc\xac\x9c\x9e\xaf?'
p21
tp22
bg2
(g3
(I0
tp23
g5
tp24
Rp25
(I1
(I1
I1
tp26
g12
I00
S'\xf4\x0e\x7f\xd0xE\xc5\xbf'
p27
tp28
btp29
sS'actual_rot'
p30
(F0.11072556016565052
F-11.92200443239928
F-166.93453206786464
tp31
sS'target_pos'
p32
(lp33
cnumpy.core.multiarray
scalar
p34
(g12
S'\xe0\x7f\xb1\x94%\xb7\x9d?'
p35
tp36
Rp37
ag34
(g12
S'\xbeq\xc6\xde\x91\x88\xaf?'
p38
tp39
Rp40
ag34
(g12
S'"\xcb\x9f\xb1\xf3L\xc5\xbf'
p41
tp42
Rp43
asS'target_rot'
p44
g2
(cnumpy
ndarray
p45
(I0
tp46
g5
tp47
Rp48
(I1
(I3
tp49
g12
I00
S'C\xc7\xe7\xe7\x91\t\xb4?\xf5\x11>!\xe6d(\xc0a@\tTb4e\xc0'
p50
tp51
bsS'center_target_pixels'
p52
(I1133
I639
tp53
sS'center_actual_pixels'
p54
(I1135
I641
tp55
s.(dp0
S'actual_pos'
p1
(cnumpy.core.multiarray
_reconstruct
p2
(cnumpy.matrixlib.defmatrix
matrix
p3
(I0
tp4
S'b'
p5
tp6
Rp7
(I1
(I1
I1
tp8
cnumpy
dtype
p9
(S'f8'
p10
I0
I1
tp11
Rp12
(I3
S'<'
p13
NNNI-1
I-1
I0
tp14
bI00
S'\xf6\xa2\xf1\x01\xabe\x89?'
p15
tp16
bg2
(g3
(I0
tp17
g5
tp18
Rp19
(I1
(I1
I1
tp20
g12
I00
S'\xe1\xaf\x8d\x99;\xbd\xae?'
p21
tp22
bg2
(g3
(I0
tp23
g5
tp24
Rp25
(I1
(I1
I1
tp26
g12
I00
S'u\xf5m\x0c\x1a\r\xc5\xbf'
p27
tp28
btp29
sS'actual_rot'
p30
(F0.7223484631033698
F-10.27696673800107
F-168.76412999078167
tp31
sS'target_pos'
p32
(lp33
cnumpy.core.multiarray
scalar
p34
(g12
S'\xe2mR1\x10\xfc\x8a?'
p35
tp36
Rp37
ag34
(g12
S'R\xbf\x83b5\xa7\xae?'
p38
tp39
Rp40
ag34
(g12
S'\x1b?W\xbe\x0c\x13\xc5\xbf'
p41
tp42
Rp43
asS'target_rot'
p44
g2
(cnumpy
ndarray
p45
(I0
tp46
g5
tp47
Rp48
(I1
(I3
tp49
g12
I00
S'C\xc7\xe7\xe7\x91\t\xb4?\xf5\x11>!\xe6d(\xc0a@\tTb4e\xc0'
p50
tp51
bsS'center_target_pixels'
p52
(I1308
I643
tp53
sS'center_actual_pixels'
p54
(I1315
I647
tp55
s.(dp0
S'actual_pos'
p1
(cnumpy.core.multiarray
_reconstruct
p2
(cnumpy.matrixlib.defmatrix
matrix
p3
(I0
tp4
S'b'
p5
tp6
Rp7
(I1
(I1
I1
tp8
cnumpy
dtype
p9
(S'f8'
p10
I0
I1
tp11
Rp12
(I3
S'<'
p13
NNNI-1
I-1
I0
tp14
bI00
S'\x1e8\xe5h\xc3J\xb1?'
p15
tp16
bg2
(g3
(I0
tp17
g5
tp18
Rp19
(I1
(I1
I1
tp20
g12
I00
S',\xc3\xfd=\x18\xdf\xb2?'
p21
tp22
bg2
(g3
(I0
tp23
g5
tp24
Rp25
(I1
(I1
I1
tp26
g12
I00
S'o:\x902H\xc7\xc5\xbf'
p27
tp28
btp29
sS'actual_rot'
p30
(F-2.065734523376417
F-17.034359436761754
F-163.31178506742995
tp31
sS'target_pos'
p32
(lp33
cnumpy.core.multiarray
scalar
p34
(g12
S'M\x8f\x9f\xc2fK\xb1?'
p35
tp36
Rp37
ag34
(g12
S'\\\x0cL2(\xd6\xb2?'
p38
tp39
Rp40
ag34
(g12
S'\xde\xa0\xec.\x83\xd4\xc5\xbf'
p41
tp42
Rp43
asS'target_rot'
p44
g2
(cnumpy
ndarray
p45
(I0
tp46
g5
tp47
Rp48
(I1
(I3
tp49
g12
I00
S'C\xc7\xe7\xe7\x91\t\xb4?\xf5\x11>!\xe6d(\xc0a@\tTb4e\xc0'
p50
tp51
bsS'center_target_pixels'
p52
(I681
I717
tp53
sS'center_actual_pixels'
p54
(I669
I704
tp55
s.(dp0
S'actual_pos'
p1
(cnumpy.core.multiarray
_reconstruct
p2
(cnumpy.matrixlib.defmatrix
matrix
p3
(I0
tp4
S'b'
p5
tp6
Rp7
(I1
(I1
I1
tp8
cnumpy
dtype
p9
(S'f8'
p10
I0
I1
tp11
Rp12
(I3
S'<'
p13
NNNI-1
I-1
I0
tp14
bI00
S'*y\xc7\x1b\xaad\xaa?'
p15
tp16
bg2
(g3
(I0
tp17
g5
tp18
Rp19
(I1
(I1
I1
tp20
g12
I00
S'O\x0b0\x7f&r\xb2?'
p21
tp22
bg2
(g3
(I0
tp23
g5
tp24
Rp25
(I1
(I1
I1
tp26
g12
I00
S'\x99<K[\xcc\x8e\xc5\xbf'
p27
tp28
btp29
sS'actual_rot'
p30
(F-1.2127339565362603
F-15.037237659569698
F-163.89997415735496
tp31
sS'target_pos'
p32
(lp33
cnumpy.core.multiarray
scalar
p34
(g12
S'wm7\xd8\xc6\x8b\xaa?'
p35
tp36
Rp37
ag34
(g12
S'\xb2n)\x13/j\xb2?'
p38
tp39
Rp40
ag34
(g12
S'\xc3%\xb9\xc7*\x9c\xc5\xbf'
p41
tp42
Rp43
asS'target_rot'
p44
g2
(cnumpy
ndarray
p45
(I0
tp46
g5
tp47
Rp48
(I1
(I3
tp49
g12
I00
S'C\xc7\xe7\xe7\x91\t\xb4?\xf5\x11>!\xe6d(\xc0a@\tTb4e\xc0'
p50
tp51
bsS'center_target_pixels'
p52
(I863
I721
tp53
sS'center_actual_pixels'
p54
(I858
I717
tp55
s.(dp0
S'actual_pos'
p1
(cnumpy.core.multiarray
_reconstruct
p2
(cnumpy.matrixlib.defmatrix
matrix
p3
(I0
tp4
S'b'
p5
tp6
Rp7
(I1
(I1
I1
tp8
cnumpy
dtype
p9
(S'f8'
p10
I0
I1
tp11
Rp12
(I3
S'<'
p13
NNNI-1
I-1
I0
tp14
bI00
S'\xb5\\,\xd1\x18.\xa2?'
p15
tp16
bg2
(g3
(I0
tp17
g5
tp18
Rp19
(I1
(I1
I1
tp20
g12
I00
S'`\xe9\x89C\xa1\t\xb2?'
p21
tp22
bg2
(g3
(I0
tp23
g5
tp24
Rp25
(I1
(I1
I1
tp26
g12
I00
S'\xb9\xf0f^\x8eY\xc5\xbf'
p27
tp28
btp29
sS'actual_rot'
p30
(F-0.10586602851445813
F-12.43439000726054
F-164.7994474351982
tp31
sS'target_pos'
p32
(lp33
cnumpy.core.multiarray
scalar
p34
(g12
S"u\r\xa6'\x89|\xa2?"
p35
tp36
Rp37
ag34
(g12
S'\x97:\xdc\x04Q\xfe\xb1?'
p38
tp39
Rp40
ag34
(g12
S'\xcfot\x86Qc\xc5\xbf'
p41
tp42
Rp43
asS'target_rot'
p44
g2
(cnumpy
ndarray
p45
(I0
tp46
g5
tp47
Rp48
(I1
(I3
tp49
g12
I00
S'C\xc7\xe7\xe7\x91\t\xb4?\xf5\x11>!\xe6d(\xc0a@\tTb4e\xc0'
p50
tp51
bsS'center_target_pixels'
p52
(I1042
I725
tp53
sS'center_actual_pixels'
p54
(I1044
I731
tp55
s.(dp0
S'actual_pos'
p1
(cnumpy.core.multiarray
_reconstruct
p2
(cnumpy.matrixlib.defmatrix
matrix
p3
(I0
tp4
S'b'
p5
tp6
Rp7
(I1
(I1
I1
tp8
cnumpy
dtype
p9
(S'f8'
p10
I0
I1
tp11
Rp12
(I3
S'<'
p13
NNNI-1
I-1
I0
tp14
bI00
S'\xcf\xcf\x82\xfa\xc63\x94?'
p15
tp16
bg2
(g3
(I0
tp17
g5
tp18
Rp19
(I1
(I1
I1
tp20
g12
I00
S'V\xf4CK\x00\xa2\xb1?'
p21
tp22
bg2
(g3
(I0
tp23
g5
tp24
Rp25
(I1
(I1
I1
tp26
g12
I00
S'\x8eH$\xf7\xb6 \xc5\xbf'
p27
tp28
btp29
sS'actual_rot'
p30
(F0.1273987189683134
F-11.857434929643103
F-166.64519383818248
tp31
sS'target_pos'
p32
(lp33
cnumpy.core.multiarray
scalar
p34
(g12
S'\x0c\xee\xca\xe3\xee\xb9\x94?'
p35
tp36
Rp37
ag34
(g12
S'\xbf\xaa\xc6\x9d\xbf\x97\xb1?'
p38
tp39
Rp40
ag34
(g12
S'\x8f\xabe-\x97)\xc5\xbf'
p41
tp42
Rp43
asS'target_rot'
p44
g2
(cnumpy
ndarray
p45
(I0
tp46
g5
tp47
Rp48
(I1
(I3
tp49
g12
I00
S'C\xc7\xe7\xe7\x91\t\xb4?\xf5\x11>!\xe6d(\xc0a@\tTb4e\xc0'
p50
tp51
bsS'center_target_pixels'
p52
(I1219
I730
tp53
sS'center_actual_pixels'
p54
(I1224
I732
tp55
s.(dp0
S'actual_pos'
p1
(cnumpy.core.multiarray
_reconstruct
p2
(cnumpy.matrixlib.defmatrix
matrix
p3
(I0
tp4
S'b'
p5
tp6
Rp7
(I1
(I1
I1
tp8
cnumpy
dtype
p9
(S'f8'
p10
I0
I1
tp11
Rp12
(I3
S'<'
p13
NNNI-1
I-1
I0
tp14
bI00
S'/!\x86km\xd2l?'
p15
tp16
bg2
(g3
(I0
tp17
g5
tp18
Rp19
(I1
(I1
I1
tp20
g12
I00
S'`\xf9\xd3\n{5\xb1?'
p21
tp22
bg2
(g3
(I0
tp23
g5
tp24
Rp25
(I1
(I1
I1
tp26
g12
I00
S'\xc1sn\x8c\xfa\xe2\xc4\xbf'
p27
tp28
btp29
sS'actual_rot'
p30
(F0.7573674381036969
F-10.353890659227806
F-168.58278977623257
tp31
sS'target_pos'
p32
(lp33
cnumpy.core.multiarray
scalar
p34
(g12
S'+\n\xce\xb4\x8eXq?'
p35
tp36
Rp37
ag34
(g12
S'\x95+\x13\xb4\xdb*\xb1?'
p38
tp39
Rp40
ag34
(g12
S"\xb6pJ\xda'\xef\xc4\xbf"
p41
tp42
Rp43
asS'target_rot'
p44
g2
(cnumpy
ndarray
p45
(I0
tp46
g5
tp47
Rp48
(I1
(I3
tp49
g12
I00
S'C\xc7\xe7\xe7\x91\t\xb4?\xf5\x11>!\xe6d(\xc0a@\tTb4e\xc0'
p50
tp51
bsS'center_target_pixels'
p52
(I1394
I734
tp53
sS'center_actual_pixels'
p54
(I1399
I736
tp55
s.