(dp0
S'actual_pos'
p1
(lp2
F0.07271888657669458
aF0.022640826147770816
aF-0.17005625392880525
asS'actual_rot'
p3
(lp4
F-91.92089775841801
aF-4.544174251488623
aF-164.50379771314948
asS'target_pos'
p5
cnumpy.core.multiarray
_reconstruct
p6
(cnumpy
ndarray
p7
(I0
tp8
S'b'
p9
tp10
Rp11
(I1
(I3
tp12
cnumpy
dtype
p13
(S'f8'
p14
I0
I1
tp15
Rp16
(I3
S'<'
p17
NNNI-1
I-1
I0
tp18
bI00
S'\xee\xd2p\xf5\xed\xd1\xb2?D\xbb\xccP n\x97?\xd8%\x10\xd4\xf5\xd1\xc5\xbf'
p19
tp20
bsS'target_rot'
p21
g6
(g7
(I0
tp22
g9
tp23
Rp24
(I1
(I3
tp25
g16
I00
S'\x00\x00\x00\x00\x00\x80V\xc0\x00\x00\x00\x00\x00\x00\x00\x00\x00\x00\x00\x00\x00@e\xc0'
p26
tp27
bsS'center_target_pixels'
p28
(I714
I117
tp29
sS'center_actual_pixels'
p30
(I725
I128
tp31
s.(dp0
S'actual_pos'
p1
(lp2
F0.05754950269489887
aF0.021072155146636296
aF-0.16811076943321007
asS'actual_rot'
p3
(lp4
F-91.61389577523605
aF-4.706306314467642
aF-164.75571174392792
asS'target_pos'
p5
cnumpy.core.multiarray
_reconstruct
p6
(cnumpy
ndarray
p7
(I0
tp8
S'b'
p9
tp10
Rp11
(I1
(I3
tp12
cnumpy
dtype
p13
(S'f8'
p14
I0
I1
tp15
Rp16
(I3
S'<'
p17
NNNI-1
I-1
I0
tp18
bI00
S'\x986\xd8\x07W\xdd\xad?\xf2\x89\x8bt\xa8\xe7\x95?\x18\xadH\xdaX\x8e\xc5\xbf'
p19
tp20
bsS'target_rot'
p21
g6
(g7
(I0
tp22
g9
tp23
Rp24
(I1
(I3
tp25
g16
I00
S'\x00\x00\x00\x00\x00\x80V\xc0\x00\x00\x00\x00\x00\x00\x00\x00\x00\x00\x00\x00\x00@e\xc0'
p26
tp27
bsS'center_target_pixels'
p28
(I895
I135
tp29
sS'center_actual_pixels'
p30
(I896
I121
tp31
s.(dp0
S'actual_pos'
p1
(lp2
F0.04116305116653106
aF0.0207391672418209
aF-0.16662652478065856
asS'actual_rot'
p3
(lp4
F-91.15012090536473
aF-4.649303564184378
aF-165.19715817646969
asS'target_pos'
p5
cnumpy.core.multiarray
_reconstruct
p6
(cnumpy
ndarray
p7
(I0
tp8
S'b'
p9
tp10
Rp11
(I1
(I3
tp12
cnumpy
dtype
p13
(S'f8'
p14
I0
I1
tp15
Rp16
(I3
S'<'
p17
NNNI-1
I-1
I0
tp18
bI00
S'\xae\xffF\xe7\xf0d\xa5?u4x\xf0\xeb\xa9\x95?\xac\x93\x00\xec\xa2]\xc5\xbf'
p19
tp20
bsS'target_rot'
p21
g6
(g7
(I0
tp22
g9
tp23
Rp24
(I1
(I3
tp25
g16
I00
S'\x00\x00\x00\x00\x00\x80V\xc0\x00\x00\x00\x00\x00\x00\x00\x00\x00\x00\x00\x00\x00@e\xc0'
p26
tp27
bsS'center_target_pixels'
p28
(I1073
I153
tp29
sS'center_actual_pixels'
p30
(I1075
I147
tp31
s.(dp0
S'actual_pos'
p1
(lp2
F0.025449605891204236
aF0.020007593843654293
aF-0.16515704629058012
asS'actual_rot'
p3
(lp4
F-90.69938403365522
aF-4.535711463940827
aF-166.51372385961932
asS'target_pos'
p5
cnumpy.core.multiarray
_reconstruct
p6
(cnumpy
ndarray
p7
(I0
tp8
S'b'
p9
tp10
Rp11
(I1
(I3
tp12
cnumpy
dtype
p13
(S'f8'
p14
I0
I1
tp15
Rp16
(I3
S'<'
p17
NNNI-1
I-1
I0
tp18
bI00
S'5\xd3\xfa\xce!\x80\x9a?\x91\xe1\x84u"\x16\x95?&K\x12\xa9$+\xc5\xbf'
p19
tp20
bsS'target_rot'
p21
g6
(g7
(I0
tp22
g9
tp23
Rp24
(I1
(I3
tp25
g16
I00
S'\x00\x00\x00\x00\x00\x80V\xc0\x00\x00\x00\x00\x00\x00\x00\x00\x00\x00\x00\x00\x00@e\xc0'
p26
tp27
bsS'center_target_pixels'
p28
(I1250
I170
tp29
sS'center_actual_pixels'
p30
(I1248
I162
tp31
s.(dp0
S'actual_pos'
p1
(lp2
F0.06564723717972616
aF0.029830866233383685
aF-0.16849280354357798
asS'actual_rot'
p3
(lp4
F-91.67414520597922
aF-4.291021815246873
aF-164.39435972138168
asS'target_pos'
p5
cnumpy.core.multiarray
_reconstruct
p6
(cnumpy
ndarray
p7
(I0
tp8
S'b'
p9
tp10
Rp11
(I1
(I3
tp12
cnumpy
dtype
p13
(S'f8'
p14
I0
I1
tp15
Rp16
(I3
S'<'
p17
NNNI-1
I-1
I0
tp18
bI00
S'\x13\x85T?\x99\xfc\xb0?\xd9\xbb,\xe4\x98\xf3\x9e?\x80\x8e#c\xda\x98\xc5\xbf'
p19
tp20
bsS'target_rot'
p21
g6
(g7
(I0
tp22
g9
tp23
Rp24
(I1
(I3
tp25
g16
I00
S'\x00\x00\x00\x00\x00\x80V\xc0\x00\x00\x00\x00\x00\x00\x00\x00\x00\x00\x00\x00\x00@e\xc0'
p26
tp27
bsS'center_target_pixels'
p28
(I796
I215
tp29
sS'center_actual_pixels'
p30
(I794
I212
tp31
s.(dp0
S'actual_pos'
p1
(lp2
F0.04809643377676372
aF0.029728399865039425
aF-0.1671344081231048
asS'actual_rot'
p3
(lp4
F-91.15223061378057
aF-4.000804699572051
aF-164.99736952495164
asS'target_pos'
p5
cnumpy.core.multiarray
_reconstruct
p6
(cnumpy
ndarray
p7
(I0
tp8
S'b'
p9
tp10
Rp11
(I1
(I3
tp12
cnumpy
dtype
p13
(S'f8'
p14
I0
I1
tp15
Rp16
(I3
S'<'
p17
NNNI-1
I-1
I0
tp18
bI00
S"\x13\xf76't\x01\xa9?f\x1bD@#\xa0\x9e?\x88\xcb\xf7\xca4p\xc5\xbf"
p19
tp20
bsS'target_rot'
p21
g6
(g7
(I0
tp22
g9
tp23
Rp24
(I1
(I3
tp25
g16
I00
S'\x00\x00\x00\x00\x00\x80V\xc0\x00\x00\x00\x00\x00\x00\x00\x00\x00\x00\x00\x00\x00@e\xc0'
p26
tp27
bsS'center_target_pixels'
p28
(I976
I233
tp29
sS'center_actual_pixels'
p30
(I992
I243
tp31
s.(dp0
S'actual_pos'
p1
(lp2
F0.033551703586789404
aF0.02829279376714301
aF-0.16559497007671017
asS'actual_rot'
p3
(lp4
F-90.78136393105478
aF-3.855513611435605
aF-165.78993559111686
asS'target_pos'
p5
cnumpy.core.multiarray
_reconstruct
p6
(cnumpy
ndarray
p7
(I0
tp8
S'b'
p9
tp10
Rp11
(I1
(I3
tp12
cnumpy
dtype
p13
(S'f8'
p14
I0
I1
tp15
Rp16
(I3
S'<'
p17
NNNI-1
I-1
I0
tp18
bI00
S'n\xe1\x94L\xd4~\xa1?\x0e4\xaae[7\x9d?\xdc>\xfd\xd9$;\xc5\xbf'
p19
tp20
bsS'target_rot'
p21
g6
(g7
(I0
tp22
g9
tp23
Rp24
(I1
(I3
tp25
g16
I00
S'\x00\x00\x00\x00\x00\x80V\xc0\x00\x00\x00\x00\x00\x00\x00\x00\x00\x00\x00\x00\x00@e\xc0'
p26
tp27
bsS'center_target_pixels'
p28
(I1153
I250
tp29
sS'center_actual_pixels'
p30
(I1145
I243
tp31
s.(dp0
S'actual_pos'
p1
(lp2
F0.017558817438361445
aF0.02758984525874296
aF-0.1647526796306379
asS'actual_rot'
p3
(lp4
F-90.32819104619144
aF-3.0858309189262925
aF-168.25475340262867
asS'target_pos'
p5
cnumpy.core.multiarray
_reconstruct
p6
(cnumpy
ndarray
p7
(I0
tp8
S'b'
p9
tp10
Rp11
(I1
(I3
tp12
cnumpy
dtype
p13
(S'f8'
p14
I0
I1
tp15
Rp16
(I3
S'<'
p17
NNNI-1
I-1
I0
tp18
bI00
S'\xa7\xc0\xf7\xfa\x84w\x92?\xfe\xfb\x8a\x9c\xa8R\x9c?\xdc\x83\xb6!k%\xc5\xbf'
p19
tp20
bsS'target_rot'
p21
g6
(g7
(I0
tp22
g9
tp23
Rp24
(I1
(I3
tp25
g16
I00
S'\x00\x00\x00\x00\x00\x80V\xc0\x00\x00\x00\x00\x00\x00\x00\x00\x00\x00\x00\x00\x00@e\xc0'
p26
tp27
bsS'center_target_pixels'
p28
(I1330
I266
tp29
sS'center_actual_pixels'
p30
(I1324
I262
tp31
s.(dp0
S'actual_pos'
p1
(lp2
F0.07371028680605095
aF0.03820118642128978
aF-0.1692261857452368
asS'actual_rot'
p3
(lp4
F-91.59346200659131
aF-3.6553499857590284
aF-164.50213042106373
asS'target_pos'
p5
cnumpy.core.multiarray
_reconstruct
p6
(cnumpy
ndarray
p7
(I0
tp8
S'b'
p9
tp10
Rp11
(I1
(I3
tp12
cnumpy
dtype
p13
(S'f8'
p14
I0
I1
tp15
Rp16
(I3
S'<'
p17
NNNI-1
I-1
I0
tp18
bI00
S'\xe1\x0c\r\xdbt\x18\xb3?5Ny&\xd1\xa0\xa3?>3\x955\t\xb2\xc5\xbf'
p19
tp20
bsS'target_rot'
p21
g6
(g7
(I0
tp22
g9
tp23
Rp24
(I1
(I3
tp25
g16
I00
S'\x00\x00\x00\x00\x00\x80V\xc0\x00\x00\x00\x00\x00\x00\x00\x00\x00\x00\x00\x00\x00@e\xc0'
p26
tp27
bsS'center_target_pixels'
p28
(I698
I296
tp29
sS'center_actual_pixels'
p30
(I690
I295
tp31
s.(dp0
S'actual_pos'
p1
(lp2
F0.05656692805119817
aF0.037698189342982955
aF-0.16750855597279826
asS'actual_rot'
p3
(lp4
F-91.17697493418868
aF-3.483851817560546
aF-164.93091798662303
asS'target_pos'
p5
cnumpy.core.multiarray
_reconstruct
p6
(cnumpy
ndarray
p7
(I0
tp8
S'b'
p9
tp10
Rp11
(I1
(I3
tp12
cnumpy
dtype
p13
(S'f8'
p14
I0
I1
tp15
Rp16
(I3
S'<'
p17
NNNI-1
I-1
I0
tp18
bI00
S'\xd3\xb5>\r\x17b\xad?B\x07\xd9\xad\xe5U\xa3?\x9a\x18&\xa3\xd7y\xc5\xbf'
p19
tp20
bsS'target_rot'
p21
g6
(g7
(I0
tp22
g9
tp23
Rp24
(I1
(I3
tp25
g16
I00
S'\x00\x00\x00\x00\x00\x80V\xc0\x00\x00\x00\x00\x00\x00\x00\x00\x00\x00\x00\x00\x00@e\xc0'
p26
tp27
bsS'center_target_pixels'
p28
(I877
I312
tp29
sS'center_actual_pixels'
p30
(I880
I318
tp31
s.(dp0
S'actual_pos'
p1
(lp2
F0.04040243052894806
aF0.036697189575179597
aF-0.16630856125832638
asS'actual_rot'
p3
(lp4
F-90.80398776454543
aF-3.3098446736244687
aF-165.55522410181513
asS'target_pos'
p5
cnumpy.core.multiarray
_reconstruct
p6
(cnumpy
ndarray
p7
(I0
tp8
S'b'
p9
tp10
Rp11
(I1
(I3
tp12
cnumpy
dtype
p13
(S'f8'
p14
I0
I1
tp15
Rp16
(I3
S'<'
p17
NNNI-1
I-1
I0
tp18
bI00
S'\xa7\t\xa5\xcb\x93\x05\xa5?E\xe8\x8a\x96\x82\xd6\xa2?\x82\xb1"\xc1RU\xc5\xbf'
p19
tp20
bsS'target_rot'
p21
g6
(g7
(I0
tp22
g9
tp23
Rp24
(I1
(I3
tp25
g16
I00
S'\x00\x00\x00\x00\x00\x80V\xc0\x00\x00\x00\x00\x00\x00\x00\x00\x00\x00\x00\x00\x00@e\xc0'
p26
tp27
bsS'center_target_pixels'
p28
(I1057
I329
tp29
sS'center_actual_pixels'
p30
(I1053
I330
tp31
s.(dp0
S'actual_pos'
p1
(lp2
F0.024508737091055867
aF0.03588377849173133
aF-0.1652521800592817
asS'actual_rot'
p3
(lp4
F-90.3250372566523
aF-2.197265550817246
aF-167.54737215063338
asS'target_pos'
p5
cnumpy.core.multiarray
_reconstruct
p6
(cnumpy
ndarray
p7
(I0
tp8
S'b'
p9
tp10
Rp11
(I1
(I3
tp12
cnumpy
dtype
p13
(S'f8'
p14
I0
I1
tp15
Rp16
(I3
S'<'
p17
NNNI-1
I-1
I0
tp18
bI00
S'\xba \xed@/\x92\x99?8\xfbG\xdb\xfeR\xa2?\x90CR\x89\x7f6\xc5\xbf'
p19
tp20
bsS'target_rot'
p21
g6
(g7
(I0
tp22
g9
tp23
Rp24
(I1
(I3
tp25
g16
I00
S'\x00\x00\x00\x00\x00\x80V\xc0\x00\x00\x00\x00\x00\x00\x00\x00\x00\x00\x00\x00\x00@e\xc0'
p26
tp27
bsS'center_target_pixels'
p28
(I1234
I346
tp29
sS'center_actual_pixels'
p30
(I1238
I351
tp31
s.(dp0
S'actual_pos'
p1
(lp2
F0.009550108552788249
aF0.036497038872372344
aF-0.16440191142165334
asS'actual_rot'
p3
(lp4
F-90.0289634006408
aF-0.5157819419304407
aF-170.12942715740414
asS'target_pos'
p5
cnumpy.core.multiarray
_reconstruct
p6
(cnumpy
ndarray
p7
(I0
tp8
S'b'
p9
tp10
Rp11
(I1
(I3
tp12
cnumpy
dtype
p13
(S'f8'
p14
I0
I1
tp15
Rp16
(I3
S'<'
p17
NNNI-1
I-1
I0
tp18
bI00
S'\xf7\xc5q\xc8\xb4l\x84?\xf3(\x16+\xaf|\xa2?(\xf6\x0e\x88\xe7\x1f\xc5\xbf'
p19
tp20
bsS'target_rot'
p21
g6
(g7
(I0
tp22
g9
tp23
Rp24
(I1
(I3
tp25
g16
I00
S'\x00\x00\x00\x00\x00\x80V\xc0\x00\x00\x00\x00\x00\x00\x00\x00\x00\x00\x00\x00\x00@e\xc0'
p26
tp27
bsS'center_target_pixels'
p28
(I1409
I362
tp29
sS'center_actual_pixels'
p30
(I1397
I384
tp31
s.(dp0
S'actual_pos'
p1
(lp2
F0.06429726087777252
aF0.046110006697014774
aF-0.16848271556144886
asS'actual_rot'
p3
(lp4
F-90.77324496980341
aF-2.060189573957295
aF-164.55709473183396
asS'target_pos'
p5
cnumpy.core.multiarray
_reconstruct
p6
(cnumpy
ndarray
p7
(I0
tp8
S'b'
p9
tp10
Rp11
(I1
(I3
tp12
cnumpy
dtype
p13
(S'f8'
p14
I0
I1
tp15
Rp16
(I3
S'<'
p17
NNNI-1
I-1
I0
tp18
bI00
S'K\xee\xd0q"\xa7\xb0?"\x14(-\x17\x90\xa7?\xa5M\\\xf8\xf2\x9d\xc5\xbf'
p19
tp20
bsS'target_rot'
p21
g6
(g7
(I0
tp22
g9
tp23
Rp24
(I1
(I3
tp25
g16
I00
S'\x00\x00\x00\x00\x00\x80V\xc0\x00\x00\x00\x00\x00\x00\x00\x00\x00\x00\x00\x00\x00@e\xc0'
p26
tp27
bsS'center_target_pixels'
p28
(I779
I393
tp29
sS'center_actual_pixels'
p30
(I783
I400
tp31
s.(dp0
S'actual_pos'
p1
(lp2
F0.047480315634014676
aF0.04500309467933346
aF-0.16649214645799565
asS'actual_rot'
p3
(lp4
F-90.52060478608726
aF-1.8284586559313087
aF-165.2322582940562
asS'target_pos'
p5
cnumpy.core.multiarray
_reconstruct
p6
(cnumpy
ndarray
p7
(I0
tp8
S'b'
p9
tp10
Rp11
(I1
(I3
tp12
cnumpy
dtype
p13
(S'f8'
p14
I0
I1
tp15
Rp16
(I3
S'<'
p17
NNNI-1
I-1
I0
tp18
bI00
S'\x069\xc5X\x92\xa5\xa8?\x1a&%.\xd8\x03\xa7?;\x85\xf2s\x80X\xc5\xbf'
p19
tp20
bsS'target_rot'
p21
g6
(g7
(I0
tp22
g9
tp23
Rp24
(I1
(I3
tp25
g16
I00
S'\x00\x00\x00\x00\x00\x80V\xc0\x00\x00\x00\x00\x00\x00\x00\x00\x00\x00\x00\x00\x00@e\xc0'
p26
tp27
bsS'center_target_pixels'
p28
(I959
I409
tp29
sS'center_actual_pixels'
p30
(I965
I417
tp31
s.(dp0
S'actual_pos'
p1
(lp2
F0.03242793541455838
aF0.04421767012760012
aF-0.16555974773398732
asS'actual_rot'
p3
(lp4
F-90.29505875527363
aF-1.5111649587305234
aF-166.91779812622306
asS'target_pos'
p5
cnumpy.core.multiarray
_reconstruct
p6
(cnumpy
ndarray
p7
(I0
tp8
S'b'
p9
tp10
Rp11
(I1
(I3
tp12
cnumpy
dtype
p13
(S'f8'
p14
I0
I1
tp15
Rp16
(I3
S'<'
p17
NNNI-1
I-1
I0
tp18
bI00
S'\xe2\x88\xcf\xe5(\xee\xa0?\xa0 \x07s\xe9\x92\xa6?3g7"\xfd<\xc5\xbf'
p19
tp20
bsS'target_rot'
p21
g6
(g7
(I0
tp22
g9
tp23
Rp24
(I1
(I3
tp25
g16
I00
S'\x00\x00\x00\x00\x00\x80V\xc0\x00\x00\x00\x00\x00\x00\x00\x00\x00\x00\x00\x00\x00@e\xc0'
p26
tp27
bsS'center_target_pixels'
p28
(I1137
I426
tp29
sS'center_actual_pixels'
p30
(I1137
I430
tp31
s.(dp0
S'actual_pos'
p1
(lp2
F0.015380843739583948
aF0.044064547784635914
aF-0.1645546484268145
asS'actual_rot'
p3
(lp4
F-90.0156069142357
aF-0.053375189170047785
aF-169.9102358943381
asS'target_pos'
p5
cnumpy.core.multiarray
_reconstruct
p6
(cnumpy
ndarray
p7
(I0
tp8
S'b'
p9
tp10
Rp11
(I1
(I3
tp12
cnumpy
dtype
p13
(S'f8'
p14
I0
I1
tp15
Rp16
(I3
S'<'
p17
NNNI-1
I-1
I0
tp18
bI00
S'\xf5\xce\xc4a\x95f\x90?\x8em\xc4t\x94U\xa6?:\t\xe6\x9fG$\xc5\xbf'
p19
tp20
bsS'target_rot'
p21
g6
(g7
(I0
tp22
g9
tp23
Rp24
(I1
(I3
tp25
g16
I00
S'\x00\x00\x00\x00\x00\x80V\xc0\x00\x00\x00\x00\x00\x00\x00\x00\x00\x00\x00\x00\x00@e\xc0'
p26
tp27
bsS'center_target_pixels'
p28
(I1314
I442
tp29
sS'center_actual_pixels'
p30
(I1326
I459
tp31
s.(dp0
S'actual_pos'
p1
(lp2
F0.07200557025809522
aF0.05394636839259149
aF-0.16915571999857146
asS'actual_rot'
p3
(lp4
F-90.47212535923833
aF-1.1114549516334875
aF-164.81150776039965
asS'target_pos'
p5
cnumpy.core.multiarray
_reconstruct
p6
(cnumpy
ndarray
p7
(I0
tp8
S'b'
p9
tp10
Rp11
(I1
(I3
tp12
cnumpy
dtype
p13
(S'f8'
p14
I0
I1
tp15
Rp16
(I3
S'<'
p17
NNNI-1
I-1
I0
tp18
bI00
S'\xa3C,\x16h\xab\xb2?}v\xa3#\r\x95\xab?\xe6;\x95\xd2\xbc\xb1\xc5\xbf'
p19
tp20
bsS'target_rot'
p21
g6
(g7
(I0
tp22
g9
tp23
Rp24
(I1
(I3
tp25
g16
I00
S'\x00\x00\x00\x00\x00\x80V\xc0\x00\x00\x00\x00\x00\x00\x00\x00\x00\x00\x00\x00\x00@e\xc0'
p26
tp27
bsS'center_target_pixels'
p28
(I682
I474
tp29
sS'center_actual_pixels'
p30
(I686
I479
tp31
s.(dp0
S'actual_pos'
p1
(lp2
F0.05600978534276873
aF0.052805747943589304
aF-0.16772391907952622
asS'actual_rot'
p3
(lp4
F-90.2869408671165
aF-0.8622656654820645
aF-165.22390341743545
asS'target_pos'
p5
cnumpy.core.multiarray
_reconstruct
p6
(cnumpy
ndarray
p7
(I0
tp8
S'b'
p9
tp10
Rp11
(I1
(I3
tp12
cnumpy
dtype
p13
(S'f8'
p14
I0
I1
tp15
Rp16
(I3
S'<'
p17
NNNI-1
I-1
I0
tp18
bI00
S'yX\x842D\x05\xad?:\xc3\xc6`x\x06\xab?^d\xf0\x06>\x82\xc5\xbf'
p19
tp20
bsS'target_rot'
p21
g6
(g7
(I0
tp22
g9
tp23
Rp24
(I1
(I3
tp25
g16
I00
S'\x00\x00\x00\x00\x00\x80V\xc0\x00\x00\x00\x00\x00\x00\x00\x00\x00\x00\x00\x00\x00@e\xc0'
p26
tp27
bsS'center_target_pixels'
p28
(I862
I490
tp29
sS'center_actual_pixels'
p30
(I861
I492
tp31
s.(dp0
S'actual_pos'
p1
(lp2
F0.03972411077597755
aF0.05214506249144107
aF-0.16602383235156887
asS'actual_rot'
p3
(lp4
F-90.08704732153646
aF-0.36799258969900384
aF-166.13214051803996
asS'target_pos'
p5
cnumpy.core.multiarray
_reconstruct
p6
(cnumpy
ndarray
p7
(I0
tp8
S'b'
p9
tp10
Rp11
(I1
(I3
tp12
cnumpy
dtype
p13
(S'f8'
p14
I0
I1
tp15
Rp16
(I3
S'<'
p17
NNNI-1
I-1
I0
tp18
bI00
S'3\x90\xe9H\x1b\xb2\xa4?2\xe4\xb41\xea\xa9\xaa?\xf6\xec\x9dX\x92I\xc5\xbf'
p19
tp20
bsS'target_rot'
p21
g6
(g7
(I0
tp22
g9
tp23
Rp24
(I1
(I3
tp25
g16
I00
S'\x00\x00\x00\x00\x00\x80V\xc0\x00\x00\x00\x00\x00\x00\x00\x00\x00\x00\x00\x00\x00@e\xc0'
p26
tp27
bsS'center_target_pixels'
p28
(I1040
I506
tp29
sS'center_actual_pixels'
p30
(I1040
I507
tp31
s.(dp0
S'actual_pos'
p1
(lp2
F0.02321003003008445
aF0.051268144657829126
aF-0.16495751037253048
asS'actual_rot'
p3
(lp4
F-89.99554115103038
aF0.024681531862721137
aF-168.91303680616474
asS'target_pos'
p5
cnumpy.core.multiarray
_reconstruct
p6
(cnumpy
ndarray
p7
(I0
tp8
S'b'
p9
tp10
Rp11
(I1
(I3
tp12
cnumpy
dtype
p13
(S'f8'
p14
I0
I1
tp15
Rp16
(I3
S'<'
p17
NNNI-1
I-1
I0
tp18
bI00
S'\x97U\x95\x86\x9b^\x98?\xa3\xc6\x90\x8b\xe0%\xaa?\xa3NC\x87\xe4-\xc5\xbf'
p19
tp20
bsS'target_rot'
p21
g6
(g7
(I0
tp22
g9
tp23
Rp24
(I1
(I3
tp25
g16
I00
S'\x00\x00\x00\x00\x00\x80V\xc0\x00\x00\x00\x00\x00\x00\x00\x00\x00\x00\x00\x00\x00@e\xc0'
p26
tp27
bsS'center_target_pixels'
p28
(I1218
I521
tp29
sS'center_actual_pixels'
p30
(I1229
I530
tp31
s.(dp0
S'actual_pos'
p1
(lp2
F0.008294705031050956
aF0.051616191084450314
aF-0.1636762419540022
asS'actual_rot'
p3
(lp4
F-89.91899387757287
aF1.5786411882959313
aF-172.1378544981291
asS'target_pos'
p5
cnumpy.core.multiarray
_reconstruct
p6
(cnumpy
ndarray
p7
(I0
tp8
S'b'
p9
tp10
Rp11
(I1
(I3
tp12
cnumpy
dtype
p13
(S'f8'
p14
I0
I1
tp15
Rp16
(I3
S'<'
p17
NNNI-1
I-1
I0
tp18
bI00
S'\x9bm\xe1h\x8e\xd4\x81?h\x02\xff\xfa"@\xaa?<\n\x97\x01\x8d\x01\xc5\xbf'
p19
tp20
bsS'target_rot'
p21
g6
(g7
(I0
tp22
g9
tp23
Rp24
(I1
(I3
tp25
g16
I00
S'\x00\x00\x00\x00\x00\x80V\xc0\x00\x00\x00\x00\x00\x00\x00\x00\x00\x00\x00\x00\x00@e\xc0'
p26
tp27
bsS'center_target_pixels'
p28
(I1393
I537
tp29
sS'center_actual_pixels'
p30
(I1394
I554
tp31
s.(dp0
S'actual_pos'
p1
(lp2
F0.063582849210865
aF0.06158188482344653
aF-0.16870537888942702
asS'actual_rot'
p3
(lp4
F-89.98002140026479
aF0.05026908017670771
aF-164.8312627909715
asS'target_pos'
p5
cnumpy.core.multiarray
_reconstruct
p6
(cnumpy
ndarray
p7
(I0
tp8
S'b'
p9
tp10
Rp11
(I1
(I3
tp12
cnumpy
dtype
p13
(S'f8'
p14
I0
I1
tp15
Rp16
(I3
S'<'
p17
NNNI-1
I-1
I0
tp18
bI00
S'\xd8$\xcd\xf6\xfe~\xb0?\xa9J\xf4\xdeEu\xaf?\xd6(9l\x91\xa6\xc5\xbf'
p19
tp20
bsS'target_rot'
p21
g6
(g7
(I0
tp22
g9
tp23
Rp24
(I1
(I3
tp25
g16
I00
S'\x00\x00\x00\x00\x00\x80V\xc0\x00\x00\x00\x00\x00\x00\x00\x00\x00\x00\x00\x00\x00@e\xc0'
p26
tp27
bsS'center_target_pixels'
p28
(I764
I571
tp29
sS'center_actual_pixels'
p30
(I759
I584
tp31
s.(dp0
S'actual_pos'
p1
(lp2
F0.04777209416395049
aF0.06063128207338444
aF-0.16678730635179906
asS'actual_rot'
p3
(lp4
F-89.99506600590772
aF0.013727269607349057
aF-165.61144639585797
asS'target_pos'
p5
cnumpy.core.multiarray
_reconstruct
p6
(cnumpy
ndarray
p7
(I0
tp8
S'b'
p9
tp10
Rp11
(I1
(I3
tp12
cnumpy
dtype
p13
(S'f8'
p14
I0
I1
tp15
Rp16
(I3
S'<'
p17
NNNI-1
I-1
I0
tp18
bI00
S'Y\x8eA\x95\x0c\xd4\xa8?=\xe0\x9c\xead\xff\xae?\xe3,\xec\xe6%c\xc5\xbf'
p19
tp20
bsS'target_rot'
p21
g6
(g7
(I0
tp22
g9
tp23
Rp24
(I1
(I3
tp25
g16
I00
S'\x00\x00\x00\x00\x00\x80V\xc0\x00\x00\x00\x00\x00\x00\x00\x00\x00\x00\x00\x00\x00@e\xc0'
p26
tp27
bsS'center_target_pixels'
p28
(I943
I587
tp29
sS'center_actual_pixels'
p30
(I939
I594
tp31
s.(dp0
S'actual_pos'
p1
(lp2
F0.03104711134791619
aF0.05958637244926542
aF-0.16547726271569743
asS'actual_rot'
p3
(lp4
F-89.88750100218607
aF0.5943485780739725
aF-167.9940251906386
asS'target_pos'
p5
cnumpy.core.multiarray
_reconstruct
p6
(cnumpy
ndarray
p7
(I0
tp8
S'b'
p9
tp10
Rp11
(I1
(I3
tp12
cnumpy
dtype
p13
(S'f8'
p14
I0
I1
tp15
Rp16
(I3
S'<'
p17
NNNI-1
I-1
I0
tp18
bI00
S'&\xe1\xe4\xf1\n9\xa0?\x0b\xcb\xc9\xdf\x08e\xae?\x0f\x9c\x13\xbfF<\xc5\xbf'
p19
tp20
bsS'target_rot'
p21
g6
(g7
(I0
tp22
g9
tp23
Rp24
(I1
(I3
tp25
g16
I00
S'\x00\x00\x00\x00\x00\x80V\xc0\x00\x00\x00\x00\x00\x00\x00\x00\x00\x00\x00\x00\x00@e\xc0'
p26
tp27
bsS'center_target_pixels'
p28
(I1121
I602
tp29
sS'center_actual_pixels'
p30
(I1124
I607
tp31
s.(dp0
S'actual_pos'
p1
(lp2
F0.015104299711804332
aF0.058900438573183514
aF-0.16363585691813845
asS'actual_rot'
p3
(lp4
F-89.83192789913106
aF1.8096729892343761
aF-171.13589973429808
asS'target_pos'
p5
cnumpy.core.multiarray
_reconstruct
p6
(cnumpy
ndarray
p7
(I0
tp8
S'b'
p9
tp10
Rp11
(I1
(I3
tp12
cnumpy
dtype
p13
(S'f8'
p14
I0
I1
tp15
Rp16
(I3
S'<'
p17
NNNI-1
I-1
I0
tp18
bI00
S'>\xd9\x94_\xbf\xd7\x8f?\\\x9e\x8d\xf7\x99\xfd\xad?^}\x03v\xcf\xfc\xc4\xbf'
p19
tp20
bsS'target_rot'
p21
g6
(g7
(I0
tp22
g9
tp23
Rp24
(I1
(I3
tp25
g16
I00
S'\x00\x00\x00\x00\x00\x80V\xc0\x00\x00\x00\x00\x00\x00\x00\x00\x00\x00\x00\x00\x00@e\xc0'
p26
tp27
bsS'center_target_pixels'
p28
(I1298
I617
tp29
sS'center_actual_pixels'
p30
(I1305
I621
tp31
s.(dp0
S'actual_pos'
p1
(lp2
F0.07112957297727615
aF0.07036161749417111
aF-0.16908347380882227
asS'actual_rot'
p3
(lp4
F-90.05009234306185
aF-0.12152846416632825
aF-164.58554034157228
asS'target_pos'
p5
cnumpy.core.multiarray
_reconstruct
p6
(cnumpy
ndarray
p7
(I0
tp8
S'b'
p9
tp10
Rp11
(I1
(I3
tp12
cnumpy
dtype
p13
(S'f8'
p14
I0
I1
tp15
Rp16
(I3
S'<'
p17
NNNI-1
I-1
I0
tp18
bI00
S'\xd7\r\xb3>Yg\xb2?N+\xb3$Y\x03\xb2?\n\xd5\x16JU\xad\xc5\xbf'
p19
tp20
bsS'target_rot'
p21
g6
(g7
(I0
tp22
g9
tp23
Rp24
(I1
(I3
tp25
g16
I00
S'\x00\x00\x00\x00\x00\x80V\xc0\x00\x00\x00\x00\x00\x00\x00\x00\x00\x00\x00\x00\x00@e\xc0'
p26
tp27
bsS'center_target_pixels'
p28
(I665
I652
tp29
sS'center_actual_pixels'
p30
(I662
I668
tp31
s.(dp0
S'actual_pos'
p1
(lp2
F0.05578274658321129
aF0.06876326171024678
aF-0.1670010780921363
asS'actual_rot'
p3
(lp4
F-90.00124560494486
aF-0.006725578182657422
aF-165.21797968193334
asS'target_pos'
p5
cnumpy.core.multiarray
_reconstruct
p6
(cnumpy
ndarray
p7
(I0
tp8
S'b'
p9
tp10
Rp11
(I1
(I3
tp12
cnumpy
dtype
p13
(S'f8'
p14
I0
I1
tp15
Rp16
(I3
S'<'
p17
NNNI-1
I-1
I0
tp18
bI00
S'\xc4\x91\xaaF\x95\xea\xac?`\xf0(\x01E\xa2\xb1?UFV\x16\x0fe\xc5\xbf'
p19
tp20
bsS'target_rot'
p21
g6
(g7
(I0
tp22
g9
tp23
Rp24
(I1
(I3
tp25
g16
I00
S'\x00\x00\x00\x00\x00\x80V\xc0\x00\x00\x00\x00\x00\x00\x00\x00\x00\x00\x00\x00\x00@e\xc0'
p26
tp27
bsS'center_target_pixels'
p28
(I846
I667
tp29
sS'center_actual_pixels'
p30
(I839
I674
tp31
s.(dp0
S'actual_pos'
p1
(lp2
F0.039237863209923396
aF0.06768334452054948
aF-0.16615595817979908
asS'actual_rot'
p3
(lp4
F-89.90052292343904
aF0.4171026869507812
aF-167.24957241914106
asS'target_pos'
p5
cnumpy.core.multiarray
_reconstruct
p6
(cnumpy
ndarray
p7
(I0
tp8
S'b'
p9
tp10
Rp11
(I1
(I3
tp12
cnumpy
dtype
p13
(S'f8'
p14
I0
I1
tp15
Rp16
(I3
S'<'
p17
NNNI-1
I-1
I0
tp18
bI00
S"\xb2\xe9E\xbbhw\xa4?\x05y\x14e\x14]\xb1?k\xb7|3'N\xc5\xbf"
p19
tp20
bsS'target_rot'
p21
g6
(g7
(I0
tp22
g9
tp23
Rp24
(I1
(I3
tp25
g16
I00
S'\x00\x00\x00\x00\x00\x80V\xc0\x00\x00\x00\x00\x00\x00\x00\x00\x00\x00\x00\x00\x00@e\xc0'
p26
tp27
bsS'center_target_pixels'
p28
(I1024
I682
tp29
sS'center_actual_pixels'
p30
(I1028
I681
tp31
s.(dp0
S'actual_pos'
p1
(lp2
F0.022210392277975707
aF0.06638565348284518
aF-0.16496168052188045
asS'actual_rot'
p3
(lp4
F-89.77926630212978
aF1.7157521965094116
aF-170.17678648770362
asS'target_pos'
p5
cnumpy.core.multiarray
_reconstruct
p6
(cnumpy
ndarray
p7
(I0
tp8
S'b'
p9
tp10
Rp11
(I1
(I3
tp12
cnumpy
dtype
p13
(S'f8'
p14
I0
I1
tp15
Rp16
(I3
S'<'
p17
NNNI-1
I-1
I0
tp18
bI00
S'y\xe5\xca\xe7\xf3O\x97?\xbf\xea6V\xeb\r\xb1?\xbb"\x0f\x18P)\xc5\xbf'
p19
tp20
bsS'target_rot'
p21
g6
(g7
(I0
tp22
g9
tp23
Rp24
(I1
(I3
tp25
g16
I00
S'\x00\x00\x00\x00\x00\x80V\xc0\x00\x00\x00\x00\x00\x00\x00\x00\x00\x00\x00\x00\x00@e\xc0'
p26
tp27
bsS'center_target_pixels'
p28
(I1202
I697
tp29
sS'center_actual_pixels'
p30
(I1219
I699
tp31
s.(dp0
S'actual_pos'
p1
(lp2
F0.007489383143434904
aF0.06563253983166858
aF-0.16285996080802667
asS'actual_rot'
p3
(lp4
F-89.84426124577605
aF3.3616681267569777
aF-173.58299698157504
asS'target_pos'
p5
cnumpy.core.multiarray
_reconstruct
p6
(cnumpy
ndarray
p7
(I0
tp8
S'b'
p9
tp10
Rp11
(I1
(I3
tp12
cnumpy
dtype
p13
(S'f8'
p14
I0
I1
tp15
Rp16
(I3
S'<'
p17
NNNI-1
I-1
I0
tp18
bI00
S'f?\xa0"\x96\x19\x80?\xc5\xe8\xce\xaf\x13\xde\xb0?\xd8B\x14\xec.\xda\xc4\xbf'
p19
tp20
bsS'target_rot'
p21
g6
(g7
(I0
tp22
g9
tp23
Rp24
(I1
(I3
tp25
g16
I00
S'\x00\x00\x00\x00\x00\x80V\xc0\x00\x00\x00\x00\x00\x00\x00\x00\x00\x00\x00\x00\x00@e\xc0'
p26
tp27
bsS'center_target_pixels'
p28
(I1377
I712
tp29
sS'center_actual_pixels'
p30
(I1388
I699
tp31
s.(dp0
S'actual_pos'
p1
(lp2
F0.0632189014803417
aF0.07739645690857194
aF-0.16797941797366547
asS'actual_rot'
p3
(lp4
F-90.13234761766597
aF-0.3543031356873418
aF-165.05445998633212
asS'target_pos'
p5
cnumpy.core.multiarray
_reconstruct
p6
(cnumpy
ndarray
p7
(I0
tp8
S'b'
p9
tp10
Rp11
(I1
(I3
tp12
cnumpy
dtype
p13
(S'f8'
p14
I0
I1
tp15
Rp16
(I3
S'<'
p17
NNNI-1
I-1
I0
tp18
bI00
S'\x82E|\x7f\xf1[\xb0?.*S\xcbY\x13\xb4?\x05\xc6\xf0\x00\x8f|\xc5\xbf'
p19
tp20
bsS'target_rot'
p21
g6
(g7
(I0
tp22
g9
tp23
Rp24
(I1
(I3
tp25
g16
I00
S'\x00\x00\x00\x00\x00\x80V\xc0\x00\x00\x00\x00\x00\x00\x00\x00\x00\x00\x00\x00\x00@e\xc0'
p26
tp27
bsS'center_target_pixels'
p28
(I747
I749
tp29
sS'center_actual_pixels'
p30
(I742
I755
tp31
s.(dp0
S'actual_pos'
p1
(lp2
F0.04710975906687936
aF0.07608175773719017
aF-0.16653292831914562
asS'actual_rot'
p3
(lp4
F-89.96753547319022
aF0.11133709211129093
aF-166.62343490268606
asS'target_pos'
p5
cnumpy.core.multiarray
_reconstruct
p6
(cnumpy
ndarray
p7
(I0
tp8
S'b'
p9
tp10
Rp11
(I1
(I3
tp12
cnumpy
dtype
p13
(S'f8'
p14
I0
I1
tp15
Rp16
(I3
S'<'
p17
NNNI-1
I-1
I0
tp18
bI00
S'\x0e\r\x02~\xb1p\xa8?\xb5\x8aa\x04K\xbc\xb3?\xdet\xf4e\x02L\xc5\xbf'
p19
tp20
bsS'target_rot'
p21
g6
(g7
(I0
tp22
g9
tp23
Rp24
(I1
(I3
tp25
g16
I00
S'\x00\x00\x00\x00\x00\x80V\xc0\x00\x00\x00\x00\x00\x00\x00\x00\x00\x00\x00\x00\x00@e\xc0'
p26
tp27
bsS'center_target_pixels'
p28
(I927
I763
tp29
sS'center_actual_pixels'
p30
(I922
I762
tp31
s.(dp0
S'actual_pos'
p1
(lp2
F0.030275137792635947
aF0.07495056507520952
aF-0.165809719984869
asS'actual_rot'
p3
(lp4
F-89.78571059433787
aF1.168224090034844
aF-169.71533100352823
asS'target_pos'
p5
cnumpy.core.multiarray
_reconstruct
p6
(cnumpy
ndarray
p7
(I0
tp8
S'b'
p9
tp10
Rp11
(I1
(I3
tp12
cnumpy
dtype
p13
(S'f8'
p14
I0
I1
tp15
Rp16
(I3
S'<'
p17
NNNI-1
I-1
I0
tp18
bI00
S"\xd5w\x9a\xed\xdf\xa8\x9f?8'\xb8\x16!h\xb3?\xdb\xa0wQ\xf4?\xc5\xbf"
p19
tp20
bsS'target_rot'
p21
g6
(g7
(I0
tp22
g9
tp23
Rp24
(I1
(I3
tp25
g16
I00
S'\x00\x00\x00\x00\x00\x80V\xc0\x00\x00\x00\x00\x00\x00\x00\x00\x00\x00\x00\x00\x00@e\xc0'
p26
tp27
bsS'center_target_pixels'
p28
(I1105
I777
tp29
sS'center_actual_pixels'
p30
(I1120
I774
tp31
s.(dp0
S'actual_pos'
p1
(lp2
F0.014491193055880343
aF0.07354749740085127
aF-0.1642904486511968
asS'actual_rot'
p3
(lp4
F-89.75904100938415
aF2.8452010615261574
aF-172.7851869174313
asS'target_pos'
p5
cnumpy.core.multiarray
_reconstruct
p6
(cnumpy
ndarray
p7
(I0
tp8
S'b'
p9
tp10
Rp11
(I1
(I3
tp12
cnumpy
dtype
p13
(S'f8'
p14
I0
I1
tp15
Rp16
(I3
S'<'
p17
NNNI-1
I-1
I0
tp18
bI00
S'`\xdepm\x90\xd8\x8e?g\xaf\xe6\xe2\xe7\xf9\xb2?\xa9\x8f-w|\r\xc5\xbf'
p19
tp20
bsS'target_rot'
p21
g6
(g7
(I0
tp22
g9
tp23
Rp24
(I1
(I3
tp25
g16
I00
S'\x00\x00\x00\x00\x00\x80V\xc0\x00\x00\x00\x00\x00\x00\x00\x00\x00\x00\x00\x00\x00@e\xc0'
p26
tp27
bsS'center_target_pixels'
p28
(I1282
I792
tp29
sS'center_actual_pixels'
p30
(I1299
I780
tp31
s.