(dp0
S'actual_pos'
p1
(lp2
F0.07229189172266505
aF0.017972038486801383
aF-0.16946203298443802
asS'actual_rot'
p3
(lp4
F44.904520076062624
aF8.287377695688054
aF-171.57663528195454
asS'target_pos'
p5
(lp6
F0.07311313599348068
aF0.01767795905470848
aF-0.16966919600963593
asS'target_rot'
p7
(lp8
F45.0
aF7.5
aF-166.25
asS'center_target_pixels'
p9
(I701
I116
tp10
sS'center_actual_pixels'
p11
(I725
I100
tp12
s.(dp0
S'actual_pos'
p1
(lp2
F0.058232088880676824
aF0.016703034395955697
aF-0.16799455521226583
asS'actual_rot'
p3
(lp4
F44.723965594831114
aF9.472781570060704
aF-171.27522610161603
asS'target_pos'
p5
(lp6
F0.05928192287683487
aF0.016383705660700798
aF-0.1682281196117401
asS'target_rot'
p7
(lp8
F45.0
aF7.5
aF-166.25
asS'center_target_pixels'
p9
(I882
I128
tp10
sS'center_actual_pixels'
p11
(I892
I110
tp12
s.(dp0
S'actual_pos'
p1
(lp2
F0.04135076855711073
aF0.01511597370101223
aF-0.16682468926879832
asS'actual_rot'
p3
(lp4
F44.61004125337329
aF11.31490089035801
aF-171.12081169794084
asS'target_pos'
p5
(lp6
F0.042452581226825714
aF0.015044104307889938
aF-0.16726207733154297
asS'target_rot'
p7
(lp8
F45.0
aF7.5
aF-166.25
asS'center_target_pixels'
p9
(I1061
I138
tp10
sS'center_actual_pixels'
p11
(I1078
I121
tp12
s.(dp0
S'actual_pos'
p1
(lp2
F0.025736954121593433
aF0.013988221637115852
aF-0.16385234026022577
asS'actual_rot'
p3
(lp4
F44.79849756360483
aF12.334599022135526
aF-170.95311312261538
asS'target_pos'
p5
(lp6
F0.026757914572954178
aF0.014134720899164677
aF-0.16417261958122253
asS'target_rot'
p7
(lp8
F45.0
aF7.5
aF-166.25
asS'center_target_pixels'
p9
(I1237
I148
tp10
sS'center_actual_pixels'
p11
(I1256
I128
tp12
s.(dp0
S'actual_pos'
p1
(lp2
F0.06633867521094215
aF0.0255789984576355
aF-0.16873492200135173
asS'actual_rot'
p3
(lp4
F45.017163462890906
aF7.899258421635311
aF-171.2477814790379
asS'target_pos'
p5
(lp6
F0.06714487075805664
aF0.025272341445088387
aF-0.168913334608078
asS'target_rot'
p7
(lp8
F45.0
aF7.5
aF-166.25
asS'center_target_pixels'
p9
(I787
I212
tp10
sS'center_actual_pixels'
p11
(I778
I195
tp12
s.(dp0
S'actual_pos'
p1
(lp2
F0.049324731272954864
aF0.02332253312118996
aF-0.16717804023382596
asS'actual_rot'
p3
(lp4
F44.83886326599591
aF9.331255583027682
aF-170.94195998943226
asS'target_pos'
p5
(lp6
F0.05013304948806763
aF0.023286208510398865
aF-0.16741010546684265
asS'target_rot'
p7
(lp8
F45.0
aF7.5
aF-166.25
asS'center_target_pixels'
p9
(I967
I222
tp10
sS'center_actual_pixels'
p11
(I977
I203
tp12
s.(dp0
S'actual_pos'
p1
(lp2
F0.03285070469468752
aF0.022565662097114206
aF-0.1648966788585004
asS'actual_rot'
p3
(lp4
F44.87969569155597
aF10.929675603785803
aF-170.614381839901
asS'target_pos'
p5
(lp6
F0.03376862406730652
aF0.022742904722690582
aF-0.1650882065296173
asS'target_rot'
p7
(lp8
F45.0
aF7.5
aF-166.25
asS'center_target_pixels'
p9
(I1145
I231
tp10
sS'center_actual_pixels'
p11
(I1164
I215
tp12
s.(dp0
S'actual_pos'
p1
(lp2
F0.01676259008215522
aF0.021184105965963262
aF-0.16327949881342319
asS'actual_rot'
p3
(lp4
F45.11824171879411
aF12.349727902805267
aF-170.66885005188527
asS'target_pos'
p5
(lp6
F0.017725111916661263
aF0.021551337093114853
aF-0.1636362075805664
asS'target_rot'
p7
(lp8
F45.0
aF7.5
aF-166.25
asS'center_target_pixels'
p9
(I1320
I242
tp10
sS'center_actual_pixels'
p11
(I1347
I218
tp12
s.(dp0
S'actual_pos'
p1
(lp2
F0.07323382511455762
aF0.03612041243893463
aF-0.16967517567348422
asS'actual_rot'
p3
(lp4
F45.1129623096161
aF7.575685451616998
aF-170.94567650204303
asS'target_pos'
p5
(lp6
F0.07415646314620972
aF0.0355696864426136
aF-0.170011505484581
asS'target_rot'
p7
(lp8
F45.0
aF7.5
aF-166.25
asS'center_target_pixels'
p9
(I692
I296
tp10
sS'center_actual_pixels'
p11
(I685
I311
tp12
s.(dp0
S'actual_pos'
p1
(lp2
F0.05832359148880011
aF0.03448231798579623
aF-0.16876246581513887
asS'actual_rot'
p3
(lp4
F45.07470402645641
aF7.670784176134798
aF-170.36615490010206
asS'target_pos'
p5
(lp6
F0.0590444952249527
aF0.03391661122441292
aF-0.16936051845550537
asS'target_rot'
p7
(lp8
F45.0
aF7.5
aF-166.25
asS'center_target_pixels'
p9
(I873
I306
tp10
sS'center_actual_pixels'
p11
(I859
I317
tp12
s.(dp0
S'actual_pos'
p1
(lp2
F0.03946732716446908
aF0.0318418464932717
aF-0.1663832304197314
asS'actual_rot'
p3
(lp4
F45.01488464288897
aF9.130076536941125
aF-170.34585080969714
asS'target_pos'
p5
(lp6
F0.04028373584151268
aF0.031597431749105453
aF-0.1667226254940033
asS'target_rot'
p7
(lp8
F45.0
aF7.5
aF-166.25
asS'center_target_pixels'
p9
(I1051
I315
tp10
sS'center_actual_pixels'
p11
(I1066
I302
tp12
s.(dp0
S'actual_pos'
p1
(lp2
F0.023523208777066155
aF0.030155367581513902
aF-0.1645151211790129
asS'actual_rot'
p3
(lp4
F45.125192335678754
aF10.617068053980672
aF-170.06137917578306
asS'target_pos'
p5
(lp6
F0.02427777647972107
aF0.030297275632619858
aF-0.16480323672294617
asS'target_rot'
p7
(lp8
F45.0
aF7.5
aF-166.25
asS'center_target_pixels'
p9
(I1228
I325
tp10
sS'center_actual_pixels'
p11
(I1249
I304
tp12
s.(dp0
S'actual_pos'
p1
(lp2
F0.008511558923179084
aF0.02864082283311307
aF-0.16258654981512075
asS'actual_rot'
p3
(lp4
F45.45389893660365
aF12.215965690519905
aF-169.1933407953934
asS'target_pos'
p5
(lp6
F0.009436609223484993
aF0.029018495231866837
aF-0.1629481017589569
asS'target_rot'
p7
(lp8
F45.0
aF7.5
aF-166.25
asS'center_target_pixels'
p9
(I1404
I333
tp10
sS'center_actual_pixels'
p11
(I1425
I313
tp12
s.(dp0
S'actual_pos'
p1
(lp2
F0.0657703749540137
aF0.04289231052757482
aF-0.16912457256462413
asS'actual_rot'
p3
(lp4
F45.10301254041883
aF7.5775229870332055
aF-170.28902790632554
asS'target_pos'
p5
(lp6
F0.06662748008966446
aF0.042354222387075424
aF-0.16956989467144012
asS'target_rot'
p7
(lp8
F45.0
aF7.5
aF-166.25
asS'center_target_pixels'
p9
(I779
I390
tp10
sS'center_actual_pixels'
p11
(I765
I401
tp12
s.(dp0
S'actual_pos'
p1
(lp2
F0.04808745323208871
aF0.04153468933325813
aF-0.1673138440389594
asS'actual_rot'
p3
(lp4
F45.065271948674976
aF7.6304148352637835
aF-169.83695518582095
asS'target_pos'
p5
(lp6
F0.04883107542991638
aF0.04108932614326477
aF-0.16766703128814697
asS'target_rot'
p7
(lp8
F45.0
aF7.5
aF-166.25
asS'center_target_pixels'
p9
(I958
I399
tp10
sS'center_actual_pixels'
p11
(I959
I406
tp12
s.(dp0
S'actual_pos'
p1
(lp2
F0.03150292601617076
aF0.039165589985613335
aF-0.16536965870756426
asS'actual_rot'
p3
(lp4
F45.07386927749527
aF8.604917341427246
aF-169.15757304485334
asS'target_pos'
p5
(lp6
F0.032144058495759964
aF0.03893425315618515
aF-0.1656598448753357
asS'target_rot'
p7
(lp8
F45.0
aF7.5
aF-166.25
asS'center_target_pixels'
p9
(I1136
I408
tp10
sS'center_actual_pixels'
p11
(I1146
I398
tp12
s.(dp0
S'actual_pos'
p1
(lp2
F0.015467132595795302
aF0.037135562326337516
aF-0.16338495503617878
asS'actual_rot'
p3
(lp4
F45.25226695936207
aF9.656058867444305
aF-168.5724409652637
asS'target_pos'
p5
(lp6
F0.016101188957691193
aF0.03708213195204735
aF-0.16371804475784302
asS'target_rot'
p7
(lp8
F45.0
aF7.5
aF-166.25
asS'center_target_pixels'
p9
(I1312
I416
tp10
sS'center_actual_pixels'
p11
(I1332
I397
tp12
s.(dp0
S'actual_pos'
p1
(lp2
F0.07378329589865903
aF0.05140959714220873
aF-0.16952273736873313
asS'actual_rot'
p3
(lp4
F45.14543873157733
aF6.951497133344196
aF-169.51416125680512
asS'target_pos'
p5
(lp6
F0.07461953163146973
aF0.051055703312158585
aF-0.1697472184896469
asS'target_rot'
p7
(lp8
F45.0
aF7.5
aF-166.25
asS'center_target_pixels'
p9
(I684
I475
tp10
sS'center_actual_pixels'
p11
(I662
I469
tp12
s.(dp0
S'actual_pos'
p1
(lp2
F0.05656800892834507
aF0.050051367419016494
aF-0.16845324463993408
asS'actual_rot'
p3
(lp4
F45.102330500064376
aF7.272375835700223
aF-168.67039704533053
asS'target_pos'
p5
(lp6
F0.05732224881649017
aF0.04972803220152855
aF-0.16886210441589355
asS'target_rot'
p7
(lp8
F45.0
aF7.5
aF-166.25
asS'center_target_pixels'
p9
(I864
I483
tp10
sS'center_actual_pixels'
p11
(I853
I492
tp12
s.(dp0
S'actual_pos'
p1
(lp2
F0.03970292774421496
aF0.048181253764601036
aF-0.1659749121470971
asS'actual_rot'
p3
(lp4
F45.036969302994756
aF7.195538785379575
aF-168.10980749165867
asS'target_pos'
p5
(lp6
F0.040250182151794434
aF0.04791758209466934
aF-0.16617757081985474
asS'target_rot'
p7
(lp8
F45.0
aF7.5
aF-166.25
asS'center_target_pixels'
p9
(I1043
I492
tp10
sS'center_actual_pixels'
p11
(I1048
I485
tp12
s.(dp0
S'actual_pos'
p1
(lp2
F0.02374093016654182
aF0.04590462572827167
aF-0.16392071233742123
asS'actual_rot'
p3
(lp4
F45.099179606652335
aF8.054854590885359
aF-167.36210352740355
asS'target_pos'
p5
(lp6
F0.0242256261408329
aF0.04571628198027611
aF-0.16418635845184326
asS'target_rot'
p7
(lp8
F45.0
aF7.5
aF-166.25
asS'center_target_pixels'
p9
(I1220
I500
tp10
sS'center_actual_pixels'
p11
(I1229
I484
tp12
s.(dp0
S'actual_pos'
p1
(lp2
F0.007444946449872262
aF0.04554753812406393
aF-0.16170465764365768
asS'actual_rot'
p3
(lp4
F45.29898145574674
aF9.036031316212522
aF-166.04873338875612
asS'target_pos'
p5
(lp6
F0.008038642816245556
aF0.045481812208890915
aF-0.16203054785728455
asS'target_rot'
p7
(lp8
F45.0
aF7.5
aF-166.25
asS'center_target_pixels'
p9
(I1396
I508
tp10
sS'center_actual_pixels'
p11
(I1419
I495
tp12
s.(dp0
S'actual_pos'
p1
(lp2
F0.06450622073309652
aF0.05866606100919738
aF-0.1687600079223231
asS'actual_rot'
p3
(lp4
F45.101520658906566
aF5.802342391349298
aF-167.63139278779528
asS'target_pos'
p5
(lp6
F0.06506582349538803
aF0.05839327350258827
aF-0.16899365186691284
asS'target_rot'
p7
(lp8
F45.0
aF7.5
aF-166.25
asS'center_target_pixels'
p9
(I770
I568
tp10
sS'center_actual_pixels'
p11
(I749
I561
tp12
s.(dp0
S'actual_pos'
p1
(lp2
F0.047783503737543566
aF0.0570194152440118
aF-0.16698828763173823
asS'actual_rot'
p3
(lp4
F44.95240031166161
aF5.744054838836992
aF-166.83148278062234
asS'target_pos'
p5
(lp6
F0.04824122413992882
aF0.05673716589808464
aF-0.1671465039253235
asS'target_rot'
p7
(lp8
F45.0
aF7.5
aF-166.25
asS'center_target_pixels'
p9
(I950
I576
tp10
sS'center_actual_pixels'
p11
(I942
I571
tp12
s.(dp0
S'actual_pos'
p1
(lp2
F0.03127346787366104
aF0.055083600695451394
aF-0.1641362467034355
asS'actual_rot'
p3
(lp4
F44.88191959813541
aF6.161968464229847
aF-166.11033646445352
asS'target_pos'
p5
(lp6
F0.031635671854019165
aF0.05484936013817787
aF-0.16432185471057892
asS'target_rot'
p7
(lp8
F45.0
aF7.5
aF-166.25
asS'center_target_pixels'
p9
(I1128
I584
tp10
sS'center_actual_pixels'
p11
(I1126
I572
tp12
s.(dp0
S'actual_pos'
p1
(lp2
F0.013491751862982663
aF0.05299714306904387
aF-0.1611985602229244
asS'actual_rot'
p3
(lp4
F44.94356271619643
aF7.13281108268082
aF-165.13011510564021
asS'target_pos'
p5
(lp6
F0.0138931293040514
aF0.05284716933965683
aF-0.1614697128534317
asS'target_rot'
p7
(lp8
F45.0
aF7.5
aF-166.25
asS'center_target_pixels'
p9
(I1303
I591
tp10
sS'center_actual_pixels'
p11
(I1335
I576
tp12
s.(dp0
S'actual_pos'
p1
(lp2
F0.07218016080378639
aF0.06764440701038295
aF-0.16889045667900582
asS'actual_rot'
p3
(lp4
F45.09728623404917
aF4.536902702023045
aF-166.33812305454725
asS'target_pos'
p5
(lp6
F0.07262744754552841
aF0.06735673546791077
aF-0.16895663738250732
asS'target_rot'
p7
(lp8
F45.0
aF7.5
aF-166.25
asS'center_target_pixels'
p9
(I675
I653
tp10
sS'center_actual_pixels'
p11
(I659
I651
tp12
s.(dp0
S'actual_pos'
p1
(lp2
F0.05639806823830513
aF0.06585901010381638
aF-0.16728448891172387
asS'actual_rot'
p3
(lp4
F44.87891565127006
aF4.053578213554007
aF-165.98263079328018
asS'target_pos'
p5
(lp6
F0.05669306218624115
aF0.0654599666595459
aF-0.16727688908576965
asS'target_rot'
p7
(lp8
F45.0
aF7.5
aF-166.25
asS'center_target_pixels'
p9
(I856
I660
tp10
sS'center_actual_pixels'
p11
(I835
I660
tp12
s.(dp0
S'actual_pos'
p1
(lp2
F0.03957012180386387
aF0.06426732094452195
aF-0.16525873152054726
asS'actual_rot'
p3
(lp4
F44.6233416801249
aF4.042399104807709
aF-165.253464712109
asS'target_pos'
p5
(lp6
F0.039726726710796356
aF0.06386329978704453
aF-0.16526108980178833
asS'target_rot'
p7
(lp8
F45.0
aF7.5
aF-166.25
asS'center_target_pixels'
p9
(I1035
I668
tp10
sS'center_actual_pixels'
p11
(I1018
I668
tp12
s.(dp0
S'actual_pos'
p1
(lp2
F0.022871943638904046
aF0.062056075802401876
aF-0.1627957782895512
asS'actual_rot'
p3
(lp4
F44.62673272956291
aF5.305066603152334
aF-163.89121010106498
asS'target_pos'
p5
(lp6
F0.022995535284280777
aF0.06177877262234688
aF-0.16294953227043152
asS'target_rot'
p7
(lp8
F45.0
aF7.5
aF-166.25
asS'center_target_pixels'
p9
(I1211
I675
tp10
sS'center_actual_pixels'
p11
(I1214
I662
tp12
s.(dp0
S'actual_pos'
p1
(lp2
F0.0060355913241768805
aF0.0610731852628514
aF-0.15984032829403708
asS'actual_rot'
p3
(lp4
F44.74849551678387
aF6.525116762091651
aF-162.34025744145944
asS'target_pos'
p5
(lp6
F0.00629847589880228
aF0.06089971587061882
aF-0.15985959768295288
asS'target_rot'
p7
(lp8
F45.0
aF7.5
aF-166.25
asS'center_target_pixels'
p9
(I1387
I683
tp10
sS'center_actual_pixels'
p11
(I1407
I672
tp12
s.(dp0
S'actual_pos'
p1
(lp2
F0.06448578711512748
aF0.07415325807019653
aF-0.1685083316831027
asS'actual_rot'
p3
(lp4
F44.68594600918054
aF2.8262396500891533
aF-164.94446127619779
asS'target_pos'
p5
(lp6
F0.06446094810962677
aF0.07442224025726318
aF-0.1681702882051468
asS'target_rot'
p7
(lp8
F45.0
aF7.5
aF-166.25
asS'center_target_pixels'
p9
(I761
I746
tp10
sS'center_actual_pixels'
p11
(I734
I745
tp12
s.(dp0
S'actual_pos'
p1
(lp2
F0.04777998234067937
aF0.0720620489043423
aF-0.16690913415093908
asS'actual_rot'
p3
(lp4
F44.36205550429199
aF2.8158010980272836
aF-164.22300287322813
asS'target_pos'
p5
(lp6
F0.04780316725373268
aF0.0724460631608963
aF-0.16664862632751465
asS'target_rot'
p7
(lp8
F45.0
aF7.5
aF-166.25
asS'center_target_pixels'
p9
(I941
I752
tp10
sS'center_actual_pixels'
p11
(I917
I744
tp12
s.(dp0
S'actual_pos'
p1
(lp2
F0.030437333121886588
aF0.06971777544535963
aF-0.16469705614298089
asS'actual_rot'
p3
(lp4
F44.183377398324055
aF3.691124045253501
aF-163.14722924414826
asS'target_pos'
p5
(lp6
F0.030509332194924355
aF0.0701819360256195
aF-0.16446667909622192
asS'target_rot'
p7
(lp8
F45.0
aF7.5
aF-166.25
asS'center_target_pixels'
p9
(I1119
I760
tp10
sS'center_actual_pixels'
p11
(I1110
I742
tp12
s.(dp0
S'actual_pos'
p1
(lp2
F0.012369274037364111
aF0.06807549619634286
aF-0.16052400560309543
asS'actual_rot'
p3
(lp4
F44.12735359163841
aF4.528707857089608
aF-161.82090967179695
asS'target_pos'
p5
(lp6
F0.012369190342724323
aF0.06853830814361572
aF-0.16033394634723663
asS'target_rot'
p7
(lp8
F45.0
aF7.5
aF-166.25
asS'center_target_pixels'
p9
(I1295
I767
tp10
sS'center_actual_pixels'
p11
(I1328
I746
tp12
s.