(dp0
S'actual_pos'
p1
(lp2
F0.07392384826755874
aF0.015698338933834544
aF-0.1692846863590131
asS'actual_rot'
p3
(lp4
F87.27322110801201
aF15.885598884062231
aF-172.2560318747544
asS'target_pos'
p5
(lp6
F0.07478421181440353
aF0.01612662523984909
aF-0.16970551013946533
asS'target_rot'
p7
(lp8
F90.0
aF10.0
aF-165.0
asS'center_target_pixels'
p9
(I701
I116
tp10
sS'center_actual_pixels'
p11
(I722
I67
tp12
s.(dp0
S'actual_pos'
p1
(lp2
F0.059968557369450726
aF0.014654083117664751
aF-0.16822843630114187
asS'actual_rot'
p3
(lp4
F87.90766865339658
aF15.506723459583775
aF-171.3050594207412
asS'target_pos'
p5
(lp6
F0.06076180189847946
aF0.014989432878792286
aF-0.16872131824493408
asS'target_rot'
p7
(lp8
F90.0
aF10.0
aF-165.0
asS'center_target_pixels'
p9
(I882
I128
tp10
sS'center_actual_pixels'
p11
(I889
I88
tp12
s.(dp0
S'actual_pos'
p1
(lp2
F0.04269887738396085
aF0.01362678768208256
aF-0.16680194593317013
asS'actual_rot'
p3
(lp4
F88.53984511282437
aF15.375104994705257
aF-170.55564202802094
asS'target_pos'
p5
(lp6
F0.04331222549080849
aF0.014008802361786366
aF-0.16730210185050964
asS'target_rot'
p7
(lp8
F90.0
aF10.0
aF-165.0
asS'center_target_pixels'
p9
(I1061
I138
tp10
sS'center_actual_pixels'
p11
(I1073
I109
tp12
s.(dp0
S'actual_pos'
p1
(lp2
F0.02718220283385473
aF0.012641641775053992
aF-0.16392353554890032
asS'actual_rot'
p3
(lp4
F89.12157509750563
aF15.108180780519968
aF-169.24757610611033
asS'target_pos'
p5
(lp6
F0.027710899710655212
aF0.012946395203471184
aF-0.16433003544807434
asS'target_rot'
p7
(lp8
F90.0
aF10.0
aF-165.0
asS'center_target_pixels'
p9
(I1238
I148
tp10
sS'center_actual_pixels'
p11
(I1256
I116
tp12
s.(dp0
S'actual_pos'
p1
(lp2
F0.06695093429420593
aF0.023346856110503016
aF-0.16890420849387636
asS'actual_rot'
p3
(lp4
F87.71593893883454
aF15.379580441847423
aF-171.5878739823259
asS'target_pos'
p5
(lp6
F0.06757258623838425
aF0.023904550820589066
aF-0.16945084929466248
asS'target_rot'
p7
(lp8
F90.0
aF10.0
aF-165.0
asS'center_target_pixels'
p9
(I788
I212
tp10
sS'center_actual_pixels'
p11
(I799
I171
tp12
s.(dp0
S'actual_pos'
p1
(lp2
F0.05076159807484266
aF0.021725906643200496
aF-0.16773444949189925
asS'actual_rot'
p3
(lp4
F88.31570050784404
aF15.238860544184817
aF-170.82639311928116
asS'target_pos'
p5
(lp6
F0.05139164626598358
aF0.022182989865541458
aF-0.16836318373680115
asS'target_rot'
p7
(lp8
F90.0
aF10.0
aF-165.0
asS'center_target_pixels'
p9
(I968
I223
tp10
sS'center_actual_pixels'
p11
(I978
I182
tp12
s.(dp0
S'actual_pos'
p1
(lp2
F0.03427897235730998
aF0.021675016472619983
aF-0.16511672177568357
asS'actual_rot'
p3
(lp4
F88.91291882446173
aF14.991736803003745
aF-169.8853912069176
asS'target_pos'
p5
(lp6
F0.034853048622608185
aF0.02222846820950508
aF-0.16547396779060364
asS'target_rot'
p7
(lp8
F90.0
aF10.0
aF-165.0
asS'center_target_pixels'
p9
(I1145
I233
tp10
sS'center_actual_pixels'
p11
(I1162
I204
tp12
s.(dp0
S'actual_pos'
p1
(lp2
F0.017864717040709143
aF0.02058279297936237
aF-0.16291990893956984
asS'actual_rot'
p3
(lp4
F89.4565612520465
aF14.745126417266887
aF-167.37570257543865
asS'target_pos'
p5
(lp6
F0.0183037631213665
aF0.021209482103586197
aF-0.16330508887767792
asS'target_rot'
p7
(lp8
F90.0
aF10.0
aF-165.0
asS'center_target_pixels'
p9
(I1321
I242
tp10
sS'center_actual_pixels'
p11
(I1340
I215
tp12
s.(dp0
S'actual_pos'
p1
(lp2
F0.0736369585232035
aF0.033498317259382474
aF-0.16868506818141768
asS'actual_rot'
p3
(lp4
F87.59100373226467
aF15.13360600916105
aF-171.61995983813375
asS'target_pos'
p5
(lp6
F0.0745600163936615
aF0.03396787494421005
aF-0.169050395488739
asS'target_rot'
p7
(lp8
F90.0
aF10.0
aF-165.0
asS'center_target_pixels'
p9
(I693
I296
tp10
sS'center_actual_pixels'
p11
(I708
I276
tp12
s.(dp0
S'actual_pos'
p1
(lp2
F0.05789550234070917
aF0.031553746292842265
aF-0.16849274363434838
asS'actual_rot'
p3
(lp4
F88.16548815848081
aF14.950873212097731
aF-170.91141544274743
asS'target_pos'
p5
(lp6
F0.058676064014434814
aF0.031851671636104584
aF-0.1691945493221283
asS'target_rot'
p7
(lp8
F90.0
aF10.0
aF-165.0
asS'center_target_pixels'
p9
(I873
I306
tp10
sS'center_actual_pixels'
p11
(I888
I285
tp12
s.(dp0
S'actual_pos'
p1
(lp2
F0.040982207097608386
aF0.029909136606887918
aF-0.16648452390572768
asS'actual_rot'
p3
(lp4
F88.7762042860056
aF14.673187240803996
aF-170.09059710404722
asS'target_pos'
p5
(lp6
F0.04153575003147125
aF0.030366379767656326
aF-0.1669544279575348
asS'target_rot'
p7
(lp8
F90.0
aF10.0
aF-165.0
asS'center_target_pixels'
p9
(I1053
I316
tp10
sS'center_actual_pixels'
p11
(I1065
I293
tp12
s.(dp0
S'actual_pos'
p1
(lp2
F0.02463992931127741
aF0.029059044192827743
aF-0.16422955924621138
asS'actual_rot'
p3
(lp4
F89.37806060216985
aF13.89973978296671
aF-168.16965212543076
asS'target_pos'
p5
(lp6
F0.025159619748592377
aF0.02928287163376808
aF-0.16464725136756897
asS'target_rot'
p7
(lp8
F90.0
aF10.0
aF-165.0
asS'center_target_pixels'
p9
(I1229
I325
tp10
sS'center_actual_pixels'
p11
(I1250
I305
tp12
s.(dp0
S'actual_pos'
p1
(lp2
F0.009371348855879653
aF0.028798555510699365
aF-0.16246625738287954
asS'actual_rot'
p3
(lp4
F89.87356172917484
aF12.415423466654437
aF-164.87909170987194
asS'target_pos'
p5
(lp6
F0.009804898872971535
aF0.02882625162601471
aF-0.16285440325737
asS'target_rot'
p7
(lp8
F90.0
aF10.0
aF-165.0
asS'center_target_pixels'
p9
(I1404
I334
tp10
sS'center_actual_pixels'
p11
(I1430
I321
tp12
s.(dp0
S'actual_pos'
p1
(lp2
F0.06584582671222412
aF0.04168595053416358
aF-0.16864832620005088
asS'actual_rot'
p3
(lp4
F88.4118570163411
aF13.763012286478741
aF-171.26284008045906
asS'target_pos'
p5
(lp6
F0.0666666254401207
aF0.04179057106375694
aF-0.16922330856323242
asS'target_rot'
p7
(lp8
F90.0
aF10.0
aF-165.0
asS'center_target_pixels'
p9
(I779
I390
tp10
sS'center_actual_pixels'
p11
(I777
I386
tp12
s.(dp0
S'actual_pos'
p1
(lp2
F0.04874874103049059
aF0.039712332764427705
aF-0.16725681239041287
asS'actual_rot'
p3
(lp4
F88.85854394942172
aF13.656099552682598
aF-170.48274300570316
asS'target_pos'
p5
(lp6
F0.04950041323900223
aF0.03980380669236183
aF-0.16783548891544342
asS'target_rot'
p7
(lp8
F90.0
aF10.0
aF-165.0
asS'center_target_pixels'
p9
(I958
I399
tp10
sS'center_actual_pixels'
p11
(I969
I388
tp12
s.(dp0
S'actual_pos'
p1
(lp2
F0.032254665231243554
aF0.03838590512219777
aF-0.16520281447963694
asS'actual_rot'
p3
(lp4
F89.33283161828307
aF13.248802309140649
aF-168.76568165829266
asS'target_pos'
p5
(lp6
F0.03277219086885452
aF0.03858447074890137
aF-0.1655901074409485
asS'target_rot'
p7
(lp8
F90.0
aF10.0
aF-165.0
asS'center_target_pixels'
p9
(I1136
I408
tp10
sS'center_actual_pixels'
p11
(I1150
I399
tp12
s.(dp0
S'actual_pos'
p1
(lp2
F0.01535846855772294
aF0.03661324079351316
aF-0.1634481972347893
asS'actual_rot'
p3
(lp4
F89.83230252933468
aF11.72591812003433
aF-165.40359802675607
asS'target_pos'
p5
(lp6
F0.01584695652127266
aF0.036451566964387894
aF-0.16383680701255798
asS'target_rot'
p7
(lp8
F90.0
aF10.0
aF-165.0
asS'center_target_pixels'
p9
(I1313
I417
tp10
sS'center_actual_pixels'
p11
(I1343
I398
tp12
s.(dp0
S'actual_pos'
p1
(lp2
F0.07392383173490207
aF0.050313303892867145
aF-0.16904026829731186
asS'actual_rot'
p3
(lp4
F88.73494649446573
aF12.682153827974272
aF-171.63954962347913
asS'target_pos'
p5
(lp6
F0.07468721270561218
aF0.05052201822400093
aF-0.16938874125480652
asS'target_rot'
p7
(lp8
F90.0
aF10.0
aF-165.0
asS'center_target_pixels'
p9
(I684
I475
tp10
sS'center_actual_pixels'
p11
(I675
I464
tp12
s.(dp0
S'actual_pos'
p1
(lp2
F0.05670190110276909
aF0.04897050896558868
aF-0.16806251991609145
asS'actual_rot'
p3
(lp4
F89.21244877482359
aF12.193665936498855
aF-170.66576758917262
asS'target_pos'
p5
(lp6
F0.05754648149013519
aF0.04898648336529732
aF-0.16863898932933807
asS'target_rot'
p7
(lp8
F90.0
aF10.0
aF-165.0
asS'center_target_pixels'
p9
(I865
I483
tp10
sS'center_actual_pixels'
p11
(I873
I479
tp12
s.(dp0
S'actual_pos'
p1
(lp2
F0.0392711534109993
aF0.04789153423345308
aF-0.1657650160051968
asS'actual_rot'
p3
(lp4
F89.6347185666624
aF11.543495391144278
aF-169.42043052879504
asS'target_pos'
p5
(lp6
F0.03999321162700653
aF0.04795533046126366
aF-0.16603964567184448
asS'target_rot'
p7
(lp8
F90.0
aF10.0
aF-165.0
asS'center_target_pixels'
p9
(I1044
I492
tp10
sS'center_actual_pixels'
p11
(I1065
I493
tp12
s.(dp0
S'actual_pos'
p1
(lp2
F0.024550550413093154
aF0.04626673848464611
aF-0.16381109630224489
asS'actual_rot'
p3
(lp4
F89.83133887082141
aF11.168698810000974
aF-166.63158855354106
asS'target_pos'
p5
(lp6
F0.02506241574883461
aF0.046259935945272446
aF-0.16411906480789185
asS'target_rot'
p7
(lp8
F90.0
aF10.0
aF-165.0
asS'center_target_pixels'
p9
(I1220
I500
tp10
sS'center_actual_pixels'
p11
(I1229
I496
tp12
s.(dp0
S'actual_pos'
p1
(lp2
F0.007665099592835036
aF0.04442912284209795
aF-0.16182533752023154
asS'actual_rot'
p3
(lp4
F90.03529822269067
aF9.814780195500534
aF-163.16159599749537
asS'target_pos'
p5
(lp6
F0.008033200167119503
aF0.044347818940877914
aF-0.16206005215644836
asS'target_rot'
p7
(lp8
F90.0
aF10.0
aF-165.0
asS'center_target_pixels'
p9
(I1396
I508
tp10
sS'center_actual_pixels'
p11
(I1419
I494
tp12
s.(dp0
S'actual_pos'
p1
(lp2
F0.0641900956645044
aF0.05786352960592675
aF-0.16848932634759878
asS'actual_rot'
p3
(lp4
F89.54979044131821
aF11.098323316968292
aF-170.75573378559898
asS'target_pos'
p5
(lp6
F0.06484797596931458
aF0.05793412774801254
aF-0.16888630390167236
asS'target_rot'
p7
(lp8
F90.0
aF10.0
aF-165.0
asS'center_target_pixels'
p9
(I771
I568
tp10
sS'center_actual_pixels'
p11
(I773
I569
tp12
s.(dp0
S'actual_pos'
p1
(lp2
F0.04746070799498617
aF0.05670850014579383
aF-0.16668531045597268
asS'actual_rot'
p3
(lp4
F89.84941586618723
aF10.572287815390471
aF-170.1062291668569
asS'target_pos'
p5
(lp6
F0.048076026141643524
aF0.056735292077064514
aF-0.16692465543746948
asS'target_rot'
p7
(lp8
F90.0
aF10.0
aF-165.0
asS'center_target_pixels'
p9
(I950
I576
tp10
sS'center_actual_pixels'
p11
(I956
I579
tp12
s.(dp0
S'actual_pos'
p1
(lp2
F0.031753262603863255
aF0.05475580447784489
aF-0.16411506326651407
asS'actual_rot'
p3
(lp4
F89.96944877147436
aF10.161061968391385
aF-168.08426282599407
asS'target_pos'
p5
(lp6
F0.03224214166402817
aF0.05473937466740608
aF-0.16436022520065308
asS'target_rot'
p7
(lp8
F90.0
aF10.0
aF-165.0
asS'center_target_pixels'
p9
(I1128
I584
tp10
sS'center_actual_pixels'
p11
(I1138
I578
tp12
s.(dp0
S'actual_pos'
p1
(lp2
F0.013531554199750254
aF0.05315203284689296
aF-0.16137670989090971
asS'actual_rot'
p3
(lp4
F90.0794119810377
aF9.34818121426048
aF-164.0472325171981
asS'target_pos'
p5
(lp6
F0.01401021983474493
aF0.05295063182711601
aF-0.16160422563552856
asS'target_rot'
p7
(lp8
F90.0
aF10.0
aF-165.0
asS'center_target_pixels'
p9
(I1304
I592
tp10
sS'center_actual_pixels'
p11
(I1346
I588
tp12
s.(dp0
S'actual_pos'
p1
(lp2
F0.07223313785844768
aF0.06688080162395243
aF-0.16835554120395346
asS'actual_rot'
p3
(lp4
F89.73044127946122
aF10.618270113339648
aF-171.22439873382564
asS'target_pos'
p5
(lp6
F0.0730246976017952
aF0.06699791550636292
aF-0.1685093641281128
asS'target_rot'
p7
(lp8
F90.0
aF10.0
aF-165.0
asS'center_target_pixels'
p9
(I675
I653
tp10
sS'center_actual_pixels'
p11
(I672
I655
tp12
s.(dp0
S'actual_pos'
p1
(lp2
F0.05542958774736052
aF0.06563988493773326
aF-0.16664641984412573
asS'actual_rot'
p3
(lp4
F90.01252394016406
aF10.062418247266109
aF-170.42338707135963
asS'target_pos'
p5
(lp6
F0.05621308088302612
aF0.06566044688224792
aF-0.1667863428592682
asS'target_rot'
p7
(lp8
F90.0
aF10.0
aF-165.0
asS'center_target_pixels'
p9
(I856
I660
tp10
sS'center_actual_pixels'
p11
(I861
I666
tp12
s.(dp0
S'actual_pos'
p1
(lp2
F0.039751726337058584
aF0.0635931813359636
aF-0.1650250564686578
asS'actual_rot'
p3
(lp4
F89.99927799840306
aF10.04788050532013
aF-169.15000907465392
asS'target_pos'
p5
(lp6
F0.040336936712265015
aF0.06359659880399704
aF-0.16521796584129333
asS'target_rot'
p7
(lp8
F90.0
aF10.0
aF-165.0
asS'center_target_pixels'
p9
(I1035
I668
tp10
sS'center_actual_pixels'
p11
(I1032
I665
tp12
s.(dp0
S'actual_pos'
p1
(lp2
F0.023761278689116965
aF0.062135849792996654
aF-0.1626828628362707
asS'actual_rot'
p3
(lp4
F90.16024289394863
aF9.167385418932772
aF-165.75087618722944
asS'target_pos'
p5
(lp6
F0.02421390637755394
aF0.06199955195188522
aF-0.16285096108913422
asS'target_rot'
p7
(lp8
F90.0
aF10.0
aF-165.0
asS'center_target_pixels'
p9
(I1211
I676
tp10
sS'center_actual_pixels'
p11
(I1216
I673
tp12
s.(dp0
S'actual_pos'
p1
(lp2
F0.005662635972690718
aF0.060703727486232616
aF-0.15953655362186916
asS'actual_rot'
p3
(lp4
F90.1150356639118
aF7.707219079213846
aF-161.16633804156197
asS'target_pos'
p5
(lp6
F0.006086212582886219
aF0.06033611670136452
aF-0.15977713465690613
asS'target_rot'
p7
(lp8
F90.0
aF10.0
aF-165.0
asS'center_target_pixels'
p9
(I1387
I683
tp10
sS'center_actual_pixels'
p11
(I1422
I680
tp12
s.(dp0
S'actual_pos'
p1
(lp2
F0.0627551060607491
aF0.07358905444416004
aF-0.167681143052046
asS'actual_rot'
p3
(lp4
F89.92533173764822
aF10.282316745500927
aF-170.8460807654118
asS'target_pos'
p5
(lp6
F0.0634622797369957
aF0.07424772530794144
aF-0.16763775050640106
asS'target_rot'
p7
(lp8
F90.0
aF10.0
aF-165.0
asS'center_target_pixels'
p9
(I762
I746
tp10
sS'center_actual_pixels'
p11
(I771
I744
tp12
s.(dp0
S'actual_pos'
p1
(lp2
F0.04771753681305527
aF0.07141896370256294
aF-0.16660113300163618
asS'actual_rot'
p3
(lp4
F89.88518106230785
aF10.422690705597697
aF-169.97535603144237
asS'target_pos'
p5
(lp6
F0.04817185923457146
aF0.07220828533172607
aF-0.16635166108608246
asS'target_rot'
p7
(lp8
F90.0
aF10.0
aF-165.0
asS'center_target_pixels'
p9
(I941
I753
tp10
sS'center_actual_pixels'
p11
(I932
I744
tp12
s.(dp0
S'actual_pos'
p1
(lp2
F0.03157047275983058
aF0.06976321933733477
aF-0.16441984794863984
asS'actual_rot'
p3
(lp4
F90.13614749642105
aF9.49585568887097
aF-166.7513056667236
asS'target_pos'
p5
(lp6
F0.03195255622267723
aF0.07052089273929596
aF-0.16419756412506104
asS'target_rot'
p7
(lp8
F90.0
aF10.0
aF-165.0
asS'center_target_pixels'
p9
(I1119
I760
tp10
sS'center_actual_pixels'
p11
(I1114
I748
tp12
s.(dp0
S'actual_pos'
p1
(lp2
F0.013130618293283155
aF0.0680730796349648
aF-0.160510703762638
asS'actual_rot'
p3
(lp4
F90.22666470041369
aF7.7965438652267816
aF-162.33883497119479
asS'target_pos'
p5
(lp6
F0.013566216453909874
aF0.06860741972923279
aF-0.16034787893295288
asS'target_rot'
p7
(lp8
F90.0
aF10.0
aF-165.0
asS'center_target_pixels'
p9
(I1295
I767
tp10
sS'center_actual_pixels'
p11
(I1326
I751
tp12
s.