(dp0
S'actual_pos'
p1
(lp2
F0.07178927436500515
aF0.021802704481940004
aF-0.16972533238979565
asS'actual_rot'
p3
(lp4
F-60.69717002495205
aF-3.133232962405158
aF-163.35683637638076
asS'target_pos'
p5
cnumpy.core.multiarray
_reconstruct
p6
(cnumpy
ndarray
p7
(I0
tp8
S'b'
p9
tp10
Rp11
(I1
(I3
tp12
cnumpy
dtype
p13
(S'f8'
p14
I0
I1
tp15
Rp16
(I3
S'<'
p17
NNNI-1
I-1
I0
tp18
bI00
S'\x93U\x84\xf8\x91y\xb2?\x16wc\xd7\xf8v\x96?J\x07\xae7:\xc4\xc5\xbf'
p19
tp20
bsS'target_rot'
p21
g6
(g7
(I0
tp22
g9
tp23
Rp24
(I1
(I3
tp25
g16
I00
S'd\xae#K\x14JM\xc0\x15\x91\xc0\xcf\x14\xee\xfb?o?0\xeb\x11$e\xc0'
p26
tp27
bsS'center_target_pixels'
p28
(I714
I117
tp29
sS'center_actual_pixels'
p30
(I727
I127
tp31
s.(dp0
S'actual_pos'
p1
(lp2
F0.05786075004228932
aF0.01936105909161412
aF-0.16772736298101176
asS'actual_rot'
p3
(lp4
F36.13963467097532
aF7.170339421865759
aF-170.75932963598763
asS'target_pos'
p5
cnumpy.core.multiarray
_reconstruct
p6
(cnumpy
ndarray
p7
(I0
tp8
S'b'
p9
tp10
Rp11
(I1
(I3
tp12
cnumpy
dtype
p13
(S'f8'
p14
I0
I1
tp15
Rp16
(I3
S'<'
p17
NNNI-1
I-1
I0
tp18
bI00
S'\xf9l8C7\n\xae?\xe0\x92\x94\n\xe5I\x93?\xd7q\x84\xbdI\x80\xc5\xbf'
p19
tp20
bsS'target_rot'
p21
g6
(g7
(I0
tp22
g9
tp23
Rp24
(I1
(I3
tp25
g16
I00
S'\xb6oo\xdc6\tB@n\xa3\xf8a\x18\x04\x1c@r\x1dx\x9e\xef\xcfd\xc0'
p26
tp27
bsS'center_target_pixels'
p28
(I894
I135
tp29
sS'center_actual_pixels'
p30
(I876
I145
tp31
s.(dp0
S'actual_pos'
p1
(lp2
F0.039936345015253116
aF0.01926794504266121
aF-0.1664620718535647
asS'actual_rot'
p3
(lp4
F-22.30695423213523
aF2.721500671547715
aF-168.8585996892575
asS'target_pos'
p5
cnumpy.core.multiarray
_reconstruct
p6
(cnumpy
ndarray
p7
(I0
tp8
S'b'
p9
tp10
Rp11
(I1
(I3
tp12
cnumpy
dtype
p13
(S'f8'
p14
I0
I1
tp15
Rp16
(I3
S'<'
p17
NNNI-1
I-1
I0
tp18
bI00
S'a\xd8\xac,"\xb8\xa4?\xc3\x01\xbbF\x07:\x93?j\x9dA\x12\x9bY\xc5\xbf'
p19
tp20
bsS'target_rot'
p21
g6
(g7
(I0
tp22
g9
tp23
Rp24
(I1
(I3
tp25
g16
I00
S'd\xba?\x80v\x1a6\xc0\xd4W\x8e\xaa -\x0e@P\xe3\xaa\xbe\xa5\x03e\xc0'
p26
tp27
bsS'center_target_pixels'
p28
(I1073
I153
tp29
sS'center_actual_pixels'
p30
(I1085
I143
tp31
s.(dp0
S'actual_pos'
p1
(lp2
F0.026153477526981612
aF0.01763793815716758
aF-0.1642469878423324
asS'actual_rot'
p3
(lp4
F82.78913121263022
aF15.505492205516097
aF-171.00498555621965
asS'target_pos'
p5
cnumpy.core.multiarray
_reconstruct
p6
(cnumpy
ndarray
p7
(I0
tp8
S'b'
p9
tp10
Rp11
(I1
(I3
tp12
cnumpy
dtype
p13
(S'f8'
p14
I0
I1
tp15
Rp16
(I3
S'<'
p17
NNNI-1
I-1
I0
tp18
bI00
S'\x1f\x8f\xbb\xac\x9el\x9b?\xde\xea\xef|\x15\x9d\x92?\xeb\x0c.\xc7)\x15\xc5\xbf'
p19
tp20
bsS'target_rot'
p21
g6
(g7
(I0
tp22
g9
tp23
Rp24
(I1
(I3
tp25
g16
I00
S'\xae\n\x83J2\xebT@\x15Z\x01Z\x16L#@/\xf5/M\x9f\xa5d\xc0'
p26
tp27
bsS'center_target_pixels'
p28
(I1250
I170
tp29
sS'center_actual_pixels'
p30
(I1245
I164
tp31
s.(dp0
S'actual_pos'
p1
(lp2
F0.06671790583400847
aF0.02722797385463424
aF-0.1684619279633539
asS'actual_rot'
p3
(lp4
F78.57532996221114
aF13.875406598660055
aF-171.36726335807322
asS'target_pos'
p5
cnumpy.core.multiarray
_reconstruct
p6
(cnumpy
ndarray
p7
(I0
tp8
S'b'
p9
tp10
Rp11
(I1
(I3
tp12
cnumpy
dtype
p13
(S'f8'
p14
I0
I1
tp15
Rp16
(I3
S'<'
p17
NNNI-1
I-1
I0
tp18
bI00
S'#\xb72\xa4\xadF\xb1?\x1c\x02\xcd,2-\x9c?o\x04\xec\x98Z\xa1\xc5\xbf'
p19
tp20
bsS'target_rot'
p21
g6
(g7
(I0
tp22
g9
tp23
Rp24
(I1
(I3
tp25
g16
I00
S'\x10\xe7W\xed\xfa\x12T@\x07\xbc\xd1\xbe\xfd\xeb"@ r\t\x12\xa0\xa8d\xc0'
p26
tp27
bsS'center_target_pixels'
p28
(I796
I215
tp29
sS'center_actual_pixels'
p30
(I783
I221
tp31
s.(dp0
S'actual_pos'
p1
(lp2
F0.04870344434047989
aF0.025779024510005855
aF-0.16676764133081304
asS'actual_rot'
p3
(lp4
F57.16897564749149
aF10.261133118492848
aF-170.60470040037387
asS'target_pos'
p5
cnumpy.core.multiarray
_reconstruct
p6
(cnumpy
ndarray
p7
(I0
tp8
S'b'
p9
tp10
Rp11
(I1
(I3
tp12
cnumpy
dtype
p13
(S'f8'
p14
I0
I1
tp15
Rp16
(I3
S'<'
p17
NNNI-1
I-1
I0
tp18
bI00
S'\xf4\xc2\xc1Ltb\xa9?\xd36\xf9\x91\x86C\x9a?\x187\x9b)\x16e\xc5\xbf'
p19
tp20
bsS'target_rot'
p21
g6
(g7
(I0
tp22
g9
tp23
Rp24
(I1
(I3
tp25
g16
I00
S'\xd8\xcd\x9d\xe8\xde\xbcL@0J\xb13\xdcb @\xaeub\x1e\xe9\xbcd\xc0'
p26
tp27
bsS'center_target_pixels'
p28
(I976
I233
tp29
sS'center_actual_pixels'
p30
(I985
I224
tp31
s.(dp0
S'actual_pos'
p1
(lp2
F0.03276227725737943
aF0.027784977799837227
aF-0.16511974213096758
asS'actual_rot'
p3
(lp4
F-53.67078499773679
aF-1.3109546916748505
aF-166.57082427619085
asS'target_pos'
p5
cnumpy.core.multiarray
_reconstruct
p6
(cnumpy
ndarray
p7
(I0
tp8
S'b'
p9
tp10
Rp11
(I1
(I3
tp12
cnumpy
dtype
p13
(S'f8'
p14
I0
I1
tp15
Rp16
(I3
S'<'
p17
NNNI-1
I-1
I0
tp18
bI00
S'\xcd\xee \xa8\xeb\xea\xa0?\x82\x7f\x91Y\x7f\x83\x9c?$&v\xf90+\xc5\xbf'
p19
tp20
bsS'target_rot'
p21
g6
(g7
(I0
tp22
g9
tp23
Rp24
(I1
(I3
tp25
g16
I00
S'\x9a\xdaA\xb1\x15`J\xc0w\xafS\x9b%\x8e\x00@\xa1X\xc9\xb4\xe3\x1ee\xc0'
p26
tp27
bsS'center_target_pixels'
p28
(I1153
I250
tp29
sS'center_actual_pixels'
p30
(I1148
I253
tp31
s.(dp0
S'actual_pos'
p1
(lp2
F0.016909641430249703
aF0.02692018024845031
aF-0.16447935859934487
asS'actual_rot'
p3
(lp4
F-15.390509842311587
aF-0.05519771090806979
aF-165.94621985501394
asS'target_pos'
p5
cnumpy.core.multiarray
_reconstruct
p6
(cnumpy
ndarray
p7
(I0
tp8
S'b'
p9
tp10
Rp11
(I1
(I3
tp12
cnumpy
dtype
p13
(S'f8'
p14
I0
I1
tp15
Rp16
(I3
S'<'
p17
NNNI-1
I-1
I0
tp18
bI00
S'_\x0c\x1cs\x93\x1e\x91?\xd7c\x00m\xac[\x9b?\x97@\xd1\xeb\xc7\x17\xc5\xbf'
p19
tp20
bsS'target_rot'
p21
g6
(g7
(I0
tp22
g9
tp23
Rp24
(I1
(I3
tp25
g16
I00
S'xN\xe1.\xba2-\xc0\x0fi\x03\x89y\xc1\x10@\\\xf2\xdb\x19\xfa\xfcd\xc0'
p26
tp27
bsS'center_target_pixels'
p28
(I1330
I266
tp29
sS'center_actual_pixels'
p30
(I1313
I278
tp31
s.(dp0
S'actual_pos'
p1
(lp2
F0.0737802763782231
aF0.03689968533039492
aF-0.16963068374895174
asS'actual_rot'
p3
(lp4
F4.968151736521432
aF-1.2004448096207987
aF-163.43943269171544
asS'target_pos'
p5
cnumpy.core.multiarray
_reconstruct
p6
(cnumpy
ndarray
p7
(I0
tp8
S'b'
p9
tp10
Rp11
(I1
(I3
tp12
cnumpy
dtype
p13
(S'f8'
p14
I0
I1
tp15
Rp16
(I3
S'<'
p17
NNNI-1
I-1
I0
tp18
bI00
S'\x89\xd2!\x8eL\xd0\xb2?\xc6bM\xb1\xb1\x96\xa2?\x82W\x98\xb36\xbd\xc5\xbf'
p19
tp20
bsS'target_rot'
p21
g6
(g7
(I0
tp22
g9
tp23
Rp24
(I1
(I3
tp25
g16
I00
S'\xc0\xacH2\xabC\x18@C\xb4\xae\xbb\x17Y\x15@/E\x11\xa1\x9b\xead\xc0'
p26
tp27
bsS'center_target_pixels'
p28
(I697
I297
tp29
sS'center_actual_pixels'
p30
(I665
I302
tp31
s.(dp0
S'actual_pos'
p1
(lp2
F0.05639848255256226
aF0.035745156598769354
aF-0.1680721507580493
asS'actual_rot'
p3
(lp4
F-7.288696536662154
aF-0.04210747783036938
aF-165.12998771472058
asS'target_pos'
p5
cnumpy.core.multiarray
_reconstruct
p6
(cnumpy
ndarray
p7
(I0
tp8
S'b'
p9
tp10
Rp11
(I1
(I3
tp12
cnumpy
dtype
p13
(S'f8'
p14
I0
I1
tp15
Rp16
(I3
S'<'
p17
NNNI-1
I-1
I0
tp18
bI00
S'\xa3N3\xd6\x9c\xd0\xac?l\x8e\xfd\x0b%\x1e\xa2?j\x04h\xe7j\x8e\xc5\xbf'
p19
tp20
bsS'target_rot'
p21
g6
(g7
(I0
tp22
g9
tp23
Rp24
(I1
(I3
tp25
g16
I00
S'P\xfa\xa5\xe6\xaf\x8e\x18\xc0\xdf\xe3\xbdV\xbd\xa2\x12@q\x08\xa5\nu\xf5d\xc0'
p26
tp27
bsS'center_target_pixels'
p28
(I878
I313
tp29
sS'center_actual_pixels'
p30
(I860
I309
tp31
s.(dp0
S'actual_pos'
p1
(lp2
F0.03930294873580168
aF0.03512262552224979
aF-0.16608508464281196
asS'actual_rot'
p3
(lp4
F-6.170978824929948
aF2.469802480403586
aF-167.51527672640484
asS'target_pos'
p5
cnumpy.core.multiarray
_reconstruct
p6
(cnumpy
ndarray
p7
(I0
tp8
S'b'
p9
tp10
Rp11
(I1
(I3
tp12
cnumpy
dtype
p13
(S'f8'
p14
I0
I1
tp15
Rp16
(I3
S'<'
p17
NNNI-1
I-1
I0
tp18
bI00
S'\xc8\xb5F~UH\xa4?qE\xd2\xfb\xa6\xc8\xa1?\xec\n\xfa\xc87L\xc5\xbf'
p19
tp20
bsS'target_rot'
p21
g6
(g7
(I0
tp22
g9
tp23
Rp24
(I1
(I3
tp25
g16
I00
S"\x00zB\xb2\xb6\x96\x16\xc0U\xc0\x18\xf6\xbc\xbe\x12@\xff\x9c'\x0c\x05\xf5d\xc0"
p26
tp27
bsS'center_target_pixels'
p28
(I1057
I330
tp29
sS'center_actual_pixels'
p30
(I1062
I318
tp31
s.(dp0
S'actual_pos'
p1
(lp2
F0.024492024815152932
aF0.03560788829997444
aF-0.16451191936361284
asS'actual_rot'
p3
(lp4
F-13.551889612450548
aF4.413196062813407
aF-169.9096411377634
asS'target_pos'
p5
cnumpy.core.multiarray
_reconstruct
p6
(cnumpy
ndarray
p7
(I0
tp8
S'b'
p9
tp10
Rp11
(I1
(I3
tp12
cnumpy
dtype
p13
(S'f8'
p14
I0
I1
tp15
Rp16
(I3
S'<'
p17
NNNI-1
I-1
I0
tp18
bI00
S'\xe1}\xbf)\x0b\x8a\x99?C\r\x06c\xca\x0c\xa2?\x86n\x87JJ\x18\xc5\xbf'
p19
tp20
bsS'target_rot'
p21
g6
(g7
(I0
tp22
g9
tp23
Rp24
(I1
(I3
tp25
g16
I00
S'\xe0=\xa7\x9e\xea-+\xc0\x032_\xee\xe5\xfa\x10@8\x83Fh\x14\xfcd\xc0'
p26
tp27
bsS'center_target_pixels'
p28
(I1234
I346
tp29
sS'center_actual_pixels'
p30
(I1230
I350
tp31
s.(dp0
S'actual_pos'
p1
(lp2
F0.010266140507333862
aF0.03448290277958536
aF-0.16371522563300403
asS'actual_rot'
p3
(lp4
F30.632178656002015
aF6.713166731544582
aF-169.47021488053298
asS'target_pos'
p5
cnumpy.core.multiarray
_reconstruct
p6
(cnumpy
ndarray
p7
(I0
tp8
S'b'
p9
tp10
Rp11
(I1
(I3
tp12
cnumpy
dtype
p13
(S'f8'
p14
I0
I1
tp15
Rp16
(I3
S'<'
p17
NNNI-1
I-1
I0
tp18
bI00
S'\xd1\x02_\x07\xf1\xeb\x85?\x80\x10D\xec\x00y\xa1?\xde%\xf5\xcf\x1c\x01\xc5\xbf'
p19
tp20
bsS'target_rot'
p21
g6
(g7
(I0
tp22
g9
tp23
Rp24
(I1
(I3
tp25
g16
I00
S'\x0c\x06_\xfbp\x9a>@\xaeV\xa3\xa9\xfc\xcc\x1a@\xa5rY\r\xcc\xd4d\xc0'
p26
tp27
bsS'center_target_pixels'
p28
(I1409
I362
tp29
sS'center_actual_pixels'
p30
(I1377
I376
tp31
s.(dp0
S'actual_pos'
p1
(lp2
F0.06384055306385523
aF0.04353882656288664
aF-0.16896405280393914
asS'actual_rot'
p3
(lp4
F-14.971235402077866
aF-0.9999404014958538
aF-163.91711521139175
asS'target_pos'
p5
cnumpy.core.multiarray
_reconstruct
p6
(cnumpy
ndarray
p7
(I0
tp8
S'b'
p9
tp10
Rp11
(I1
(I3
tp12
cnumpy
dtype
p13
(S'f8'
p14
I0
I1
tp15
Rp16
(I3
S'<'
p17
NNNI-1
I-1
I0
tp18
bI00
S'\x10\xf4$\xa6\xcfJ\xb0?W\xd2\xfe\xcd(\x15\xa6?GS\xe8kM\xb1\xc5\xbf'
p19
tp20
bsS'target_rot'
p21
g6
(g7
(I0
tp22
g9
tp23
Rp24
(I1
(I3
tp25
g16
I00
S"\xa8M\x99\xf4\x93a*\xc0\xee\xda':\x9a\x11\x11@\x94`\x17\x97\xb9\xfbd\xc0"
p26
tp27
bsS'center_target_pixels'
p28
(I780
I393
tp29
sS'center_actual_pixels'
p30
(I766
I387
tp31
s.(dp0
S'actual_pos'
p1
(lp2
F0.04839289452633459
aF0.042478446332021566
aF-0.16719776912523215
asS'actual_rot'
p3
(lp4
F40.099792141425276
aF6.378835879728867
aF-169.12794508884093
asS'target_pos'
p5
cnumpy.core.multiarray
_reconstruct
p6
(cnumpy
ndarray
p7
(I0
tp8
S'b'
p9
tp10
Rp11
(I1
(I3
tp12
cnumpy
dtype
p13
(S'f8'
p14
I0
I1
tp15
Rp16
(I3
S'<'
p17
NNNI-1
I-1
I0
tp18
bI00
S'\xaczr\x03\xc7 \xa9?\x82\xe7I\xf2mk\xa5?(\xfe\xc6\xe7Fv\xc5\xbf'
p19
tp20
bsS'target_rot'
p21
g6
(g7
(I0
tp22
g9
tp23
Rp24
(I1
(I3
tp25
g16
I00
S'\xe8\xac^\x80\xd9\xfeC@Ji\x7fU\x0b\xe3\x1c@[\x02\xaa\xd2s\xccd\xc0'
p26
tp27
bsS'center_target_pixels'
p28
(I959
I410
tp29
sS'center_actual_pixels'
p30
(I950
I417
tp31
s.(dp0
S'actual_pos'
p1
(lp2
F0.03362330441044941
aF0.04127851967283994
aF-0.16533314097646437
asS'actual_rot'
p3
(lp4
F73.04293311939571
aF10.2476004852625
aF-170.53798538492248
asS'target_pos'
p5
cnumpy.core.multiarray
_reconstruct
p6
(cnumpy
ndarray
p7
(I0
tp8
S'b'
p9
tp10
Rp11
(I1
(I3
tp12
cnumpy
dtype
p13
(S'f8'
p14
I0
I1
tp15
Rp16
(I3
S'<'
p17
NNNI-1
I-1
I0
tp18
bI00
S'\xae\xf6\xc42\xab\x97\xa1?\x7f?\x1a\xe6\x08\x01\xa5?\xd1\x1b\xb1\x80\xa17\xc5\xbf'
p19
tp20
bsS'target_rot'
p21
g6
(g7
(I0
tp22
g9
tp23
Rp24
(I1
(I3
tp25
g16
I00
S'l\x9a\xaa=\xfdHR@\x13a/\x8dp "@\xf7\x84\x96{\xfc\xaed\xc0'
p26
tp27
bsS'center_target_pixels'
p28
(I1137
I426
tp29
sS'center_actual_pixels'
p30
(I1121
I427
tp31
s.(dp0
S'actual_pos'
p1
(lp2
F0.015885485818763603
aF0.04137415420954286
aF-0.16391155598998677
asS'actual_rot'
p3
(lp4
F15.510672487559237
aF5.615831916003664
aF-166.83445595799793
asS'target_pos'
p5
cnumpy.core.multiarray
_reconstruct
p6
(cnumpy
ndarray
p7
(I0
tp8
S'b'
p9
tp10
Rp11
(I1
(I3
tp12
cnumpy
dtype
p13
(S'f8'
p14
I0
I1
tp15
Rp16
(I3
S'<'
p17
NNNI-1
I-1
I0
tp18
bI00
S'\xb5o\xc8\x97\xa7\xba\x90?1Im{\t\xed\xa4?8\x92\xde\xaa\xe2\x08\xc5\xbf'
p19
tp20
bsS'target_rot'
p21
g6
(g7
(I0
tp22
g9
tp23
Rp24
(I1
(I3
tp25
g16
I00
S'\xd0ia\x9f \x0f/@\xde\xd2\ngus\x17@\xb5\xd4c*2\xe2d\xc0'
p26
tp27
bsS'center_target_pixels'
p28
(I1314
I441
tp29
sS'center_actual_pixels'
p30
(I1324
I441
tp31
s.(dp0
S'actual_pos'
p1
(lp2
F0.07213427126778953
aF0.05324730891984022
aF-0.16913550553692325
asS'actual_rot'
p3
(lp4
F-78.07379518792342
aF-2.6232900448453353
aF-164.56528287362758
asS'target_pos'
p5
cnumpy.core.multiarray
_reconstruct
p6
(cnumpy
ndarray
p7
(I0
tp8
S'b'
p9
tp10
Rp11
(I1
(I3
tp12
cnumpy
dtype
p13
(S'f8'
p14
I0
I1
tp15
Rp16
(I3
S'<'
p17
NNNI-1
I-1
I0
tp18
bI00
S'\xa3C,6/\xa5\xb2?}v\xa3\xc3\xc5j\xab?\xe6;\x95\x92N\xb1\xc5\xbf'
p19
tp20
bsS'target_rot'
p21
g6
(g7
(I0
tp22
g9
tp23
Rp24
(I1
(I3
tp25
g16
I00
S'r\x18on\xb0\x18S\xc0F\x19\xb1\xee\xfc3\xe8?s\xa7\x88\x01\xe63e\xc0'
p26
tp27
bsS'center_target_pixels'
p28
(I682
I474
tp29
sS'center_actual_pixels'
p30
(I680
I475
tp31
s.(dp0
S'actual_pos'
p1
(lp2
F0.055147532722839045
aF0.05157334621557905
aF-0.16823906313698947
asS'actual_rot'
p3
(lp4
F-5.6290406570711715
aF-0.2181694065372695
aF-162.19716413045236
asS'target_pos'
p5
cnumpy.core.multiarray
_reconstruct
p6
(cnumpy
ndarray
p7
(I0
tp8
S'b'
p9
tp10
Rp11
(I1
(I3
tp12
cnumpy
dtype
p13
(S'f8'
p14
I0
I1
tp15
Rp16
(I3
S'<'
p17
NNNI-1
I-1
I0
tp18
bI00
S':\xa6\x8fTrG\xac?\x19x\x04\x8b\xfe/\xaa?n#-\xd57\x9d\xc5\xbf'
p19
tp20
bsS'target_rot'
p21
g6
(g7
(I0
tp22
g9
tp23
Rp24
(I1
(I3
tp25
g16
I00
S'\xe0\xd4^MN\xb2\x0f\xc02A\xf6D\x9a\x1e\x13@\xfb&\xec\x96\x85\xf3d\xc0'
p26
tp27
bsS'center_target_pixels'
p28
(I862
I490
tp29
sS'center_actual_pixels'
p30
(I858
I498
tp31
s.(dp0
S'actual_pos'
p1
(lp2
F0.03859906509638865
aF0.051990851317467286
aF-0.16591282796645643
asS'actual_rot'
p3
(lp4
F-64.86126252268839
aF-0.9250661194729796
aF-166.12632988165066
asS'target_pos'
p5
cnumpy.core.multiarray
_reconstruct
p6
(cnumpy
ndarray
p7
(I0
tp8
S'b'
p9
tp10
Rp11
(I1
(I3
tp12
cnumpy
dtype
p13
(S'f8'
p14
I0
I1
tp15
Rp16
(I3
S'<'
p17
NNNI-1
I-1
I0
tp18
bI00
S'\xce\xbfJ\xd4\x95\xf7\xa3?\xd9fo\xe4\xfb\xbf\xaa?\xa0w\xad\x13lE\xc5\xbf'
p19
tp20
bsS'target_rot'
p21
g6
(g7
(I0
tp22
g9
tp23
Rp24
(I1
(I3
tp25
g16
I00
S'\xc4jpt\xfa\x00P\xc0F\xbd\x8cE\xf7\x18\xf7?Cs\xba\x08\xe7(e\xc0'
p26
tp27
bsS'center_target_pixels'
p28
(I1040
I506
tp29
sS'center_actual_pixels'
p30
(I1053
I511
tp31
s.(dp0
S'actual_pos'
p1
(lp2
F0.023636798449411443
aF0.04998940772868511
aF-0.16501891691187862
asS'actual_rot'
p3
(lp4
F-27.5175874469586
aF-1.2234408844483937
aF-163.81092481907808
asS'target_pos'
p5
cnumpy.core.multiarray
_reconstruct
p6
(cnumpy
ndarray
p7
(I0
tp8
S'b'
p9
tp10
Rp11
(I1
(I3
tp12
cnumpy
dtype
p13
(S'f8'
p14
I0
I1
tp15
Rp16
(I3
S'<'
p17
NNNI-1
I-1
I0
tp18
bI00
S'+\xc6\x1cF\x88\xe5\x97?\xd0F\xe0\xedl\xa8\xa9?\xb1\x19\xba\xf1\xfc+\xc5\xbf'
p19
tp20
bsS'target_rot'
p21
g6
(g7
(I0
tp22
g9
tp23
Rp24
(I1
(I3
tp25
g16
I00
S'L\xcc\xee\x9eN\xe19\xc0\x18\xde\x95Gk\x7f\x0c@D\xd4p)\x01\x07e\xc0'
p26
tp27
bsS'center_target_pixels'
p28
(I1218
I522
tp29
sS'center_actual_pixels'
p30
(I1209
I510
tp31
s.(dp0
S'actual_pos'
p1
(lp2
F0.009435949485403942
aF0.04982609348711687
aF-0.16368353274265612
asS'actual_rot'
p3
(lp4
F-18.497551477100295
aF0.515297479710501
aF-165.17021398475586
asS'target_pos'
p5
cnumpy.core.multiarray
_reconstruct
p6
(cnumpy
ndarray
p7
(I0
tp8
S'b'
p9
tp10
Rp11
(I1
(I3
tp12
cnumpy
dtype
p13
(S'f8'
p14
I0
I1
tp15
Rp16
(I3
S'<'
p17
NNNI-1
I-1
I0
tp18
bI00
S'\x94 \xc2\xc6\xaa\x0e\x83?\x7f\xb2|(\x7fr\xa9?e_h\xcas\x01\xc5\xbf'
p19
tp20
bsS'target_rot'
p21
g6
(g7
(I0
tp22
g9
tp23
Rp24
(I1
(I3
tp25
g16
I00
S'\x98\xe6U\n*_1\xc0lw\xd0\xc4\xbd#\x10@"\xbe\xec\x08q\xffd\xc0'
p26
tp27
bsS'center_target_pixels'
p28
(I1394
I537
tp29
sS'center_actual_pixels'
p30
(I1363
I536
tp31
s.(dp0
S'actual_pos'
p1
(lp2
F0.06391437910273025
aF0.06065869040294706
aF-0.16864174566872778
asS'actual_rot'
p3
(lp4
F-28.288237662348934
aF-1.2985656120759976
aF-162.22389398614834
asS'target_pos'
p5
cnumpy.core.multiarray
_reconstruct
p6
(cnumpy
ndarray
p7
(I0
tp8
S'b'
p9
tp10
Rp11
(I1
(I3
tp12
cnumpy
dtype
p13
(S'f8'
p14
I0
I1
tp15
Rp16
(I3
S'<'
p17
NNNI-1
I-1
I0
tp18
bI00
S'g\x98\xa2\xfc\xb8e\xb0?\xbc\xd4\x13\xc4+4\xaf?\xf3|\xf8\x84\xdf\xa3\xc5\xbf'
p19
tp20
bsS'target_rot'
p21
g6
(g7
(I0
tp22
g9
tp23
Rp24
(I1
(I3
tp25
g16
I00
S'\xb8\xf9o\xa7\xee\xd09\xc0\xcb\x02@`\xb2\x86\x0c@\xfa\x7f?\x9b\xf2\x06e\xc0'
p26
tp27
bsS'center_target_pixels'
p28
(I764
I571
tp29
sS'center_actual_pixels'
p30
(I754
I577
tp31
s.(dp0
S'actual_pos'
p1
(lp2
F0.047616609137205036
aF0.06003617147925008
aF-0.1668208826843918
asS'actual_rot'
p3
(lp4
F-24.92019499439244
aF-0.4028896149048046
aF-163.86773542795538
asS'target_pos'
p5
cnumpy.core.multiarray
_reconstruct
p6
(cnumpy
ndarray
p7
(I0
tp8
S'b'
p9
tp10
Rp11
(I1
(I3
tp12
cnumpy
dtype
p13
(S'f8'
p14
I0
I1
tp15
Rp16
(I3
S'<'
p17
NNNI-1
I-1
I0
tp18
bI00
S'\x15)\xe9\xf9\xa6\\\xa8?\xa38\x97(\xe4\xd5\xae?%\xe3V\xa0\xf3e\xc5\xbf'
p19
tp20
bsS'target_rot'
p21
g6
(g7
(I0
tp22
g9
tp23
Rp24
(I1
(I3
tp25
g16
I00
S'8\x0cun\xb4\x057\xc0\xe6O!]\x93\xc4\r@`\xbdE\xd9v\x04e\xc0'
p26
tp27
bsS'center_target_pixels'
p28
(I943
I587
tp29
sS'center_actual_pixels'
p30
(I934
I592
tp31
s.(dp0
S'actual_pos'
p1
(lp2
F0.030935120086825123
aF0.057670856519248956
aF-0.1649912803214638
asS'actual_rot'
p3
(lp4
F51.79072884234351
aF4.566727450589301
aF-165.87025911355238
asS'target_pos'
p5
cnumpy.core.multiarray
_reconstruct
p6
(cnumpy
ndarray
p7
(I0
tp8
S'b'
p9
tp10
Rp11
(I1
(I3
tp12
cnumpy
dtype
p13
(S'f8'
p14
I0
I1
tp15
Rp16
(I3
S'<'
p17
NNNI-1
I-1
I0
tp18
bI00
S'\x99\x9f\x85o\x88\xf1\x9f? 8\xb4\xc2\xe1F\xad?/\x08n\xefe$\xc5\xbf'
p19
tp20
bsS'target_rot'
p21
g6
(g7
(I0
tp22
g9
tp23
Rp24
(I1
(I3
tp25
g16
I00
S'\x90\x88\x94\x96(\x00J@$Y\x97\xedJ\x8e\x1f@\x9b\xa2I\xd4\xc6\xc1d\xc0'
p26
tp27
bsS'center_target_pixels'
p28
(I1121
I602
tp29
sS'center_actual_pixels'
p30
(I1122
I608
tp31
s.(dp0
S'actual_pos'
p1
(lp2
F0.01507042080868271
aF0.05769673001121493
aF-0.16370362490294535
asS'actual_rot'
p3
(lp4
F-67.60717916666506
aF3.2822112558031287
aF-170.3560374906839
asS'target_pos'
p5
cnumpy.core.multiarray
_reconstruct
p6
(cnumpy
ndarray
p7
(I0
tp8
S'b'
p9
tp10
Rp11
(I1
(I3
tp12
cnumpy
dtype
p13
(S'f8'
p14
I0
I1
tp15
Rp16
(I3
S'<'
p17
NNNI-1
I-1
I0
tp18
bI00
S'\xba\x82\xec\xd3#\x19\x90?\x15\x92\xa1\xc4\xc0W\xad?\xf1\xdf`\x91g\x00\xc5\xbf'
p19
tp20
bsS'target_rot'
p21
g6
(g7
(I0
tp22
g9
tp23
Rp24
(I1
(I3
tp25
g16
I00
S'\xfaNv\x02\x1e\x03Q\xc0\xc0\xcaw\x85#\x83\xf3?5\x88z\xdc|,e\xc0'
p26
tp27
bsS'center_target_pixels'
p28
(I1298
I617
tp29
sS'center_actual_pixels'
p30
(I1309
I615
tp31
s.(dp0
S'actual_pos'
p1
(lp2
F0.0742428749405479
aF0.0680761197740231
aF-0.16858004946289384
asS'actual_rot'
p3
(lp4
F75.81797491225018
aF9.298666306551889
aF-170.94757504464678
asS'target_pos'
p5
cnumpy.core.multiarray
_reconstruct
p6
(cnumpy
ndarray
p7
(I0
tp8
S'b'
p9
tp10
Rp11
(I1
(I3
tp12
cnumpy
dtype
p13
(S'f8'
p14
I0
I1
tp15
Rp16
(I3
S'<'
p17
NNNI-1
I-1
I0
tp18
bI00
S'\xf3\xc1Hx\xa33\xb3?\n\xf0\xd5\xf6_l\xb1?Q\x16\xc1\x1e\x0c\x9a\xc5\xbf'
p19
tp20
bsS'target_rot'
p21
g6
(g7
(I0
tp22
g9
tp23
Rp24
(I1
(I3
tp25
g16
I00
S'\xde\xf0l\xb4\xe5\xf2R@\x0ek0P\xf4k"@\xa8|~]\xa0\xacd\xc0'
p26
tp27
bsS'center_target_pixels'
p28
(I665
I652
tp29
sS'center_actual_pixels'
p30
(I640
I662
tp31
s.(dp0
S'actual_pos'
p1
(lp2
F0.05801446848141883
aF0.0663742884865419
aF-0.16699488603843582
asS'actual_rot'
p3
(lp4
F72.75203691559378
aF9.157494176771198
aF-170.36754537393136
asS'target_pos'
p5
cnumpy.core.multiarray
_reconstruct
p6
(cnumpy
ndarray
p7
(I0
tp8
S'b'
p9
tp10
Rp11
(I1
(I3
tp12
cnumpy
dtype
p13
(S'f8'
p14
I0
I1
tp15
Rp16
(I3
S'<'
p17
NNNI-1
I-1
I0
tp18
bI00
S'F\x10uP\x0e!\xae?\xd8\xb9\xf0\xca\r\x01\xb1?Ru\xe7\xb2cf\xc5\xbf'
p19
tp20
bsS'target_rot'
p21
g6
(g7
(I0
tp22
g9
tp23
Rp24
(I1
(I3
tp25
g16
I00
S'd\xdc\xecCp.R@\x82Ei\xac\xa3\x14"@\xd4\xb5\x9c\xe2Z\xafd\xc0'
p26
tp27
bsS'center_target_pixels'
p28
(I845
I667
tp29
sS'center_actual_pixels'
p30
(I816
I663
tp31
s.(dp0
S'actual_pos'
p1
(lp2
F0.03907837105336049
aF0.0664502102329124
aF-0.16575118481048784
asS'actual_rot'
p3
(lp4
F-4.264273788135082
aF0.09092324865347957
aF-161.98340172430042
asS'target_pos'
p5
cnumpy.core.multiarray
_reconstruct
p6
(cnumpy
ndarray
p7
(I0
tp8
S'b'
p9
tp10
Rp11
(I1
(I3
tp12
cnumpy
dtype
p13
(S'f8'
p14
I0
I1
tp15
Rp16
(I3
S'<'
p17
NNNI-1
I-1
I0
tp18
bI00
S'c\xbd\xf7w\xf9\xf0\xa3?\xf7J\xc2@v\x04\xb1?\x8b#\x95\xba\x14?\xc5\xbf'
p19
tp20
bsS'target_rot'
p21
g6
(g7
(I0
tp22
g9
tp23
Rp24
(I1
(I3
tp25
g16
I00
S'\x80#zs\xd1\x84\x01\xc0\x92b\xae\xf5k\x83\x13@vF)P\xf2\xf1d\xc0'
p26
tp27
bsS'center_target_pixels'
p28
(I1024
I683
tp29
sS'center_actual_pixels'
p30
(I1024
I679
tp31
s.(dp0
S'actual_pos'
p1
(lp2
F0.02308850528856116
aF0.06540429406806354
aF-0.16433306712487547
asS'actual_rot'
p3
(lp4
F6.798446335355312
aF1.2546706739343516
aF-163.32162180032373
asS'target_pos'
p5
cnumpy.core.multiarray
_reconstruct
p6
(cnumpy
ndarray
p7
(I0
tp8
S'b'
p9
tp10
Rp11
(I1
(I3
tp12
cnumpy
dtype
p13
(S'f8'
p14
I0
I1
tp15
Rp16
(I3
S'<'
p17
NNNI-1
I-1
I0
tp18
bI00
S'K\x9d\x1fy\x18S\x97?>\xf0,3\xfb\xc0\xb0?$\xcf\x84\x18_\n\xc5\xbf'
p19
tp20
bsS'target_rot'
p21
g6
(g7
(I0
tp22
g9
tp23
Rp24
(I1
(I3
tp25
g16
I00
S'\x98o\xc4\xe6\xe6\xeb @\xd8(k\x8bR\xe1\x15@]S\xd2\xb5z\xe8d\xc0'
p26
tp27
bsS'center_target_pixels'
p28
(I1202
I697
tp29
sS'center_actual_pixels'
p30
(I1200
I696
tp31
s.(dp0
S'actual_pos'
p1
(lp2
F0.007468729675341382
aF0.06589247903763809
aF-0.16287531016703458
asS'actual_rot'
p3
(lp4
F-87.0182579083548
aF5.630675549324332
aF-173.66785830024742
asS'target_pos'
p5
cnumpy.core.multiarray
_reconstruct
p6
(cnumpy
ndarray
p7
(I0
tp8
S'b'
p9
tp10
Rp11
(I1
(I3
tp12
cnumpy
dtype
p13
(S'f8'
p14
I0
I1
tp15
Rp16
(I3
S'<'
p17
NNNI-1
I-1
I0
tp18
bI00
S'f?\xa0B\xef+\x80?\xc5\xe8\xceo\xa9\xd5\xb0?\xd8B\x14\x8c\xf2\xda\xc4\xbf'
p19
tp20
bsS'target_rot'
p21
g6
(g7
(I0
tp22
g9
tp23
Rp24
(I1
(I3
tp25
g16
I00
S'\xa8*$s\x16\xd8U\xc0\xc7\tm\x18,\xa8\xc2?_\xf2|\xfa\xaa=e\xc0'
p26
tp27
bsS'center_target_pixels'
p28
(I1377
I712
tp29
sS'center_actual_pixels'
p30
(I1385
I715
tp31
s.(dp0
S'actual_pos'
p1
(lp2
F0.06335928799142004
aF0.0763562902381724
aF-0.16778639745431514
asS'actual_rot'
p3
(lp4
F-71.89803234435364
aF-1.179498557212038
aF-164.388672714833
asS'target_pos'
p5
cnumpy.core.multiarray
_reconstruct
p6
(cnumpy
ndarray
p7
(I0
tp8
S'b'
p9
tp10
Rp11
(I1
(I3
tp12
cnumpy
dtype
p13
(S'f8'
p14
I0
I1
tp15
Rp16
(I3
S'<'
p17
NNNI-1
I-1
I0
tp18
bI00
S'\nTz\x88\xd0`\xb0?g\xbd\x0cCr\xe1\xb3?[Qm-:u\xc5\xbf'
p19
tp20
bsS'target_rot'
p21
g6
(g7
(I0
tp22
g9
tp23
Rp24
(I1
(I3
tp25
g16
I00
S'\x10q`\xbbj\xaeQ\xc0\xc7\xdf\x1a\xbb\x12"\xf1? \xe5D\xed\xdd.e\xc0'
p26
tp27
bsS'center_target_pixels'
p28
(I747
I749
tp29
sS'center_actual_pixels'
p30
(I742
I743
tp31
s.(dp0
S'actual_pos'
p1
(lp2
F0.0491891707655802
aF0.07328670366064281
aF-0.16652117656512577
asS'actual_rot'
p3
(lp4
F81.84916685534725
aF9.008114657457005
aF-168.89634527754853
asS'target_pos'
p5
cnumpy.core.multiarray
_reconstruct
p6
(cnumpy
ndarray
p7
(I0
tp8
S'b'
p9
tp10
Rp11
(I1
(I3
tp12
cnumpy
dtype
p13
(S'f8'
p14
I0
I1
tp15
Rp16
(I3
S'<'
p17
NNNI-1
I-1
I0
tp18
bI00
S'x\xf2\x07\xaf`\x86\xa9?\xa7\x15\xa1\x89\xde\xf9\xb2?Zy?R\xdfN\xc5\xbf'
p19
tp20
bsS'target_rot'
p21
g6
(g7
(I0
tp22
g9
tp23
Rp24
(I1
(I3
tp25
g16
I00
S'\xa8+\xfc`\xdekT@.\x85\x8cG\x7f\x13#@\xd7\x9b\xc3\x05d\xa7d\xc0'
p26
tp27
bsS'center_target_pixels'
p28
(I927
I763
tp29
sS'center_actual_pixels'
p30
(I907
I758
tp31
s.(dp0
S'actual_pos'
p1
(lp2
F0.03045352338983155
aF0.07457450301322958
aF-0.1657992855208275
asS'actual_rot'
p3
(lp4
F-78.75151040531387
aF2.010525201772365
aF-168.05461620057133
asS'target_pos'
p5
cnumpy.core.multiarray
_reconstruct
p6
(cnumpy
ndarray
p7
(I0
tp8
S'b'
p9
tp10
Rp11
(I1
(I3
tp12
cnumpy
dtype
p13
(S'f8'
p14
I0
I1
tp15
Rp16
(I3
S'<'
p17
NNNI-1
I-1
I0
tp18
bI00
S"\xd5w\x9a\xed\xbe\xd7\x9f?8'\xb8\xb6\x83E\xb3?\xdb\xa0w\x11\xa0?\xc5\xbf"
p19
tp20
bsS'target_rot'
p21
g6
(g7
(I0
tp22
g9
tp23
Rp24
(I1
(I3
tp25
g16
I00
S'\xcf\xa7\xb1\xe7i\xc9S\xc0\x95\x8fI\xc9GK\xe3?8[\x1b\\Z6e\xc0'
p26
tp27
bsS'center_target_pixels'
p28
(I1105
I777
tp29
sS'center_actual_pixels'
p30
(I1113
I782
tp31
s.(dp0
S'actual_pos'
p1
(lp2
F0.015337458571310681
aF0.07228252453927667
aF-0.1642773814622111
asS'actual_rot'
p3
(lp4
F-40.03905729698849
aF-1.857529097456984
aF-163.3621186182109
asS'target_pos'
p5
cnumpy.core.multiarray
_reconstruct
p6
(cnumpy
ndarray
p7
(I0
tp8
S'b'
p9
tp10
Rp11
(I1
(I3
tp12
cnumpy
dtype
p13
(S'f8'
p14
I0
I1
tp15
Rp16
(I3
S'<'
p17
NNNI-1
I-1
I0
tp18
bI00
S'\x16W\xd5\xe7\xc1"\x8f?\x88Tt\xd8\x94\xd7\xb2?\xa1\xa9{\x05A\x0c\xc5\xbf'
p19
tp20
bsS'target_rot'
p21
g6
(g7
(I0
tp22
g9
tp23
Rp24
(I1
(I3
tp25
g16
I00
S'\x8cA\x86\xbe\x19\x11C\xc0.\xe2\x16s>\r\x07@<\xd2\x19\x83\xe5\x11e\xc0'
p26
tp27
bsS'center_target_pixels'
p28
(I1282
I792
tp29
sS'center_actual_pixels'
p30
(I1266
I771
tp31
s.