(dp0
S'actual_pos'
p1
(cnumpy.core.multiarray
_reconstruct
p2
(cnumpy.matrixlib.defmatrix
matrix
p3
(I0
tp4
S'b'
p5
tp6
Rp7
(I1
(I1
I1
tp8
cnumpy
dtype
p9
(S'f8'
p10
I0
I1
tp11
Rp12
(I3
S'<'
p13
NNNI-1
I-1
I0
tp14
bI00
S'X\xdd\xd2\xc4w.\xb0?'
p15
tp16
bg2
(g3
(I0
tp17
g5
tp18
Rp19
(I1
(I1
I1
tp20
g12
I00
S'S\xa1\x94\xc3zU\x8f?'
p21
tp22
bg2
(g3
(I0
tp23
g5
tp24
Rp25
(I1
(I1
I1
tp26
g12
I00
S'B\xacs\xb2\xe1\xa3\xc5\xbf'
p27
tp28
btp29
sS'actual_rot'
p30
(F0.07502219374320514
F-12.430365901172735
F-171.548319829229
tp31
sS'target_pos'
p32
(lp33
cnumpy.core.multiarray
scalar
p34
(g12
S'\xfc\x99\x8c2\x90[\xb0?'
p35
tp36
Rp37
ag34
(g12
S'\x9d]\x8c\xdf\t\x0c\x8e?'
p38
tp39
Rp40
ag34
(g12
S'U7\xcbf\x17\xa8\xc5\xbf'
p41
tp42
Rp43
asS'target_rot'
p44
g2
(cnumpy
ndarray
p45
(I0
tp46
g5
tp47
Rp48
(I1
(I3
tp49
g12
I00
S'C\xc7\xe7\xe7\x91\t\xb4?\xf5\x11>!\xe6d(\xc0a@\tTb4e\xc0'
p50
tp51
bsS'center_target_pixels'
p52
(I802
I99
tp53
sS'center_actual_pixels'
p54
(I809
I75
tp55
s.(dp0
S'actual_pos'
p1
(cnumpy.core.multiarray
_reconstruct
p2
(cnumpy.matrixlib.defmatrix
matrix
p3
(I0
tp4
S'b'
p5
tp6
Rp7
(I1
(I1
I1
tp8
cnumpy
dtype
p9
(S'f8'
p10
I0
I1
tp11
Rp12
(I3
S'<'
p13
NNNI-1
I-1
I0
tp14
bI00
S'o\x01\xd4g\xd0F\xa8?'
p15
tp16
bg2
(g3
(I0
tp17
g5
tp18
Rp19
(I1
(I1
I1
tp20
g12
I00
S'\xa5p\x95\xec\xad\r\x8c?'
p21
tp22
bg2
(g3
(I0
tp23
g5
tp24
Rp25
(I1
(I1
I1
tp26
g12
I00
S'@R\x1e\x83\x90R\xc5\xbf'
p27
tp28
btp29
sS'actual_rot'
p30
(F0.162717580509821
F-11.242137415595282
F-173.39262561019837
tp31
sS'target_pos'
p32
(lp33
cnumpy.core.multiarray
scalar
p34
(g12
S'r\x03\xcc\x02E\xaf\xa8?'
p35
tp36
Rp37
ag34
(g12
S'\x8eT\xd1L\x18\xd6\x8a?'
p38
tp39
Rp40
ag34
(g12
S'\xb4\x06\xc4c[W\xc5\xbf'
p41
tp42
Rp43
asS'target_rot'
p44
g2
(cnumpy
ndarray
p45
(I0
tp46
g5
tp47
Rp48
(I1
(I3
tp49
g12
I00
S'C\xc7\xe7\xe7\x91\t\xb4?\xf5\x11>!\xe6d(\xc0a@\tTb4e\xc0'
p50
tp51
bsS'center_target_pixels'
p52
(I981
I109
tp53
sS'center_actual_pixels'
p54
(I988
I78
tp55
s.(dp0
S'actual_pos'
p1
(cnumpy.core.multiarray
_reconstruct
p2
(cnumpy.matrixlib.defmatrix
matrix
p3
(I0
tp4
S'b'
p5
tp6
Rp7
(I1
(I1
I1
tp8
cnumpy
dtype
p9
(S'f8'
p10
I0
I1
tp11
Rp12
(I3
S'<'
p13
NNNI-1
I-1
I0
tp14
bI00
S'?\xb20<\xaeG\x9e?'
p15
tp16
bg2
(g3
(I0
tp17
g5
tp18
Rp19
(I1
(I1
I1
tp20
g12
I00
S')v\x87\xd2\x08i\x88?'
p21
tp22
bg2
(g3
(I0
tp23
g5
tp24
Rp25
(I1
(I1
I1
tp26
g12
I00
S'\xf0\xcf\xa0A\xc5\x10\xc5\xbf'
p27
tp28
btp29
sS'actual_rot'
p30
(F0.34370588894306453
F-8.235948898326674
F-174.1425107070152
tp31
sS'target_pos'
p32
(lp33
cnumpy.core.multiarray
scalar
p34
(g12
S'\x86Z\xea\\"\x8a\x9f?'
p35
tp36
Rp37
ag34
(g12
S'}\x84h=X\x00\x87?'
p38
tp39
Rp40
ag34
(g12
S'\xbb\xc1q\xed\n\x17\xc5\xbf'
p41
tp42
Rp43
asS'target_rot'
p44
g2
(cnumpy
ndarray
p45
(I0
tp46
g5
tp47
Rp48
(I1
(I3
tp49
g12
I00
S'C\xc7\xe7\xe7\x91\t\xb4?\xf5\x11>!\xe6d(\xc0a@\tTb4e\xc0'
p50
tp51
bsS'center_target_pixels'
p52
(I1181
I118
tp53
sS'center_actual_pixels'
p54
(I1195
I88
tp55
s.(dp0
S'actual_pos'
p1
(cnumpy.core.multiarray
_reconstruct
p2
(cnumpy.matrixlib.defmatrix
matrix
p3
(I0
tp4
S'b'
p5
tp6
Rp7
(I1
(I1
I1
tp8
cnumpy
dtype
p9
(S'f8'
p10
I0
I1
tp11
Rp12
(I3
S'<'
p13
NNNI-1
I-1
I0
tp14
bI00
S'\xac\xef8\xfe^\xbd\x90?'
p15
tp16
bg2
(g3
(I0
tp17
g5
tp18
Rp19
(I1
(I1
I1
tp20
g12
I00
S'\xb4\xc0\xe3\x00A\x82\x86?'
p21
tp22
bg2
(g3
(I0
tp23
g5
tp24
Rp25
(I1
(I1
I1
tp26
g12
I00
S'p\xf9Z\x83\xb0\xaa\xc4\xbf'
p27
tp28
btp29
sS'actual_rot'
p30
(F0.415198814776844
F-6.416797852603826
F-174.4395538311666
tp31
sS'target_pos'
p32
(lp33
cnumpy.core.multiarray
scalar
p34
(g12
S'\x978\x05W\xc2.\x92?'
p35
tp36
Rp37
ag34
(g12
S'\xf4\\\xd0\xf7\x870\x85?'
p38
tp39
Rp40
ag34
(g12
S'\x92\x96@k\xd9\xaf\xc4\xbf'
p41
tp42
Rp43
asS'target_rot'
p44
g2
(cnumpy
ndarray
p45
(I0
tp46
g5
tp47
Rp48
(I1
(I3
tp49
g12
I00
S'C\xc7\xe7\xe7\x91\t\xb4?\xf5\x11>!\xe6d(\xc0a@\tTb4e\xc0'
p50
tp51
bsS'center_target_pixels'
p52
(I1332
I125
tp53
sS'center_actual_pixels'
p54
(I1352
I100
tp55
s.(dp0
S'actual_pos'
p1
(cnumpy.core.multiarray
_reconstruct
p2
(cnumpy.matrixlib.defmatrix
matrix
p3
(I0
tp4
S'b'
p5
tp6
Rp7
(I1
(I1
I1
tp8
cnumpy
dtype
p9
(S'f8'
p10
I0
I1
tp11
Rp12
(I3
S'<'
p13
NNNI-1
I-1
I0
tp14
bI00
S'!6\xa6_\x10\x08\xb2?'
p15
tp16
bg2
(g3
(I0
tp17
g5
tp18
Rp19
(I1
(I1
I1
tp20
g12
I00
S"/<'\xf2\x92)\x98?"
p21
tp22
bg2
(g3
(I0
tp23
g5
tp24
Rp25
(I1
(I1
I1
tp26
g12
I00
S'\xb4Oi\xafF\xb8\xc5\xbf'
p27
tp28
btp29
sS'actual_rot'
p30
(F-0.1941429916385206
F-14.230780597082873
F-169.38965149337045
tp31
sS'target_pos'
p32
(lp33
cnumpy.core.multiarray
scalar
p34
(g12
S'L\xb5+\xbcx,\xb2?'
p35
tp36
Rp37
ag34
(g12
S'\x11\xeayp\xaf\xa9\x97?'
p38
tp39
Rp40
ag34
(g12
S'\x08\x0c\xdb+\xc3\xbd\xc5\xbf'
p41
tp42
Rp43
asS'target_rot'
p44
g2
(cnumpy
ndarray
p45
(I0
tp46
g5
tp47
Rp48
(I1
(I3
tp49
g12
I00
S'C\xc7\xe7\xe7\x91\t\xb4?\xf5\x11>!\xe6d(\xc0a@\tTb4e\xc0'
p50
tp51
bsS'center_target_pixels'
p52
(I707
I183
tp53
sS'center_actual_pixels'
p54
(I714
I158
tp55
s.(dp0
S'actual_pos'
p1
(cnumpy.core.multiarray
_reconstruct
p2
(cnumpy.matrixlib.defmatrix
matrix
p3
(I0
tp4
S'b'
p5
tp6
Rp7
(I1
(I1
I1
tp8
cnumpy
dtype
p9
(S'f8'
p10
I0
I1
tp11
Rp12
(I3
S'<'
p13
NNNI-1
I-1
I0
tp14
bI00
S's\\\x15\x02\x94\xd5\xab?'
p15
tp16
bg2
(g3
(I0
tp17
g5
tp18
Rp19
(I1
(I1
I1
tp20
g12
I00
S'T\x8a\xb3\x0e\xf7\x84\x96?'
p21
tp22
bg2
(g3
(I0
tp23
g5
tp24
Rp25
(I1
(I1
I1
tp26
g12
I00
S'6j\xe1*\xf9|\xc5\xbf'
p27
tp28
btp29
sS'actual_rot'
p30
(F0.10371326328240216
F-11.937344150142572
F-171.55178429116867
tp31
sS'target_pos'
p32
(lp33
cnumpy.core.multiarray
scalar
p34
(g12
S'-h\xcd\xce\xa4?\xac?'
p35
tp36
Rp37
ag34
(g12
S'\xaf4j\\N\x07\x96?'
p38
tp39
Rp40
ag34
(g12
S'\xd3\x08\xae\x1b<\x82\xc5\xbf'
p41
tp42
Rp43
asS'target_rot'
p44
g2
(cnumpy
ndarray
p45
(I0
tp46
g5
tp47
Rp48
(I1
(I3
tp49
g12
I00
S'C\xc7\xe7\xe7\x91\t\xb4?\xf5\x11>!\xe6d(\xc0a@\tTb4e\xc0'
p50
tp51
bsS'center_target_pixels'
p52
(I888
I192
tp53
sS'center_actual_pixels'
p54
(I900
I165
tp55
s.(dp0
S'actual_pos'
p1
(cnumpy.core.multiarray
_reconstruct
p2
(cnumpy.matrixlib.defmatrix
matrix
p3
(I0
tp4
S'b'
p5
tp6
Rp7
(I1
(I1
I1
tp8
cnumpy
dtype
p9
(S'f8'
p10
I0
I1
tp11
Rp12
(I3
S'<'
p13
NNNI-1
I-1
I0
tp14
bI00
S'=\xf2\x88\x94\xc6\xd6\xa3?'
p15
tp16
bg2
(g3
(I0
tp17
g5
tp18
Rp19
(I1
(I1
I1
tp20
g12
I00
S'0\xe8\xb4\x88\x85\x03\x95?'
p21
tp22
bg2
(g3
(I0
tp23
g5
tp24
Rp25
(I1
(I1
I1
tp26
g12
I00
S'!\xc5\x10\xc4TD\xc5\xbf'
p27
tp28
btp29
sS'actual_rot'
p30
(F0.30575419833365886
F-10.191612794511187
F-172.84150739569856
tp31
sS'target_pos'
p32
(lp33
cnumpy.core.multiarray
scalar
p34
(g12
S'`\xb4|\xc7#S\xa4?'
p35
tp36
Rp37
ag34
(g12
S'\x10\xac\x0b3\xc8\xa4\x94?'
p38
tp39
Rp40
ag34
(g12
S'\x00H)\xd5\x83H\xc5\xbf'
p41
tp42
Rp43
asS'target_rot'
p44
g2
(cnumpy
ndarray
p45
(I0
tp46
g5
tp47
Rp48
(I1
(I3
tp49
g12
I00
S'C\xc7\xe7\xe7\x91\t\xb4?\xf5\x11>!\xe6d(\xc0a@\tTb4e\xc0'
p50
tp51
bsS'center_target_pixels'
p52
(I1065
I202
tp53
sS'center_actual_pixels'
p54
(I1077
I174
tp55
s.(dp0
S'actual_pos'
p1
(cnumpy.core.multiarray
_reconstruct
p2
(cnumpy.matrixlib.defmatrix
matrix
p3
(I0
tp4
S'b'
p5
tp6
Rp7
(I1
(I1
I1
tp8
cnumpy
dtype
p9
(S'f8'
p10
I0
I1
tp11
Rp12
(I3
S'<'
p13
NNNI-1
I-1
I0
tp14
bI00
S'Z\x91\x05\x8d\x19\xa6\x97?'
p15
tp16
bg2
(g3
(I0
tp17
g5
tp18
Rp19
(I1
(I1
I1
tp20
g12
I00
S'`\x82\xd0\xdb\xfe1\x93?'
p21
tp22
bg2
(g3
(I0
tp23
g5
tp24
Rp25
(I1
(I1
I1
tp26
g12
I00
S'\xf9\xcd\x0e\xf4\xd4\xff\xc4\xbf'
p27
tp28
btp29
sS'actual_rot'
p30
(F0.5828547112249336
F-7.638628038611146
F-174.04947264348468
tp31
sS'target_pos'
p32
(lp33
cnumpy.core.multiarray
scalar
p34
(g12
S'\xae\xb7\x87\x99*\xe0\x98?'
p35
tp36
Rp37
ag34
(g12
S'\x1f\x1a#\xb3\xfe\xd2\x92?'
p38
tp39
Rp40
ag34
(g12
S'\x1f\xd7\xa7\xf3\xea\x03\xc5\xbf'
p41
tp42
Rp43
asS'target_rot'
p44
g2
(cnumpy
ndarray
p45
(I0
tp46
g5
tp47
Rp48
(I1
(I3
tp49
g12
I00
S'C\xc7\xe7\xe7\x91\t\xb4?\xf5\x11>!\xe6d(\xc0a@\tTb4e\xc0'
p50
tp51
bsS'center_target_pixels'
p52
(I1241
I209
tp53
sS'center_actual_pixels'
p54
(I1259
I178
tp55
s.(dp0
S'actual_pos'
p1
(cnumpy.core.multiarray
_reconstruct
p2
(cnumpy.matrixlib.defmatrix
matrix
p3
(I0
tp4
S'b'
p5
tp6
Rp7
(I1
(I1
I1
tp8
cnumpy
dtype
p9
(S'f8'
p10
I0
I1
tp11
Rp12
(I3
S'<'
p13
NNNI-1
I-1
I0
tp14
bI00
S'5\x98\xb3m\xe3h~?'
p15
tp16
bg2
(g3
(I0
tp17
g5
tp18
Rp19
(I1
(I1
I1
tp20
g12
I00
S'*Xz{\xb7\x0c\x92?'
p21
tp22
bg2
(g3
(I0
tp23
g5
tp24
Rp25
(I1
(I1
I1
tp26
g12
I00
S'f\xbd\xd2jm\xad\xc4\xbf'
p27
tp28
btp29
sS'actual_rot'
p30
(F0.6585241723091855
F-6.37573259441101
F-174.58740582862012
tp31
sS'target_pos'
p32
(lp33
cnumpy.core.multiarray
scalar
p34
(g12
S'E\xbc\x1e\xcb\x05\xf7\x81?'
p35
tp36
Rp37
ag34
(g12
S'\xe0h\xcb\x11Q\x8f\x91?'
p38
tp39
Rp40
ag34
(g12
S'#g\xe1 \xb8\xb4\xc4\xbf'
p41
tp42
Rp43
asS'target_rot'
p44
g2
(cnumpy
ndarray
p45
(I0
tp46
g5
tp47
Rp48
(I1
(I3
tp49
g12
I00
S'C\xc7\xe7\xe7\x91\t\xb4?\xf5\x11>!\xe6d(\xc0a@\tTb4e\xc0'
p50
tp51
bsS'center_target_pixels'
p52
(I1416
I216
tp53
sS'center_actual_pixels'
p54
(I1436
I185
tp55
s.(dp0
S'actual_pos'
p1
(cnumpy.core.multiarray
_reconstruct
p2
(cnumpy.matrixlib.defmatrix
matrix
p3
(I0
tp4
S'b'
p5
tp6
Rp7
(I1
(I1
I1
tp8
cnumpy
dtype
p9
(S'f8'
p10
I0
I1
tp11
Rp12
(I3
S'<'
p13
NNNI-1
I-1
I0
tp14
bI00
S',`o\xf8g\xb1\xaf?'
p15
tp16
bg2
(g3
(I0
tp17
g5
tp18
Rp19
(I1
(I1
I1
tp20
g12
I00
S'\x81a\xd6&|W\x9f?'
p21
tp22
bg2
(g3
(I0
tp23
g5
tp24
Rp25
(I1
(I1
I1
tp26
g12
I00
S'\xfbc\xa9\x151\x98\xc5\xbf'
p27
tp28
btp29
sS'actual_rot'
p30
(F-0.37595499171701013
F-14.721043554317474
F-169.33460862267057
tp31
sS'target_pos'
p32
(lp33
cnumpy.core.multiarray
scalar
p34
(g12
S'\xc5\xe7]M\x8c\xe7\xaf?'
p35
tp36
Rp37
ag34
(g12
S'?Ut\xae\xd4\xdf\x9e?'
p38
tp39
Rp40
ag34
(g12
S'\xc7N)\x7fQ\xa2\xc5\xbf'
p41
tp42
Rp43
asS'target_rot'
p44
g2
(cnumpy
ndarray
p45
(I0
tp46
g5
tp47
Rp48
(I1
(I3
tp49
g12
I00
S'C\xc7\xe7\xe7\x91\t\xb4?\xf5\x11>!\xe6d(\xc0a@\tTb4e\xc0'
p50
tp51
bsS'center_target_pixels'
p52
(I795
I276
tp53
sS'center_actual_pixels'
p54
(I798
I249
tp55
s.(dp0
S'actual_pos'
p1
(cnumpy.core.multiarray
_reconstruct
p2
(cnumpy.matrixlib.defmatrix
matrix
p3
(I0
tp4
S'b'
p5
tp6
Rp7
(I1
(I1
I1
tp8
cnumpy
dtype
p9
(S'f8'
p10
I0
I1
tp11
Rp12
(I3
S'<'
p13
NNNI-1
I-1
I0
tp14
bI00
S'\x00\x16\x1bl\xdd\x94\xa7?'
p15
tp16
bg2
(g3
(I0
tp17
g5
tp18
Rp19
(I1
(I1
I1
tp20
g12
I00
S'k\xc1g_\xdc\xa3\x9d?'
p21
tp22
bg2
(g3
(I0
tp23
g5
tp24
Rp25
(I1
(I1
I1
tp26
g12
I00
S'&\xd7p\xf1vK\xc5\xbf'
p27
tp28
btp29
sS'actual_rot'
p30
(F0.11805193280903169
F-11.866717454030209
F-171.09989358219508
tp31
sS'target_pos'
p32
(lp33
cnumpy.core.multiarray
scalar
p34
(g12
S'\xf5\x9e\xa0\xec\xab\xeb\xa7?'
p35
tp36
Rp37
ag34
(g12
S'\xa5D\x86\x05?@\x9d?'
p38
tp39
Rp40
ag34
(g12
S'U\x9c\xba\xb2\xaaO\xc5\xbf'
p41
tp42
Rp43
asS'target_rot'
p44
g2
(cnumpy
ndarray
p45
(I0
tp46
g5
tp47
Rp48
(I1
(I3
tp49
g12
I00
S'C\xc7\xe7\xe7\x91\t\xb4?\xf5\x11>!\xe6d(\xc0a@\tTb4e\xc0'
p50
tp51
bsS'center_target_pixels'
p52
(I973
I284
tp53
sS'center_actual_pixels'
p54
(I981
I255
tp55
s.(dp0
S'actual_pos'
p1
(cnumpy.core.multiarray
_reconstruct
p2
(cnumpy.matrixlib.defmatrix
matrix
p3
(I0
tp4
S'b'
p5
tp6
Rp7
(I1
(I1
I1
tp8
cnumpy
dtype
p9
(S'f8'
p10
I0
I1
tp11
Rp12
(I3
S'<'
p13
NNNI-1
I-1
I0
tp14
bI00
S'\x13\xf4\xb1\x84\xe0\xe4\x9e?'
p15
tp16
bg2
(g3
(I0
tp17
g5
tp18
Rp19
(I1
(I1
I1
tp20
g12
I00
S'\xc7*Y\xe6\xef\x07\x9c?'
p21
tp22
bg2
(g3
(I0
tp23
g5
tp24
Rp25
(I1
(I1
I1
tp26
g12
I00
S'\xe5~\x9en\x1d0\xc5\xbf'
p27
tp28
btp29
sS'actual_rot'
p30
(F0.5538194323129727
F-9.209309332062498
F-172.5481715672797
tp31
sS'target_pos'
p32
(lp33
cnumpy.core.multiarray
scalar
p34
(g12
S'\x18\xf1K\xa5\xf9\xf1\x9f?'
p35
tp36
Rp37
ag34
(g12
S'Q\xad+\xca\xe3\x9a\x9b?'
p38
tp39
Rp40
ag34
(g12
S' \xcc\xf0\xac\xd84\xc5\xbf'
p41
tp42
Rp43
asS'target_rot'
p44
g2
(cnumpy
ndarray
p45
(I0
tp46
g5
tp47
Rp48
(I1
(I3
tp49
g12
I00
S'C\xc7\xe7\xe7\x91\t\xb4?\xf5\x11>!\xe6d(\xc0a@\tTb4e\xc0'
p50
tp51
bsS'center_target_pixels'
p52
(I1149
I292
tp53
sS'center_actual_pixels'
p54
(I1164
I264
tp55
s.(dp0
S'actual_pos'
p1
(cnumpy.core.multiarray
_reconstruct
p2
(cnumpy.matrixlib.defmatrix
matrix
p3
(I0
tp4
S'b'
p5
tp6
Rp7
(I1
(I1
I1
tp8
cnumpy
dtype
p9
(S'f8'
p10
I0
I1
tp11
Rp12
(I3
S'<'
p13
NNNI-1
I-1
I0
tp14
bI00
S'\xcelLV\xc9\x1e\x8e?'
p15
tp16
bg2
(g3
(I0
tp17
g5
tp18
Rp19
(I1
(I1
I1
tp20
g12
I00
S'2_|\xbab\xd6\x9a?'
p21
tp22
bg2
(g3
(I0
tp23
g5
tp24
Rp25
(I1
(I1
I1
tp26
g12
I00
S'y\x8d-\xdbg\xc3\xc4\xbf'
p27
tp28
btp29
sS'actual_rot'
p30
(F0.9021603147395955
F-6.860207195901097
F-173.65082479522553
tp31
sS'target_pos'
p32
(lp33
cnumpy.core.multiarray
scalar
p34
(g12
S'N\xccI\xd5\xf5`\x90?'
p35
tp36
Rp37
ag34
(g12
S'\x1f\xed\x97\xa8\xcc\x85\x9a?'
p38
tp39
Rp40
ag34
(g12
S'5\x9fi\xb8\x8d\xc7\xc4\xbf'
p41
tp42
Rp43
asS'target_rot'
p44
g2
(cnumpy
ndarray
p45
(I0
tp46
g5
tp47
Rp48
(I1
(I3
tp49
g12
I00
S'C\xc7\xe7\xe7\x91\t\xb4?\xf5\x11>!\xe6d(\xc0a@\tTb4e\xc0'
p50
tp51
bsS'center_target_pixels'
p52
(I1325
I300
tp53
sS'center_actual_pixels'
p54
(I1342
I270
tp55
s.(dp0
S'actual_pos'
p1
(cnumpy.core.multiarray
_reconstruct
p2
(cnumpy.matrixlib.defmatrix
matrix
p3
(I0
tp4
S'b'
p5
tp6
Rp7
(I1
(I1
I1
tp8
cnumpy
dtype
p9
(S'f8'
p10
I0
I1
tp11
Rp12
(I3
S'<'
p13
NNNI-1
I-1
I0
tp14
bI00
S'j\xf3\xbb\xb4\x03\xc7\xb1?'
p15
tp16
bg2
(g3
(I0
tp17
g5
tp18
Rp19
(I1
(I1
I1
tp20
g12
I00
S'l\xdaq\xb0C\x11\xa4?'
p21
tp22
bg2
(g3
(I0
tp23
g5
tp24
Rp25
(I1
(I1
I1
tp26
g12
I00
S'\xe6N.\xef2\x9b\xc5\xbf'
p27
tp28
btp29
sS'actual_rot'
p30
(F-0.8927892369945142
F-16.43842257294642
F-167.08736124180857
tp31
sS'target_pos'
p32
(lp33
cnumpy.core.multiarray
scalar
p34
(g12
S'@+\xab%\x01\xd0\xb1?'
p35
tp36
Rp37
ag34
(g12
S'\xcff\xdc.^\xd6\xa3?'
p38
tp39
Rp40
ag34
(g12
S'<vB\x91\x8f\xa6\xc5\xbf'
p41
tp42
Rp43
asS'target_rot'
p44
g2
(cnumpy
ndarray
p45
(I0
tp46
g5
tp47
Rp48
(I1
(I3
tp49
g12
I00
S'C\xc7\xe7\xe7\x91\t\xb4?\xf5\x11>!\xe6d(\xc0a@\tTb4e\xc0'
p50
tp51
bsS'center_target_pixels'
p52
(I700
I361
tp53
sS'center_actual_pixels'
p54
(I705
I330
tp55
s.(dp0
S'actual_pos'
p1
(cnumpy.core.multiarray
_reconstruct
p2
(cnumpy.matrixlib.defmatrix
matrix
p3
(I0
tp4
S'b'
p5
tp6
Rp7
(I1
(I1
I1
tp8
cnumpy
dtype
p9
(S'f8'
p10
I0
I1
tp11
Rp12
(I3
S'<'
p13
NNNI-1
I-1
I0
tp14
bI00
S'dI\xc5\xfa\xb0:\xab?'
p15
tp16
bg2
(g3
(I0
tp17
g5
tp18
Rp19
(I1
(I1
I1
tp20
g12
I00
S'\xb5\xdal(\x95P\xa3?'
p21
tp22
bg2
(g3
(I0
tp23
g5
tp24
Rp25
(I1
(I1
I1
tp26
g12
I00
S'$\x86\xa6\xa2\xa4_\xc5\xbf'
p27
tp28
btp29
sS'actual_rot'
p30
(F-0.23017883560169133
F-13.459603322689869
F-168.97106180272965
tp31
sS'target_pos'
p32
(lp33
cnumpy.core.multiarray
scalar
p34
(g12
S'@\xb5\xb9\xc0\xa4\x86\xab?'
p35
tp36
Rp37
ag34
(g12
S': \xd3\xfa:\x10\xa3?'
p38
tp39
Rp40
ag34
(g12
S'\x81\xb7\xea\x02vh\xc5\xbf'
p41
tp42
Rp43
asS'target_rot'
p44
g2
(cnumpy
ndarray
p45
(I0
tp46
g5
tp47
Rp48
(I1
(I3
tp49
g12
I00
S'C\xc7\xe7\xe7\x91\t\xb4?\xf5\x11>!\xe6d(\xc0a@\tTb4e\xc0'
p50
tp51
bsS'center_target_pixels'
p52
(I881
I369
tp53
sS'center_actual_pixels'
p54
(I887
I345
tp55
s.(dp0
S'actual_pos'
p1
(cnumpy.core.multiarray
_reconstruct
p2
(cnumpy.matrixlib.defmatrix
matrix
p3
(I0
tp4
S'b'
p5
tp6
Rp7
(I1
(I1
I1
tp8
cnumpy
dtype
p9
(S'f8'
p10
I0
I1
tp11
Rp12
(I3
S'<'
p13
NNNI-1
I-1
I0
tp14
bI00
S'9\xc0\xb2]F-\xa3?'
p15
tp16
bg2
(g3
(I0
tp17
g5
tp18
Rp19
(I1
(I1
I1
tp20
g12
I00
S'Ojy\x81\x7f\x87\xa2?'
p21
tp22
bg2
(g3
(I0
tp23
g5
tp24
Rp25
(I1
(I1
I1
tp26
g12
I00
S'\xf1\x9b~{\xdb2\xc5\xbf'
p27
tp28
btp29
sS'actual_rot'
p30
(F0.31728101483673726
F-10.981855828264885
F-170.50437316234328
tp31
sS'target_pos'
p32
(lp33
cnumpy.core.multiarray
scalar
p34
(g12
S'\xc3r[\xbcM\x9f\xa3?'
p35
tp36
Rp37
ag34
(g12
S'\x94\xc9?\xe0\x19G\xa2?'
p38
tp39
Rp40
ag34
(g12
S'\x89\x9c\xec\xd0V;\xc5\xbf'
p41
tp42
Rp43
asS'target_rot'
p44
g2
(cnumpy
ndarray
p45
(I0
tp46
g5
tp47
Rp48
(I1
(I3
tp49
g12
I00
S'C\xc7\xe7\xe7\x91\t\xb4?\xf5\x11>!\xe6d(\xc0a@\tTb4e\xc0'
p50
tp51
bsS'center_target_pixels'
p52
(I1058
I376
tp53
sS'center_actual_pixels'
p54
(I1071
I351
tp55
s.(dp0
S'actual_pos'
p1
(cnumpy.core.multiarray
_reconstruct
p2
(cnumpy.matrixlib.defmatrix
matrix
p3
(I0
tp4
S'b'
p5
tp6
Rp7
(I1
(I1
I1
tp8
cnumpy
dtype
p9
(S'f8'
p10
I0
I1
tp11
Rp12
(I3
S'<'
p13
NNNI-1
I-1
I0
tp14
bI00
S'\xc4\xbe1pZ\\\x96?'
p15
tp16
bg2
(g3
(I0
tp17
g5
tp18
Rp19
(I1
(I1
I1
tp20
g12
I00
S'\xff9\xd9\x1a\x11\xa2\xa1?'
p21
tp22
bg2
(g3
(I0
tp23
g5
tp24
Rp25
(I1
(I1
I1
tp26
g12
I00
S'\xee!\xe2\x92\x9e\xf1\xc4\xbf'
p27
tp28
btp29
sS'actual_rot'
p30
(F0.8980687912580858
F-8.088996379767348
F-171.79629014849363
tp31
sS'target_pos'
p32
(lp33
cnumpy.core.multiarray
scalar
p34
(g12
S'\xd9\xdb\xac#\xe9}\x97?'
p35
tp36
Rp37
ag34
(g12
S'\x8b\xc1\x89\xbf\xc3n\xa1?'
p38
tp39
Rp40
ag34
(g12
S'\x8a\xf9\x93\xa4\xa1\xf8\xc4\xbf'
p41
tp42
Rp43
asS'target_rot'
p44
g2
(cnumpy
ndarray
p45
(I0
tp46
g5
tp47
Rp48
(I1
(I3
tp49
g12
I00
S'C\xc7\xe7\xe7\x91\t\xb4?\xf5\x11>!\xe6d(\xc0a@\tTb4e\xc0'
p50
tp51
bsS'center_target_pixels'
p52
(I1234
I383
tp53
sS'center_actual_pixels'
p54
(I1254
I360
tp55
s.(dp0
S'actual_pos'
p1
(cnumpy.core.multiarray
_reconstruct
p2
(cnumpy.matrixlib.defmatrix
matrix
p3
(I0
tp4
S'b'
p5
tp6
Rp7
(I1
(I1
I1
tp8
cnumpy
dtype
p9
(S'f8'
p10
I0
I1
tp11
Rp12
(I3
S'<'
p13
NNNI-1
I-1
I0
tp14
bI00
S'\x1ak\xd0\xa8,\xffx?'
p15
tp16
bg2
(g3
(I0
tp17
g5
tp18
Rp19
(I1
(I1
I1
tp20
g12
I00
S'\xb9\\\x8dpb\x1e\xa1?'
p21
tp22
bg2
(g3
(I0
tp23
g5
tp24
Rp25
(I1
(I1
I1
tp26
g12
I00
S'Vt\x11\xe7\xd1\xa2\xc4\xbf'
p27
tp28
btp29
sS'actual_rot'
p30
(F1.1349101371369168
F-6.8664152003660766
F-173.08594555192053
tp31
sS'target_pos'
p32
(lp33
cnumpy.core.multiarray
scalar
p34
(g12
S'\xf8\xc7\xc2b\x1a\x1f~?'
p35
tp36
Rp37
ag34
(g12
S'\x93\xa9\xff\xd1G\xde\xa0?'
p38
tp39
Rp40
ag34
(g12
S'T\xe5\x0b\xd4\x84\xac\xc4\xbf'
p41
tp42
Rp43
asS'target_rot'
p44
g2
(cnumpy
ndarray
p45
(I0
tp46
g5
tp47
Rp48
(I1
(I3
tp49
g12
I00
S'C\xc7\xe7\xe7\x91\t\xb4?\xf5\x11>!\xe6d(\xc0a@\tTb4e\xc0'
p50
tp51
bsS'center_target_pixels'
p52
(I1409
I390
tp53
sS'center_actual_pixels'
p54
(I1430
I368
tp55
s.(dp0
S'actual_pos'
p1
(cnumpy.core.multiarray
_reconstruct
p2
(cnumpy.matrixlib.defmatrix
matrix
p3
(I0
tp4
S'b'
p5
tp6
Rp7
(I1
(I1
I1
tp8
cnumpy
dtype
p9
(S'f8'
p10
I0
I1
tp11
Rp12
(I3
S'<'
p13
NNNI-1
I-1
I0
tp14
bI00
S'\xf5\x8a\x1d\xae\xa8\x12\xaf?'
p15
tp16
bg2
(g3
(I0
tp17
g5
tp18
Rp19
(I1
(I1
I1
tp20
g12
I00
S'R#\x1c\xc5Q\xaa\xa7?'
p21
tp22
bg2
(g3
(I0
tp23
g5
tp24
Rp25
(I1
(I1
I1
tp26
g12
I00
S'G\x8esC\xca\x88\xc5\xbf'
p27
tp28
btp29
sS'actual_rot'
p30
(F-1.0292861822346115
F-16.210135628290573
F-166.77809720425213
tp31
sS'target_pos'
p32
(lp33
cnumpy.core.multiarray
scalar
p34
(g12
S'\xe6\xd8\x0f\nv/\xaf?'
p35
tp36
Rp37
ag34
(g12
S'\xab\x91\xa5^{k\xa7?'
p38
tp39
Rp40
ag34
(g12
S'o\x0f\x9fx\xdd\x96\xc5\xbf'
p41
tp42
Rp43
asS'target_rot'
p44
g2
(cnumpy
ndarray
p45
(I0
tp46
g5
tp47
Rp48
(I1
(I3
tp49
g12
I00
S'C\xc7\xe7\xe7\x91\t\xb4?\xf5\x11>!\xe6d(\xc0a@\tTb4e\xc0'
p50
tp51
bsS'center_target_pixels'
p52
(I788
I453
tp53
sS'center_actual_pixels'
p54
(I791
I424
tp55
s.(dp0
S'actual_pos'
p1
(cnumpy.core.multiarray
_reconstruct
p2
(cnumpy.matrixlib.defmatrix
matrix
p3
(I0
tp4
S'b'
p5
tp6
Rp7
(I1
(I1
I1
tp8
cnumpy
dtype
p9
(S'f8'
p10
I0
I1
tp11
Rp12
(I3
S'<'
p13
NNNI-1
I-1
I0
tp14
bI00
S'\x00\x08\xaf\x8f\x85\xd1\xa6?'
p15
tp16
bg2
(g3
(I0
tp17
g5
tp18
Rp19
(I1
(I1
I1
tp20
g12
I00
S'\x08\x9a\x9f\x8dt\xed\xa6?'
p21
tp22
bg2
(g3
(I0
tp23
g5
tp24
Rp25
(I1
(I1
I1
tp26
g12
I00
S'\xe2Ia^I:\xc5\xbf'
p27
tp28
btp29
sS'actual_rot'
p30
(F-0.11510391134606557
F-12.786855799077754
F-168.20058642226468
tp31
sS'target_pos'
p32
(lp33
cnumpy.core.multiarray
scalar
p34
(g12
S'@\xfaP\xa1\xc4#\xa7?'
p35
tp36
Rp37
ag34
(g12
S'g4B3\xaf\xab\xa6?'
p38
tp39
Rp40
ag34
(g12
S'}\x8a\xea\x8b\xbfD\xc5\xbf'
p41
tp42
Rp43
asS'target_rot'
p44
g2
(cnumpy
ndarray
p45
(I0
tp46
g5
tp47
Rp48
(I1
(I3
tp49
g12
I00
S'C\xc7\xe7\xe7\x91\t\xb4?\xf5\x11>!\xe6d(\xc0a@\tTb4e\xc0'
p50
tp51
bsS'center_target_pixels'
p52
(I967
I461
tp53
sS'center_actual_pixels'
p54
(I791
I424
tp55
s.