(dp0
S'actual_pos'
p1
(lp2
F0.06986803618800781
aF0.017883762347045463
aF-0.16673917658434353
asS'actual_rot'
p3
(lp4
F-0.21506264209974044
aF2.4817566489025813
aF-167.49250641891197
asS'target_pos'
p5
cnumpy.core.multiarray
_reconstruct
p6
(cnumpy
ndarray
p7
(I0
tp8
S'b'
p9
tp10
Rp11
(I1
(I3
tp12
cnumpy
dtype
p13
(S'f8'
p14
I0
I1
tp15
Rp16
(I3
S'<'
p17
NNNI-1
I-1
I0
tp18
bI00
S'\xccc\x19\xa9\xf1\xfa\xb1?\xacd/C\xde\xaf\x91?\t:e\x1f3Y\xc5\xbf'
p19
tp20
bsS'target_rot'
p21
g6
(g7
(I0
tp22
g9
tp23
Rp24
(I1
(I3
tp25
g16
I00
S'\x00\x00\x00\x00\x00\x00\x00\x00\x00\x00\x00\x00\x00\x00\x14@\x00\x00\x00\x00\x00\xf0d\xc0'
p26
tp27
bsS'center_target_pixels'
p28
(I730
I121
tp29
sS'center_actual_pixels'
p30
(I751
I86
tp31
s.(dp0
S'actual_pos'
p1
(lp2
F0.05448648541355474
aF0.017071594307907438
aF-0.16328062494627896
asS'actual_rot'
p3
(lp4
F-0.03747954487288834
aF4.03246368518262
aF-169.3150075195215
asS'target_pos'
p5
cnumpy.core.multiarray
_reconstruct
p6
(cnumpy
ndarray
p7
(I0
tp8
S'b'
p9
tp10
Rp11
(I1
(I3
tp12
cnumpy
dtype
p13
(S'f8'
p14
I0
I1
tp15
Rp16
(I3
S'<'
p17
NNNI-1
I-1
I0
tp18
bI00
S'\x92\x8f\xac\xe9\xd43\xac?d\x95a\xd9\xb8\xe0\x90?\xe0\xfa\xd50P\xea\xc4\xbf'
p19
tp20
bsS'target_rot'
p21
g6
(g7
(I0
tp22
g9
tp23
Rp24
(I1
(I3
tp25
g16
I00
S'\x00\x00\x00\x00\x00\x00\x00\x00\x00\x00\x00\x00\x00\x00\x14@\x00\x00\x00\x00\x00\xf0d\xc0'
p26
tp27
bsS'center_target_pixels'
p28
(I906
I134
tp29
sS'center_actual_pixels'
p30
(I928
I109
tp31
s.(dp0
S'actual_pos'
p1
(lp2
F0.0385674361532659
aF0.014256117716208943
aF-0.1650245309034969
asS'actual_rot'
p3
(lp4
F0.06789830772508992
aF5.347585541561912
aF-171.6233009940689
asS'target_pos'
p5
cnumpy.core.multiarray
_reconstruct
p6
(cnumpy
ndarray
p7
(I0
tp8
S'b'
p9
tp10
Rp11
(I1
(I3
tp12
cnumpy
dtype
p13
(S'f8'
p14
I0
I1
tp15
Rp16
(I3
S'<'
p17
NNNI-1
I-1
I0
tp18
bI00
S'8o\x94K\x87\x1e\xa4?\x96\xafm\xdaV\xe3\x8b?Y\xbe\x19T\xb5%\xc5\xbf'
p19
tp20
bsS'target_rot'
p21
g6
(g7
(I0
tp22
g9
tp23
Rp24
(I1
(I3
tp25
g16
I00
S'\x00\x00\x00\x00\x00\x00\x00\x00\x00\x00\x00\x00\x00\x00\x14@\x00\x00\x00\x00\x00\xf0d\xc0'
p26
tp27
bsS'center_target_pixels'
p28
(I1079
I145
tp29
sS'center_actual_pixels'
p30
(I1112
I103
tp31
s.(dp0
S'actual_pos'
p1
(lp2
F0.022802835210000177
aF0.012265217339097927
aF-0.1641559856653312
asS'actual_rot'
p3
(lp4
F0.1074729240437395
aF5.715864975186555
aF-172.20425159946365
asS'target_pos'
p5
cnumpy.core.multiarray
_reconstruct
p6
(cnumpy
ndarray
p7
(I0
tp8
S'b'
p9
tp10
Rp11
(I1
(I3
tp12
cnumpy
dtype
p13
(S'f8'
p14
I0
I1
tp15
Rp16
(I3
S'<'
p17
NNNI-1
I-1
I0
tp18
bI00
S',\xd3\x93\x8c\xa0\xea\x97?\x84\xb7\xf0B\t\x12\x88?\x8e/\xf7\x9e\xf2\n\xc5\xbf'
p19
tp20
bsS'target_rot'
p21
g6
(g7
(I0
tp22
g9
tp23
Rp24
(I1
(I3
tp25
g16
I00
S'\x00\x00\x00\x00\x00\x00\x00\x00\x00\x00\x00\x00\x00\x00\x14@\x00\x00\x00\x00\x00\xf0d\xc0'
p26
tp27
bsS'center_target_pixels'
p28
(I1251
I157
tp29
sS'center_actual_pixels'
p30
(I1292
I112
tp31
s.(dp0
S'actual_pos'
p1
(lp2
F0.06203688667019216
aF0.02479889041201492
aF-0.1659556315570055
asS'actual_rot'
p3
(lp4
F-0.80077797831615
aF-0.31065251140965777
aF-165.0670869549786
asS'target_pos'
p5
cnumpy.core.multiarray
_reconstruct
p6
(cnumpy
ndarray
p7
(I0
tp8
S'b'
p9
tp10
Rp11
(I1
(I3
tp12
cnumpy
dtype
p13
(S'f8'
p14
I0
I1
tp15
Rp16
(I3
S'<'
p17
NNNI-1
I-1
I0
tp18
bI00
S'\xd6\x800\x07\xb6\xb5\xaf?W?\xfb\x1c\x98\x04\x99?\xcbO\xe5\x02\xcb@\xc5\xbf'
p19
tp20
bsS'target_rot'
p21
g6
(g7
(I0
tp22
g9
tp23
Rp24
(I1
(I3
tp25
g16
I00
S'\x00\x00\x00\x00\x00\x00\x00\x00\x00\x00\x00\x00\x00\x00\x14@\x00\x00\x00\x00\x00\xf0d\xc0'
p26
tp27
bsS'center_target_pixels'
p28
(I813
I214
tp29
sS'center_actual_pixels'
p30
(I833
I178
tp31
s.(dp0
S'actual_pos'
p1
(lp2
F0.04598670378721268
aF0.022186251079747907
aF-0.16786492940690587
asS'actual_rot'
p3
(lp4
F-0.2749653003610197
aF2.780012149424044
aF-167.58434300838027
asS'target_pos'
p5
cnumpy.core.multiarray
_reconstruct
p6
(cnumpy
ndarray
p7
(I0
tp8
S'b'
p9
tp10
Rp11
(I1
(I3
tp12
cnumpy
dtype
p13
(S'f8'
p14
I0
I1
tp15
Rp16
(I3
S'<'
p17
NNNI-1
I-1
I0
tp18
bI00
S'\x0c\x0c\x98\xa4\xda\xac\xa7?F[@\x96C_\x96?\x12Y\x93}\x8f\x81\xc5\xbf'
p19
tp20
bsS'target_rot'
p21
g6
(g7
(I0
tp22
g9
tp23
Rp24
(I1
(I3
tp25
g16
I00
S'\x00\x00\x00\x00\x00\x00\x00\x00\x00\x00\x00\x00\x00\x00\x14@\x00\x00\x00\x00\x00\xf0d\xc0'
p26
tp27
bsS'center_target_pixels'
p28
(I987
I226
tp29
sS'center_actual_pixels'
p30
(I1014
I190
tp31
s.(dp0
S'actual_pos'
p1
(lp2
F0.029853869083910235
aF0.020470785162879722
aF-0.1667261703162304
asS'actual_rot'
p3
(lp4
F-0.002010561255461715
aF4.955980801658939
aF-169.89595690352505
asS'target_pos'
p5
cnumpy.core.multiarray
_reconstruct
p6
(cnumpy
ndarray
p7
(I0
tp8
S'b'
p9
tp10
Rp11
(I1
(I3
tp12
cnumpy
dtype
p13
(S'f8'
p14
I0
I1
tp15
Rp16
(I3
S'<'
p17
NNNI-1
I-1
I0
tp18
bI00
S'\x90\x0f\xa9&%\x1d\x9f?\x8eQ \xe3\xfd\x91\x94?\xb5\xea~\xdc\xfe^\xc5\xbf'
p19
tp20
bsS'target_rot'
p21
g6
(g7
(I0
tp22
g9
tp23
Rp24
(I1
(I3
tp25
g16
I00
S'\x00\x00\x00\x00\x00\x00\x00\x00\x00\x00\x00\x00\x00\x00\x14@\x00\x00\x00\x00\x00\xf0d\xc0'
p26
tp27
bsS'center_target_pixels'
p28
(I1160
I237
tp29
sS'center_actual_pixels'
p30
(I1205
I193
tp31
s.(dp0
S'actual_pos'
p1
(lp2
F0.016270458470679233
aF0.021245517734894033
aF-0.15777651138761284
asS'actual_rot'
p3
(lp4
F0.051934938532031745
aF5.441858978627215
aF-171.3566643016544
asS'target_pos'
p5
cnumpy.core.multiarray
_reconstruct
p6
(cnumpy
ndarray
p7
(I0
tp8
S'b'
p9
tp10
Rp11
(I1
(I3
tp12
cnumpy
dtype
p13
(S'f8'
p14
I0
I1
tp15
Rp16
(I3
S'<'
p17
NNNI-1
I-1
I0
tp18
bI00
S'\xd0x\x9eMJ!\x91?A\x15=Z\x1b\x91\x95?\x98\xd7i\xd2\n9\xc4\xbf'
p19
tp20
bsS'target_rot'
p21
g6
(g7
(I0
tp22
g9
tp23
Rp24
(I1
(I3
tp25
g16
I00
S'\x00\x00\x00\x00\x00\x00\x00\x00\x00\x00\x00\x00\x00\x00\x14@\x00\x00\x00\x00\x00\xf0d\xc0'
p26
tp27
bsS'center_target_pixels'
p28
(I1331
I248
tp29
sS'center_actual_pixels'
p30
(I1361
I211
tp31
s.(dp0
S'actual_pos'
p1
(lp2
F0.06909870885528427
aF0.03346625089864374
aF-0.1657666905263188
asS'actual_rot'
p3
(lp4
F-1.2484007506475907
aF-1.1270639244011755
aF-164.28576991791846
asS'target_pos'
p5
cnumpy.core.multiarray
_reconstruct
p6
(cnumpy
ndarray
p7
(I0
tp8
S'b'
p9
tp10
Rp11
(I1
(I3
tp12
cnumpy
dtype
p13
(S'f8'
p14
I0
I1
tp15
Rp16
(I3
S'<'
p17
NNNI-1
I-1
I0
tp18
bI00
S'=o\xc1\x10\xfb\x9d\xb1?\xe6\xb9\xcf\x94\x87\xf6\xa0?\xc14!_`:\xc5\xbf'
p19
tp20
bsS'target_rot'
p21
g6
(g7
(I0
tp22
g9
tp23
Rp24
(I1
(I3
tp25
g16
I00
S'\x00\x00\x00\x00\x00\x00\x00\x00\x00\x00\x00\x00\x00\x00\x14@\x00\x00\x00\x00\x00\xf0d\xc0'
p26
tp27
bsS'center_target_pixels'
p28
(I720
I294
tp29
sS'center_actual_pixels'
p30
(I734
I268
tp31
s.(dp0
S'actual_pos'
p1
(lp2
F0.05326421663356728
aF0.03127368997819614
aF-0.16768259952197906
asS'actual_rot'
p3
(lp4
F-0.6487399443933785
aF1.412345036597289
aF-167.0407467037964
asS'target_pos'
p5
cnumpy.core.multiarray
_reconstruct
p6
(cnumpy
ndarray
p7
(I0
tp8
S'b'
p9
tp10
Rp11
(I1
(I3
tp12
cnumpy
dtype
p13
(S'f8'
p14
I0
I1
tp15
Rp16
(I3
S'<'
p17
NNNI-1
I-1
I0
tp18
bI00
S'(\xcf\xe4\x94\x92b\xab?\xa7\xd3H\r\xf7\x8d\x9f?*<-\x8bt{\xc5\xbf'
p19
tp20
bsS'target_rot'
p21
g6
(g7
(I0
tp22
g9
tp23
Rp24
(I1
(I3
tp25
g16
I00
S'\x00\x00\x00\x00\x00\x00\x00\x00\x00\x00\x00\x00\x00\x00\x14@\x00\x00\x00\x00\x00\xf0d\xc0'
p26
tp27
bsS'center_target_pixels'
p28
(I895
I306
tp29
sS'center_actual_pixels'
p30
(I913
I282
tp31
s.(dp0
S'actual_pos'
p1
(lp2
F0.03730595347010186
aF0.029525169122384783
aF-0.16692101294719794
asS'actual_rot'
p3
(lp4
F-0.14366422521094582
aF4.024640773186933
aF-168.74176342936713
asS'target_pos'
p5
cnumpy.core.multiarray
_reconstruct
p6
(cnumpy
ndarray
p7
(I0
tp8
S'b'
p9
tp10
Rp11
(I1
(I3
tp12
cnumpy
dtype
p13
(S'f8'
p14
I0
I1
tp15
Rp16
(I3
S'<'
p17
NNNI-1
I-1
I0
tp18
bI00
S'+#\xb0\xc3\x98]\xa3?\x0b\xa7\r\xbe\xdb\xc7\x9d?h\x97\x14\xd8!e\xc5\xbf'
p19
tp20
bsS'target_rot'
p21
g6
(g7
(I0
tp22
g9
tp23
Rp24
(I1
(I3
tp25
g16
I00
S'\x00\x00\x00\x00\x00\x00\x00\x00\x00\x00\x00\x00\x00\x00\x14@\x00\x00\x00\x00\x00\xf0d\xc0'
p26
tp27
bsS'center_target_pixels'
p28
(I1069
I317
tp29
sS'center_actual_pixels'
p30
(I1102
I286
tp31
s.(dp0
S'actual_pos'
p1
(lp2
F0.021363493001974803
aF0.02765345010255981
aF-0.16605405816161486
asS'actual_rot'
p3
(lp4
F0.08491691850098537
aF5.391869105441506
aF-171.17117711470394
asS'target_pos'
p5
cnumpy.core.multiarray
_reconstruct
p6
(cnumpy
ndarray
p7
(I0
tp8
S'b'
p9
tp10
Rp11
(I1
(I3
tp12
cnumpy
dtype
p13
(S'f8'
p14
I0
I1
tp15
Rp16
(I3
S'<'
p17
NNNI-1
I-1
I0
tp18
bI00
S'B\x89cB\xb9l\x96?]\x9b\xb6\xa7\xa0\xec\x9b?\xb2\xc6\x8f\xac\x93J\xc5\xbf'
p19
tp20
bsS'target_rot'
p21
g6
(g7
(I0
tp22
g9
tp23
Rp24
(I1
(I3
tp25
g16
I00
S'\x00\x00\x00\x00\x00\x00\x00\x00\x00\x00\x00\x00\x00\x00\x14@\x00\x00\x00\x00\x00\xf0d\xc0'
p26
tp27
bsS'center_target_pixels'
p28
(I1241
I327
tp29
sS'center_actual_pixels'
p30
(I1280
I288
tp31
s.(dp0
S'actual_pos'
p1
(lp2
F0.005746502182833454
aF0.02654829886688966
aF-0.1625898552439095
asS'actual_rot'
p3
(lp4
F0.44978006294055073
aF7.828831842813265
aF-171.86378157194338
asS'target_pos'
p5
cnumpy.core.multiarray
_reconstruct
p6
(cnumpy
ndarray
p7
(I0
tp8
S'b'
p9
tp10
Rp11
(I1
(I3
tp12
cnumpy
dtype
p13
(S'f8'
p14
I0
I1
tp15
Rp16
(I3
S'<'
p17
NNNI-1
I-1
I0
tp18
bI00
S'@\xf6Y\xc6\x11\x0c{?,\xca\x8b\x8bl\xf7\x9a?\xdda\xd2k`\xda\xc4\xbf'
p19
tp20
bsS'target_rot'
p21
g6
(g7
(I0
tp22
g9
tp23
Rp24
(I1
(I3
tp25
g16
I00
S'\x00\x00\x00\x00\x00\x00\x00\x00\x00\x00\x00\x00\x00\x00\x14@\x00\x00\x00\x00\x00\xf0d\xc0'
p26
tp27
bsS'center_target_pixels'
p28
(I1411
I338
tp29
sS'center_actual_pixels'
p30
(I1459
I294
tp31
s.(dp0
S'actual_pos'
p1
(lp2
F0.06063316311549579
aF0.040036780824997335
aF-0.16773773860154526
asS'actual_rot'
p3
(lp4
F-1.3689950135439397
aF-0.6451609212094414
aF-164.31658914178226
asS'target_pos'
p5
cnumpy.core.multiarray
_reconstruct
p6
(cnumpy
ndarray
p7
(I0
tp8
S'b'
p9
tp10
Rp11
(I1
(I3
tp12
cnumpy
dtype
p13
(S'f8'
p14
I0
I1
tp15
Rp16
(I3
S'<'
p17
NNNI-1
I-1
I0
tp18
bI00
S'\\\xb2\xf2aX\xf7\xae?,\xc6,\xcd3>\xa4?\xaezxF\x8c}\xc5\xbf'
p19
tp20
bsS'target_rot'
p21
g6
(g7
(I0
tp22
g9
tp23
Rp24
(I1
(I3
tp25
g16
I00
S'\x00\x00\x00\x00\x00\x00\x00\x00\x00\x00\x00\x00\x00\x00\x14@\x00\x00\x00\x00\x00\xf0d\xc0'
p26
tp27
bsS'center_target_pixels'
p28
(I803
I387
tp29
sS'center_actual_pixels'
p30
(I820
I358
tp31
s.(dp0
S'actual_pos'
p1
(lp2
F0.044523780415614195
aF0.03803158003878361
aF-0.16914076799463512
asS'actual_rot'
p3
(lp4
F-0.5713518721751655
aF2.1365899024071155
aF-166.74091550706163
asS'target_pos'
p5
cnumpy.core.multiarray
_reconstruct
p6
(cnumpy
ndarray
p7
(I0
tp8
S'b'
p9
tp10
Rp11
(I1
(I3
tp12
cnumpy
dtype
p13
(S'f8'
p14
I0
I1
tp15
Rp16
(I3
S'<'
p17
NNNI-1
I-1
I0
tp18
bI00
S'\xaf\x19\x89Sn\xeb\xa6?\x06\xdc\xfd\xe2$\x1a\xa3?\xaa\x0frP\xef\xc0\xc5\xbf'
p19
tp20
bsS'target_rot'
p21
g6
(g7
(I0
tp22
g9
tp23
Rp24
(I1
(I3
tp25
g16
I00
S'\x00\x00\x00\x00\x00\x00\x00\x00\x00\x00\x00\x00\x00\x00\x14@\x00\x00\x00\x00\x00\xf0d\xc0'
p26
tp27
bsS'center_target_pixels'
p28
(I977
I398
tp29
sS'center_actual_pixels'
p30
(I1000
I376
tp31
s.(dp0
S'actual_pos'
p1
(lp2
F0.028070900330409626
aF0.03651593849412155
aF-0.16804190858580104
asS'actual_rot'
p3
(lp4
F0.12797187654037656
aF5.256653407597922
aF-168.0066957967998
asS'target_pos'
p5
cnumpy.core.multiarray
_reconstruct
p6
(cnumpy
ndarray
p7
(I0
tp8
S'b'
p9
tp10
Rp11
(I1
(I3
tp12
cnumpy
dtype
p13
(S'f8'
p14
I0
I1
tp15
Rp16
(I3
S'<'
p17
NNNI-1
I-1
I0
tp18
bI00
S'\x0eK\xa5\x034\x8c\x9d? \xbaY4 ;\xa2?\xa0\x04\xben\x0b\xa7\xc5\xbf'
p19
tp20
bsS'target_rot'
p21
g6
(g7
(I0
tp22
g9
tp23
Rp24
(I1
(I3
tp25
g16
I00
S'\x00\x00\x00\x00\x00\x00\x00\x00\x00\x00\x00\x00\x00\x00\x14@\x00\x00\x00\x00\x00\xf0d\xc0'
p26
tp27
bsS'center_target_pixels'
p28
(I1150
I408
tp29
sS'center_actual_pixels'
p30
(I1194
I387
tp31
s.(dp0
S'actual_pos'
p1
(lp2
F0.012914816100017906
aF0.03482134553763413
aF-0.16526773956994814
asS'actual_rot'
p3
(lp4
F0.2882110931753932
aF6.294179914404362
aF-170.53320723283812
asS'target_pos'
p5
cnumpy.core.multiarray
_reconstruct
p6
(cnumpy
ndarray
p7
(I0
tp8
S'b'
p9
tp10
Rp11
(I1
(I3
tp12
cnumpy
dtype
p13
(S'f8'
p14
I0
I1
tp15
Rp16
(I3
S'<'
p17
NNNI-1
I-1
I0
tp18
bI00
S'(5o\xe3\xef\xb7\x8b?\xe4JI\xdeu\xab\xa1?\xc7\x1a\xe1\xe5 2\xc5\xbf'
p19
tp20
bsS'target_rot'
p21
g6
(g7
(I0
tp22
g9
tp23
Rp24
(I1
(I3
tp25
g16
I00
S'\x00\x00\x00\x00\x00\x00\x00\x00\x00\x00\x00\x00\x00\x00\x14@\x00\x00\x00\x00\x00\xf0d\xc0'
p26
tp27
bsS'center_target_pixels'
p28
(I1321
I417
tp29
sS'center_actual_pixels'
p30
(I1367
I380
tp31
s.(dp0
S'actual_pos'
p1
(lp2
F0.06757483459458712
aF0.04813308488108138
aF-0.1701933115217082
asS'actual_rot'
p3
(lp4
F-1.8208807455337765
aF-1.3153569773108897
aF-163.5636667648355
asS'target_pos'
p5
cnumpy.core.multiarray
_reconstruct
p6
(cnumpy
ndarray
p7
(I0
tp8
S'b'
p9
tp10
Rp11
(I1
(I3
tp12
cnumpy
dtype
p13
(S'f8'
p14
I0
I1
tp15
Rp16
(I3
S'<'
p17
NNNI-1
I-1
I0
tp18
bI00
S'\xd8v\xab\xfc>:\xb1?~\xb1\xb7\x1f\xd6e\xa8?\x1c}\xa8\xaf\x01\xd2\xc5\xbf'
p19
tp20
bsS'target_rot'
p21
g6
(g7
(I0
tp22
g9
tp23
Rp24
(I1
(I3
tp25
g16
I00
S'\x00\x00\x00\x00\x00\x00\x00\x00\x00\x00\x00\x00\x00\x00\x14@\x00\x00\x00\x00\x00\xf0d\xc0'
p26
tp27
bsS'center_target_pixels'
p28
(I710
I469
tp29
sS'center_actual_pixels'
p30
(I725
I444
tp31
s.(dp0
S'actual_pos'
p1
(lp2
F0.0520307734785104
aF0.046616785617966144
aF-0.16922354230220618
asS'actual_rot'
p3
(lp4
F-1.163738373584841
aF0.7302201804018111
aF-165.6119114099661
asS'target_pos'
p5
cnumpy.core.multiarray
_reconstruct
p6
(cnumpy
ndarray
p7
(I0
tp8
S'b'
p9
tp10
Rp11
(I1
(I3
tp12
cnumpy
dtype
p13
(S'f8'
p14
I0
I1
tp15
Rp16
(I3
S'<'
p17
NNNI-1
I-1
I0
tp18
bI00
S'4\x9f\xba\xf7\xf3\xa2\xaa?~\x89M\x02z\x9e\xa7?\x13\xda6V\xa6\xb7\xc5\xbf'
p19
tp20
bsS'target_rot'
p21
g6
(g7
(I0
tp22
g9
tp23
Rp24
(I1
(I3
tp25
g16
I00
S'\x00\x00\x00\x00\x00\x00\x00\x00\x00\x00\x00\x00\x00\x00\x14@\x00\x00\x00\x00\x00\xf0d\xc0'
p26
tp27
bsS'center_target_pixels'
p28
(I885
I479
tp29
sS'center_actual_pixels'
p30
(I905
I458
tp31
s.(dp0
S'actual_pos'
p1
(lp2
F0.03559660128103517
aF0.04520047474643123
aF-0.16821113920999525
asS'actual_rot'
p3
(lp4
F-0.2601136356550329
aF3.945288664421688
aF-167.02951986076823
asS'target_pos'
p5
cnumpy.core.multiarray
_reconstruct
p6
(cnumpy
ndarray
p7
(I0
tp8
S'b'
p9
tp10
Rp11
(I1
(I3
tp12
cnumpy
dtype
p13
(S'f8'
p14
I0
I1
tp15
Rp16
(I3
S'<'
p17
NNNI-1
I-1
I0
tp18
bI00
S"'\xa1Q\xf8\xdc\x9d\xa2?T\xfd\xa1\x84\xe8\xcd\xa6?\x98\x1e\xdb\xc8)\xa3\xc5\xbf"
p19
tp20
bsS'target_rot'
p21
g6
(g7
(I0
tp22
g9
tp23
Rp24
(I1
(I3
tp25
g16
I00
S'\x00\x00\x00\x00\x00\x00\x00\x00\x00\x00\x00\x00\x00\x00\x14@\x00\x00\x00\x00\x00\xf0d\xc0'
p26
tp27
bsS'center_target_pixels'
p28
(I1059
I489
tp29
sS'center_actual_pixels'
p30
(I1096
I469
tp31
s.(dp0
S'actual_pos'
p1
(lp2
F0.01968631440064081
aF0.04364152896812585
aF-0.16716627583202784
asS'actual_rot'
p3
(lp4
F0.21415983491093268
aF5.700879221550337
aF-169.2068735717192
asS'target_pos'
p5
cnumpy.core.multiarray
_reconstruct
p6
(cnumpy
ndarray
p7
(I0
tp8
S'b'
p9
tp10
Rp11
(I1
(I3
tp12
cnumpy
dtype
p13
(S'f8'
p14
I0
I1
tp15
Rp16
(I3
S'<'
p17
NNNI-1
I-1
I0
tp18
bI00
S'\x1c\xe8L\xa9\x8d\xee\x94?`xu\xf2\xd9\xf2\xa5?Y\xbf\x8b\x1c!\x89\xc5\xbf'
p19
tp20
bsS'target_rot'
p21
g6
(g7
(I0
tp22
g9
tp23
Rp24
(I1
(I3
tp25
g16
I00
S'\x00\x00\x00\x00\x00\x00\x00\x00\x00\x00\x00\x00\x00\x00\x14@\x00\x00\x00\x00\x00\xf0d\xc0'
p26
tp27
bsS'center_target_pixels'
p28
(I1231
I498
tp29
sS'center_actual_pixels'
p30
(I1278
I472
tp31
s.(dp0
S'actual_pos'
p1
(lp2
F0.00432165087897052
aF0.042240244299758145
aF-0.16426521698053986
asS'actual_rot'
p3
(lp4
F0.7124868003112489
aF7.799810374490823
aF-170.73559466054272
asS'target_pos'
p5
cnumpy.core.multiarray
_reconstruct
p6
(cnumpy
ndarray
p7
(I0
tp8
S'b'
p9
tp10
Rp11
(I1
(I3
tp12
cnumpy
dtype
p13
(S'f8'
p14
I0
I1
tp15
Rp16
(I3
S'<'
p17
NNNI-1
I-1
I0
tp18
bI00
S'@H\xda\x83\xddbu?lsX\x9b\xc2d\xa5?\xfa\x19\x9b{\x01\x15\xc5\xbf'
p19
tp20
bsS'target_rot'
p21
g6
(g7
(I0
tp22
g9
tp23
Rp24
(I1
(I3
tp25
g16
I00
S'\x00\x00\x00\x00\x00\x00\x00\x00\x00\x00\x00\x00\x00\x00\x14@\x00\x00\x00\x00\x00\xf0d\xc0'
p26
tp27
bsS'center_target_pixels'
p28
(I1401
I507
tp29
sS'center_actual_pixels'
p30
(I1453
I470
tp31
s.(dp0
S'actual_pos'
p1
(lp2
F0.059226712298092676
aF0.05496317956107985
aF-0.16909731958998897
asS'actual_rot'
p3
(lp4
F-2.0259042509039538
aF-0.9353569188836005
aF-163.55253729005724
asS'target_pos'
p5
cnumpy.core.multiarray
_reconstruct
p6
(cnumpy
ndarray
p7
(I0
tp8
S'b'
p9
tp10
Rp11
(I1
(I3
tp12
cnumpy
dtype
p13
(S'f8'
p14
I0
I1
tp15
Rp16
(I3
S'<'
p17
NNNI-1
I-1
I0
tp18
bI00
S'\xa4G\x7f\x1a\xc9;\xae?6?$T3\x0c\xac?\xfc\xa5K\x7fP\xaa\xc5\xbf'
p19
tp20
bsS'target_rot'
p21
g6
(g7
(I0
tp22
g9
tp23
Rp24
(I1
(I3
tp25
g16
I00
S'\x00\x00\x00\x00\x00\x00\x00\x00\x00\x00\x00\x00\x00\x00\x14@\x00\x00\x00\x00\x00\xf0d\xc0'
p26
tp27
bsS'center_target_pixels'
p28
(I793
I561
tp29
sS'center_actual_pixels'
p30
(I813
I533
tp31
s.(dp0
S'actual_pos'
p1
(lp2
F0.042105266910463277
aF0.05339367064784693
aF-0.17014436692299229
asS'actual_rot'
p3
(lp4
F-0.5634858992855121
aF3.207124319671961
aF-164.71053649331512
asS'target_pos'
p5
cnumpy.core.multiarray
_reconstruct
p6
(cnumpy
ndarray
p7
(I0
tp8
S'b'
p9
tp10
Rp11
(I1
(I3
tp12
cnumpy
dtype
p13
(S'f8'
p14
I0
I1
tp15
Rp16
(I3
S'<'
p17
NNNI-1
I-1
I0
tp18
bI00
S'h\xc8*\xc65)\xa6?~\xe0\xd0W\xf9\x0e\xab?~\x95\xdfd>\xff\xc5\xbf'
p19
tp20
bsS'target_rot'
p21
g6
(g7
(I0
tp22
g9
tp23
Rp24
(I1
(I3
tp25
g16
I00
S'\x00\x00\x00\x00\x00\x00\x00\x00\x00\x00\x00\x00\x00\x00\x14@\x00\x00\x00\x00\x00\xf0d\xc0'
p26
tp27
bsS'center_target_pixels'
p28
(I967
I571
tp29
sS'center_actual_pixels'
p30
(I1030
I559
tp31
s.(dp0
S'actual_pos'
p1
(lp2
F0.02740865704010613
aF0.05206786292481788
aF-0.16749197339549196
asS'actual_rot'
p3
(lp4
F-0.2581168668424958
aF4.144152282015655
aF-167.34124454486988
asS'target_pos'
p5
cnumpy.core.multiarray
_reconstruct
p6
(cnumpy
ndarray
p7
(I0
tp8
S'b'
p9
tp10
Rp11
(I1
(I3
tp12
cnumpy
dtype
p13
(S'f8'
p14
I0
I1
tp15
Rp16
(I3
S'<'
p17
NNNI-1
I-1
I0
tp18
bI00
S'\x8e\x1f\x0f1P\x9b\x9c?\xa23\x00a3}\xaa?\x11\xda\xdc_\x0e\x8a\xc5\xbf'
p19
tp20
bsS'target_rot'
p21
g6
(g7
(I0
tp22
g9
tp23
Rp24
(I1
(I3
tp25
g16
I00
S'\x00\x00\x00\x00\x00\x00\x00\x00\x00\x00\x00\x00\x00\x00\x14@\x00\x00\x00\x00\x00\xf0d\xc0'
p26
tp27
bsS'center_target_pixels'
p28
(I1141
I580
tp29
sS'center_actual_pixels'
p30
(I1179
I555
tp31
s.(dp0
S'actual_pos'
p1
(lp2
F0.012205722859943136
aF0.0507704332420943
aF-0.16464434814841428
asS'actual_rot'
p3
(lp4
F0.3097051045059397
aF6.107931392043443
aF-168.89839410491416
asS'target_pos'
p5
cnumpy.core.multiarray
_reconstruct
p6
(cnumpy
ndarray
p7
(I0
tp8
S'b'
p9
tp10
Rp11
(I1
(I3
tp12
cnumpy
dtype
p13
(S'f8'
p14
I0
I1
tp15
Rp16
(I3
S'<'
p17
NNNI-1
I-1
I0
tp18
bI00
S'0\x04E"\xd3:\x8a?\xe3\xb1O\xca\x98\xec\xa9?x\x07\x9d\x8b{\x1b\xc5\xbf'
p19
tp20
bsS'target_rot'
p21
g6
(g7
(I0
tp22
g9
tp23
Rp24
(I1
(I3
tp25
g16
I00
S'\x00\x00\x00\x00\x00\x00\x00\x00\x00\x00\x00\x00\x00\x00\x14@\x00\x00\x00\x00\x00\xf0d\xc0'
p26
tp27
bsS'center_target_pixels'
p28
(I1312
I589
tp29
sS'center_actual_pixels'
p30
(I1355
I551
tp31
s.(dp0
S'actual_pos'
p1
(lp2
F0.06409797383215717
aF0.06281698313561297
aF-0.17317426885174525
asS'actual_rot'
p3
(lp4
F-0.5199716912176056
aF3.696103316203862
aF-164.1147409207607
asS'target_pos'
p5
cnumpy.core.multiarray
_reconstruct
p6
(cnumpy
ndarray
p7
(I0
tp8
S'b'
p9
tp10
Rp11
(I1
(I3
tp12
cnumpy
dtype
p13
(S'f8'
p14
I0
I1
tp15
Rp16
(I3
S'<'
p17
NNNI-1
I-1
I0
tp18
bI00
S'\xb2\x12\x90\xbb\xa2\xd3\xb0?\x96\xaa\x9a\x1e\x04\x06\xb0?\x0cG\x9a\xaf\x00n\xc6\xbf'
p19
tp20
bsS'target_rot'
p21
g6
(g7
(I0
tp22
g9
tp23
Rp24
(I1
(I3
tp25
g16
I00
S'\x00\x00\x00\x00\x00\x00\x00\x00\x00\x00\x00\x00\x00\x00\x14@\x00\x00\x00\x00\x00\xf0d\xc0'
p26
tp27
bsS'center_target_pixels'
p28
(I700
I644
tp29
sS'center_actual_pixels'
p30
(I777
I642
tp31
s.(dp0
S'actual_pos'
p1
(lp2
F0.049637852844034436
aF0.06174637814904117
aF-0.1704105748298096
asS'actual_rot'
p3
(lp4
F-0.7361683476751503
aF2.9861660472793834
aF-165.88620946441586
asS'target_pos'
p5
cnumpy.core.multiarray
_reconstruct
p6
(cnumpy
ndarray
p7
(I0
tp8
S'b'
p9
tp10
Rp11
(I1
(I3
tp12
cnumpy
dtype
p13
(S'f8'
p14
I0
I1
tp15
Rp16
(I3
S'<'
p17
NNNI-1
I-1
I0
tp18
bI00
S'\xdae\xe2\x0f\x0e\xd4\xa9?U\xc8oa\xa9y\xaf?\xd9\x1a 7A\xf9\xc5\xbf'
p19
tp20
bsS'target_rot'
p21
g6
(g7
(I0
tp22
g9
tp23
Rp24
(I1
(I3
tp25
g16
I00
S'\x00\x00\x00\x00\x00\x00\x00\x00\x00\x00\x00\x00\x00\x00\x14@\x00\x00\x00\x00\x00\xf0d\xc0'
p26
tp27
bsS'center_target_pixels'
p28
(I876
I653
tp29
sS'center_actual_pixels'
p30
(I928
I635
tp31
s.(dp0
S'actual_pos'
p1
(lp2
F0.032989451363874295
aF0.06005196280788602
aF-0.16948197617798466
asS'actual_rot'
p3
(lp4
F0.25935218360115764
aF6.007931183007732
aF-167.0678820793656
asS'target_pos'
p5
cnumpy.core.multiarray
_reconstruct
p6
(cnumpy
ndarray
p7
(I0
tp8
S'b'
p9
tp10
Rp11
(I1
(I3
tp12
cnumpy
dtype
p13
(S'f8'
p14
I0
I1
tp15
Rp16
(I3
S'<'
p17
NNNI-1
I-1
I0
tp18
bI00
S'\n\xb7`\xe6\x00\xd9\xa1?\xcc\x16/4D\xbe\xae?\xf7P\xe1\xfb"\xe6\xc5\xbf'
p19
tp20
bsS'target_rot'
p21
g6
(g7
(I0
tp22
g9
tp23
Rp24
(I1
(I3
tp25
g16
I00
S'\x00\x00\x00\x00\x00\x00\x00\x00\x00\x00\x00\x00\x00\x00\x14@\x00\x00\x00\x00\x00\xf0d\xc0'
p26
tp27
bsS'center_target_pixels'
p28
(I1049
I662
tp29
sS'center_actual_pixels'
p30
(I1127
I649
tp31
s.(dp0
S'actual_pos'
p1
(lp2
F0.018617165138149688
aF0.05898041906109787
aF-0.16668588676196017
asS'actual_rot'
p3
(lp4
F0.5125259556627825
aF6.556465528054929
aF-169.2497014738573
asS'target_pos'
p5
cnumpy.core.multiarray
_reconstruct
p6
(cnumpy
ndarray
p7
(I0
tp8
S'b'
p9
tp10
Rp11
(I1
(I3
tp12
cnumpy
dtype
p13
(S'f8'
p14
I0
I1
tp15
Rp16
(I3
S'<'
p17
NNNI-1
I-1
I0
tp18
bI00
S'J\x84c\xceo\x15\x94?\xb2\t\xa5\x11E"\xae?b\x15\x0e\x1aKq\xc5\xbf'
p19
tp20
bsS'target_rot'
p21
g6
(g7
(I0
tp22
g9
tp23
Rp24
(I1
(I3
tp25
g16
I00
S'\x00\x00\x00\x00\x00\x00\x00\x00\x00\x00\x00\x00\x00\x00\x14@\x00\x00\x00\x00\x00\xf0d\xc0'
p26
tp27
bsS'center_target_pixels'
p28
(I1222
I670
tp29
sS'center_actual_pixels'
p30
(I1273
I641
tp31
s.(dp0
S'actual_pos'
p1
(lp2
F0.003438073328008716
aF0.057828085524465625
aF-0.16381392236764575
asS'actual_rot'
p3
(lp4
F1.4926474643914946
aF9.286215344018439
aF-170.2892875292179
asS'target_pos'
p5
cnumpy.core.multiarray
_reconstruct
p6
(cnumpy
ndarray
p7
(I0
tp8
S'b'
p9
tp10
Rp11
(I1
(I3
tp12
cnumpy
dtype
p13
(S'f8'
p14
I0
I1
tp15
Rp16
(I3
S'<'
p17
NNNI-1
I-1
I0
tp18
bI00
S'\x80\xb2\x85\xb2\\\xb3r?a\xaa\xed\x10\xd0\x93\xad?\x05\xf1D\xa1d\x03\xc5\xbf'
p19
tp20
bsS'target_rot'
p21
g6
(g7
(I0
tp22
g9
tp23
Rp24
(I1
(I3
tp25
g16
I00
S'\x00\x00\x00\x00\x00\x00\x00\x00\x00\x00\x00\x00\x00\x00\x14@\x00\x00\x00\x00\x00\xf0d\xc0'
p26
tp27
bsS'center_target_pixels'
p28
(I1392
I679
tp29
sS'center_actual_pixels'
p30
(I1446
I644
tp31
s.(dp0
S'actual_pos'
p1
(lp2
F0.05524353885293665
aF0.0693565221655342
aF-0.1724148531959371
asS'actual_rot'
p3
(lp4
F-0.2066661613143252
aF4.7633078160614275
aF-164.88778720405853
asS'target_pos'
p5
cnumpy.core.multiarray
_reconstruct
p6
(cnumpy
ndarray
p7
(I0
tp8
S'b'
p9
tp10
Rp11
(I1
(I3
tp12
cnumpy
dtype
p13
(S'f8'
p14
I0
I1
tp15
Rp16
(I3
S'<'
p17
NNNI-1
I-1
I0
tp18
bI00
S'\xa2X\xe6\x0b\xbf\\\xad?X\xca!\x03\xb4\xd5\xb1?g\xe7\x00\xc8\x99T\xc6\xbf'
p19
tp20
bsS'target_rot'
p21
g6
(g7
(I0
tp22
g9
tp23
Rp24
(I1
(I3
tp25
g16
I00
S'\x00\x00\x00\x00\x00\x00\x00\x00\x00\x00\x00\x00\x00\x00\x14@\x00\x00\x00\x00\x00\xf0d\xc0'
p26
tp27
bsS'center_target_pixels'
p28
(I783
I735
tp29
sS'center_actual_pixels'
p30
(I868
I724
tp31
s.(dp0
S'actual_pos'
p1
(lp2
F0.041051503640531326
aF0.0683852537092134
aF-0.1696577775700077
asS'actual_rot'
p3
(lp4
F-0.5613045380218619
aF3.868160883444319
aF-165.8777947916777
asS'target_pos'
p5
cnumpy.core.multiarray
_reconstruct
p6
(cnumpy
ndarray
p7
(I0
tp8
S'b'
p9
tp10
Rp11
(I1
(I3
tp12
cnumpy
dtype
p13
(S'f8'
p14
I0
I1
tp15
Rp16
(I3
S'<'
p17
NNNI-1
I-1
I0
tp18
bI00
S'b\\x3\xd2\x94\xa5?\x1b\xc6\xb25:\x8d\xb1?Z\xc5\xc2\x99\x88\xe0\xc5\xbf'
p19
tp20
bsS'target_rot'
p21
g6
(g7
(I0
tp22
g9
tp23
Rp24
(I1
(I3
tp25
g16
I00
S'\x00\x00\x00\x00\x00\x00\x00\x00\x00\x00\x00\x00\x00\x00\x14@\x00\x00\x00\x00\x00\xf0d\xc0'
p26
tp27
bsS'center_target_pixels'
p28
(I958
I744
tp29
sS'center_actual_pixels'
p30
(I1029
I734
tp31
s.(dp0
S'actual_pos'
p1
(lp2
F0.02542759728299886
aF0.06693780058038448
aF-0.1688464792645751
asS'actual_rot'
p3
(lp4
F0.08947112487418135
aF5.386649044626489
aF-167.44438445864094
asS'target_pos'
p5
cnumpy.core.multiarray
_reconstruct
p6
(cnumpy
ndarray
p7
(I0
tp8
S'b'
p9
tp10
Rp11
(I1
(I3
tp12
cnumpy
dtype
p13
(S'f8'
p14
I0
I1
tp15
Rp16
(I3
S'<'
p17
NNNI-1
I-1
I0
tp18
bI00
S'\xd4\xb5\xda\x0c2\x15\x9b?\x0e!\x1c|\xf20\xb1?B\x87N\xb3\xae\xcc\xc5\xbf'
p19
tp20
bsS'target_rot'
p21
g6
(g7
(I0
tp22
g9
tp23
Rp24
(I1
(I3
tp25
g16
I00
S'\x00\x00\x00\x00\x00\x00\x00\x00\x00\x00\x00\x00\x00\x00\x14@\x00\x00\x00\x00\x00\xf0d\xc0'
p26
tp27
bsS'center_target_pixels'
p28
(I1131
I752
tp29
sS'center_actual_pixels'
p30
(I1188
I731
tp31
s.(dp0
S'actual_pos'
p1
(lp2
F0.010313908787751694
aF0.0656102303819935
aF-0.1660531505198092
asS'actual_rot'
p3
(lp4
F0.9562587156125822
aF7.5810560748757725
aF-169.2118837207291
asS'target_pos'
p5
cnumpy.core.multiarray
_reconstruct
p6
(cnumpy
ndarray
p7
(I0
tp8
S'b'
p9
tp10
Rp11
(I1
(I3
tp12
cnumpy
dtype
p13
(S'f8'
p14
I0
I1
tp15
Rp16
(I3
S'<'
p17
NNNI-1
I-1
I0
tp18
bI00
S'\x00\x0c\xe6\x91\xfdL\x87?C\xc5r\xd7c\xe4\xb0?\xb9U\x03\xd78Y\xc5\xbf'
p19
tp20
bsS'target_rot'
p21
g6
(g7
(I0
tp22
g9
tp23
Rp24
(I1
(I3
tp25
g16
I00
S'\x00\x00\x00\x00\x00\x00\x00\x00\x00\x00\x00\x00\x00\x00\x14@\x00\x00\x00\x00\x00\xf0d\xc0'
p26
tp27
bsS'center_target_pixels'
p28
(I1302
I760
tp29
sS'center_actual_pixels'
p30
(I1357
I728
tp31
s.