(dp0
S'actual_pos'
p1
(lp2
F0.0723190335184385
aF0.01987597450075662
aF-0.16332980992344234
asS'actual_rot'
p3
(lp4
F-92.01871827953565
aF-4.580118047300132
aF-164.62638534592438
asS'target_pos'
p5
cnumpy.core.multiarray
_reconstruct
p6
(cnumpy
ndarray
p7
(I0
tp8
S'b'
p9
tp10
Rp11
(I1
(I3
tp12
cnumpy
dtype
p13
(S'f8'
p14
I0
I1
tp15
Rp16
(I3
S'<'
p17
NNNI-1
I-1
I0
tp18
bI00
S'F\xb4\x8d\xe1%\xb8\xb2?\xc1F7\xd2\x7f\xa8\x94?\xd0\x0f\xees\x91\xeb\xc4\xbf'
p19
tp20
bsS'target_rot'
p21
g6
(g7
(I0
tp22
g9
tp23
Rp24
(I1
(I3
tp25
g16
I00
S'\x00\x00\x00\x00\x00\x80V\xc0\x00\x00\x00\x00\x00\x00\x00\x00\x00\x00\x00\x00\x00@e\xc0'
p26
tp27
bsS'center_target_pixels'
p28
(I704
I144
tp29
sS'center_actual_pixels'
p30
(I738
I95
tp31
s.(dp0
S'actual_pos'
p1
(lp2
F0.056940042098791124
aF0.01883003005976712
aF-0.16132007359097483
asS'actual_rot'
p3
(lp4
F-91.64886028508508
aF-4.698781150705854
aF-164.98493476717627
asS'target_pos'
p5
cnumpy.core.multiarray
_reconstruct
p6
(cnumpy
ndarray
p7
(I0
tp8
S'b'
p9
tp10
Rp11
(I1
(I3
tp12
cnumpy
dtype
p13
(S'f8'
p14
I0
I1
tp15
Rp16
(I3
S'<'
p17
NNNI-1
I-1
I0
tp18
bI00
S'\xb0\x92a\x1dW\x89\xad?\x9c\xb5\x7fJ\x13\x9e\x93?\x19\xb7X\x96,\xab\xc4\xbf'
p19
tp20
bsS'target_rot'
p21
g6
(g7
(I0
tp22
g9
tp23
Rp24
(I1
(I3
tp25
g16
I00
S'\x00\x00\x00\x00\x00\x80V\xc0\x00\x00\x00\x00\x00\x00\x00\x00\x00\x00\x00\x00\x00@e\xc0'
p26
tp27
bsS'center_target_pixels'
p28
(I881
I152
tp29
sS'center_actual_pixels'
p30
(I915
I114
tp31
s.(dp0
S'actual_pos'
p1
(lp2
F0.041603438068025966
aF0.01704187769807824
aF-0.16198669869721719
asS'actual_rot'
p3
(lp4
F-91.2166022100195
aF-4.8243375320179585
aF-165.30446309565954
asS'target_pos'
p5
cnumpy.core.multiarray
_reconstruct
p6
(cnumpy
ndarray
p7
(I0
tp8
S'b'
p9
tp10
Rp11
(I1
(I3
tp12
cnumpy
dtype
p13
(S'f8'
p14
I0
I1
tp15
Rp16
(I3
S'<'
p17
NNNI-1
I-1
I0
tp18
bI00
S'n\xec\x8f\xa8T\xa7\xa5?\xde\xfc\x9e\xbb\x9f\xc6\x91?F\xd5\xd0\xa0\xa6\xc2\xc4\xbf'
p19
tp20
bsS'target_rot'
p21
g6
(g7
(I0
tp22
g9
tp23
Rp24
(I1
(I3
tp25
g16
I00
S'\x00\x00\x00\x00\x00\x80V\xc0\x00\x00\x00\x00\x00\x00\x00\x00\x00\x00\x00\x00\x00@e\xc0'
p26
tp27
bsS'center_target_pixels'
p28
(I1055
I159
tp29
sS'center_actual_pixels'
p30
(I1085
I120
tp31
s.(dp0
S'actual_pos'
p1
(lp2
F0.025756809169039503
aF0.01461837437719006
aF-0.1647242680041989
asS'actual_rot'
p3
(lp4
F-90.73553984362871
aF-4.6999147548519264
aF-166.3710326850491
asS'target_pos'
p5
cnumpy.core.multiarray
_reconstruct
p6
(cnumpy
ndarray
p7
(I0
tp8
S'b'
p9
tp10
Rp11
(I1
(I3
tp12
cnumpy
dtype
p13
(S'f8'
p14
I0
I1
tp15
Rp16
(I3
S'<'
p17
NNNI-1
I-1
I0
tp18
bI00
S'\xe0A\xc0\xe8\xdf\xe7\x9a?Q\x05M!\x87\x9f\x8e?\xfcVw\xaa\x8c\x1e\xc5\xbf'
p19
tp20
bsS'target_rot'
p21
g6
(g7
(I0
tp22
g9
tp23
Rp24
(I1
(I3
tp25
g16
I00
S'\x00\x00\x00\x00\x00\x80V\xc0\x00\x00\x00\x00\x00\x00\x00\x00\x00\x00\x00\x00\x00@e\xc0'
p26
tp27
bsS'center_target_pixels'
p28
(I1227
I166
tp29
sS'center_actual_pixels'
p30
(I1266
I123
tp31
s.(dp0
S'actual_pos'
p1
(lp2
F0.06393033618040063
aF0.026999942609908435
aF-0.16267324150540555
asS'actual_rot'
p3
(lp4
F-91.64921055061754
aF-4.191143798185906
aF-164.7695702443806
asS'target_pos'
p5
cnumpy.core.multiarray
_reconstruct
p6
(cnumpy
ndarray
p7
(I0
tp8
S'b'
p9
tp10
Rp11
(I1
(I3
tp12
cnumpy
dtype
p13
(S'f8'
p14
I0
I1
tp15
Rp16
(I3
S'<'
p17
NNNI-1
I-1
I0
tp18
bI00
S'E\xd4\xf1J~\x92\xb0?pHQ]\xe1\xf6\x9b?\x8d\xd1\xcd\x80\x1b\xd7\xc4\xbf'
p19
tp20
bsS'target_rot'
p21
g6
(g7
(I0
tp22
g9
tp23
Rp24
(I1
(I3
tp25
g16
I00
S'\x00\x00\x00\x00\x00\x80V\xc0\x00\x00\x00\x00\x00\x00\x00\x00\x00\x00\x00\x00\x00@e\xc0'
p26
tp27
bsS'center_target_pixels'
p28
(I790
I235
tp29
sS'center_actual_pixels'
p30
(I822
I195
tp31
s.(dp0
S'actual_pos'
p1
(lp2
F0.048617481088113534
aF0.025294928324347512
aF-0.16336199560066128
asS'actual_rot'
p3
(lp4
F-91.24818495908976
aF-4.189784674967592
aF-165.21419034830595
asS'target_pos'
p5
cnumpy.core.multiarray
_reconstruct
p6
(cnumpy
ndarray
p7
(I0
tp8
S'b'
p9
tp10
Rp11
(I1
(I3
tp12
cnumpy
dtype
p13
(S'f8'
p14
I0
I1
tp15
Rp16
(I3
S'<'
p17
NNNI-1
I-1
I0
tp18
bI00
S'\x7fn\xf8`\x88F\xa9?\x0e\x8e\xbe\xd2\x06;\x9a?\xc2H\xad\x9b\x0f\xf0\xc4\xbf'
p19
tp20
bsS'target_rot'
p21
g6
(g7
(I0
tp22
g9
tp23
Rp24
(I1
(I3
tp25
g16
I00
S'\x00\x00\x00\x00\x00\x80V\xc0\x00\x00\x00\x00\x00\x00\x00\x00\x00\x00\x00\x00\x00@e\xc0'
p26
tp27
bsS'center_target_pixels'
p28
(I965
I242
tp29
sS'center_actual_pixels'
p30
(I998
I208
tp31
s.(dp0
S'actual_pos'
p1
(lp2
F0.03312626361129389
aF0.023439625169819633
aF-0.16408764233311937
asS'actual_rot'
p3
(lp4
F-90.84588682401743
aF-4.187467315822783
aF-165.82440347630254
asS'target_pos'
p5
cnumpy.core.multiarray
_reconstruct
p6
(cnumpy
ndarray
p7
(I0
tp8
S'b'
p9
tp10
Rp11
(I1
(I3
tp12
cnumpy
dtype
p13
(S'f8'
p14
I0
I1
tp15
Rp16
(I3
S'<'
p17
NNNI-1
I-1
I0
tp18
bI00
S'[\x1dX\xcf[C\xa1?\x880\xc0\x0bIa\x98?\xccb\xec0;\t\xc5\xbf'
p19
tp20
bsS'target_rot'
p21
g6
(g7
(I0
tp22
g9
tp23
Rp24
(I1
(I3
tp25
g16
I00
S'\x00\x00\x00\x00\x00\x80V\xc0\x00\x00\x00\x00\x00\x00\x00\x00\x00\x00\x00\x00\x00@e\xc0'
p26
tp27
bsS'center_target_pixels'
p28
(I1138
I248
tp29
sS'center_actual_pixels'
p30
(I1168
I212
tp31
s.(dp0
S'actual_pos'
p1
(lp2
F0.017192763402514473
aF0.021676331384823784
aF-0.16477075321234322
asS'actual_rot'
p3
(lp4
F-90.41885795099333
aF-4.017292295358824
aF-168.08502013369673
asS'target_pos'
p5
cnumpy.core.multiarray
_reconstruct
p6
(cnumpy
ndarray
p7
(I0
tp8
S'b'
p9
tp10
Rp11
(I1
(I3
tp12
cnumpy
dtype
p13
(S'f8'
p14
I0
I1
tp15
Rp16
(I3
S'<'
p17
NNNI-1
I-1
I0
tp18
bI00
S'V\x91<\xea\xec\x1e\x92?\xf4\xd7I\xb0\x1c\x82\x96?\xf2f\x82\x1f4 \xc5\xbf'
p19
tp20
bsS'target_rot'
p21
g6
(g7
(I0
tp22
g9
tp23
Rp24
(I1
(I3
tp25
g16
I00
S'\x00\x00\x00\x00\x00\x80V\xc0\x00\x00\x00\x00\x00\x00\x00\x00\x00\x00\x00\x00\x00@e\xc0'
p26
tp27
bsS'center_target_pixels'
p28
(I1310
I254
tp29
sS'center_actual_pixels'
p30
(I1352
I221
tp31
s.(dp0
S'actual_pos'
p1
(lp2
F0.07129846097627456
aF0.03417817543266769
aF-0.16987023997374665
asS'actual_rot'
p3
(lp4
F-91.64826154982862
aF-3.9229033822771147
aF-164.69602274011362
asS'target_pos'
p5
cnumpy.core.multiarray
_reconstruct
p6
(cnumpy
ndarray
p7
(I0
tp8
S'b'
p9
tp10
Rp11
(I1
(I3
tp12
cnumpy
dtype
p13
(S'f8'
p14
I0
I1
tp15
Rp16
(I3
S'<'
p17
NNNI-1
I-1
I0
tp18
bI00
S',V\x13\xbe\xea|\xb2?Z;(j;\xa0\xa1?\x89\xc4\xfd#V\xc3\xc5\xbf'
p19
tp20
bsS'target_rot'
p21
g6
(g7
(I0
tp22
g9
tp23
Rp24
(I1
(I3
tp25
g16
I00
S'\x00\x00\x00\x00\x00\x80V\xc0\x00\x00\x00\x00\x00\x00\x00\x00\x00\x00\x00\x00\x00@e\xc0'
p26
tp27
bsS'center_target_pixels'
p28
(I699
I318
tp29
sS'center_actual_pixels'
p30
(I734
I271
tp31
s.(dp0
S'actual_pos'
p1
(lp2
F0.0555766981553974
aF0.03369038250649094
aF-0.1648407798341355
asS'actual_rot'
p3
(lp4
F-91.25956105772643
aF-3.733374808441099
aF-165.03330473696522
asS'target_pos'
p5
cnumpy.core.multiarray
_reconstruct
p6
(cnumpy
ndarray
p7
(I0
tp8
S'b'
p9
tp10
Rp11
(I1
(I3
tp12
cnumpy
dtype
p13
(S'f8'
p14
I0
I1
tp15
Rp16
(I3
S'<'
p17
NNNI-1
I-1
I0
tp18
bI00
S'B\\\x9bO\xb4\xe4\xac?4\xb3\xf5\xe60T\xa1?\xf5,|\x83\xb5 \xc5\xbf'
p19
tp20
bsS'target_rot'
p21
g6
(g7
(I0
tp22
g9
tp23
Rp24
(I1
(I3
tp25
g16
I00
S'\x00\x00\x00\x00\x00\x80V\xc0\x00\x00\x00\x00\x00\x00\x00\x00\x00\x00\x00\x00\x00@e\xc0'
p26
tp27
bsS'center_target_pixels'
p28
(I875
I325
tp29
sS'center_actual_pixels'
p30
(I913
I279
tp31
s.(dp0
S'actual_pos'
p1
(lp2
F0.04007997141148489
aF0.03202778059769804
aF-0.16546925647697647
asS'actual_rot'
p3
(lp4
F-90.85485861312142
aF-3.5781085647892494
aF-165.49826969749805
asS'target_pos'
p5
cnumpy.core.multiarray
_reconstruct
p6
(cnumpy
ndarray
p7
(I0
tp8
S'b'
p9
tp10
Rp11
(I1
(I3
tp12
cnumpy
dtype
p13
(S'f8'
p14
I0
I1
tp15
Rp16
(I3
S'<'
p17
NNNI-1
I-1
I0
tp18
bI00
S'!.j\xa7\x14\xe5\xa4?eB\xc2\xee\ny\xa0?\xd8\xdd3t\xd06\xc5\xbf'
p19
tp20
bsS'target_rot'
p21
g6
(g7
(I0
tp22
g9
tp23
Rp24
(I1
(I3
tp25
g16
I00
S'\x00\x00\x00\x00\x00\x80V\xc0\x00\x00\x00\x00\x00\x00\x00\x00\x00\x00\x00\x00\x00@e\xc0'
p26
tp27
bsS'center_target_pixels'
p28
(I1049
I331
tp29
sS'center_actual_pixels'
p30
(I1084
I290
tp31
s.(dp0
S'actual_pos'
p1
(lp2
F0.025769941381505984
aF0.03184896723604281
aF-0.15972887654810095
asS'actual_rot'
p3
(lp4
F-90.4584862308215
aF-2.845689855579147
aF-166.99801852061177
asS'target_pos'
p5
cnumpy.core.multiarray
_reconstruct
p6
(cnumpy
ndarray
p7
(I0
tp8
S'b'
p9
tp10
Rp11
(I1
(I3
tp12
cnumpy
dtype
p13
(S'f8'
p14
I0
I1
tp15
Rp16
(I3
S'<'
p17
NNNI-1
I-1
I0
tp18
bI00
S"\xb6'\xec7\x84\xd7\x9a?\xa2\xe4\x8fQCc\xa0?{\x14\xaeG\xe1z\xc4\xbf"
p19
tp20
bsS'target_rot'
p21
g6
(g7
(I0
tp22
g9
tp23
Rp24
(I1
(I3
tp25
g16
I00
S'\x00\x00\x00\x00\x00\x80V\xc0\x00\x00\x00\x00\x00\x00\x00\x00\x00\x00\x00\x00\x00@e\xc0'
p26
tp27
bsS'center_target_pixels'
p28
(I1222
I336
tp29
sS'center_actual_pixels'
p30
(I1241
I305
tp31
s.(dp0
S'actual_pos'
p1
(lp2
F0.008072790434360643
aF0.028818093617196887
aF-0.16665516086093857
asS'actual_rot'
p3
(lp4
F-90.10009564386237
aF-2.086193467765588
aF-170.05975428415712
asS'target_pos'
p5
cnumpy.core.multiarray
_reconstruct
p6
(cnumpy
ndarray
p7
(I0
tp8
S'b'
p9
tp10
Rp11
(I1
(I3
tp12
cnumpy
dtype
p13
(S'f8'
p14
I0
I1
tp15
Rp16
(I3
S'<'
p17
NNNI-1
I-1
I0
tp18
bI00
S"\x00\xb9\xcd\x1d\xd1\x8f\x81?\xf0@\xba'\x03I\x9d?`\x96U\xba\xc7l\xc5\xbf"
p19
tp20
bsS'target_rot'
p21
g6
(g7
(I0
tp22
g9
tp23
Rp24
(I1
(I3
tp25
g16
I00
S'\x00\x00\x00\x00\x00\x80V\xc0\x00\x00\x00\x00\x00\x00\x00\x00\x00\x00\x00\x00\x00@e\xc0'
p26
tp27
bsS'center_target_pixels'
p28
(I1392
I342
tp29
sS'center_actual_pixels'
p30
(I1423
I314
tp31
s.(dp0
S'actual_pos'
p1
(lp2
F0.06270152939423293
aF0.042485605869126704
aF-0.16328219641219255
asS'actual_rot'
p3
(lp4
F-90.85974873188238
aF-2.2724643918642844
aF-164.570207706675
asS'target_pos'
p5
cnumpy.core.multiarray
_reconstruct
p6
(cnumpy
ndarray
p7
(I0
tp8
S'b'
p9
tp10
Rp11
(I1
(I3
tp12
cnumpy
dtype
p13
(S'f8'
p14
I0
I1
tp15
Rp16
(I3
S'<'
p17
NNNI-1
I-1
I0
tp18
bI00
S'\xce\xc3bj\xfb:\xb0?\xb8\x8fc\xb9\x18\xc2\xa5?x\x87E\x97\x1f\xed\xc4\xbf'
p19
tp20
bsS'target_rot'
p21
g6
(g7
(I0
tp22
g9
tp23
Rp24
(I1
(I3
tp25
g16
I00
S'\x00\x00\x00\x00\x00\x80V\xc0\x00\x00\x00\x00\x00\x00\x00\x00\x00\x00\x00\x00\x00@e\xc0'
p26
tp27
bsS'center_target_pixels'
p28
(I785
I408
tp29
sS'center_actual_pixels'
p30
(I810
I380
tp31
s.(dp0
S'actual_pos'
p1
(lp2
F0.047394775836079574
aF0.04092773705384847
aF-0.16402386836414706
asS'actual_rot'
p3
(lp4
F-90.69938323850413
aF-2.4224667291881574
aF-165.2498833490496
asS'target_pos'
p5
cnumpy.core.multiarray
_reconstruct
p6
(cnumpy
ndarray
p7
(I0
tp8
S'b'
p9
tp10
Rp11
(I1
(I3
tp12
cnumpy
dtype
p13
(S'f8'
p14
I0
I1
tp15
Rp16
(I3
S'<'
p17
NNNI-1
I-1
I0
tp18
bI00
S'\xa4\xdc\xb8\x91\xd7\x97\xa8?\xf2G 3B\xf6\xa4?\xe0\xaaG\xbft\x07\xc5\xbf'
p19
tp20
bsS'target_rot'
p21
g6
(g7
(I0
tp22
g9
tp23
Rp24
(I1
(I3
tp25
g16
I00
S'\x00\x00\x00\x00\x00\x80V\xc0\x00\x00\x00\x00\x00\x00\x00\x00\x00\x00\x00\x00\x00@e\xc0'
p26
tp27
bsS'center_target_pixels'
p28
(I960
I414
tp29
sS'center_actual_pixels'
p30
(I987
I381
tp31
s.(dp0
S'actual_pos'
p1
(lp2
F0.031775595970004664
aF0.03939053816268326
aF-0.1646342372964649
asS'actual_rot'
p3
(lp4
F-90.4471260485058
aF-2.320539632773697
aF-166.6964710643823
asS'target_pos'
p5
cnumpy.core.multiarray
_reconstruct
p6
(cnumpy
ndarray
p7
(I0
tp8
S'b'
p9
tp10
Rp11
(I1
(I3
tp12
cnumpy
dtype
p13
(S'f8'
p14
I0
I1
tp15
Rp16
(I3
S'<'
p17
NNNI-1
I-1
I0
tp18
bI00
S'h\xdb7[\xb5\x96\xa0?<\x00T\xc6r\x1e\xa4?a|?"\\\x1d\xc5\xbf'
p19
tp20
bsS'target_rot'
p21
g6
(g7
(I0
tp22
g9
tp23
Rp24
(I1
(I3
tp25
g16
I00
S'\x00\x00\x00\x00\x00\x80V\xc0\x00\x00\x00\x00\x00\x00\x00\x00\x00\x00\x00\x00\x00@e\xc0'
p26
tp27
bsS'center_target_pixels'
p28
(I1133
I419
tp29
sS'center_actual_pixels'
p30
(I1158
I392
tp31
s.(dp0
S'actual_pos'
p1
(lp2
F0.01648646820088677
aF0.03825050326040392
aF-0.16266144020442153
asS'actual_rot'
p3
(lp4
F-90.1132090397896
aF-1.1266503214707384
aF-169.20690530282872
asS'target_pos'
p5
cnumpy.core.multiarray
_reconstruct
p6
(cnumpy
ndarray
p7
(I0
tp8
S'b'
p9
tp10
Rp11
(I1
(I3
tp12
cnumpy
dtype
p13
(S'f8'
p14
I0
I1
tp15
Rp16
(I3
S'<'
p17
NNNI-1
I-1
I0
tp18
bI00
S'\xe8\x80\xef\xaf!^\x91?p\xfc\xad\x19\x19z\xa3?W\x94\xf3\xc2\xd2\xdc\xc4\xbf'
p19
tp20
bsS'target_rot'
p21
g6
(g7
(I0
tp22
g9
tp23
Rp24
(I1
(I3
tp25
g16
I00
S'\x00\x00\x00\x00\x00\x80V\xc0\x00\x00\x00\x00\x00\x00\x00\x00\x00\x00\x00\x00\x00@e\xc0'
p26
tp27
bsS'center_target_pixels'
p28
(I1305
I424
tp29
sS'center_actual_pixels'
p30
(I1330
I404
tp31
s.(dp0
S'actual_pos'
p1
(lp2
F0.06952731573927208
aF0.05086129748084295
aF-0.1648563342741714
asS'actual_rot'
p3
(lp4
F-90.37507279087012
aF-0.9212308414899899
aF-164.60397105821716
asS'target_pos'
p5
cnumpy.core.multiarray
_reconstruct
p6
(cnumpy
ndarray
p7
(I0
tp8
S'b'
p9
tp10
Rp11
(I1
(I3
tp12
cnumpy
dtype
p13
(S'f8'
p14
I0
I1
tp15
Rp16
(I3
S'<'
p17
NNNI-1
I-1
I0
tp18
bI00
S'.8\xee$\x11\x07\xb2?\xb60\x8f\xaf\xca\xff\xa9?\xfa\x9dO"\xb1\x1d\xc5\xbf'
p19
tp20
bsS'target_rot'
p21
g6
(g7
(I0
tp22
g9
tp23
Rp24
(I1
(I3
tp25
g16
I00
S'\x00\x00\x00\x00\x00\x80V\xc0\x00\x00\x00\x00\x00\x00\x00\x00\x00\x00\x00\x00\x00@e\xc0'
p26
tp27
bsS'center_target_pixels'
p28
(I694
I493
tp29
sS'center_actual_pixels'
p30
(I716
I459
tp31
s.(dp0
S'actual_pos'
p1
(lp2
F0.05429068933131117
aF0.04937056500574835
aF-0.16541573313909963
asS'actual_rot'
p3
(lp4
F-90.29698457714474
aF-0.9079268379660755
aF-165.0813259868081
asS'target_pos'
p5
cnumpy.core.multiarray
_reconstruct
p6
(cnumpy
ndarray
p7
(I0
tp8
S'b'
p9
tp10
Rp11
(I1
(I3
tp12
cnumpy
dtype
p13
(S'f8'
p14
I0
I1
tp15
Rp16
(I3
S'<'
p17
NNNI-1
I-1
I0
tp18
bI00
S'"_MR@4\xac?:gjf\':\xa9?\xcbf\xcfrL2\xc5\xbf'
p19
tp20
bsS'target_rot'
p21
g6
(g7
(I0
tp22
g9
tp23
Rp24
(I1
(I3
tp25
g16
I00
S'\x00\x00\x00\x00\x00\x80V\xc0\x00\x00\x00\x00\x00\x00\x00\x00\x00\x00\x00\x00\x00@e\xc0'
p26
tp27
bsS'center_target_pixels'
p28
(I870
I498
tp29
sS'center_actual_pixels'
p30
(I896
I462
tp31
s.(dp0
S'actual_pos'
p1
(lp2
F0.03873723022632499
aF0.04783830919615967
aF-0.16618372365150946
asS'actual_rot'
p3
(lp4
F-90.20232177428902
aF-0.9226972491817238
aF-166.03744185430705
asS'target_pos'
p5
cnumpy.core.multiarray
_reconstruct
p6
(cnumpy
ndarray
p7
(I0
tp8
S'b'
p9
tp10
Rp11
(I1
(I3
tp12
cnumpy
dtype
p13
(S'f8'
p14
I0
I1
tp15
Rp16
(I3
S'<'
p17
NNNI-1
I-1
I0
tp18
bI00
S'\xa5Ca\xf9\xaf4\xa4?\x01\x83]\xdf\xa3n\xa8?\xef]uSnN\xc5\xbf'
p19
tp20
bsS'target_rot'
p21
g6
(g7
(I0
tp22
g9
tp23
Rp24
(I1
(I3
tp25
g16
I00
S'\x00\x00\x00\x00\x00\x80V\xc0\x00\x00\x00\x00\x00\x00\x00\x00\x00\x00\x00\x00\x00@e\xc0'
p26
tp27
bsS'center_target_pixels'
p28
(I1044
I503
tp29
sS'center_actual_pixels'
p30
(I1065
I474
tp31
s.(dp0
S'actual_pos'
p1
(lp2
F0.023537062268766017
aF0.04650641226863893
aF-0.16421073931639052
asS'actual_rot'
p3
(lp4
F-90.09044209616222
aF-0.6378743698843653
aF-168.54714223116326
asS'target_pos'
p5
cnumpy.core.multiarray
_reconstruct
p6
(cnumpy
ndarray
p7
(I0
tp8
S'b'
p9
tp10
Rp11
(I1
(I3
tp12
cnumpy
dtype
p13
(S'f8'
p14
I0
I1
tp15
Rp16
(I3
S'<'
p17
NNNI-1
I-1
I0
tp18
bI00
S'\x90\xec\xce\xe5\x10\x84\x98?\x12l\x13\x94\xd7\xc9\xa7?\xcd\xfd\x9b3\x86\r\xc5\xbf'
p19
tp20
bsS'target_rot'
p21
g6
(g7
(I0
tp22
g9
tp23
Rp24
(I1
(I3
tp25
g16
I00
S'\x00\x00\x00\x00\x00\x80V\xc0\x00\x00\x00\x00\x00\x00\x00\x00\x00\x00\x00\x00\x00@e\xc0'
p26
tp27
bsS'center_target_pixels'
p28
(I1217
I508
tp29
sS'center_actual_pixels'
p30
(I1235
I484
tp31
s.(dp0
S'actual_pos'
p1
(lp2
F0.007570448006959231
aF0.04509193285794091
aF-0.16487272030621442
asS'actual_rot'
p3
(lp4
F-89.97346135440768
aF0.5563891488349065
aF-171.66911164708134
asS'target_pos'
p5
cnumpy.core.multiarray
_reconstruct
p6
(cnumpy
ndarray
p7
(I0
tp8
S'b'
p9
tp10
Rp11
(I1
(I3
tp12
cnumpy
dtype
p13
(S'f8'
p14
I0
I1
tp15
Rp16
(I3
S'<'
p17
NNNI-1
I-1
I0
tp18
bI00
S"\xac\x8eXP;[\x80?\xf0\x9a\xdb\x0cR\xf1\xa6?8rB'\x03%\xc5\xbf"
p19
tp20
bsS'target_rot'
p21
g6
(g7
(I0
tp22
g9
tp23
Rp24
(I1
(I3
tp25
g16
I00
S'\x00\x00\x00\x00\x00\x80V\xc0\x00\x00\x00\x00\x00\x00\x00\x00\x00\x00\x00\x00\x00@e\xc0'
p26
tp27
bsS'center_target_pixels'
p28
(I1387
I512
tp29
sS'center_actual_pixels'
p30
(I1415
I495
tp31
s.(dp0
S'actual_pos'
p1
(lp2
F0.06141734963046928
aF0.057600043500987554
aF-0.16922581016030536
asS'actual_rot'
p3
(lp4
F-90.03986101044855
aF-0.1460228331342844
aF-164.76317160106115
asS'target_pos'
p5
cnumpy.core.multiarray
_reconstruct
p6
(cnumpy
ndarray
p7
(I0
tp8
S'b'
p9
tp10
Rp11
(I1
(I3
tp12
cnumpy
dtype
p13
(S'f8'
p14
I0
I1
tp15
Rp16
(I3
S'<'
p17
NNNI-1
I-1
I0
tp18
bI00
S'*\xef\xc5\xd4\xc6\xd5\xaf?\xb0\x9d\xa0\x12\xf4t\xad?\xac\x88c\xefS\xaf\xc5\xbf'
p19
tp20
bsS'target_rot'
p21
g6
(g7
(I0
tp22
g9
tp23
Rp24
(I1
(I3
tp25
g16
I00
S'\x00\x00\x00\x00\x00\x80V\xc0\x00\x00\x00\x00\x00\x00\x00\x00\x00\x00\x00\x00\x00@e\xc0'
p26
tp27
bsS'center_target_pixels'
p28
(I780
I583
tp29
sS'center_actual_pixels'
p30
(I804
I558
tp31
s.(dp0
S'actual_pos'
p1
(lp2
F0.04610332416424605
aF0.056423029591500896
aF-0.16480074849352372
asS'actual_rot'
p3
(lp4
F-90.00018119500787
aF-0.004246783655341728
aF-165.5176011369762
asS'target_pos'
p5
cnumpy.core.multiarray
_reconstruct
p6
(cnumpy
ndarray
p7
(I0
tp8
S'b'
p9
tp10
Rp11
(I1
(I3
tp12
cnumpy
dtype
p13
(S'f8'
p14
I0
I1
tp15
Rp16
(I3
S'<'
p17
NNNI-1
I-1
I0
tp18
bI00
S'\xe5\x0f\xd6\xa8W\xe8\xa7?\x9esF\xd3\x01\xd8\xac?\xebq\xa98\xa9\x1d\xc5\xbf'
p19
tp20
bsS'target_rot'
p21
g6
(g7
(I0
tp22
g9
tp23
Rp24
(I1
(I3
tp25
g16
I00
S'\x00\x00\x00\x00\x00\x80V\xc0\x00\x00\x00\x00\x00\x00\x00\x00\x00\x00\x00\x00\x00@e\xc0'
p26
tp27
bsS'center_target_pixels'
p28
(I955
I587
tp29
sS'center_actual_pixels'
p30
(I977
I572
tp31
s.(dp0
S'actual_pos'
p1
(lp2
F0.030469426050057348
aF0.055033045361675414
aF-0.16557816604005698
asS'actual_rot'
p3
(lp4
F-89.97748728802824
aF0.11697326138707786
aF-167.64806389230458
asS'target_pos'
p5
cnumpy.core.multiarray
_reconstruct
p6
(cnumpy
ndarray
p7
(I0
tp8
S'b'
p9
tp10
Rp11
(I1
(I3
tp12
cnumpy
dtype
p13
(S'f8'
p14
I0
I1
tp15
Rp16
(I3
S'<'
p17
NNNI-1
I-1
I0
tp18
bI00
S'\xfd]\x89\xd0\x9e\xc6\x9f?\xe6\x11%5:\x1c\xac?\x89vm\xc8\xe09\xc5\xbf'
p19
tp20
bsS'target_rot'
p21
g6
(g7
(I0
tp22
g9
tp23
Rp24
(I1
(I3
tp25
g16
I00
S'\x00\x00\x00\x00\x00\x80V\xc0\x00\x00\x00\x00\x00\x00\x00\x00\x00\x00\x00\x00\x00@e\xc0'
p26
tp27
bsS'center_target_pixels'
p28
(I1128
I592
tp29
sS'center_actual_pixels'
p30
(I1147
I570
tp31
s.(dp0
S'actual_pos'
p1
(lp2
F0.015248024744473019
aF0.05377131557432982
aF-0.16346864200831118
asS'actual_rot'
p3
(lp4
F-89.90597519611886
aF0.9973968573640299
aF-170.53425777858988
asS'target_pos'
p5
cnumpy.core.multiarray
_reconstruct
p6
(cnumpy
ndarray
p7
(I0
tp8
S'b'
p9
tp10
Rp11
(I1
(I3
tp12
cnumpy
dtype
p13
(S'f8'
p14
I0
I1
tp15
Rp16
(I3
S'<'
p17
NNNI-1
I-1
I0
tp18
bI00
S'\n\xa3`\x12\x10\x02\x90?\x9ed\x15z\x1do\xab?7V\x8b\x04\x82\xf4\xc4\xbf'
p19
tp20
bsS'target_rot'
p21
g6
(g7
(I0
tp22
g9
tp23
Rp24
(I1
(I3
tp25
g16
I00
S'\x00\x00\x00\x00\x00\x80V\xc0\x00\x00\x00\x00\x00\x00\x00\x00\x00\x00\x00\x00\x00@e\xc0'
p26
tp27
bsS'center_target_pixels'
p28
(I1300
I596
tp29
sS'center_actual_pixels'
p30
(I1316
I575
tp31
s.(dp0
S'actual_pos'
p1
(lp2
F0.06847852155732272
aF0.06609502354534431
aF-0.1685330693809318
asS'actual_rot'
p3
(lp4
F-89.9845620213686
aF0.00563420431094187
aF-164.72844762091697
asS'target_pos'
p5
cnumpy.core.multiarray
_reconstruct
p6
(cnumpy
ndarray
p7
(I0
tp8
S'b'
p9
tp10
Rp11
(I1
(I3
tp12
cnumpy
dtype
p13
(S'f8'
p14
I0
I1
tp15
Rp16
(I3
S'<'
p17
NNNI-1
I-1
I0
tp18
bI00
S' 0z\x04\xcd\xb9\xb1?\xa3\x1f+u\xcb\xe9\xb0?\x10\x08\xc7\x7fo\x94\xc5\xbf'
p19
tp20
bsS'target_rot'
p21
g6
(g7
(I0
tp22
g9
tp23
Rp24
(I1
(I3
tp25
g16
I00
S'\x00\x00\x00\x00\x00\x80V\xc0\x00\x00\x00\x00\x00\x00\x00\x00\x00\x00\x00\x00\x00@e\xc0'
p26
tp27
bsS'center_target_pixels'
p28
(I689
I668
tp29
sS'center_actual_pixels'
p30
(I698
I642
tp31
s.(dp0
S'actual_pos'
p1
(lp2
F0.05303156416982473
aF0.06475484638544172
aF-0.16632189455519447
asS'actual_rot'
p3
(lp4
F-90.02645183115192
aF-0.08610588657090948
aF-165.37221090858213
asS'target_pos'
p5
cnumpy.core.multiarray
_reconstruct
p6
(cnumpy
ndarray
p7
(I0
tp8
S'b'
p9
tp10
Rp11
(I1
(I3
tp12
cnumpy
dtype
p13
(S'f8'
p14
I0
I1
tp15
Rp16
(I3
S'<'
p17
NNNI-1
I-1
I0
tp18
bI00
S'R[\xa8\xa8A\x82\xab?\xc3\xc7\x8f\x17\x0c\x92\xb0?)U\x98w\x87N\xc5\xbf'
p19
tp20
bsS'target_rot'
p21
g6
(g7
(I0
tp22
g9
tp23
Rp24
(I1
(I3
tp25
g16
I00
S'\x00\x00\x00\x00\x00\x80V\xc0\x00\x00\x00\x00\x00\x00\x00\x00\x00\x00\x00\x00\x00@e\xc0'
p26
tp27
bsS'center_target_pixels'
p28
(I865
I672
tp29
sS'center_actual_pixels'
p30
(I873
I645
tp31
s.(dp0
S'actual_pos'
p1
(lp2
F0.037632149235697854
aF0.06364722651634389
aF-0.16446431283576024
asS'actual_rot'
p3
(lp4
F-89.89601255288335
aF0.4501587955630638
aF-167.02423955733627
asS'target_pos'
p5
cnumpy.core.multiarray
_reconstruct
p6
(cnumpy
ndarray
p7
(I0
tp8
S'b'
p9
tp10
Rp11
(I1
(I3
tp12
cnumpy
dtype
p13
(S'f8'
p14
I0
I1
tp15
Rp16
(I3
S'<'
p17
NNNI-1
I-1
I0
tp18
bI00
S'|Ry\x0b\x8d\x95\xa3?\xa6\x91Q4\xfbE\xb0?A\xabV"\xcb\x13\xc5\xbf'
p19
tp20
bsS'target_rot'
p21
g6
(g7
(I0
tp22
g9
tp23
Rp24
(I1
(I3
tp25
g16
I00
S'\x00\x00\x00\x00\x00\x80V\xc0\x00\x00\x00\x00\x00\x00\x00\x00\x00\x00\x00\x00\x00@e\xc0'
p26
tp27
bsS'center_target_pixels'
p28
(I1040
I678
tp29
sS'center_actual_pixels'
p30
(I1052
I651
tp31
s.(dp0
S'actual_pos'
p1
(lp2
F0.021420020974467296
aF0.06209921116352295
aF-0.16710071934265192
asS'actual_rot'
p3
(lp4
F-89.85786884815766
aF0.9239293186362743
aF-170.1840250790517
asS'target_pos'
p5
cnumpy.core.multiarray
_reconstruct
p6
(cnumpy
ndarray
p7
(I0
tp8
S'b'
p9
tp10
Rp11
(I1
(I3
tp12
cnumpy
dtype
p13
(S'f8'
p14
I0
I1
tp15
Rp16
(I3
S'<'
p17
NNNI-1
I-1
I0
tp18
bI00
S'\xc6\x04\xcc\xa62\xa2\x96?$X\x98\x1e\x1d\xa5\xaf?\xce\xff\xe0\xd1W\x82\xc5\xbf'
p19
tp20
bsS'target_rot'
p21
g6
(g7
(I0
tp22
g9
tp23
Rp24
(I1
(I3
tp25
g16
I00
S'\x00\x00\x00\x00\x00\x80V\xc0\x00\x00\x00\x00\x00\x00\x00\x00\x00\x00\x00\x00\x00@e\xc0'
p26
tp27
bsS'center_target_pixels'
p28
(I1212
I679
tp29
sS'center_actual_pixels'
p30
(I1243
I663
tp31
s.(dp0
S'actual_pos'
p1
(lp2
F0.006941942790411389
aF0.06115288326756634
aF-0.1629511217603481
asS'actual_rot'
p3
(lp4
F-89.89798733588327
aF2.6370220505468898
aF-173.17290770159963
asS'target_pos'
p5
cnumpy.core.multiarray
_reconstruct
p6
(cnumpy
ndarray
p7
(I0
tp8
S'b'
p9
tp10
Rp11
(I1
(I3
tp12
cnumpy
dtype
p13
(S'f8'
p14
I0
I1
tp15
Rp16
(I3
S'<'
p17
NNNI-1
I-1
I0
tp18
bI00
S'\xf0\x11\\\x14\xf5\x1b~?s~\xd1d\xb0\x12\xaf?\x1a!$rM\xe5\xc4\xbf'
p19
tp20
bsS'target_rot'
p21
g6
(g7
(I0
tp22
g9
tp23
Rp24
(I1
(I3
tp25
g16
I00
S'\x00\x00\x00\x00\x00\x80V\xc0\x00\x00\x00\x00\x00\x00\x00\x00\x00\x00\x00\x00\x00@e\xc0'
p26
tp27
bsS'center_target_pixels'
p28
(I1382
I684
tp29
sS'center_actual_pixels'
p30
(I1408
I669
tp31
s.(dp0
S'actual_pos'
p1
(lp2
F0.06006144034575281
aF0.07260254684750646
aF-0.16806510091962065
asS'actual_rot'
p3
(lp4
F-90.08546570524119
aF-0.24194920737517142
aF-165.0772029056618
asS'target_pos'
p5
cnumpy.core.multiarray
_reconstruct
p6
(cnumpy
ndarray
p7
(I0
tp8
S'b'
p9
tp10
Rp11
(I1
(I3
tp12
cnumpy
dtype
p13
(S'f8'
p14
I0
I1
tp15
Rp16
(I3
S'<'
p17
NNNI-1
I-1
I0
tp18
bI00
S'\xd4\xe8\xd1\x04\xd1\x1a\xaf?\xd2D\t\xfb\xe4\xbd\xb2??&\xedL\x8c\x7f\xc5\xbf'
p19
tp20
bsS'target_rot'
p21
g6
(g7
(I0
tp22
g9
tp23
Rp24
(I1
(I3
tp25
g16
I00
S'\x00\x00\x00\x00\x00\x80V\xc0\x00\x00\x00\x00\x00\x00\x00\x00\x00\x00\x00\x00\x00@e\xc0'
p26
tp27
bsS'center_target_pixels'
p28
(I775
I758
tp29
sS'center_actual_pixels'
p30
(I789
I724
tp31
s.(dp0
S'actual_pos'
p1
(lp2
F0.04476747278227376
aF0.07093719735565036
aF-0.1660038686619211
asS'actual_rot'
p3
(lp4
F-89.97602897915142
aF0.085270099345124
aF-166.37874881869624
asS'target_pos'
p5
cnumpy.core.multiarray
_reconstruct
p6
(cnumpy
ndarray
p7
(I0
tp8
S'b'
p9
tp10
Rp11
(I1
(I3
tp12
cnumpy
dtype
p13
(S'f8'
p14
I0
I1
tp15
Rp16
(I3
S'<'
p17
NNNI-1
I-1
I0
tp18
bI00
S'\x16\x0c1\xffX6\xa7?\xf6\xcd\xfdM\xf9`\xb2?I`r=\xe49\xc5\xbf'
p19
tp20
bsS'target_rot'
p21
g6
(g7
(I0
tp22
g9
tp23
Rp24
(I1
(I3
tp25
g16
I00
S'\x00\x00\x00\x00\x00\x80V\xc0\x00\x00\x00\x00\x00\x00\x00\x00\x00\x00\x00\x00\x00@e\xc0'
p26
tp27
bsS'center_target_pixels'
p28
(I950
I761
tp29
sS'center_actual_pixels'
p30
(I969
I737
tp31
s.(dp0
S'actual_pos'
p1
(lp2
F0.029142127978365944
aF0.06974959797885849
aF-0.16648618923885364
asS'actual_rot'
p3
(lp4
F-89.83542232907561
aF0.9346347350330474
aF-169.08060739584963
asS'target_pos'
p5
cnumpy.core.multiarray
_reconstruct
p6
(cnumpy
ndarray
p7
(I0
tp8
S'b'
p9
tp10
Rp11
(I1
(I3
tp12
cnumpy
dtype
p13
(S'f8'
p14
I0
I1
tp15
Rp16
(I3
S'<'
p17
NNNI-1
I-1
I0
tp18
bI00
S'%\x85\x8e\xfd3R\x9e?\xe2 j5[\x06\xb2?\x1e\xd40Z\xb6O\xc5\xbf'
p19
tp20
bsS'target_rot'
p21
g6
(g7
(I0
tp22
g9
tp23
Rp24
(I1
(I3
tp25
g16
I00
S'\x00\x00\x00\x00\x00\x80V\xc0\x00\x00\x00\x00\x00\x00\x00\x00\x00\x00\x00\x00\x00@e\xc0'
p26
tp27
bsS'center_target_pixels'
p28
(I1124
I764
tp29
sS'center_actual_pixels'
p30
(I1133
I739
tp31
s.(dp0
S'actual_pos'
p1
(lp2
F0.013858849592034404
aF0.06862890863846066
aF-0.1646202267251767
asS'actual_rot'
p3
(lp4
F-89.79275204595962
aF2.4488509306755977
aF-172.275648790372
asS'target_pos'
p5
cnumpy.core.multiarray
_reconstruct
p6
(cnumpy
ndarray
p7
(I0
tp8
S'b'
p9
tp10
Rp11
(I1
(I3
tp12
cnumpy
dtype
p13
(S'f8'
p14
I0
I1
tp15
Rp16
(I3
S'<'
p17
NNNI-1
I-1
I0
tp18
bI00
S'\xfc\x98\xd1\x8c\x08<\x8d?\xab(l\x8d\x8d\xb0\xb1?\x97m\x1dz\xdf\x10\xc5\xbf'
p19
tp20
bsS'target_rot'
p21
g6
(g7
(I0
tp22
g9
tp23
Rp24
(I1
(I3
tp25
g16
I00
S'\x00\x00\x00\x00\x00\x80V\xc0\x00\x00\x00\x00\x00\x00\x00\x00\x00\x00\x00\x00\x00@e\xc0'
p26
tp27
bsS'center_target_pixels'
p28
(I1295
I768
tp29
sS'center_actual_pixels'
p30
(I1307
I734
tp31
s.