(dp0
S'actual_pos'
p1
(cnumpy.core.multiarray
_reconstruct
p2
(cnumpy.matrixlib.defmatrix
matrix
p3
(I0
tp4
S'b'
p5
tp6
Rp7
(I1
(I1
I1
tp8
cnumpy
dtype
p9
(S'f8'
p10
I0
I1
tp11
Rp12
(I3
S'<'
p13
NNNI-1
I-1
I0
tp14
bI00
S'Bs\xc5\x01\xc0X\xb0?'
p15
tp16
bg2
(g3
(I0
tp17
g5
tp18
Rp19
(I1
(I1
I1
tp20
g12
I00
S'\xb1\x9as\xac\xa7P\x92?'
p21
tp22
bg2
(g3
(I0
tp23
g5
tp24
Rp25
(I1
(I1
I1
tp26
g12
I00
S'\x99\x10\xd2\x8fL\xd6\xc5\xbf'
p27
tp28
btp29
sS'actual_rot'
p30
(F0.036042805397940754
F-12.748035436402269
F-171.19579829126684
tp31
sS'target_pos'
p32
(lp33
cnumpy.core.multiarray
scalar
p34
(g12
S'\x15U1\xbc\x19\x82\xb0?'
p35
tp36
Rp37
ag34
(g12
S'\xabU 5\xc6\xa1\x91?'
p38
tp39
Rp40
ag34
(g12
S'X]\r\x93\\\xe1\xc5\xbf'
p41
tp42
Rp43
asS'target_rot'
p44
g2
(cnumpy
ndarray
p45
(I0
tp46
g5
tp47
Rp48
(I1
(I3
tp49
g12
I00
S'C\xc7\xe7\xe7\x91\t\xb4?\xf5\x11>!\xe6d(\xc0a@\tTb4e\xc0'
p50
tp51
bsS'center_target_pixels'
p52
(I800
I94
tp53
sS'center_actual_pixels'
p54
(I802
I93
tp55
s.(dp0
S'actual_pos'
p1
(cnumpy.core.multiarray
_reconstruct
p2
(cnumpy.matrixlib.defmatrix
matrix
p3
(I0
tp4
S'b'
p5
tp6
Rp7
(I1
(I1
I1
tp8
cnumpy
dtype
p9
(S'f8'
p10
I0
I1
tp11
Rp12
(I3
S'<'
p13
NNNI-1
I-1
I0
tp14
bI00
S'\n>J\xf1\t\x9d\xa8?'
p15
tp16
bg2
(g3
(I0
tp17
g5
tp18
Rp19
(I1
(I1
I1
tp20
g12
I00
S'\xc0\x8e\xf0\xb0\x9a\xb8\x90?'
p21
tp22
bg2
(g3
(I0
tp23
g5
tp24
Rp25
(I1
(I1
I1
tp26
g12
I00
S'\x8bx#\xcc\xd1\x9d\xc5\xbf'
p27
tp28
btp29
sS'actual_rot'
p30
(F0.18441667681153756
F-10.977252957572492
F-172.80529498708955
tp31
sS'target_pos'
p32
(lp33
cnumpy.core.multiarray
scalar
p34
(g12
S'\xf4\xc2\x8e\xcc/\r\xa9?'
p35
tp36
Rp37
ag34
(g12
S'\x80\xff0\x94\xbb\x12\x90?'
p38
tp39
Rp40
ag34
(g12
S'\x83Fs\x01E\xa7\xc5\xbf'
p41
tp42
Rp43
asS'target_rot'
p44
g2
(cnumpy
ndarray
p45
(I0
tp46
g5
tp47
Rp48
(I1
(I3
tp49
g12
I00
S'C\xc7\xe7\xe7\x91\t\xb4?\xf5\x11>!\xe6d(\xc0a@\tTb4e\xc0'
p50
tp51
bsS'center_target_pixels'
p52
(I979
I105
tp53
sS'center_actual_pixels'
p54
(I983
I105
tp55
s.(dp0
S'actual_pos'
p1
(cnumpy.core.multiarray
_reconstruct
p2
(cnumpy.matrixlib.defmatrix
matrix
p3
(I0
tp4
S'b'
p5
tp6
Rp7
(I1
(I1
I1
tp8
cnumpy
dtype
p9
(S'f8'
p10
I0
I1
tp11
Rp12
(I3
S'<'
p13
NNNI-1
I-1
I0
tp14
bI00
S'4\xca\x07\xbc\xee\xb2\xa0?'
p15
tp16
bg2
(g3
(I0
tp17
g5
tp18
Rp19
(I1
(I1
I1
tp20
g12
I00
S'U\xda\xcc\xe5\xea\xb7\x8e?'
p21
tp22
bg2
(g3
(I0
tp23
g5
tp24
Rp25
(I1
(I1
I1
tp26
g12
I00
S'\xb4p\xacV\xfcc\xc5\xbf'
p27
tp28
btp29
sS'actual_rot'
p30
(F0.4056897337650493
F-8.28847131547268
F-173.9959953827408
tp31
sS'target_pos'
p32
(lp33
cnumpy.core.multiarray
scalar
p34
(g12
S'\xeaE\x03XvJ\xa1?'
p35
tp36
Rp37
ag34
(g12
S'9G\x99\x04I~\x8d?'
p38
tp39
Rp40
ag34
(g12
S'\x1a\x1a<\x94gl\xc5\xbf'
p41
tp42
Rp43
asS'target_rot'
p44
g2
(cnumpy
ndarray
p45
(I0
tp46
g5
tp47
Rp48
(I1
(I3
tp49
g12
I00
S'C\xc7\xe7\xe7\x91\t\xb4?\xf5\x11>!\xe6d(\xc0a@\tTb4e\xc0'
p50
tp51
bsS'center_target_pixels'
p52
(I1156
I116
tp53
sS'center_actual_pixels'
p54
(I1158
I118
tp55
s.(dp0
S'actual_pos'
p1
(cnumpy.core.multiarray
_reconstruct
p2
(cnumpy.matrixlib.defmatrix
matrix
p3
(I0
tp4
S'b'
p5
tp6
Rp7
(I1
(I1
I1
tp8
cnumpy
dtype
p9
(S'f8'
p10
I0
I1
tp11
Rp12
(I3
S'<'
p13
NNNI-1
I-1
I0
tp14
bI00
S'\x16\x85\xb7\xafZO\x91?'
p15
tp16
bg2
(g3
(I0
tp17
g5
tp18
Rp19
(I1
(I1
I1
tp20
g12
I00
S'\xfc\x87 \xd2\xe2\x16\x8c?'
p21
tp22
bg2
(g3
(I0
tp23
g5
tp24
Rp25
(I1
(I1
I1
tp26
g12
I00
S'\xa2\xbe\xd6\x032+\xc5\xbf'
p27
tp28
btp29
sS'actual_rot'
p30
(F0.5297513158037698
F-6.302899675788489
F-174.59675860737855
tp31
sS'target_pos'
p32
(lp33
cnumpy.core.multiarray
scalar
p34
(g12
S'\xa5sb\\\xdd\xbf\x92?'
p35
tp36
Rp37
ag34
(g12
S'\xe4Z}ba\xe0\x8a?'
p38
tp39
Rp40
ag34
(g12
S'\x9bE*\x07p0\xc5\xbf'
p41
tp42
Rp43
asS'target_rot'
p44
g2
(cnumpy
ndarray
p45
(I0
tp46
g5
tp47
Rp48
(I1
(I3
tp49
g12
I00
S'C\xc7\xe7\xe7\x91\t\xb4?\xf5\x11>!\xe6d(\xc0a@\tTb4e\xc0'
p50
tp51
bsS'center_target_pixels'
p52
(I1332
I127
tp53
sS'center_actual_pixels'
p54
(I1333
I128
tp55
s.(dp0
S'actual_pos'
p1
(cnumpy.core.multiarray
_reconstruct
p2
(cnumpy.matrixlib.defmatrix
matrix
p3
(I0
tp4
S'b'
p5
tp6
Rp7
(I1
(I1
I1
tp8
cnumpy
dtype
p9
(S'f8'
p10
I0
I1
tp11
Rp12
(I3
S'<'
p13
NNNI-1
I-1
I0
tp14
bI00
S'\xeb|\xe6\xc9\xedO\xb2?'
p15
tp16
bg2
(g3
(I0
tp17
g5
tp18
Rp19
(I1
(I1
I1
tp20
g12
I00
S'\xe8\xdc\xde3\xf1\xf2\x9a?'
p21
tp22
bg2
(g3
(I0
tp23
g5
tp24
Rp25
(I1
(I1
I1
tp26
g12
I00
S'\xf5\xc7x\r\x93\xeb\xc5\xbf'
p27
tp28
btp29
sS'actual_rot'
p30
(F-0.5455056434657919
F-16.372390834764364
F-167.6453167015948
tp31
sS'target_pos'
p32
(lp33
cnumpy.core.multiarray
scalar
p34
(g12
S'\x08a\xbd\x8fWW\xb2?'
p35
tp36
Rp37
ag34
(g12
S'\xcf\x0c\x03-q{\x9a?'
p38
tp39
Rp40
ag34
(g12
S'\x1f7\xceQ\xde\xf8\xc5\xbf'
p41
tp42
Rp43
asS'target_rot'
p44
g2
(cnumpy
ndarray
p45
(I0
tp46
g5
tp47
Rp48
(I1
(I3
tp49
g12
I00
S'C\xc7\xe7\xe7\x91\t\xb4?\xf5\x11>!\xe6d(\xc0a@\tTb4e\xc0'
p50
tp51
bsS'center_target_pixels'
p52
(I705
I178
tp53
sS'center_actual_pixels'
p54
(I700
I179
tp55
s.(dp0
S'actual_pos'
p1
(cnumpy.core.multiarray
_reconstruct
p2
(cnumpy.matrixlib.defmatrix
matrix
p3
(I0
tp4
S'b'
p5
tp6
Rp7
(I1
(I1
I1
tp8
cnumpy
dtype
p9
(S'f8'
p10
I0
I1
tp11
Rp12
(I3
S'<'
p13
NNNI-1
I-1
I0
tp14
bI00
S'1a\xbe\xe8\xe5x\xac?'
p15
tp16
bg2
(g3
(I0
tp17
g5
tp18
Rp19
(I1
(I1
I1
tp20
g12
I00
S'\xa3\xcb\xb4{(o\x99?'
p21
tp22
bg2
(g3
(I0
tp23
g5
tp24
Rp25
(I1
(I1
I1
tp26
g12
I00
S'?\xaf\x17\x81\x0c\xb4\xc5\xbf'
p27
tp28
btp29
sS'actual_rot'
p30
(F-0.13846496806082192
F-13.628544248861653
F-169.42083085390996
tp31
sS'target_pos'
p32
(lp33
cnumpy.core.multiarray
scalar
p34
(g12
S'\xfb\xdd\xe4/z\xbc\xac?'
p35
tp36
Rp37
ag34
(g12
S'\x16\x1d4\xfd{\xf8\x98?'
p38
tp39
Rp40
ag34
(g12
S'\xd9\x91\xbf@`\xbf\xc5\xbf'
p41
tp42
Rp43
asS'target_rot'
p44
g2
(cnumpy
ndarray
p45
(I0
tp46
g5
tp47
Rp48
(I1
(I3
tp49
g12
I00
S'C\xc7\xe7\xe7\x91\t\xb4?\xf5\x11>!\xe6d(\xc0a@\tTb4e\xc0'
p50
tp51
bsS'center_target_pixels'
p52
(I885
I189
tp53
sS'center_actual_pixels'
p54
(I881
I191
tp55
s.(dp0
S'actual_pos'
p1
(cnumpy.core.multiarray
_reconstruct
p2
(cnumpy.matrixlib.defmatrix
matrix
p3
(I0
tp4
S'b'
p5
tp6
Rp7
(I1
(I1
I1
tp8
cnumpy
dtype
p9
(S'f8'
p10
I0
I1
tp11
Rp12
(I3
S'<'
p13
NNNI-1
I-1
I0
tp14
bI00
S'\x0c\xeb\xd3&\xd8z\xa4?'
p15
tp16
bg2
(g3
(I0
tp17
g5
tp18
Rp19
(I1
(I1
I1
tp20
g12
I00
S'\x99nn\xe6\xf4*\x98?'
p21
tp22
bg2
(g3
(I0
tp23
g5
tp24
Rp25
(I1
(I1
I1
tp26
g12
I00
S'\xf4v7N\x1f{\xc5\xbf'
p27
tp28
btp29
sS'actual_rot'
p30
(F0.21010367718259226
F-11.143019851670132
F-170.83731086295543
tp31
sS'target_pos'
p32
(lp33
cnumpy.core.multiarray
scalar
p34
(g12
S'A\x0f@\xdcf\xea\xa4?'
p35
tp36
Rp37
ag34
(g12
S'\xdf\xf6\xa6t\xef\xb4\x97?'
p38
tp39
Rp40
ag34
(g12
S'\xafH\x1e\x9e\\\x85\xc5\xbf'
p41
tp42
Rp43
asS'target_rot'
p44
g2
(cnumpy
ndarray
p45
(I0
tp46
g5
tp47
Rp48
(I1
(I3
tp49
g12
I00
S'C\xc7\xe7\xe7\x91\t\xb4?\xf5\x11>!\xe6d(\xc0a@\tTb4e\xc0'
p50
tp51
bsS'center_target_pixels'
p52
(I1062
I201
tp53
sS'center_actual_pixels'
p54
(I1062
I203
tp55
s.(dp0
S'actual_pos'
p1
(cnumpy.core.multiarray
_reconstruct
p2
(cnumpy.matrixlib.defmatrix
matrix
p3
(I0
tp4
S'b'
p5
tp6
Rp7
(I1
(I1
I1
tp8
cnumpy
dtype
p9
(S'f8'
p10
I0
I1
tp11
Rp12
(I3
S'<'
p13
NNNI-1
I-1
I0
tp14
bI00
S'\x19\xa7\xe6L\xb2\xdb\x98?'
p15
tp16
bg2
(g3
(I0
tp17
g5
tp18
Rp19
(I1
(I1
I1
tp20
g12
I00
S'\xfa\xd3\xf2\x7f\x1f\xc3\x96?'
p21
tp22
bg2
(g3
(I0
tp23
g5
tp24
Rp25
(I1
(I1
I1
tp26
g12
I00
S'\xdf1z\x8f\xf2@\xc5\xbf'
p27
tp28
btp29
sS'actual_rot'
p30
(F0.5882151264102043
F-8.147973127759876
F-172.3662898798734
tp31
sS'target_pos'
p32
(lp33
cnumpy.core.multiarray
scalar
p34
(g12
S'\x13\xb0\xf4\x04o\x08\x9a?'
p35
tp36
Rp37
ag34
(g12
S'\xee@\\\xdc7H\x96?'
p38
tp39
Rp40
ag34
(g12
S'\x00V1\x84$J\xc5\xbf'
p41
tp42
Rp43
asS'target_rot'
p44
g2
(cnumpy
ndarray
p45
(I0
tp46
g5
tp47
Rp48
(I1
(I3
tp49
g12
I00
S'C\xc7\xe7\xe7\x91\t\xb4?\xf5\x11>!\xe6d(\xc0a@\tTb4e\xc0'
p50
tp51
bsS'center_target_pixels'
p52
(I1239
I210
tp53
sS'center_actual_pixels'
p54
(I1241
I214
tp55
s.(dp0
S'actual_pos'
p1
(cnumpy.core.multiarray
_reconstruct
p2
(cnumpy.matrixlib.defmatrix
matrix
p3
(I0
tp4
S'b'
p5
tp6
Rp7
(I1
(I1
I1
tp8
cnumpy
dtype
p9
(S'f8'
p10
I0
I1
tp11
Rp12
(I3
S'<'
p13
NNNI-1
I-1
I0
tp14
bI00
S'u\xbei\x0e\xc2\xf0\x80?'
p15
tp16
bg2
(g3
(I0
tp17
g5
tp18
Rp19
(I1
(I1
I1
tp20
g12
I00
S'\x15\x93\x07\x94\xacC\x95?'
p21
tp22
bg2
(g3
(I0
tp23
g5
tp24
Rp25
(I1
(I1
I1
tp26
g12
I00
S'\xf0\xac\xb3\xd0\xf2\x07\xc5\xbf'
p27
tp28
btp29
sS'actual_rot'
p30
(F0.7721399198830196
F-6.379920805439271
F-173.6189119746566
tp31
sS'target_pos'
p32
(lp33
cnumpy.core.multiarray
scalar
p34
(g12
S'V(\xb25\x88\xb6\x83?'
p35
tp36
Rp37
ag34
(g12
S'u^\xa91\x02\xd2\x94?'
p38
tp39
Rp40
ag34
(g12
S'i6\x0f\xb3\xbb\r\xc5\xbf'
p41
tp42
Rp43
asS'target_rot'
p44
g2
(cnumpy
ndarray
p45
(I0
tp46
g5
tp47
Rp48
(I1
(I3
tp49
g12
I00
S'C\xc7\xe7\xe7\x91\t\xb4?\xf5\x11>!\xe6d(\xc0a@\tTb4e\xc0'
p50
tp51
bsS'center_target_pixels'
p52
(I1415
I220
tp53
sS'center_actual_pixels'
p54
(I1418
I221
tp55
s.(dp0
S'actual_pos'
p1
(cnumpy.core.multiarray
_reconstruct
p2
(cnumpy.matrixlib.defmatrix
matrix
p3
(I0
tp4
S'b'
p5
tp6
Rp7
(I1
(I1
I1
tp8
cnumpy
dtype
p9
(S'f8'
p10
I0
I1
tp11
Rp12
(I3
S'<'
p13
NNNI-1
I-1
I0
tp14
bI00
S'k\xb9\x8c\x01\x8b\x0f\xb0?'
p15
tp16
bg2
(g3
(I0
tp17
g5
tp18
Rp19
(I1
(I1
I1
tp20
g12
I00
S'\xe3wd]*+\xa1?'
p21
tp22
bg2
(g3
(I0
tp23
g5
tp24
Rp25
(I1
(I1
I1
tp26
g12
I00
S'\xae&H\x92\xdb\xc8\xc5\xbf'
p27
tp28
btp29
sS'actual_rot'
p30
(F-0.4809840678110895
F-14.917871100921555
F-168.82694091874296
tp31
sS'target_pos'
p32
(lp33
cnumpy.core.multiarray
scalar
p34
(g12
S'\x81\xc6\xf1\x1d\xc0)\xb0?'
p35
tp36
Rp37
ag34
(g12
S'\xb4\xf35?L\xe5\xa0?'
p38
tp39
Rp40
ag34
(g12
S'l\xc2\x9c?\xd6\xd6\xc5\xbf'
p41
tp42
Rp43
asS'target_rot'
p44
g2
(cnumpy
ndarray
p45
(I0
tp46
g5
tp47
Rp48
(I1
(I3
tp49
g12
I00
S'C\xc7\xe7\xe7\x91\t\xb4?\xf5\x11>!\xe6d(\xc0a@\tTb4e\xc0'
p50
tp51
bsS'center_target_pixels'
p52
(I791
I272
tp53
sS'center_actual_pixels'
p54
(I793
I274
tp55
s.(dp0
S'actual_pos'
p1
(cnumpy.core.multiarray
_reconstruct
p2
(cnumpy.matrixlib.defmatrix
matrix
p3
(I0
tp4
S'b'
p5
tp6
Rp7
(I1
(I1
I1
tp8
cnumpy
dtype
p9
(S'f8'
p10
I0
I1
tp11
Rp12
(I3
S'<'
p13
NNNI-1
I-1
I0
tp14
bI00
S'\xbb\xce\xb6\xe5\xdf\x0f\xa8?'
p15
tp16
bg2
(g3
(I0
tp17
g5
tp18
Rp19
(I1
(I1
I1
tp20
g12
I00
S' \x19\xecr\xd7n\xa0?'
p21
tp22
bg2
(g3
(I0
tp23
g5
tp24
Rp25
(I1
(I1
I1
tp26
g12
I00
S'\xd7\xbe\xa9\xc8M\x91\xc5\xbf'
p27
tp28
btp29
sS'actual_rot'
p30
(F0.10482910210562056
F-11.902794052661593
F-170.22566421215936
tp31
sS'target_pos'
p32
(lp33
cnumpy.core.multiarray
scalar
p34
(g12
S'\x9c>f\x94*t\xa8?'
p35
tp36
Rp37
ag34
(g12
S'\xe0\xd1\xd3\xf3\x8b,\xa0?'
p38
tp39
Rp40
ag34
(g12
S'\xc1\x04\xf9\x96z\x9d\xc5\xbf'
p41
tp42
Rp43
asS'target_rot'
p44
g2
(cnumpy
ndarray
p45
(I0
tp46
g5
tp47
Rp48
(I1
(I3
tp49
g12
I00
S'C\xc7\xe7\xe7\x91\t\xb4?\xf5\x11>!\xe6d(\xc0a@\tTb4e\xc0'
p50
tp51
bsS'center_target_pixels'
p52
(I969
I283
tp53
sS'center_actual_pixels'
p54
(I970
I285
tp55
s.(dp0
S'actual_pos'
p1
(cnumpy.core.multiarray
_reconstruct
p2
(cnumpy.matrixlib.defmatrix
matrix
p3
(I0
tp4
S'b'
p5
tp6
Rp7
(I1
(I1
I1
tp8
cnumpy
dtype
p9
(S'f8'
p10
I0
I1
tp11
Rp12
(I3
S'<'
p13
NNNI-1
I-1
I0
tp14
bI00
S'\xc2V,H\xbb"\xa0?'
p15
tp16
bg2
(g3
(I0
tp17
g5
tp18
Rp19
(I1
(I1
I1
tp20
g12
I00
S'\x92\x9a\x042\xc3x\x9f?'
p21
tp22
bg2
(g3
(I0
tp23
g5
tp24
Rp25
(I1
(I1
I1
tp26
g12
I00
S'\xe9X\xec&\x0cX\xc5\xbf'
p27
tp28
btp29
sS'actual_rot'
p30
(F0.520777576265701
F-9.491468493274485
F-171.70561514751816
tp31
sS'target_pos'
p32
(lp33
cnumpy.core.multiarray
scalar
p34
(g12
S'8\xb2\x81\xb2\x84\xa7\xa0?'
p35
tp36
Rp37
ag34
(g12
S'n\xf1C\xd1\x17\x04\x9f?'
p38
tp39
Rp40
ag34
(g12
S'\x1c\xeeNS\x1cc\xc5\xbf'
p41
tp42
Rp43
asS'target_rot'
p44
g2
(cnumpy
ndarray
p45
(I0
tp46
g5
tp47
Rp48
(I1
(I3
tp49
g12
I00
S'C\xc7\xe7\xe7\x91\t\xb4?\xf5\x11>!\xe6d(\xc0a@\tTb4e\xc0'
p50
tp51
bsS'center_target_pixels'
p52
(I1146
I293
tp53
sS'center_actual_pixels'
p54
(I1147
I293
tp55
s.(dp0
S'actual_pos'
p1
(cnumpy.core.multiarray
_reconstruct
p2
(cnumpy.matrixlib.defmatrix
matrix
p3
(I0
tp4
S'b'
p5
tp6
Rp7
(I1
(I1
I1
tp8
cnumpy
dtype
p9
(S'f8'
p10
I0
I1
tp11
Rp12
(I3
S'<'
p13
NNNI-1
I-1
I0
tp14
bI00
S'=w\xdfEc\x0c\x90?'
p15
tp16
bg2
(g3
(I0
tp17
g5
tp18
Rp19
(I1
(I1
I1
tp20
g12
I00
S'`\xe9}GD\x18\x9e?'
p21
tp22
bg2
(g3
(I0
tp23
g5
tp24
Rp25
(I1
(I1
I1
tp26
g12
I00
S'\xa1\x11\xbao)\x1f\xc5\xbf'
p27
tp28
btp29
sS'actual_rot'
p30
(F0.9268880918026298
F-7.167474640148202
F-172.91093193080246
tp31
sS'target_pos'
p32
(lp33
cnumpy.core.multiarray
scalar
p34
(g12
S'\xb3FO\x17\xb4W\x91?'
p35
tp36
Rp37
ag34
(g12
S'\x14\x9f\x99\x95\x1d\xa1\x9d?'
p38
tp39
Rp40
ag34
(g12
S"K\x85\x7f\xfc_'\xc5\xbf"
p41
tp42
Rp43
asS'target_rot'
p44
g2
(cnumpy
ndarray
p45
(I0
tp46
g5
tp47
Rp48
(I1
(I3
tp49
g12
I00
S'C\xc7\xe7\xe7\x91\t\xb4?\xf5\x11>!\xe6d(\xc0a@\tTb4e\xc0'
p50
tp51
bsS'center_target_pixels'
p52
(I1323
I302
tp53
sS'center_actual_pixels'
p54
(I1327
I305
tp55
s.(dp0
S'actual_pos'
p1
(cnumpy.core.multiarray
_reconstruct
p2
(cnumpy.matrixlib.defmatrix
matrix
p3
(I0
tp4
S'b'
p5
tp6
Rp7
(I1
(I1
I1
tp8
cnumpy
dtype
p9
(S'f8'
p10
I0
I1
tp11
Rp12
(I3
S'<'
p13
NNNI-1
I-1
I0
tp14
bI00
S'\xb9<\x02C\x8d\xf1\xb1?'
p15
tp16
bg2
(g3
(I0
tp17
g5
tp18
Rp19
(I1
(I1
I1
tp20
g12
I00
S'\xad0\x14;"\x96\xa5?'
p21
tp22
bg2
(g3
(I0
tp23
g5
tp24
Rp25
(I1
(I1
I1
tp26
g12
I00
S'\xdd{\xc2\xa0i\xdd\xc5\xbf'
p27
tp28
btp29
sS'actual_rot'
p30
(F-1.0686438800477343
F-16.88055161769627
F-166.14621896376968
tp31
sS'target_pos'
p32
(lp33
cnumpy.core.multiarray
scalar
p34
(g12
S'\xce\x08\x13\xcfK\xfb\xb1?'
p35
tp36
Rp37
ag34
(g12
S'\xc6\xb3\x1f".I\xa5?'
p38
tp39
Rp40
ag34
(g12
S'3\x17\x9aK\xd2\xed\xc5\xbf'
p41
tp42
Rp43
asS'target_rot'
p44
g2
(cnumpy
ndarray
p45
(I0
tp46
g5
tp47
Rp48
(I1
(I3
tp49
g12
I00
S'C\xc7\xe7\xe7\x91\t\xb4?\xf5\x11>!\xe6d(\xc0a@\tTb4e\xc0'
p50
tp51
bsS'center_target_pixels'
p52
(I696
I356
tp53
sS'center_actual_pixels'
p54
(I692
I356
tp55
s.(dp0
S'actual_pos'
p1
(cnumpy.core.multiarray
_reconstruct
p2
(cnumpy.matrixlib.defmatrix
matrix
p3
(I0
tp4
S'b'
p5
tp6
Rp7
(I1
(I1
I1
tp8
cnumpy
dtype
p9
(S'f8'
p10
I0
I1
tp11
Rp12
(I3
S'<'
p13
NNNI-1
I-1
I0
tp14
bI00
S'\xaa\xc0i\x80\xae\xcf\xab?'
p15
tp16
bg2
(g3
(I0
tp17
g5
tp18
Rp19
(I1
(I1
I1
tp20
g12
I00
S'\x9a\xce\xa9dn\xdb\xa4?'
p21
tp22
bg2
(g3
(I0
tp23
g5
tp24
Rp25
(I1
(I1
I1
tp26
g12
I00
S'\xb3?\xb6\x8b4\xa6\xc5\xbf'
p27
tp28
btp29
sS'actual_rot'
p30
(F-0.42921255920954043
F-14.221413411693264
F-167.59257805923968
tp31
sS'target_pos'
p32
(lp33
cnumpy.core.multiarray
scalar
p34
(g12
S'Oe\x18l\x06\x0e\xac?'
p35
tp36
Rp37
ag34
(g12
S'o\x14z\xf7=\x91\xa4?'
p38
tp39
Rp40
ag34
(g12
S'I#\xbf#!\xb5\xc5\xbf'
p41
tp42
Rp43
asS'target_rot'
p44
g2
(cnumpy
ndarray
p45
(I0
tp46
g5
tp47
Rp48
(I1
(I3
tp49
g12
I00
S'C\xc7\xe7\xe7\x91\t\xb4?\xf5\x11>!\xe6d(\xc0a@\tTb4e\xc0'
p50
tp51
bsS'center_target_pixels'
p52
(I875
I366
tp53
sS'center_actual_pixels'
p54
(I877
I369
tp55
s.(dp0
S'actual_pos'
p1
(cnumpy.core.multiarray
_reconstruct
p2
(cnumpy.matrixlib.defmatrix
matrix
p3
(I0
tp4
S'b'
p5
tp6
Rp7
(I1
(I1
I1
tp8
cnumpy
dtype
p9
(S'f8'
p10
I0
I1
tp11
Rp12
(I3
S'<'
p13
NNNI-1
I-1
I0
tp14
bI00
S'\x81\x95\xcb\xc0\xa9\xda\xa3?'
p15
tp16
bg2
(g3
(I0
tp17
g5
tp18
Rp19
(I1
(I1
I1
tp20
g12
I00
S'W\xa7T\x11*)\xa4?'
p21
tp22
bg2
(g3
(I0
tp23
g5
tp24
Rp25
(I1
(I1
I1
tp26
g12
I00
S'\xe2\xe1m\x02\x12n\xc5\xbf'
p27
tp28
btp29
sS'actual_rot'
p30
(F0.1259331305006464
F-11.819933458225849
F-169.41910481794812
tp31
sS'target_pos'
p32
(lp33
cnumpy.core.multiarray
scalar
p34
(g12
S'\x86\xa9\xba\xa8\xe9?\xa4?'
p35
tp36
Rp37
ag34
(g12
S'N\xf9q\x1aU\xdb\xa3?'
p38
tp39
Rp40
ag34
(g12
S'\x81\x1e DZ{\xc5\xbf'
p41
tp42
Rp43
asS'target_rot'
p44
g2
(cnumpy
ndarray
p45
(I0
tp46
g5
tp47
Rp48
(I1
(I3
tp49
g12
I00
S'C\xc7\xe7\xe7\x91\t\xb4?\xf5\x11>!\xe6d(\xc0a@\tTb4e\xc0'
p50
tp51
bsS'center_target_pixels'
p52
(I1053
I376
tp53
sS'center_actual_pixels'
p54
(I1054
I383
tp55
s.(dp0
S'actual_pos'
p1
(cnumpy.core.multiarray
_reconstruct
p2
(cnumpy.matrixlib.defmatrix
matrix
p3
(I0
tp4
S'b'
p5
tp6
Rp7
(I1
(I1
I1
tp8
cnumpy
dtype
p9
(S'f8'
p10
I0
I1
tp11
Rp12
(I3
S'<'
p13
NNNI-1
I-1
I0
tp14
bI00
S'\n\xc8X=A\x93\x97?'
p15
tp16
bg2
(g3
(I0
tp17
g5
tp18
Rp19
(I1
(I1
I1
tp20
g12
I00
S'\t\xc0c\x87\xb8~\xa3?'
p21
tp22
bg2
(g3
(I0
tp23
g5
tp24
Rp25
(I1
(I1
I1
tp26
g12
I00
S'L\xed\xbf\xf4\x833\xc5\xbf'
p27
tp28
btp29
sS'actual_rot'
p30
(F0.798380358379634
F-8.845012267417491
F-170.43723113964222
tp31
sS'target_pos'
p32
(lp33
cnumpy.core.multiarray
scalar
p34
(g12
S'\x92Y\x7f\xac\xe0\xa4\x98?'
p35
tp36
Rp37
ag34
(g12
S'\xf4\xab\xc6Q\x0b2\xa3?'
p38
tp39
Rp40
ag34
(g12
S'8L\x92\xec\x8c@\xc5\xbf'
p41
tp42
Rp43
asS'target_rot'
p44
g2
(cnumpy
ndarray
p45
(I0
tp46
g5
tp47
Rp48
(I1
(I3
tp49
g12
I00
S'C\xc7\xe7\xe7\x91\t\xb4?\xf5\x11>!\xe6d(\xc0a@\tTb4e\xc0'
p50
tp51
bsS'center_target_pixels'
p52
(I1230
I385
tp53
sS'center_actual_pixels'
p54
(I1235
I391
tp55
s.(dp0
S'actual_pos'
p1
(cnumpy.core.multiarray
_reconstruct
p2
(cnumpy.matrixlib.defmatrix
matrix
p3
(I0
tp4
S'b'
p5
tp6
Rp7
(I1
(I1
I1
tp8
cnumpy
dtype
p9
(S'f8'
p10
I0
I1
tp11
Rp12
(I3
S'<'
p13
NNNI-1
I-1
I0
tp14
bI00
S'^\xaf\x8a\xc6\xc8A|?'
p15
tp16
bg2
(g3
(I0
tp17
g5
tp18
Rp19
(I1
(I1
I1
tp20
g12
I00
S'?;\x08d\x84\xbe\xa2?'
p21
tp22
bg2
(g3
(I0
tp23
g5
tp24
Rp25
(I1
(I1
I1
tp26
g12
I00
S'\xf4-AZ\xdc\xf9\xc4\xbf'
p27
tp28
btp29
sS'actual_rot'
p30
(F1.2529875361363378
F-6.732887114344454
F-172.13712498317153
tp31
sS'target_pos'
p32
(lp33
cnumpy.core.multiarray
scalar
p34
(g12
S'\xeb\xc1k\xc37\xbd\x80?'
p35
tp36
Rp37
ag34
(g12
S'b\x812\xfc\xf4z\xa2?'
p38
tp39
Rp40
ag34
(g12
S'\x01USkJ\x04\xc5\xbf'
p41
tp42
Rp43
asS'target_rot'
p44
g2
(cnumpy
ndarray
p45
(I0
tp46
g5
tp47
Rp48
(I1
(I3
tp49
g12
I00
S'C\xc7\xe7\xe7\x91\t\xb4?\xf5\x11>!\xe6d(\xc0a@\tTb4e\xc0'
p50
tp51
bsS'center_target_pixels'
p52
(I1407
I394
tp53
sS'center_actual_pixels'
p54
(I1416
I399
tp55
s.(dp0
S'actual_pos'
p1
(cnumpy.core.multiarray
_reconstruct
p2
(cnumpy.matrixlib.defmatrix
matrix
p3
(I0
tp4
S'b'
p5
tp6
Rp7
(I1
(I1
I1
tp8
cnumpy
dtype
p9
(S'f8'
p10
I0
I1
tp11
Rp12
(I3
S'<'
p13
NNNI-1
I-1
I0
tp14
bI00
S'p\xc1\xf2S2\x9d\xaf?'
p15
tp16
bg2
(g3
(I0
tp17
g5
tp18
Rp19
(I1
(I1
I1
tp20
g12
I00
S'\xf4WI\xfd\x9b(\xa9?'
p21
tp22
bg2
(g3
(I0
tp23
g5
tp24
Rp25
(I1
(I1
I1
tp26
g12
I00
S'\xbb\xe5\xec\xf7\x96\xbb\xc5\xbf'
p27
tp28
btp29
sS'actual_rot'
p30
(F-1.2001419764415644
F-16.595245097146563
F-165.56366104850548
tp31
sS'target_pos'
p32
(lp33
cnumpy.core.multiarray
scalar
p34
(g12
S'xZ!\n\xf9\xa5\xaf?'
p35
tp36
Rp37
ag34
(g12
S'qO\x87\n\xa1\xe7\xa8?'
p38
tp39
Rp40
ag34
(g12
S'\xa4^\xcae\xc2\xcb\xc5\xbf'
p41
tp42
Rp43
asS'target_rot'
p44
g2
(cnumpy
ndarray
p45
(I0
tp46
g5
tp47
Rp48
(I1
(I3
tp49
g12
I00
S'C\xc7\xe7\xe7\x91\t\xb4?\xf5\x11>!\xe6d(\xc0a@\tTb4e\xc0'
p50
tp51
bsS'center_target_pixels'
p52
(I782
I449
tp53
sS'center_actual_pixels'
p54
(I771
I451
tp55
s.(dp0
S'actual_pos'
p1
(cnumpy.core.multiarray
_reconstruct
p2
(cnumpy.matrixlib.defmatrix
matrix
p3
(I0
tp4
S'b'
p5
tp6
Rp7
(I1
(I1
I1
tp8
cnumpy
dtype
p9
(S'f8'
p10
I0
I1
tp11
Rp12
(I3
S'<'
p13
NNNI-1
I-1
I0
tp14
bI00
S'\\\xa2\xbcb\xe1~\xa7?'
p15
tp16
bg2
(g3
(I0
tp17
g5
tp18
Rp19
(I1
(I1
I1
tp20
g12
I00
S'\xa24\xbb\xb7\xf6v\xa8?'
p21
tp22
bg2
(g3
(I0
tp23
g5
tp24
Rp25
(I1
(I1
I1
tp26
g12
I00
S'\x83\\\xbe\x03\xbf\x83\xc5\xbf'
p27
tp28
btp29
sS'actual_rot'
p30
(F-0.388204700540224
F-13.640675869575286
F-166.85414001958773
tp31
sS'target_pos'
p32
(lp33
cnumpy.core.multiarray
scalar
p34
(g12
S'\xcb\xab\x98\x97\t\xc1\xa7?'
p35
tp36
Rp37
ag34
(g12
S"\xb4'\xf6\x9f\xc56\xa8?"
p38
tp39
Rp40
ag34
(g12
S'8}h6\xe1\x92\xc5\xbf'
p41
tp42
Rp43
asS'target_rot'
p44
g2
(cnumpy
ndarray
p45
(I0
tp46
g5
tp47
Rp48
(I1
(I3
tp49
g12
I00
S'C\xc7\xe7\xe7\x91\t\xb4?\xf5\x11>!\xe6d(\xc0a@\tTb4e\xc0'
p50
tp51
bsS'center_target_pixels'
p52
(I960
I459
tp53
sS'center_actual_pixels'
p54
(I961
I461
tp55
s.(dp0
S'actual_pos'
p1
(cnumpy.core.multiarray
_reconstruct
p2
(cnumpy.matrixlib.defmatrix
matrix
p3
(I0
tp4
S'b'
p5
tp6
Rp7
(I1
(I1
I1
tp8
cnumpy
dtype
p9
(S'f8'
p10
I0
I1
tp11
Rp12
(I3
S'<'
p13
NNNI-1
I-1
I0
tp14
bI00
S'\xa4\x98\xa3\xd8\xee\x1f\x9f?'
p15
tp16
bg2
(g3
(I0
tp17
g5
tp18
Rp19
(I1
(I1
I1
tp20
g12
I00
S'\xbc0\x16\xcbK\xba\xa7?'
p21
tp22
bg2
(g3
(I0
tp23
g5
tp24
Rp25
(I1
(I1
I1
tp26
g12
I00
S'3:\xbbtgL\xc5\xbf'
p27
tp28
btp29
sS'actual_rot'
p30
(F0.23936022619515362
F-11.355438610099867
F-168.86733481245187
tp31
sS'target_pos'
p32
(lp33
cnumpy.core.multiarray
scalar
p34
(g12
S'\x9d\x17\x16\x8f\xe3\xd0\x9f?'
p35
tp36
Rp37
ag34
(g12
S'\x1e{-N?\x82\xa7?'
p38
tp39
Rp40
ag34
(g12
S'\xd8\x90}\xdd\xfeX\xc5\xbf'
p41
tp42
Rp43
asS'target_rot'
p44
g2
(cnumpy
ndarray
p45
(I0
tp46
g5
tp47
Rp48
(I1
(I3
tp49
g12
I00
S'C\xc7\xe7\xe7\x91\t\xb4?\xf5\x11>!\xe6d(\xc0a@\tTb4e\xc0'
p50
tp51
bsS'center_target_pixels'
p52
(I1137
I468
tp53
sS'center_actual_pixels'
p54
(I1137
I469
tp55
s.(dp0
S'actual_pos'
p1
(cnumpy.core.multiarray
_reconstruct
p2
(cnumpy.matrixlib.defmatrix
matrix
p3
(I0
tp4
S'b'
p5
tp6
Rp7
(I1
(I1
I1
tp8
cnumpy
dtype
p9
(S'f8'
p10
I0
I1
tp11
Rp12
(I3
S'<'
p13
NNNI-1
I-1
I0
tp14
bI00
S'$\xb6+2\xefJ\x8d?'
p15
tp16
bg2
(g3
(I0
tp17
g5
tp18
Rp19
(I1
(I1
I1
tp20
g12
I00
S'\xf6\x81X8\xfd\x0f\xa7?'
p21
tp22
bg2
(g3
(I0
tp23
g5
tp24
Rp25
(I1
(I1
I1
tp26
g12
I00
S'\x18\x0f\xbf\x1cc\x12\xc5\xbf'
p27
tp28
btp29
sS'actual_rot'
p30
(F1.0275920569161956
F-8.49273842076114
F-170.42197458392482
tp31
sS'target_pos'
p32
(lp33
cnumpy.core.multiarray
scalar
p34
(g12
S'\xd2\xde\xae\xa16\x86\x8f?'
p35
tp36
Rp37
ag34
(g12
S'\xad\x02\xab\xfb\xd7\xd3\xa6?'
p38
tp39
Rp40
ag34
(g12
S'\x14\xbe\x01`\xad\x1d\xc5\xbf'
p41
tp42
Rp43
asS'target_rot'
p44
g2
(cnumpy
ndarray
p45
(I0
tp46
g5
tp47
Rp48
(I1
(I3
tp49
g12
I00
S'C\xc7\xe7\xe7\x91\t\xb4?\xf5\x11>!\xe6d(\xc0a@\tTb4e\xc0'
p50
tp51
bsS'center_target_pixels'
p52
(I1314
I477
tp53
sS'center_actual_pixels'
p54
(I1319
I480
tp55
s.(dp0
S'actual_pos'
p1
(cnumpy.core.multiarray
_reconstruct
p2
(cnumpy.matrixlib.defmatrix
matrix
p3
(I0
tp4
S'b'
p5
tp6
Rp7
(I1
(I1
I1
tp8
cnumpy
dtype
p9
(S'f8'
p10
I0
I1
tp11
Rp12
(I3
S'<'
p13
NNNI-1
I-1
I0
tp14
bI00
S'\x05z\x9f\x92\xeb\x9f\xb1?'
p15
tp16
bg2
(g3
(I0
tp17
g5
tp18
Rp19
(I1
(I1
I1
tp20
g12
I00
S'\nW:\x8f<p\xad?'
p21
tp22
bg2
(g3
(I0
tp23
g5
tp24
Rp25
(I1
(I1
I1
tp26
g12
I00
S'\xde\xe3\x92\xddp\xd0\xc5\xbf'
p27
tp28
btp29
sS'actual_rot'
p30
(F-1.5771927519350724
F-17.037753544607206
F-164.55426903637607
tp31
sS'target_pos'
p32
(lp33
cnumpy.core.multiarray
scalar
p34
(g12
S'\xb4\xaeQH\x01\xa7\xb1?'
p35
tp36
Rp37
ag34
(g12
S'\xa9\x08v\x96jJ\xad?'
p38
tp39
Rp40
ag34
(g12
S'\x84\x05\xd7\xf4%\xe2\xc5\xbf'
p41
tp42
Rp43
asS'target_rot'
p44
g2
(cnumpy
ndarray
p45
(I0
tp46
g5
tp47
Rp48
(I1
(I3
tp49
g12
I00
S'C\xc7\xe7\xe7\x91\t\xb4?\xf5\x11>!\xe6d(\xc0a@\tTb4e\xc0'
p50
tp51
bsS'center_target_pixels'
p52
(I687
I534
tp53
sS'center_actual_pixels'
p54
(I688
I535
tp55
s.(dp0
S'actual_pos'
p1
(cnumpy.core.multiarray
_reconstruct
p2
(cnumpy.matrixlib.defmatrix
matrix
p3
(I0
tp4
S'b'
p5
tp6
Rp7
(I1
(I1
I1
tp8
cnumpy
dtype
p9
(S'f8'
p10
I0
I1
tp11
Rp12
(I3
S'<'
p13
NNNI-1
I-1
I0
tp14
bI00
S'\x98\x9f\xfe\xbc50\xab?'
p15
tp16
bg2
(g3
(I0
tp17
g5
tp18
Rp19
(I1
(I1
I1
tp20
g12
I00
S'\xaa|\x13\x92\xb8\xbe\xac?'
p21
tp22
bg2
(g3
(I0
tp23
g5
tp24
Rp25
(I1
(I1
I1
tp26
g12
I00
S'qj\xca\x06\x80\x9b\xc5\xbf'
p27
tp28
btp29
sS'actual_rot'
p30
(F-0.7168116218811834
F-14.436298240248119
F-165.82968634227336
tp31
sS'target_pos'
p32
(lp33
cnumpy.core.multiarray
scalar
p34
(g12
S'\x926\x16C\x9fd\xab?'
p35
tp36
Rp37
ag34
(g12
S'\xe2\t\xcc\xbcA\x9a\xac?'
p38
tp39
Rp40
ag34
(g12
S'H\x19\xa4\xb9\xef\xa9\xc5\xbf'
p41
tp42
Rp43
asS'target_rot'
p44
g2
(cnumpy
ndarray
p45
(I0
tp46
g5
tp47
Rp48
(I1
(I3
tp49
g12
I00
S'C\xc7\xe7\xe7\x91\t\xb4?\xf5\x11>!\xe6d(\xc0a@\tTb4e\xc0'
p50
tp51
bsS'center_target_pixels'
p52
(I866
I543
tp53
sS'center_actual_pixels'
p54
(I866
I544
tp55
s.(dp0
S'actual_pos'
p1
(cnumpy.core.multiarray
_reconstruct
p2
(cnumpy.matrixlib.defmatrix
matrix
p3
(I0
tp4
S'b'
p5
tp6
Rp7
(I1
(I1
I1
tp8
cnumpy
dtype
p9
(S'f8'
p10
I0
I1
tp11
Rp12
(I3
S'<'
p13
NNNI-1
I-1
I0
tp14
bI00
S'9\x93\xacG\x06-\xa3?'
p15
tp16
bg2
(g3
(I0
tp17
g5
tp18
Rp19
(I1
(I1
I1
tp20
g12
I00
S'\x86\x1b\xf4\x17(\x0b\xac?'
p21
tp22
bg2
(g3
(I0
tp23
g5
tp24
Rp25
(I1
(I1
I1
tp26
g12
I00
S'\x13\xce.u\x92c\xc5\xbf'
p27
tp28
btp29
sS'actual_rot'
p30
(F0.08143391151178338
F-11.987675114389805
F-167.4449135774785
tp31
sS'target_pos'
p32
(lp33
cnumpy.core.multiarray
scalar
p34
(g12
S'\xd0=\x8ax3\x8e\xa3?'
p35
tp36
Rp37
ag34
(g12
S'\xa11\x96i\xf8\xe7\xab?'
p38
tp39
Rp40
ag34
(g12
S'\x8a0\xb5v\xa4p\xc5\xbf'
p41
tp42
Rp43
asS'target_rot'
p44
g2
(cnumpy
ndarray
p45
(I0
tp46
g5
tp47
Rp48
(I1
(I3
tp49
g12
I00
S'C\xc7\xe7\xe7\x91\t\xb4?\xf5\x11>!\xe6d(\xc0a@\tTb4e\xc0'
p50
tp51
bsS'center_target_pixels'
p52
(I1044
I552
tp53
sS'center_actual_pixels'
p54
(I1048
I556
tp55
s.(dp0
S'actual_pos'
p1
(cnumpy.core.multiarray
_reconstruct
p2
(cnumpy.matrixlib.defmatrix
matrix
p3
(I0
tp4
S'b'
p5
tp6
Rp7
(I1
(I1
I1
tp8
cnumpy
dtype
p9
(S'f8'
p10
I0
I1
tp11
Rp12
(I3
S'<'
p13
NNNI-1
I-1
I0
tp14
bI00
S'7\x83\x07\x96\\&\x96?'
p15
tp16
bg2
(g3
(I0
tp17
g5
tp18
Rp19
(I1
(I1
I1
tp20
g12
I00
S'f\xf4\x12\x0fRG\xab?'
p21
tp22
bg2
(g3
(I0
tp23
g5
tp24
Rp25
(I1
(I1
I1
tp26
g12
I00
S'Nt\\\x9fn+\xc5\xbf'
p27
tp28
btp29
sS'actual_rot'
p30
(F0.7658195714396148
F-9.826936285492817
F-169.6506536547757
tp31
sS'target_pos'
p32
(lp33
cnumpy.core.multiarray
scalar
p34
(g12
S'5n\r$2\x0b\x97?'
p35
tp36
Rp37
ag34
(g12
S'\x80{\xde\x1f\xae2\xab?'
p38
tp39
Rp40
ag34
(g12
S'\x00N\x9d1T6\xc5\xbf'
p41
tp42
Rp43
asS'target_rot'
p44
g2
(cnumpy
ndarray
p45
(I0
tp46
g5
tp47
Rp48
(I1
(I3
tp49
g12
I00
S'C\xc7\xe7\xe7\x91\t\xb4?\xf5\x11>!\xe6d(\xc0a@\tTb4e\xc0'
p50
tp51
bsS'center_target_pixels'
p52
(I1221
I560
tp53
sS'center_actual_pixels'
p54
(I1226
I560
tp55
s.(dp0
S'actual_pos'
p1
(cnumpy.core.multiarray
_reconstruct
p2
(cnumpy.matrixlib.defmatrix
matrix
p3
(I0
tp4
S'b'
p5
tp6
Rp7
(I1
(I1
I1
tp8
cnumpy
dtype
p9
(S'f8'
p10
I0
I1
tp11
Rp12
(I3
S'<'
p13
NNNI-1
I-1
I0
tp14
bI00
S'o\xc1\x1e\xf0\xab\x8dv?'
p15
tp16
bg2
(g3
(I0
tp17
g5
tp18
Rp19
(I1
(I1
I1
tp20
g12
I00
S'\xaa<\x87o\x19\xb0\xaa?'
p21
tp22
bg2
(g3
(I0
tp23
g5
tp24
Rp25
(I1
(I1
I1
tp26
g12
I00
S'N\x7f \xe6B\xf5\xc4\xbf'
p27
tp28
btp29
sS'actual_rot'
p30
(F1.4804888944480898
F-7.647546174045999
F-170.908991731643
tp31
sS'target_pos'
p32
(lp33
cnumpy.core.multiarray
scalar
p34
(g12
S'\xde\xa1\xc2\x8a\xd6i{?'
p35
tp36
Rp37
ag34
(g12
S'zf\xbbW\x12\x8a\xaa?'
p38
tp39
Rp40
ag34
(g12
S'n[6A\xd3\xfa\xc4\xbf'
p41
tp42
Rp43
asS'target_rot'
p44
g2
(cnumpy
ndarray
p45
(I0
tp46
g5
tp47
Rp48
(I1
(I3
tp49
g12
I00
S'C\xc7\xe7\xe7\x91\t\xb4?\xf5\x11>!\xe6d(\xc0a@\tTb4e\xc0'
p50
tp51
bsS'center_target_pixels'
p52
(I1397
I569
tp53
sS'center_actual_pixels'
p54
(I1409
I573
tp55
s.(dp0
S'actual_pos'
p1
(cnumpy.core.multiarray
_reconstruct
p2
(cnumpy.matrixlib.defmatrix
matrix
p3
(I0
tp4
S'b'
p5
tp6
Rp7
(I1
(I1
I1
tp8
cnumpy
dtype
p9
(S'f8'
p10
I0
I1
tp11
Rp12
(I3
S'<'
p13
NNNI-1
I-1
I0
tp14
bI00
S'8\x81\xb1a\xf7\xec\xae?'
p15
tp16
bg2
(g3
(I0
tp17
g5
tp18
Rp19
(I1
(I1
I1
tp20
g12
I00
S'\xda\xa3\xbf\xc2\xc7\x8e\xb0?'
p21
tp22
bg2
(g3
(I0
tp23
g5
tp24
Rp25
(I1
(I1
I1
tp26
g12
I00
S'JY\x8bo^\xb0\xc5\xbf'
p27
tp28
btp29
sS'actual_rot'
p30
(F-1.6811221216214525
F-16.686861301864063
F-164.28098980180462
tp31
sS'target_pos'
p32
(lp33
cnumpy.core.multiarray
scalar
p34
(g12
S'\xfaW6>\xa4\xf5\xae?'
p35
tp36
Rp37
ag34
(g12
S'\xb2\xd0hK\xf7\x82\xb0?'
p38
tp39
Rp40
ag34
(g12
S'\x08\xd4\x9b6I\xc0\xc5\xbf'
p41
tp42
Rp43
asS'target_rot'
p44
g2
(cnumpy
ndarray
p45
(I0
tp46
g5
tp47
Rp48
(I1
(I3
tp49
g12
I00
S'C\xc7\xe7\xe7\x91\t\xb4?\xf5\x11>!\xe6d(\xc0a@\tTb4e\xc0'
p50
tp51
bsS'center_target_pixels'
p52
(I772
I627
tp53
sS'center_actual_pixels'
p54
(I772
I621
tp55
s.(dp0
S'actual_pos'
p1
(cnumpy.core.multiarray
_reconstruct
p2
(cnumpy.matrixlib.defmatrix
matrix
p3
(I0
tp4
S'b'
p5
tp6
Rp7
(I1
(I1
I1
tp8
cnumpy
dtype
p9
(S'f8'
p10
I0
I1
tp11
Rp12
(I3
S'<'
p13
NNNI-1
I-1
I0
tp14
bI00
S'\xba\xe08\xff\xc5\xe3\xa6?'
p15
tp16
bg2
(g3
(I0
tp17
g5
tp18
Rp19
(I1
(I1
I1
tp20
g12
I00
S'\x90\xaf\xc1\x86s3\xb0?'
p21
tp22
bg2
(g3
(I0
tp23
g5
tp24
Rp25
(I1
(I1
I1
tp26
g12
I00
S'/\x1a\xd0\x80\x03{\xc5\xbf'
p27
tp28
btp29
sS'actual_rot'
p30
(F-0.6331928156275604
F-13.908268013058786
F-165.43480480984604
tp31
sS'target_pos'
p32
(lp33
cnumpy.core.multiarray
scalar
p34
(g12
S'\x01\xe3\xfdLy\x13\xa7?'
p35
tp36
Rp37
ag34
(g12
S'NK\xb0\xd8Y&\xb0?'
p38
tp39
Rp40
ag34
(g12
S')\xd6\x8b\x92\x93\x87\xc5\xbf'
p41
tp42
Rp43
asS'target_rot'
p44
g2
(cnumpy
ndarray
p45
(I0
tp46
g5
tp47
Rp48
(I1
(I3
tp49
g12
I00
S'C\xc7\xe7\xe7\x91\t\xb4?\xf5\x11>!\xe6d(\xc0a@\tTb4e\xc0'
p50
tp51
bsS'center_target_pixels'
p52
(I951
I636
tp53
sS'center_actual_pixels'
p54
(I952
I634
tp55
s.(dp0
S'actual_pos'
p1
(cnumpy.core.multiarray
_reconstruct
p2
(cnumpy.matrixlib.defmatrix
matrix
p3
(I0
tp4
S'b'
p5
tp6
Rp7
(I1
(I1
I1
tp8
cnumpy
dtype
p9
(S'f8'
p10
I0
I1
tp11
Rp12
(I3
S'<'
p13
NNNI-1
I-1
I0
tp14
bI00
S'\xdf\xbd\xa30\xa2\xcb\x9d?'
p15
tp16
bg2
(g3
(I0
tp17
g5
tp18
Rp19
(I1
(I1
I1
tp20
g12
I00
S'g(\xa7`\xc8\xb1\xaf?'
p21
tp22
bg2
(g3
(I0
tp23
g5
tp24
Rp25
(I1
(I1
I1
tp26
g12
I00
S'\xc2z\xe3;\xd1@\xc5\xbf'
p27
tp28
btp29
sS'actual_rot'
p30
(F0.08789928017639499
F-11.903318396413809
F-167.2755287860417
tp31
sS'target_pos'
p32
(lp33
cnumpy.core.multiarray
scalar
p34
(g12
S'\xb8{\r\x8f\\p\x9e?'
p35
tp36
Rp37
ag34
(g12
S'\xc0&\xd0i*\x96\xaf?'
p38
tp39
Rp40
ag34
(g12
S'\x84\xa9\xcb[-N\xc5\xbf'
p41
tp42
Rp43
asS'target_rot'
p44
g2
(cnumpy
ndarray
p45
(I0
tp46
g5
tp47
Rp48
(I1
(I3
tp49
g12
I00
S'C\xc7\xe7\xe7\x91\t\xb4?\xf5\x11>!\xe6d(\xc0a@\tTb4e\xc0'
p50
tp51
bsS'center_target_pixels'
p52
(I1128
I644
tp53
sS'center_actual_pixels'
p54
(I1131
I641
tp55
s.(dp0
S'actual_pos'
p1
(cnumpy.core.multiarray
_reconstruct
p2
(cnumpy.matrixlib.defmatrix
matrix
p3
(I0
tp4
S'b'
p5
tp6
Rp7
(I1
(I1
I1
tp8
cnumpy
dtype
p9
(S'f8'
p10
I0
I1
tp11
Rp12
(I3
S'<'
p13
NNNI-1
I-1
I0
tp14
bI00
S'W\xf8F\xdd\x14\xea\x8a?'
p15
tp16
bg2
(g3
(I0
tp17
g5
tp18
Rp19
(I1
(I1
I1
tp20
g12
I00
S'=(\xc5M/\x08\xaf?'
p21
tp22
bg2
(g3
(I0
tp23
g5
tp24
Rp25
(I1
(I1
I1
tp26
g12
I00
S'y\x1d\x82y\xda\x08\xc5\xbf'
p27
tp28
btp29
sS'actual_rot'
p30
(F0.8670826933915057
F-9.894669920019629
F-169.34041455982683
tp31
sS'target_pos'
p32
(lp33
cnumpy.core.multiarray
scalar
p34
(g12
S"\xa27\xcc'\xe1\xaf\x8c?"
p35
tp36
Rp37
ag34
(g12
S'nT\xbdr\xcd\xec\xae?'
p38
tp39
Rp40
ag34
(g12
S'\x1d\xad\x197Y\x13\xc5\xbf'
p41
tp42
Rp43
asS'target_rot'
p44
g2
(cnumpy
ndarray
p45
(I0
tp46
g5
tp47
Rp48
(I1
(I3
tp49
g12
I00
S'C\xc7\xe7\xe7\x91\t\xb4?\xf5\x11>!\xe6d(\xc0a@\tTb4e\xc0'
p50
tp51
bsS'center_target_pixels'
p52
(I1305
I652
tp53
sS'center_actual_pixels'
p54
(I1311
I652
tp55
s.(dp0
S'actual_pos'
p1
(cnumpy.core.multiarray
_reconstruct
p2
(cnumpy.matrixlib.defmatrix
matrix
p3
(I0
tp4
S'b'
p5
tp6
Rp7
(I1
(I1
I1
tp8
cnumpy
dtype
p9
(S'f8'
p10
I0
I1
tp11
Rp12
(I3
S'<'
p13
NNNI-1
I-1
I0
tp14
bI00
S'\x8e\x01"\xa1\xf2K\xb1?'
p15
tp16
bg2
(g3
(I0
tp17
g5
tp18
Rp19
(I1
(I1
I1
tp20
g12
I00
S'\x8boxMe\xbf\xb2?'
p21
tp22
bg2
(g3
(I0
tp23
g5
tp24
Rp25
(I1
(I1
I1
tp26
g12
I00
S'\xa5\xed\xf6?&\xc5\xc5\xbf'
p27
tp28
btp29
sS'actual_rot'
p30
(F-2.0787768823440302
F-17.115293999877668
F-163.69933565037982
tp31
sS'target_pos'
p32
(lp33
cnumpy.core.multiarray
scalar
p34
(g12
S'\x11A\x08\xdd1N\xb1?'
p35
tp36
Rp37
ag34
(g12
S'\x04D\x90\x0c\xd2\xb5\xb2?'
p38
tp39
Rp40
ag34
(g12
S'8\xd6pl\x12\xd6\xc5\xbf'
p41
tp42
Rp43
asS'target_rot'
p44
g2
(cnumpy
ndarray
p45
(I0
tp46
g5
tp47
Rp48
(I1
(I3
tp49
g12
I00
S'C\xc7\xe7\xe7\x91\t\xb4?\xf5\x11>!\xe6d(\xc0a@\tTb4e\xc0'
p50
tp51
bsS'center_target_pixels'
p52
(I677
I713
tp53
sS'center_actual_pixels'
p54
(I680
I703
tp55
s.(dp0
S'actual_pos'
p1
(cnumpy.core.multiarray
_reconstruct
p2
(cnumpy.matrixlib.defmatrix
matrix
p3
(I0
tp4
S'b'
p5
tp6
Rp7
(I1
(I1
I1
tp8
cnumpy
dtype
p9
(S'f8'
p10
I0
I1
tp11
Rp12
(I3
S'<'
p13
NNNI-1
I-1
I0
tp14
bI00
S'UW\x9defv\xaa?'
p15
tp16
bg2
(g3
(I0
tp17
g5
tp18
Rp19
(I1
(I1
I1
tp20
g12
I00
S'"#Q\x1dGi\xb2?'
p21
tp22
bg2
(g3
(I0
tp23
g5
tp24
Rp25
(I1
(I1
I1
tp26
g12
I00
S'\xe1\xa3\xcee]\x8f\xc5\xbf'
p27
tp28
btp29
sS'actual_rot'
p30
(F-0.9542092609204922
F-14.505048246854166
F-164.78841698205406
tp31
sS'target_pos'
p32
(lp33
cnumpy.core.multiarray
scalar
p34
(g12
S'\x8c\x10\x12H\xdc\xa7\xaa?'
p35
tp36
Rp37
ag34
(g12
S"'\x9a*\xdf\x1c`\xb2?"
p38
tp39
Rp40
ag34
(g12
S'\xb2)\x85_\t\x9e\xc5\xbf'
p41
tp42
Rp43
asS'target_rot'
p44
g2
(cnumpy
ndarray
p45
(I0
tp46
g5
tp47
Rp48
(I1
(I3
tp49
g12
I00
S'C\xc7\xe7\xe7\x91\t\xb4?\xf5\x11>!\xe6d(\xc0a@\tTb4e\xc0'
p50
tp51
bsS'center_target_pixels'
p52
(I857
I721
tp53
sS'center_actual_pixels'
p54
(I861
I716
tp55
s.(dp0
S'actual_pos'
p1
(cnumpy.core.multiarray
_reconstruct
p2
(cnumpy.matrixlib.defmatrix
matrix
p3
(I0
tp4
S'b'
p5
tp6
Rp7
(I1
(I1
I1
tp8
cnumpy
dtype
p9
(S'f8'
p10
I0
I1
tp11
Rp12
(I3
S'<'
p13
NNNI-1
I-1
I0
tp14
bI00
S'3S\xfe\xc7z\x95\xa2?'
p15
tp16
bg2
(g3
(I0
tp17
g5
tp18
Rp19
(I1
(I1
I1
tp20
g12
I00
S'5"\x98:\xcb\x08\xb2?'
p21
tp22
bg2
(g3
(I0
tp23
g5
tp24
Rp25
(I1
(I1
I1
tp26
g12
I00
S'\xa6w\x84A\xd8W\xc5\xbf'
p27
tp28
btp29
sS'actual_rot'
p30
(F-0.009232194885159717
F-12.212643943753944
F-166.18208413275218
tp31
sS'target_pos'
p32
(lp33
cnumpy.core.multiarray
scalar
p34
(g12
S'\x9cX_\xe0\xea\xea\xa2?'
p35
tp36
Rp37
ag34
(g12
S'\xc9\xc1\xdd\xe5\xfe\x00\xb2?'
p38
tp39
Rp40
ag34
(g12
S'\xb3U\x14\xd29e\xc5\xbf'
p41
tp42
Rp43
asS'target_rot'
p44
g2
(cnumpy
ndarray
p45
(I0
tp46
g5
tp47
Rp48
(I1
(I3
tp49
g12
I00
S'C\xc7\xe7\xe7\x91\t\xb4?\xf5\x11>!\xe6d(\xc0a@\tTb4e\xc0'
p50
tp51
bsS'center_target_pixels'
p52
(I1035
I729
tp53
sS'center_actual_pixels'
p54
(I1039
I723
tp55
s.(dp0
S'actual_pos'
p1
(cnumpy.core.multiarray
_reconstruct
p2
(cnumpy.matrixlib.defmatrix
matrix
p3
(I0
tp4
S'b'
p5
tp6
Rp7
(I1
(I1
I1
tp8
cnumpy
dtype
p9
(S'f8'
p10
I0
I1
tp11
Rp12
(I3
S'<'
p13
NNNI-1
I-1
I0
tp14
bI00
S'\x08\xb8\x88\xe2O\xf3\x94?'
p15
tp16
bg2
(g3
(I0
tp17
g5
tp18
Rp19
(I1
(I1
I1
tp20
g12
I00
S'\xcevt\x11\x1d\xb3\xb1?'
p21
tp22
bg2
(g3
(I0
tp23
g5
tp24
Rp25
(I1
(I1
I1
tp26
g12
I00
S'\x86X\xef45 \xc5\xbf'
p27
tp28
btp29
sS'actual_rot'
p30
(F0.6012708712611695
F-10.806406036734614
F-168.13344702047385
tp31
sS'target_pos'
p32
(lp33
cnumpy.core.multiarray
scalar
p34
(g12
S'\xbc\x1fYd\xf3\xaf\x95?'
p35
tp36
Rp37
ag34
(g12
S'2\x1a^u\x8a\xa7\xb1?'
p38
tp39
Rp40
ag34
(g12
S'0~c\xd4f+\xc5\xbf'
p41
tp42
Rp43
asS'target_rot'
p44
g2
(cnumpy
ndarray
p45
(I0
tp46
g5
tp47
Rp48
(I1
(I3
tp49
g12
I00
S'C\xc7\xe7\xe7\x91\t\xb4?\xf5\x11>!\xe6d(\xc0a@\tTb4e\xc0'
p50
tp51
bsS'center_target_pixels'
p52
(I1212
I736
tp53
sS'center_actual_pixels'
p54
(I1216
I729
tp55
s.(dp0
S'actual_pos'
p1
(cnumpy.core.multiarray
_reconstruct
p2
(cnumpy.matrixlib.defmatrix
matrix
p3
(I0
tp4
S'b'
p5
tp6
Rp7
(I1
(I1
I1
tp8
cnumpy
dtype
p9
(S'f8'
p10
I0
I1
tp11
Rp12
(I3
S'<'
p13
NNNI-1
I-1
I0
tp14
bI00
S'\x99|\\\xaeP\xc5q?'
p15
tp16
bg2
(g3
(I0
tp17
g5
tp18
Rp19
(I1
(I1
I1
tp20
g12
I00
S'\xa9+\xb9\xa6j`\xb1?'
p21
tp22
bg2
(g3
(I0
tp23
g5
tp24
Rp25
(I1
(I1
I1
tp26
g12
I00
S'\xf2HA\xad\x90\xe6\xc4\xbf'
p27
tp28
btp29
sS'actual_rot'
p30
(F1.4575418445355193
F-8.761962054700517
F-170.00044078781366
tp31
sS'target_pos'
p32
(lp33
cnumpy.core.multiarray
scalar
p34
(g12
S'\x99\x0b\x90\x92\x18\xe8u?'
p35
tp36
Rp37
ag34
(g12
S'@\xb2\x82\xe5hV\xb1?'
p38
tp39
Rp40
ag34
(g12
S"\tL'\xddb\xf0\xc4\xbf"
p41
tp42
Rp43
asS'target_rot'
p44
g2
(cnumpy
ndarray
p45
(I0
tp46
g5
tp47
Rp48
(I1
(I3
tp49
g12
I00
S'C\xc7\xe7\xe7\x91\t\xb4?\xf5\x11>!\xe6d(\xc0a@\tTb4e\xc0'
p50
tp51
bsS'center_target_pixels'
p52
(I1388
I744
tp53
sS'center_actual_pixels'
p54
(I1399
I742
tp55
s.