(dp0
S'actual_pos'
p1
(lp2
F0.07096584542832876
aF0.018455735847974837
aF-0.16957963165124185
asS'actual_rot'
p3
(lp4
F87.31624552848479
aF16.013551197265233
aF-172.25182212405423
asS'target_pos'
p5
cnumpy.core.multiarray
_reconstruct
p6
(cnumpy
ndarray
p7
(I0
tp8
S'b'
p9
tp10
Rp11
(I1
(I3
tp12
cnumpy
dtype
p13
(S'f8'
p14
I0
I1
tp15
Rp16
(I3
S'<'
p17
NNNI-1
I-1
I0
tp18
bI00
S'\x99\x17\xf9\x11\xea`\xb2?\x19\x02\xd0\x0c\x01f\x93?v\x92\xba\xe3?\xc1\xc5\xbf'
p19
tp20
bsS'target_rot'
p21
g6
(g7
(I0
tp22
g9
tp23
Rp24
(I1
(I3
tp25
g16
I00
S'\x00\x00\x00\x00\x00\x80V@\x00\x00\x00\x00\x00\x00$@\x00\x00\x00\x00\x00\xa0d\xc0'
p26
tp27
bsS'center_target_pixels'
p28
(I709
I130
tp29
sS'center_actual_pixels'
p30
(I751
I91
tp31
s.(dp0
S'actual_pos'
p1
(lp2
F0.055357565830300104
aF0.016898004407232867
aF-0.17023712214159173
asS'actual_rot'
p3
(lp4
F88.25451765456386
aF15.065049737753801
aF-170.89061764991166
asS'target_pos'
p5
cnumpy.core.multiarray
_reconstruct
p6
(cnumpy
ndarray
p7
(I0
tp8
S'b'
p9
tp10
Rp11
(I1
(I3
tp12
cnumpy
dtype
p13
(S'f8'
p14
I0
I1
tp15
Rp16
(I3
S'<'
p17
NNNI-1
I-1
I0
tp18
bI00
S'D\xbf\x10\xe6(\xdb\xac?s\xe9\x99a\x1e\r\x91?\x82+:g\x10\xfa\xc5\xbf'
p19
tp20
bsS'target_rot'
p21
g6
(g7
(I0
tp22
g9
tp23
Rp24
(I1
(I3
tp25
g16
I00
S'\x00\x00\x00\x00\x00\x80V@\x00\x00\x00\x00\x00\x00$@\x00\x00\x00\x00\x00\xa0d\xc0'
p26
tp27
bsS'center_target_pixels'
p28
(I885
I139
tp29
sS'center_actual_pixels'
p30
(I931
I123
tp31
s.(dp0
S'actual_pos'
p1
(lp2
F0.0405567397918439
aF0.01507194680595354
aF-0.16736790733406023
asS'actual_rot'
p3
(lp4
F88.61937501006545
aF15.417178317021133
aF-170.6120675978336
asS'target_pos'
p5
cnumpy.core.multiarray
_reconstruct
p6
(cnumpy
ndarray
p7
(I0
tp8
S'b'
p9
tp10
Rp11
(I1
(I3
tp12
cnumpy
dtype
p13
(S'f8'
p14
I0
I1
tp15
Rp16
(I3
S'<'
p17
NNNI-1
I-1
I0
tp18
bI00
S'\x1cn\xdfZ\xac\x19\xa5?c\x9b]\xb6V\x86\x8f?\xf1\x07%\x05\xc3}\xc5\xbf'
p19
tp20
bsS'target_rot'
p21
g6
(g7
(I0
tp22
g9
tp23
Rp24
(I1
(I3
tp25
g16
I00
S'\x00\x00\x00\x00\x00\x80V@\x00\x00\x00\x00\x00\x00$@\x00\x00\x00\x00\x00\xa0d\xc0'
p26
tp27
bsS'center_target_pixels'
p28
(I1060
I148
tp29
sS'center_actual_pixels'
p30
(I1110
I119
tp31
s.(dp0
S'actual_pos'
p1
(lp2
F0.024196122586806913
aF0.013469782225238695
aF-0.16800456042425627
asS'actual_rot'
p3
(lp4
F89.41862769037999
aF13.95348636755526
aF-168.4299714798449
asS'target_pos'
p5
cnumpy.core.multiarray
_reconstruct
p6
(cnumpy
ndarray
p7
(I0
tp8
S'b'
p9
tp10
Rp11
(I1
(I3
tp12
cnumpy
dtype
p13
(S'f8'
p14
I0
I1
tp15
Rp16
(I3
S'<'
p17
NNNI-1
I-1
I0
tp18
bI00
S'\xfc\x86\xc3\xc8@Z\x99?|\xce\xde\x06\xf8\x9e\x8a?O\x11UM\xc6\xb4\xc5\xbf'
p19
tp20
bsS'target_rot'
p21
g6
(g7
(I0
tp22
g9
tp23
Rp24
(I1
(I3
tp25
g16
I00
S'\x00\x00\x00\x00\x00\x80V@\x00\x00\x00\x00\x00\x00$@\x00\x00\x00\x00\x00\xa0d\xc0'
p26
tp27
bsS'center_target_pixels'
p28
(I1232
I157
tp29
sS'center_actual_pixels'
p30
(I1278
I150
tp31
s.(dp0
S'actual_pos'
p1
(lp2
F0.0627984513092238
aF0.025222172060636344
aF-0.17180814433649302
asS'actual_rot'
p3
(lp4
F88.11324394567612
aF14.796586669103359
aF-170.87184629108256
asS'target_pos'
p5
cnumpy.core.multiarray
_reconstruct
p6
(cnumpy
ndarray
p7
(I0
tp8
S'b'
p9
tp10
Rp11
(I1
(I3
tp12
cnumpy
dtype
p13
(S'f8'
p14
I0
I1
tp15
Rp16
(I3
S'<'
p17
NNNI-1
I-1
I0
tp18
bI00
S'\x88j\xf8;97\xb0?jK\xd0\xd2s\xb4\x99?%\xe6\xfe\xfe7/\xc6\xbf'
p19
tp20
bsS'target_rot'
p21
g6
(g7
(I0
tp22
g9
tp23
Rp24
(I1
(I3
tp25
g16
I00
S'\x00\x00\x00\x00\x00\x80V@\x00\x00\x00\x00\x00\x00$@\x00\x00\x00\x00\x00\xa0d\xc0'
p26
tp27
bsS'center_target_pixels'
p28
(I793
I222
tp29
sS'center_actual_pixels'
p30
(I827
I202
tp31
s.(dp0
S'actual_pos'
p1
(lp2
F0.04729448049196752
aF0.023515641712041624
aF-0.1686692368860158
asS'actual_rot'
p3
(lp4
F88.48616371648937
aF15.092026050466579
aF-170.75997437892894
asS'target_pos'
p5
cnumpy.core.multiarray
_reconstruct
p6
(cnumpy
ndarray
p7
(I0
tp8
S'b'
p9
tp10
Rp11
(I1
(I3
tp12
cnumpy
dtype
p13
(S'f8'
p14
I0
I1
tp15
Rp16
(I3
S'<'
p17
NNNI-1
I-1
I0
tp18
bI00
S'\xeaE\xbe\x0e\x01\x99\xa8?n\xcf\x12\\\xe7L\x98?\xb6\x1b\xabO\xff\xb2\xc5\xbf'
p19
tp20
bsS'target_rot'
p21
g6
(g7
(I0
tp22
g9
tp23
Rp24
(I1
(I3
tp25
g16
I00
S'\x00\x00\x00\x00\x00\x80V@\x00\x00\x00\x00\x00\x00$@\x00\x00\x00\x00\x00\xa0d\xc0'
p26
tp27
bsS'center_target_pixels'
p28
(I970
I230
tp29
sS'center_actual_pixels'
p30
(I1012
I215
tp31
s.(dp0
S'actual_pos'
p1
(lp2
F0.03174847700664783
aF0.021885892762989644
aF-0.16748459934174392
asS'actual_rot'
p3
(lp4
F89.09821465011623
aF14.611401689283774
aF-169.47945059346318
asS'target_pos'
p5
cnumpy.core.multiarray
_reconstruct
p6
(cnumpy
ndarray
p7
(I0
tp8
S'b'
p9
tp10
Rp11
(I1
(I3
tp12
cnumpy
dtype
p13
(S'f8'
p14
I0
I1
tp15
Rp16
(I3
S'<'
p17
NNNI-1
I-1
I0
tp18
bI00
S'H(\x0cw\x88\x99\xa0?R\x01;\x00D}\x96?\x9a\xb9\x95%\x96\x8e\xc5\xbf'
p19
tp20
bsS'target_rot'
p21
g6
(g7
(I0
tp22
g9
tp23
Rp24
(I1
(I3
tp25
g16
I00
S'\x00\x00\x00\x00\x00\x80V@\x00\x00\x00\x00\x00\x00$@\x00\x00\x00\x00\x00\xa0d\xc0'
p26
tp27
bsS'center_target_pixels'
p28
(I1143
I238
tp29
sS'center_actual_pixels'
p30
(I1183
I222
tp31
s.(dp0
S'actual_pos'
p1
(lp2
F0.014927494480809612
aF0.02050627944510848
aF-0.1681880841577838
asS'actual_rot'
p3
(lp4
F89.79189939136607
aF12.611989268593437
aF-166.49659115413306
asS'target_pos'
p5
cnumpy.core.multiarray
_reconstruct
p6
(cnumpy
ndarray
p7
(I0
tp8
S'b'
p9
tp10
Rp11
(I1
(I3
tp12
cnumpy
dtype
p13
(S'f8'
p14
I0
I1
tp15
Rp16
(I3
S'<'
p17
NNNI-1
I-1
I0
tp18
bI00
S'xhf\x0b\x89\xfc\x8f?\xdearw\x9a\x1d\x94?\xee\xc9N\x08\x02\xcc\xc5\xbf'
p19
tp20
bsS'target_rot'
p21
g6
(g7
(I0
tp22
g9
tp23
Rp24
(I1
(I3
tp25
g16
I00
S'\x00\x00\x00\x00\x00\x80V@\x00\x00\x00\x00\x00\x00$@\x00\x00\x00\x00\x00\xa0d\xc0'
p26
tp27
bsS'center_target_pixels'
p28
(I1313
I246
tp29
sS'center_actual_pixels'
p30
(I1369
I236
tp31
s.(dp0
S'actual_pos'
p1
(lp2
F0.06970310084502497
aF0.034067263506527994
aF-0.16625179593426612
asS'actual_rot'
p3
(lp4
F87.82598215268642
aF14.827895830411885
aF-171.71441586960603
asS'target_pos'
p5
cnumpy.core.multiarray
_reconstruct
p6
(cnumpy
ndarray
p7
(I0
tp8
S'b'
p9
tp10
Rp11
(I1
(I3
tp12
cnumpy
dtype
p13
(S'f8'
p14
I0
I1
tp15
Rp16
(I3
S'<'
p17
NNNI-1
I-1
I0
tp18
bI00
S'0Y\xff\x0b{\x13\xb2?\r\xfa\xe8\x00\xce\x9d\xa1?\x16\xa8`W;R\xc5\xbf'
p19
tp20
bsS'target_rot'
p21
g6
(g7
(I0
tp22
g9
tp23
Rp24
(I1
(I3
tp25
g16
I00
S'\x00\x00\x00\x00\x00\x80V@\x00\x00\x00\x00\x00\x00$@\x00\x00\x00\x00\x00\xa0d\xc0'
p26
tp27
bsS'center_target_pixels'
p28
(I702
I305
tp29
sS'center_actual_pixels'
p30
(I744
I285
tp31
s.(dp0
S'actual_pos'
p1
(lp2
F0.054525295793706144
aF0.03212559734678796
aF-0.167991874832315
asS'actual_rot'
p3
(lp4
F88.28446578972462
aF14.893675734314472
aF-171.0294484704835
asS'target_pos'
p5
cnumpy.core.multiarray
_reconstruct
p6
(cnumpy
ndarray
p7
(I0
tp8
S'b'
p9
tp10
Rp11
(I1
(I3
tp12
cnumpy
dtype
p13
(S'f8'
p14
I0
I1
tp15
Rp16
(I3
S'<'
p17
NNNI-1
I-1
I0
tp18
bI00
S'@\x92\xf4\xd9\xfcN\xac?\xac\xc9\xc3c\xda\xa0\xa0?mM\xad7\n\x8e\xc5\xbf'
p19
tp20
bsS'target_rot'
p21
g6
(g7
(I0
tp22
g9
tp23
Rp24
(I1
(I3
tp25
g16
I00
S'\x00\x00\x00\x00\x00\x80V@\x00\x00\x00\x00\x00\x00$@\x00\x00\x00\x00\x00\xa0d\xc0'
p26
tp27
bsS'center_target_pixels'
p28
(I879
I313
tp29
sS'center_actual_pixels'
p30
(I918
I291
tp31
s.(dp0
S'actual_pos'
p1
(lp2
F0.038546969549319826
aF0.03062907129460806
aF-0.16871154550759843
asS'actual_rot'
p3
(lp4
F89.05858219050218
aF13.867579000157866
aF-169.43173747832014
asS'target_pos'
p5
cnumpy.core.multiarray
_reconstruct
p6
(cnumpy
ndarray
p7
(I0
tp8
S'b'
p9
tp10
Rp11
(I1
(I3
tp12
cnumpy
dtype
p13
(S'f8'
p14
I0
I1
tp15
Rp16
(I3
S'<'
p17
NNNI-1
I-1
I0
tp18
bI00
S'J\xb0wo\\#\xa4?\xfbqK\x02\xaf!\x9f?\x1cx\xb9v\xe3\xc7\xc5\xbf'
p19
tp20
bsS'target_rot'
p21
g6
(g7
(I0
tp22
g9
tp23
Rp24
(I1
(I3
tp25
g16
I00
S'\x00\x00\x00\x00\x00\x80V@\x00\x00\x00\x00\x00\x00$@\x00\x00\x00\x00\x00\xa0d\xc0'
p26
tp27
bsS'center_target_pixels'
p28
(I1053
I320
tp29
sS'center_actual_pixels'
p30
(I1092
I315
tp31
s.(dp0
S'actual_pos'
p1
(lp2
F0.022714428393187946
aF0.029324922377414516
aF-0.16756085619080044
asS'actual_rot'
p3
(lp4
F89.61294038943421
aF12.84090687543777
aF-167.44482409157933
asS'target_pos'
p5
cnumpy.core.multiarray
_reconstruct
p6
(cnumpy
ndarray
p7
(I0
tp8
S'b'
p9
tp10
Rp11
(I1
(I3
tp12
cnumpy
dtype
p13
(S'f8'
p14
I0
I1
tp15
Rp16
(I3
S'<'
p17
NNNI-1
I-1
I0
tp18
bI00
S'N\x8a"\xd8\xf4\xff\x97?\xda\xec\xe4OUh\x9d?T\x1a\xc3$\xfd\xa3\xc5\xbf'
p19
tp20
bsS'target_rot'
p21
g6
(g7
(I0
tp22
g9
tp23
Rp24
(I1
(I3
tp25
g16
I00
S'\x00\x00\x00\x00\x00\x80V@\x00\x00\x00\x00\x00\x00$@\x00\x00\x00\x00\x00\xa0d\xc0'
p26
tp27
bsS'center_target_pixels'
p28
(I1225
I328
tp29
sS'center_actual_pixels'
p30
(I1269
I329
tp31
s.(dp0
S'actual_pos'
p1
(lp2
F0.00775660794458337
aF0.027186709659819862
aF-0.16485423827090628
asS'actual_rot'
p3
(lp4
F89.91282513445606
aF12.319098103384015
aF-164.87924028976417
asS'target_pos'
p5
cnumpy.core.multiarray
_reconstruct
p6
(cnumpy
ndarray
p7
(I0
tp8
S'b'
p9
tp10
Rp11
(I1
(I3
tp12
cnumpy
dtype
p13
(S'f8'
p14
I0
I1
tp15
Rp16
(I3
S'<'
p17
NNNI-1
I-1
I0
tp18
bI00
S"\x80\xfe[(\xf3\xc8\x80?\xf5c\xd5\x00\xd2\xf2\x9b?\xfc\x05\x19/;'\xc5\xbf"
p19
tp20
bsS'target_rot'
p21
g6
(g7
(I0
tp22
g9
tp23
Rp24
(I1
(I3
tp25
g16
I00
S'\x00\x00\x00\x00\x00\x80V@\x00\x00\x00\x00\x00\x00$@\x00\x00\x00\x00\x00\xa0d\xc0'
p26
tp27
bsS'center_target_pixels'
p28
(I1396
I335
tp29
sS'center_actual_pixels'
p30
(I1444
I311
tp31
s.(dp0
S'actual_pos'
p1
(lp2
F0.06134732203246974
aF0.04078510716316044
aF-0.16934144436842152
asS'actual_rot'
p3
(lp4
F88.64610988829747
aF13.446424371871435
aF-170.84717274486547
asS'target_pos'
p5
cnumpy.core.multiarray
_reconstruct
p6
(cnumpy
ndarray
p7
(I0
tp8
S'b'
p9
tp10
Rp11
(I1
(I3
tp12
cnumpy
dtype
p13
(S'f8'
p14
I0
I1
tp15
Rp16
(I3
S'<'
p17
NNNI-1
I-1
I0
tp18
bI00
S'\xef\x1c\xbf\xa7\x1e\xd5\xaf?\xc7=\xa9)\xcc\xe2\xa4?9\xdb\xc5\xf7F\xc1\xc5\xbf'
p19
tp20
bsS'target_rot'
p21
g6
(g7
(I0
tp22
g9
tp23
Rp24
(I1
(I3
tp25
g16
I00
S'\x00\x00\x00\x00\x00\x80V@\x00\x00\x00\x00\x00\x00$@\x00\x00\x00\x00\x00\xa0d\xc0'
p26
tp27
bsS'center_target_pixels'
p28
(I787
I396
tp29
sS'center_actual_pixels'
p30
(I827
I390
tp31
s.(dp0
S'actual_pos'
p1
(lp2
F0.046010602610529354
aF0.03920245259604624
aF-0.16827384098149972
asS'actual_rot'
p3
(lp4
F89.01766248788279
aF13.361070668705741
aF-170.06156725125228
asS'target_pos'
p5
cnumpy.core.multiarray
_reconstruct
p6
(cnumpy
ndarray
p7
(I0
tp8
S'b'
p9
tp10
Rp11
(I1
(I3
tp12
cnumpy
dtype
p13
(S'f8'
p14
I0
I1
tp15
Rp16
(I3
S'<'
p17
NNNI-1
I-1
I0
tp18
bI00
S'\xa9\x02E\n3\xed\xa7?\xa4w=\xd3\t\r\xa4?$9\xa7hK\xa1\xc5\xbf'
p19
tp20
bsS'target_rot'
p21
g6
(g7
(I0
tp22
g9
tp23
Rp24
(I1
(I3
tp25
g16
I00
S'\x00\x00\x00\x00\x00\x80V@\x00\x00\x00\x00\x00\x00$@\x00\x00\x00\x00\x00\xa0d\xc0'
p26
tp27
bsS'center_target_pixels'
p28
(I963
I403
tp29
sS'center_actual_pixels'
p30
(I999
I391
tp31
s.(dp0
S'actual_pos'
p1
(lp2
F0.02948564799517938
aF0.038144164303655075
aF-0.1687989536966228
asS'actual_rot'
p3
(lp4
F89.5768339025322
aF12.418123088721263
aF-167.80284419777144
asS'target_pos'
p5
cnumpy.core.multiarray
_reconstruct
p6
(cnumpy
ndarray
p7
(I0
tp8
S'b'
p9
tp10
Rp11
(I1
(I3
tp12
cnumpy
dtype
p13
(S'f8'
p14
I0
I1
tp15
Rp16
(I3
S'<'
p17
NNNI-1
I-1
I0
tp18
bI00
S'\xa6\x0bC/\x99.\x9f?\xfa\x81Vy\xda\x16\xa3?c\xa4\x80\xf8$\xde\xc5\xbf'
p19
tp20
bsS'target_rot'
p21
g6
(g7
(I0
tp22
g9
tp23
Rp24
(I1
(I3
tp25
g16
I00
S'\x00\x00\x00\x00\x00\x80V@\x00\x00\x00\x00\x00\x00$@\x00\x00\x00\x00\x00\xa0d\xc0'
p26
tp27
bsS'center_target_pixels'
p28
(I1135
I410
tp29
sS'center_actual_pixels'
p30
(I1184
I420
tp31
s.(dp0
S'actual_pos'
p1
(lp2
F0.014477053553285081
aF0.03639576844691317
aF-0.16601639819045477
asS'actual_rot'
p3
(lp4
F89.90044820261485
aF11.3993416103212
aF-165.12643924106686
asS'target_pos'
p5
cnumpy.core.multiarray
_reconstruct
p6
(cnumpy
ndarray
p7
(I0
tp8
S'b'
p9
tp10
Rp11
(I1
(I3
tp12
cnumpy
dtype
p13
(S'f8'
p14
I0
I1
tp15
Rp16
(I3
S'<'
p17
NNNI-1
I-1
I0
tp18
bI00
S'\xf0\xf5\xb9\x9b/\xde\x8e?\xc9-\xb5\xbd\xe8Z\xa2?P\xaa\n\xf4\x82\\\xc5\xbf'
p19
tp20
bsS'target_rot'
p21
g6
(g7
(I0
tp22
g9
tp23
Rp24
(I1
(I3
tp25
g16
I00
S'\x00\x00\x00\x00\x00\x80V@\x00\x00\x00\x00\x00\x00$@\x00\x00\x00\x00\x00\xa0d\xc0'
p26
tp27
bsS'center_target_pixels'
p28
(I1308
I417
tp29
sS'center_actual_pixels'
p30
(I1356
I416
tp31
s.(dp0
S'actual_pos'
p1
(lp2
F0.06809579536623193
aF0.049350221582452135
aF-0.17069828092279507
asS'actual_rot'
p3
(lp4
F88.987217867012
aF12.31639555305934
aF-170.86780749199443
asS'target_pos'
p5
cnumpy.core.multiarray
_reconstruct
p6
(cnumpy
ndarray
p7
(I0
tp8
S'b'
p9
tp10
Rp11
(I1
(I3
tp12
cnumpy
dtype
p13
(S'f8'
p14
I0
I1
tp15
Rp16
(I3
S'<'
p17
NNNI-1
I-1
I0
tp18
bI00
S'\xa6_\x9e\xcdy\xab\xb1?S)c\x8a\x96-\xa9?\xaa5z;\x12\xfa\xc5\xbf'
p19
tp20
bsS'target_rot'
p21
g6
(g7
(I0
tp22
g9
tp23
Rp24
(I1
(I3
tp25
g16
I00
S'\x00\x00\x00\x00\x00\x80V@\x00\x00\x00\x00\x00\x00$@\x00\x00\x00\x00\x00\xa0d\xc0'
p26
tp27
bsS'center_target_pixels'
p28
(I695
I480
tp29
sS'center_actual_pixels'
p30
(I735
I472
tp31
s.(dp0
S'actual_pos'
p1
(lp2
F0.052643267720994535
aF0.04789210585325701
aF-0.16958237401346976
asS'actual_rot'
p3
(lp4
F89.35768077412042
aF11.962200479748857
aF-169.86442214383237
asS'target_pos'
p5
cnumpy.core.multiarray
_reconstruct
p6
(cnumpy
ndarray
p7
(I0
tp8
S'b'
p9
tp10
Rp11
(I1
(I3
tp12
cnumpy
dtype
p13
(S'f8'
p14
I0
I1
tp15
Rp16
(I3
S'<'
p17
NNNI-1
I-1
I0
tp18
bI00
S'\xe3\x1a\xbc\x15\x96q\xab?\xd9\x88\xe7>2g\xa8?\xf8\x83e!=\xda\xc5\xbf'
p19
tp20
bsS'target_rot'
p21
g6
(g7
(I0
tp22
g9
tp23
Rp24
(I1
(I3
tp25
g16
I00
S'\x00\x00\x00\x00\x00\x80V@\x00\x00\x00\x00\x00\x00$@\x00\x00\x00\x00\x00\xa0d\xc0'
p26
tp27
bsS'center_target_pixels'
p28
(I872
I487
tp29
sS'center_actual_pixels'
p30
(I910
I483
tp31
s.(dp0
S'actual_pos'
p1
(lp2
F0.03783072185037974
aF0.04618421061816779
aF-0.1665343918776112
asS'actual_rot'
p3
(lp4
F89.6186563899794
aF11.601832446294218
aF-169.1825254263545
asS'target_pos'
p5
cnumpy.core.multiarray
_reconstruct
p6
(cnumpy
ndarray
p7
(I0
tp8
S'b'
p9
tp10
Rp11
(I1
(I3
tp12
cnumpy
dtype
p13
(S'f8'
p14
I0
I1
tp15
Rp16
(I3
S'<'
p17
NNNI-1
I-1
I0
tp18
bI00
S"y\x9ac'\x8e\xb8\xa3?\x12\xa1R\x83)\xa2\xa7?L\x1bK\xa1\x1b[\xc5\xbf"
p19
tp20
bsS'target_rot'
p21
g6
(g7
(I0
tp22
g9
tp23
Rp24
(I1
(I3
tp25
g16
I00
S'\x00\x00\x00\x00\x00\x80V@\x00\x00\x00\x00\x00\x00$@\x00\x00\x00\x00\x00\xa0d\xc0'
p26
tp27
bsS'center_target_pixels'
p28
(I1047
I493
tp29
sS'center_actual_pixels'
p30
(I1078
I475
tp31
s.(dp0
S'actual_pos'
p1
(lp2
F0.022346896311669032
aF0.04474316848770538
aF-0.16548414640261425
asS'actual_rot'
p3
(lp4
F89.84841356161874
aF11.180589014334304
aF-166.0658887580278
asS'target_pos'
p5
cnumpy.core.multiarray
_reconstruct
p6
(cnumpy
ndarray
p7
(I0
tp8
S'b'
p9
tp10
Rp11
(I1
(I3
tp12
cnumpy
dtype
p13
(S'f8'
p14
I0
I1
tp15
Rp16
(I3
S'<'
p17
NNNI-1
I-1
I0
tp18
bI00
S'\xbe\\$\xb2i_\x97?\\#\x03\xcbx\xda\xa6?\xdb\xa9\xac\x86\xd1:\xc5\xbf'
p19
tp20
bsS'target_rot'
p21
g6
(g7
(I0
tp22
g9
tp23
Rp24
(I1
(I3
tp25
g16
I00
S'\x00\x00\x00\x00\x00\x80V@\x00\x00\x00\x00\x00\x00$@\x00\x00\x00\x00\x00\xa0d\xc0'
p26
tp27
bsS'center_target_pixels'
p28
(I1219
I500
tp29
sS'center_actual_pixels'
p30
(I1255
I482
tp31
s.(dp0
S'actual_pos'
p1
(lp2
F0.007446304228595959
aF0.043348083464325574
aF-0.161754655998996
asS'actual_rot'
p3
(lp4
F90.04072694447122
aF9.780520688287075
aF-162.92588676932868
asS'target_pos'
p5
cnumpy.core.multiarray
_reconstruct
p6
(cnumpy
ndarray
p7
(I0
tp8
S'b'
p9
tp10
Rp11
(I1
(I3
tp12
cnumpy
dtype
p13
(S'f8'
p14
I0
I1
tp15
Rp16
(I3
S'<'
p17
NNNI-1
I-1
I0
tp18
bI00
S'\xf0\x99k\x14y\x17\x80?v\x9c2\xe1\x96\x18\xa6?a\x82c\xbc\xa9\xbc\xc4\xbf'
p19
tp20
bsS'target_rot'
p21
g6
(g7
(I0
tp22
g9
tp23
Rp24
(I1
(I3
tp25
g16
I00
S'\x00\x00\x00\x00\x00\x80V@\x00\x00\x00\x00\x00\x00$@\x00\x00\x00\x00\x00\xa0d\xc0'
p26
tp27
bsS'center_target_pixels'
p28
(I1390
I506
tp29
sS'center_actual_pixels'
p30
(I1425
I482
tp31
s.(dp0
S'actual_pos'
p1
(lp2
F0.05962166862444969
aF0.05651304451402685
aF-0.17088450934007177
asS'actual_rot'
p3
(lp4
F89.67477567540587
aF10.788716316328578
aF-170.02431204379758
asS'target_pos'
p5
cnumpy.core.multiarray
_reconstruct
p6
(cnumpy
ndarray
p7
(I0
tp8
S'b'
p9
tp10
Rp11
(I1
(I3
tp12
cnumpy
dtype
p13
(S'f8'
p14
I0
I1
tp15
Rp16
(I3
S'<'
p17
NNNI-1
I-1
I0
tp18
bI00
S"\xd2J5\xcb\x82\x03\xaf?\xc2'z\\\x9f\xc2\xac?X\xf7&\x87\xf4\r\xc6\xbf"
p19
tp20
bsS'target_rot'
p21
g6
(g7
(I0
tp22
g9
tp23
Rp24
(I1
(I3
tp25
g16
I00
S'\x00\x00\x00\x00\x00\x80V@\x00\x00\x00\x00\x00\x00$@\x00\x00\x00\x00\x00\xa0d\xc0'
p26
tp27
bsS'center_target_pixels'
p28
(I780
I571
tp29
sS'center_actual_pixels'
p30
(I825
I575
tp31
s.(dp0
S'actual_pos'
p1
(lp2
F0.04454907549920696
aF0.054808238335382335
aF-0.16803273566805418
asS'actual_rot'
p3
(lp4
F89.88896057801813
aF10.478784870957337
aF-169.84379449357442
asS'target_pos'
p5
cnumpy.core.multiarray
_reconstruct
p6
(cnumpy
ndarray
p7
(I0
tp8
S'b'
p9
tp10
Rp11
(I1
(I3
tp12
cnumpy
dtype
p13
(S'f8'
p14
I0
I1
tp15
Rp16
(I3
S'<'
p17
NNNI-1
I-1
I0
tp18
bI00
S'\xb2\xb2\xda2\xf1<\xa7?H\xb2\xfc\xeeQ\xfc\xab?\x1ff\tZ\r\x94\xc5\xbf'
p19
tp20
bsS'target_rot'
p21
g6
(g7
(I0
tp22
g9
tp23
Rp24
(I1
(I3
tp25
g16
I00
S'\x00\x00\x00\x00\x00\x80V@\x00\x00\x00\x00\x00\x00$@\x00\x00\x00\x00\x00\xa0d\xc0'
p26
tp27
bsS'center_target_pixels'
p28
(I956
I577
tp29
sS'center_actual_pixels'
p30
(I990
I582
tp31
s.(dp0
S'actual_pos'
p1
(lp2
F0.029001617398193826
aF0.05338322301165763
aF-0.16679740151092842
asS'actual_rot'
p3
(lp4
F90.03021671127532
aF10.011699606917716
aF-167.1083377372198
asS'target_pos'
p5
cnumpy.core.multiarray
_reconstruct
p6
(cnumpy
ndarray
p7
(I0
tp8
S'b'
p9
tp10
Rp11
(I1
(I3
tp12
cnumpy
dtype
p13
(S'f8'
p14
I0
I1
tp15
Rp16
(I3
S'<'
p17
NNNI-1
I-1
I0
tp18
bI00
S'n\x1cb\xfe\nc\x9e?/^w\xcc\x047\xab?\xbe\x02\xe2\x9b\xa0n\xc5\xbf'
p19
tp20
bsS'target_rot'
p21
g6
(g7
(I0
tp22
g9
tp23
Rp24
(I1
(I3
tp25
g16
I00
S'\x00\x00\x00\x00\x00\x80V@\x00\x00\x00\x00\x00\x00$@\x00\x00\x00\x00\x00\xa0d\xc0'
p26
tp27
bsS'center_target_pixels'
p28
(I1130
I583
tp29
sS'center_actual_pixels'
p30
(I1169
I581
tp31
s.(dp0
S'actual_pos'
p1
(lp2
F0.014151283322868228
aF0.05176837356065909
aF-0.1634540565031024
asS'actual_rot'
p3
(lp4
F90.07481652500404
aF9.530279998248615
aF-163.74434278197378
asS'target_pos'
p5
cnumpy.core.multiarray
_reconstruct
p6
(cnumpy
ndarray
p7
(I0
tp8
S'b'
p9
tp10
Rp11
(I1
(I3
tp12
cnumpy
dtype
p13
(S'f8'
p14
I0
I1
tp15
Rp16
(I3
S'<'
p17
NNNI-1
I-1
I0
tp18
bI00
S'\x18xk\xf8w\xdd\x8d?wy\xfa\xbb~s\xaa?\x10Jq\xe6c\xf4\xc4\xbf'
p19
tp20
bsS'target_rot'
p21
g6
(g7
(I0
tp22
g9
tp23
Rp24
(I1
(I3
tp25
g16
I00
S'\x00\x00\x00\x00\x00\x80V@\x00\x00\x00\x00\x00\x00$@\x00\x00\x00\x00\x00\xa0d\xc0'
p26
tp27
bsS'center_target_pixels'
p28
(I1302
I589
tp29
sS'center_actual_pixels'
p30
(I1336
I569
tp31
s.(dp0
S'actual_pos'
p1
(lp2
F0.06542284874815743
aF0.06530560742437977
aF-0.17380395674300264
asS'actual_rot'
p3
(lp4
F89.29999789190457
aF10.948810590133698
aF-168.37448771370714
asS'target_pos'
p5
cnumpy.core.multiarray
_reconstruct
p6
(cnumpy
ndarray
p7
(I0
tp8
S'b'
p9
tp10
Rp11
(I1
(I3
tp12
cnumpy
dtype
p13
(S'f8'
p14
I0
I1
tp15
Rp16
(I3
S'<'
p17
NNNI-1
I-1
I0
tp18
bI00
S'\x14\xf2h|\xec>\xb1?\xd1\xaf\x8bs\xef\x97\xb0?*N\x03\x9b6\x9d\xc6\xbf'
p19
tp20
bsS'target_rot'
p21
g6
(g7
(I0
tp22
g9
tp23
Rp24
(I1
(I3
tp25
g16
I00
S'\x00\x00\x00\x00\x00\x80V@\x00\x00\x00\x00\x00\x00$@\x00\x00\x00\x00\x00\xa0d\xc0'
p26
tp27
bsS'center_target_pixels'
p28
(I688
I655
tp29
sS'center_actual_pixels'
p30
(I754
I668
tp31
s.(dp0
S'actual_pos'
p1
(lp2
F0.05099405790024553
aF0.06321495204744847
aF-0.16916584690126113
asS'actual_rot'
p3
(lp4
F89.78785366119389
aF10.780739191380437
aF-169.18541274341874
asS'target_pos'
p5
cnumpy.core.multiarray
_reconstruct
p6
(cnumpy
ndarray
p7
(I0
tp8
S'b'
p9
tp10
Rp11
(I1
(I3
tp12
cnumpy
dtype
p13
(S'f8'
p14
I0
I1
tp15
Rp16
(I3
S'<'
p17
NNNI-1
I-1
I0
tp18
bI00
S'\x16\x99\x05\x18h\xb9\xaa?#K\xb6M\xeb)\xb0?|\x08\xb2\xe5c\xc6\xc5\xbf'
p19
tp20
bsS'target_rot'
p21
g6
(g7
(I0
tp22
g9
tp23
Rp24
(I1
(I3
tp25
g16
I00
S'\x00\x00\x00\x00\x00\x80V@\x00\x00\x00\x00\x00\x00$@\x00\x00\x00\x00\x00\xa0d\xc0'
p26
tp27
bsS'center_target_pixels'
p28
(I866
I661
tp29
sS'center_actual_pixels'
p30
(I919
I661
tp31
s.(dp0
S'actual_pos'
p1
(lp2
F0.03559668408865233
aF0.06198124342512806
aF-0.16807325980274368
asS'actual_rot'
p3
(lp4
F90.02866566885442
aF10.138935553236344
aF-167.6467656696809
asS'target_pos'
p5
cnumpy.core.multiarray
_reconstruct
p6
(cnumpy
ndarray
p7
(I0
tp8
S'b'
p9
tp10
Rp11
(I1
(I3
tp12
cnumpy
dtype
p13
(S'f8'
p14
I0
I1
tp15
Rp16
(I3
S'<'
p17
NNNI-1
I-1
I0
tp18
bI00
S'y\x87H.\xb1\xb7\xa2?v\x14\xa3u\xf5\x9f\xaf?=H<6\xac\xa7\xc5\xbf'
p19
tp20
bsS'target_rot'
p21
g6
(g7
(I0
tp22
g9
tp23
Rp24
(I1
(I3
tp25
g16
I00
S'\x00\x00\x00\x00\x00\x80V@\x00\x00\x00\x00\x00\x00$@\x00\x00\x00\x00\x00\xa0d\xc0'
p26
tp27
bsS'center_target_pixels'
p28
(I1040
I667
tp29
sS'center_actual_pixels'
p30
(I1090
I671
tp31
s.(dp0
S'actual_pos'
p1
(lp2
F0.020877701299625084
aF0.06045589748716588
aF-0.16513016574402659
asS'actual_rot'
p3
(lp4
F90.0996342095424
aF9.512024989856947
aF-164.82888706770592
asS'target_pos'
p5
cnumpy.core.multiarray
_reconstruct
p6
(cnumpy
ndarray
p7
(I0
tp8
S'b'
p9
tp10
Rp11
(I1
(I3
tp12
cnumpy
dtype
p13
(S'f8'
p14
I0
I1
tp15
Rp16
(I3
S'<'
p17
NNNI-1
I-1
I0
tp18
bI00
S"\xc4\xe9\xee\xdc\x98\xe5\x95?\xbf\x92\xd5w\xbd\xdb\xae?'\x82Y\xa0\xbe,\xc5\xbf"
p19
tp20
bsS'target_rot'
p21
g6
(g7
(I0
tp22
g9
tp23
Rp24
(I1
(I3
tp25
g16
I00
S'\x00\x00\x00\x00\x00\x80V@\x00\x00\x00\x00\x00\x00$@\x00\x00\x00\x00\x00\xa0d\xc0'
p26
tp27
bsS'center_target_pixels'
p28
(I1213
I673
tp29
sS'center_actual_pixels'
p30
(I1248
I665
tp31
s.(dp0
S'actual_pos'
p1
(lp2
F0.006013845529316734
aF0.05910597950800908
aF-0.1613932329699674
asS'actual_rot'
p3
(lp4
F90.12148913167157
aF8.064392186666344
aF-161.16161594748365
asS'target_pos'
p5
cnumpy.core.multiarray
_reconstruct
p6
(cnumpy
ndarray
p7
(I0
tp8
S'b'
p9
tp10
Rp11
(I1
(I3
tp12
cnumpy
dtype
p13
(S'f8'
p14
I0
I1
tp15
Rp16
(I3
S'<'
p17
NNNI-1
I-1
I0
tp18
bI00
S'\xe0\xec\xdcU\x96Sz?\xc6\xac\r\xda\x10\x0e\xae?\x04b\xdb-\xb2\xae\xc4\xbf'
p19
tp20
bsS'target_rot'
p21
g6
(g7
(I0
tp22
g9
tp23
Rp24
(I1
(I3
tp25
g16
I00
S'\x00\x00\x00\x00\x00\x80V@\x00\x00\x00\x00\x00\x00$@\x00\x00\x00\x00\x00\xa0d\xc0'
p26
tp27
bsS'center_target_pixels'
p28
(I1384
I678
tp29
sS'center_actual_pixels'
p30
(I1419
I672
tp31
s.(dp0
S'actual_pos'
p1
(lp2
F0.057896782005093475
aF0.0715791121108601
aF-0.1706489948362715
asS'actual_rot'
p3
(lp4
F89.85293519743229
aF10.267084786243508
aF-169.43142436777956
asS'target_pos'
p5
cnumpy.core.multiarray
_reconstruct
p6
(cnumpy
ndarray
p7
(I0
tp8
S'b'
p9
tp10
Rp11
(I1
(I3
tp12
cnumpy
dtype
p13
(S'f8'
p14
I0
I1
tp15
Rp16
(I3
S'<'
p17
NNNI-1
I-1
I0
tp18
bI00
S'\x9f*\xce\xda.H\xae?lJ\xbfA<W\xb2?\xf5!h\xc8\x00\x00\xc6\xbf'
p19
tp20
bsS'target_rot'
p21
g6
(g7
(I0
tp22
g9
tp23
Rp24
(I1
(I3
tp25
g16
I00
S'\x00\x00\x00\x00\x00\x80V@\x00\x00\x00\x00\x00\x00$@\x00\x00\x00\x00\x00\xa0d\xc0'
p26
tp27
bsS'center_target_pixels'
p28
(I774
I745
tp29
sS'center_actual_pixels'
p30
(I822
I743
tp31
s.(dp0
S'actual_pos'
p1
(lp2
F0.04322736563883568
aF0.06961865844144119
aF-0.16786479698182516
asS'actual_rot'
p3
(lp4
F90.00142305811069
aF10.1394374744901
aF-169.0322995866164
asS'target_pos'
p5
cnumpy.core.multiarray
_reconstruct
p6
(cnumpy
ndarray
p7
(I0
tp8
S'b'
p9
tp10
Rp11
(I1
(I3
tp12
cnumpy
dtype
p13
(S'f8'
p14
I0
I1
tp15
Rp16
(I3
S'<'
p17
NNNI-1
I-1
I0
tp18
bI00
S'B\x9f\r\x1bp\x81\xa6?$W\xfb\xf0\t\xf5\xb1?.\xb9Y>\x16\x86\xc5\xbf'
p19
tp20
bsS'target_rot'
p21
g6
(g7
(I0
tp22
g9
tp23
Rp24
(I1
(I3
tp25
g16
I00
S'\x00\x00\x00\x00\x00\x80V@\x00\x00\x00\x00\x00\x00$@\x00\x00\x00\x00\x00\xa0d\xc0'
p26
tp27
bsS'center_target_pixels'
p28
(I950
I751
tp29
sS'center_actual_pixels'
p30
(I986
I736
tp31
s.(dp0
S'actual_pos'
p1
(lp2
F0.0284572473905339
aF0.06787647387865499
aF-0.16442483931272003
asS'actual_rot'
p3
(lp4
F90.15589664727476
aF9.381170766213124
aF-165.9591062542057
asS'target_pos'
p5
cnumpy.core.multiarray
_reconstruct
p6
(cnumpy
ndarray
p7
(I0
tp8
S'b'
p9
tp10
Rp11
(I1
(I3
tp12
cnumpy
dtype
p13
(S'f8'
p14
I0
I1
tp15
Rp16
(I3
S'<'
p17
NNNI-1
I-1
I0
tp18
bI00
S'\xc6\xbav(=\xaa\x9d?f\xc4\xf89z\x8d\xb1?\xe7\xe7\xcc\xb8\xc8\x07\xc5\xbf'
p19
tp20
bsS'target_rot'
p21
g6
(g7
(I0
tp22
g9
tp23
Rp24
(I1
(I3
tp25
g16
I00
S'\x00\x00\x00\x00\x00\x80V@\x00\x00\x00\x00\x00\x00$@\x00\x00\x00\x00\x00\xa0d\xc0'
p26
tp27
bsS'center_target_pixels'
p28
(I1124
I756
tp29
sS'center_actual_pixels'
p30
(I1152
I743
tp31
s.(dp0
S'actual_pos'
p1
(lp2
F0.013788486313471918
aF0.06655514485009668
aF-0.16064860322697058
asS'actual_rot'
p3
(lp4
F90.22554636912054
aF7.966705375071789
aF-162.39217740129786
asS'target_pos'
p5
cnumpy.core.multiarray
_reconstruct
p6
(cnumpy
ndarray
p7
(I0
tp8
S'b'
p9
tp10
Rp11
(I1
(I3
tp12
cnumpy
dtype
p13
(S'f8'
p14
I0
I1
tp15
Rp16
(I3
S'<'
p17
NNNI-1
I-1
I0
tp18
bI00
S"\xc0\x89\xba8.\xfd\x8c?Mp\xbb\xabp'\xb1?u\xcacM\xed\x8a\xc4\xbf"
p19
tp20
bsS'target_rot'
p21
g6
(g7
(I0
tp22
g9
tp23
Rp24
(I1
(I3
tp25
g16
I00
S'\x00\x00\x00\x00\x00\x80V@\x00\x00\x00\x00\x00\x00$@\x00\x00\x00\x00\x00\xa0d\xc0'
p26
tp27
bsS'center_target_pixels'
p28
(I1296
I761
tp29
sS'center_actual_pixels'
p30
(I1323
I750
tp31
s.