(dp0
S'actual_pos'
p1
(lp2
F0.07228137894561158
aF0.02038942693936075
aF-0.16066299549240567
asS'actual_rot'
p3
(lp4
F-77.5222150726772
aF-4.480240810283159
aF-163.44614947519153
asS'target_pos'
p5
cnumpy.core.multiarray
_reconstruct
p6
(cnumpy
ndarray
p7
(I0
tp8
S'b'
p9
tp10
Rp11
(I1
(I3
tp12
cnumpy
dtype
p13
(S'f8'
p14
I0
I1
tp15
Rp16
(I3
S'<'
p17
NNNI-1
I-1
I0
tp18
bI00
S'6\xdfVa\xf9\xa3\xb2?\xeb\x8a\xb6\xd5jX\x95?\x1f\xbe\xdb\x80\xe3\x93\xc4\xbf'
p19
tp20
bsS'target_rot'
p21
g6
(g7
(I0
tp22
g9
tp23
Rp24
(I1
(I3
tp25
g16
I00
S"\xaac'\xe1\x90\xc0R\xc0\x9c\x90\x92i\xa4\xa6\xea?\xb86\xcb\xad\xac2e\xc0"
p26
tp27
bsS'center_target_pixels'
p28
(I705
I144
tp29
sS'center_actual_pixels'
p30
(I729
I102
tp31
s.(dp0
S'actual_pos'
p1
(lp2
F0.0557006284480569
aF0.017858950771839577
aF-0.16527071866435253
asS'actual_rot'
p3
(lp4
F46.37161566363502
aF7.744731796967426
aF-170.99968242503098
asS'target_pos'
p5
cnumpy.core.multiarray
_reconstruct
p6
(cnumpy
ndarray
p7
(I0
tp8
S'b'
p9
tp10
Rp11
(I1
(I3
tp12
cnumpy
dtype
p13
(S'f8'
p14
I0
I1
tp15
Rp16
(I3
S'<'
p17
NNNI-1
I-1
I0
tp18
bI00
S'\x19p[s\xec\xdf\xac?\xb48&\x9f\xa0\xd7\x91?\x99P\\7G,\xc5\xbf'
p19
tp20
bsS'target_rot'
p21
g6
(g7
(I0
tp22
g9
tp23
Rp24
(I1
(I3
tp25
g16
I00
S'\xa0X\xc6\xc1\x95*G@G`\xe6\xc7\xd0K\x1e@\x7ff\xe0\xbc\xd0\xc6d\xc0'
p26
tp27
bsS'center_target_pixels'
p28
(I881
I152
tp29
sS'center_actual_pixels'
p30
(I910
I128
tp31
s.(dp0
S'actual_pos'
p1
(lp2
F0.04068236593091691
aF0.015640206784159748
aF-0.16572638595532915
asS'actual_rot'
p3
(lp4
F-4.213278067761287
aF4.327428354188573
aF-170.08396038059178
asS'target_pos'
p5
cnumpy.core.multiarray
_reconstruct
p6
(cnumpy
ndarray
p7
(I0
tp8
S'b'
p9
tp10
Rp11
(I1
(I3
tp12
cnumpy
dtype
p13
(S'f8'
p14
I0
I1
tp15
Rp16
(I3
S'<'
p17
NNNI-1
I-1
I0
tp18
bI00
S'\xab\x9e\xc9\x98\xdc\x18\xa5?\xca\x85\xfbq\xeb\xfb\x8e?\x05\x16V\xee0;\xc5\xbf'
p19
tp20
bsS'target_rot'
p21
g6
(g7
(I0
tp22
g9
tp23
Rp24
(I1
(I3
tp25
g16
I00
S'p\xdbMd]\xc9\x10\xc0A\x904\xecA\x11\x13@\xbf-O\xf8\xba\xf3d\xc0'
p26
tp27
bsS'center_target_pixels'
p28
(I1055
I159
tp29
sS'center_actual_pixels'
p30
(I1082
I119
tp31
s.(dp0
S'actual_pos'
p1
(lp2
F0.024343205071805273
aF0.012382772185038825
aF-0.160948533268036
asS'actual_rot'
p3
(lp4
F66.75993964562105
aF13.679318134788458
aF-170.75432868037245
asS'target_pos'
p5
cnumpy.core.multiarray
_reconstruct
p6
(cnumpy
ndarray
p7
(I0
tp8
S'b'
p9
tp10
Rp11
(I1
(I3
tp12
cnumpy
dtype
p13
(S'f8'
p14
I0
I1
tp15
Rp16
(I3
S'<'
p17
NNNI-1
I-1
I0
tp18
bI00
S'\xf0\xd4\x07\xaa8\xc4\x99?\xb4^\x88:H\xcf\x89?N\x83c&\xcd\xa5\xc4\xbf'
p19
tp20
bsS'target_rot'
p21
g6
(g7
(I0
tp22
g9
tp23
Rp24
(I1
(I3
tp25
g16
I00
S"\xc4\xf6W\x12\xda\xd2P@W\x18'\x08(z!@=\xc7\xbe\xbf.\xb4d\xc0"
p26
tp27
bsS'center_target_pixels'
p28
(I1228
I166
tp29
sS'center_actual_pixels'
p30
(I1271
I128
tp31
s.(dp0
S'actual_pos'
p1
(lp2
F0.06358685394376999
aF0.02575588720967726
aF-0.16913665420226376
asS'actual_rot'
p3
(lp4
F-23.709330782391476
aF-1.8344468517547017
aF-164.6491735001114
asS'target_pos'
p5
cnumpy.core.multiarray
_reconstruct
p6
(cnumpy
ndarray
p7
(I0
tp8
S'b'
p9
tp10
Rp11
(I1
(I3
tp12
cnumpy
dtype
p13
(S'f8'
p14
I0
I1
tp15
Rp16
(I3
S'<'
p17
NNNI-1
I-1
I0
tp18
bI00
S',9\x0f\x90\xa3A\xb0?\xa87\xb2/\xcdW\x9a?z\r\xd9Z\xb7\xaa\xc5\xbf'
p19
tp20
bsS'target_rot'
p21
g6
(g7
(I0
tp22
g9
tp23
Rp24
(I1
(I3
tp25
g16
I00
S'\x84\xc8\xf6\x11_\x146\xc0p\x8a \xbf\xd5/\x0e@\xeb\xbe\x81T\xa0\x03e\xc0'
p26
tp27
bsS'center_target_pixels'
p28
(I790
I235
tp29
sS'center_actual_pixels'
p30
(I813
I196
tp31
s.(dp0
S'actual_pos'
p1
(lp2
F0.04840973899179676
aF0.024494392797596052
aF-0.1648103256677505
asS'actual_rot'
p3
(lp4
F-36.77104133877556
aF-1.4527420310477182
aF-166.31008999751458
asS'target_pos'
p5
cnumpy.core.multiarray
_reconstruct
p6
(cnumpy
ndarray
p7
(I0
tp8
S'b'
p9
tp10
Rp11
(I1
(I3
tp12
cnumpy
dtype
p13
(S'f8'
p14
I0
I1
tp15
Rp16
(I3
S'<'
p17
NNNI-1
I-1
I0
tp18
bI00
S'x\xac\xa4?\xa7\xd5\xa8?\x0c+x\xbbR*\x99?\x00\x1b\xd2\xb7\x17\x1e\xc5\xbf'
p19
tp20
bsS'target_rot'
p21
g6
(g7
(I0
tp22
g9
tp23
Rp24
(I1
(I3
tp25
g16
I00
S'\x94:\xb5^\xbc\xb5A\xc0\n\x93\t:\x03B\x08@\xda\xec\x8b\xf9{\x0fe\xc0'
p26
tp27
bsS'center_target_pixels'
p28
(I966
I242
tp29
sS'center_actual_pixels'
p30
(I994
I199
tp31
s.(dp0
S'actual_pos'
p1
(lp2
F0.030957576923526936
aF0.02099110700210508
aF-0.1647414730885992
asS'actual_rot'
p3
(lp4
F65.2792152606771
aF10.139530626479937
aF-170.96674168291156
asS'target_pos'
p5
cnumpy.core.multiarray
_reconstruct
p6
(cnumpy
ndarray
p7
(I0
tp8
S'b'
p9
tp10
Rp11
(I1
(I3
tp12
cnumpy
dtype
p13
(S'f8'
p14
I0
I1
tp15
Rp16
(I3
S'<'
p17
NNNI-1
I-1
I0
tp18
bI00
S'G\x05\x1an\x011\xa0?\x86Z\xbc\x02ro\x95?\xcf\xbbf\xaa$\x1e\xc5\xbf'
p19
tp20
bsS'target_rot'
p21
g6
(g7
(I0
tp22
g9
tp23
Rp24
(I1
(I3
tp25
g16
I00
S'P8q}\xfbZP@#\xe0\x15\x8d\xe1D!@\xffP\x97\xf3\xd8\xb5d\xc0'
p26
tp27
bsS'center_target_pixels'
p28
(I1139
I248
tp29
sS'center_actual_pixels'
p30
(I1183
I218
tp31
s.(dp0
S'actual_pos'
p1
(lp2
F0.017271600095424874
aF0.021600177360206453
aF-0.16469895078193414
asS'actual_rot'
p3
(lp4
F-89.49462730588091
aF-3.780371519461677
aF-167.98876086998968
asS'target_pos'
p5
cnumpy.core.multiarray
_reconstruct
p6
(cnumpy
ndarray
p7
(I0
tp8
S'b'
p9
tp10
Rp11
(I1
(I3
tp12
cnumpy
dtype
p13
(S'f8'
p14
I0
I1
tp15
Rp16
(I3
S'<'
p17
NNNI-1
I-1
I0
tp18
bI00
S'\x90A\xde\x13\xb2$\x92?\x1f\x98\xfb\x7f\xe9\x88\x96?BH\x11\xbe\xb7\x1c\xc5\xbf'
p19
tp20
bsS'target_rot'
p21
g6
(g7
(I0
tp22
g9
tp23
Rp24
(I1
(I3
tp25
g16
I00
S'\xa8q\xbcK\x98EV\xc0\x8eC?\xac3\xf5\xa9?\x06\x9ebV0?e\xc0'
p26
tp27
bsS'center_target_pixels'
p28
(I1310
I254
tp29
sS'center_actual_pixels'
p30
(I1350
I223
tp31
s.(dp0
S'actual_pos'
p1
(lp2
F0.07035720786922092
aF0.03578730839566536
aF-0.1663964883888303
asS'actual_rot'
p3
(lp4
F-1.6099196928583117
aF-1.4483110388386746
aF-163.61530418027905
asS'target_pos'
p5
cnumpy.core.multiarray
_reconstruct
p6
(cnumpy
ndarray
p7
(I0
tp8
S'b'
p9
tp10
Rp11
(I1
(I3
tp12
cnumpy
dtype
p13
(S'f8'
p14
I0
I1
tp15
Rp16
(I3
S'<'
p17
NNNI-1
I-1
I0
tp18
bI00
S'$\xc0y/\x0c\xf7\xb1?\x17\xcf\xef\xf0\x07\x1e\xa2?\xde\xa4P\xc8\x95O\xc5\xbf'
p19
tp20
bsS'target_rot'
p21
g6
(g7
(I0
tp22
g9
tp23
Rp24
(I1
(I3
tp25
g16
I00
S'\x00\x1e6\x94\xaf\xbe\xc7\xbf\x0f\xaf\xa1\\r\xf5\x13@Dy\x8d6*\xf0d\xc0'
p26
tp27
bsS'center_target_pixels'
p28
(I700
I318
tp29
sS'center_actual_pixels'
p30
(I712
I291
tp31
s.(dp0
S'actual_pos'
p1
(lp2
F0.05568459462171818
aF0.03359295002370975
aF-0.1647281189042707
asS'actual_rot'
p3
(lp4
F-87.70165861887425
aF-3.7582713249185895
aF-164.8629590482169
asS'target_pos'
p5
cnumpy.core.multiarray
_reconstruct
p6
(cnumpy
ndarray
p7
(I0
tp8
S'b'
p9
tp10
Rp11
(I1
(I3
tp12
cnumpy
dtype
p13
(S'f8'
p14
I0
I1
tp15
Rp16
(I3
S'<'
p17
NNNI-1
I-1
I0
tp18
bI00
S'\xa2\xcf\xfd\xdc@\xd9\xac?F\x1a\xd3\x80EV\xa1?\x15\r\x16K\xb6\x1b\xc5\xbf'
p19
tp20
bsS'target_rot'
p21
g6
(g7
(I0
tp22
g9
tp23
Rp24
(I1
(I3
tp25
g16
I00
S'\xa4)\xdfQ\xb7\x93U\xc0\x1dC4\xe7\xf6@\xca?x\x19#\xe1\xb7<e\xc0'
p26
tp27
bsS'center_target_pixels'
p28
(I876
I325
tp29
sS'center_actual_pixels'
p30
(I902
I287
tp31
s.(dp0
S'actual_pos'
p1
(lp2
F0.03945093526765807
aF0.03045536733835684
aF-0.1668597419710141
asS'actual_rot'
p3
(lp4
F-57.78844333106438
aF-3.0339161622595627
aF-163.90152141719588
asS'target_pos'
p5
cnumpy.core.multiarray
_reconstruct
p6
(cnumpy
ndarray
p7
(I0
tp8
S'b'
p9
tp10
Rp11
(I1
(I3
tp12
cnumpy
dtype
p13
(S'f8'
p14
I0
I1
tp15
Rp16
(I3
S'<'
p17
NNNI-1
I-1
I0
tp18
bI00
S'\x84\x96\xf7\x95\xadN\xa4?\xa0E\x1f\xca\x0c\x7f\x9f?\xec\xae>\xe0rc\xc5\xbf'
p19
tp20
bsS'target_rot'
p21
g6
(g7
(I0
tp22
g9
tp23
Rp24
(I1
(I3
tp25
g16
I00
S'\x1d\xc2!\x8e4&L\xc0\x05n\xe0\xe6\xf7\xf4\xfd?\x92\x1f\x19\x08\x0b"e\xc0'
p26
tp27
bsS'center_target_pixels'
p28
(I1050
I331
tp29
sS'center_actual_pixels'
p30
(I1079
I285
tp31
s.(dp0
S'actual_pos'
p1
(lp2
F0.023626257689443597
aF0.02870173000317979
aF-0.16584362365741104
asS'actual_rot'
p3
(lp4
F-55.58031814457162
aF-1.5096579807716013
aF-167.04947288209576
asS'target_pos'
p5
cnumpy.core.multiarray
_reconstruct
p6
(cnumpy
ndarray
p7
(I0
tp8
S'b'
p9
tp10
Rp11
(I1
(I3
tp12
cnumpy
dtype
p13
(S'f8'
p14
I0
I1
tp15
Rp16
(I3
S'<'
p17
NNNI-1
I-1
I0
tp18
bI00
S'\xe6\x93hM\x15`\x98?\x0e\xb7\xc4\xbcis\x9d?\xcb\xce\xd9\xca\x8cC\xc5\xbf'
p19
tp20
bsS'target_rot'
p21
g6
(g7
(I0
tp22
g9
tp23
Rp24
(I1
(I3
tp25
g16
I00
S'\x1a\x9a"\xaa\xaagK\xc0\x0b\xee\xde&\xb4G\xff?\x12!\xd9K\xb8 e\xc0'
p26
tp27
bsS'center_target_pixels'
p28
(I1222
I336
tp29
sS'center_actual_pixels'
p30
(I1263
I290
tp31
s.(dp0
S'actual_pos'
p1
(lp2
F0.008112710419404576
aF0.02740251667094801
aF-0.16310485512591558
asS'actual_rot'
p3
(lp4
F4.965706660408883
aF3.3725698481008775
aF-167.59490390648705
asS'target_pos'
p5
cnumpy.core.multiarray
_reconstruct
p6
(cnumpy
ndarray
p7
(I0
tp8
S'b'
p9
tp10
Rp11
(I1
(I3
tp12
cnumpy
dtype
p13
(S'f8'
p14
I0
I1
tp15
Rp16
(I3
S'<'
p17
NNNI-1
I-1
I0
tp18
bI00
S'\xe0\xc2|\x96\x1b\xd7\x80?\xde0\x10\xaa\x9c\xa5\x9b?\xa0#x\xc7}\xe9\xc4\xbf'
p19
tp20
bsS'target_rot'
p21
g6
(g7
(I0
tp22
g9
tp23
Rp24
(I1
(I3
tp25
g16
I00
S'\xa0\x9bXc\xc36\x15@4\xec\x84\x85\xb5-\x15@O\xec\xe9)I\xebd\xc0'
p26
tp27
bsS'center_target_pixels'
p28
(I1392
I343
tp29
sS'center_actual_pixels'
p30
(I1418
I306
tp31
s.(dp0
S'actual_pos'
p1
(lp2
F0.059614603345540536
aF0.04164197857164355
aF-0.17052843502499251
asS'actual_rot'
p3
(lp4
F47.6032523236747
aF7.227131523814047
aF-169.32810021085757
asS'target_pos'
p5
cnumpy.core.multiarray
_reconstruct
p6
(cnumpy
ndarray
p7
(I0
tp8
S'b'
p9
tp10
Rp11
(I1
(I3
tp12
cnumpy
dtype
p13
(S'f8'
p14
I0
I1
tp15
Rp16
(I3
S'<'
p17
NNNI-1
I-1
I0
tp18
bI00
S'8P\x8e\xa5S\x01\xaf?"\xdb\xc8x\xa8\xda\xa4?D>o\xf6\xc9\xf5\xc5\xbf'
p19
tp20
bsS'target_rot'
p21
g6
(g7
(I0
tp22
g9
tp23
Rp24
(I1
(I3
tp25
g16
I00
S'\x9c~K\xd1\x0f\xb6G@\x9a\x8d!$\xce\x89\x1e@\xcayo\xc7\xd8\xc5d\xc0'
p26
tp27
bsS'center_target_pixels'
p28
(I785
I408
tp29
sS'center_actual_pixels'
p30
(I830
I411
tp31
s.(dp0
S'actual_pos'
p1
(lp2
F0.04609052014339274
aF0.039087503074470405
aF-0.16925645084486696
asS'actual_rot'
p3
(lp4
F-65.08884241041574
aF-2.471789976628295
aF-164.7018048488057
asS'target_pos'
p5
cnumpy.core.multiarray
_reconstruct
p6
(cnumpy
ndarray
p7
(I0
tp8
S'b'
p9
tp10
Rp11
(I1
(I3
tp12
cnumpy
dtype
p13
(S'f8'
p14
I0
I1
tp15
Rp16
(I3
S'<'
p17
NNNI-1
I-1
I0
tp18
bI00
S'\xeaw\x8cZ\x0f\xd2\xa7?8\xef\xca\x82\x88\xf3\xa3?\xec!?\xd6\x93\xc5\xc5\xbf'
p19
tp20
bsS'target_rot'
p21
g6
(g7
(I0
tp22
g9
tp23
Rp24
(I1
(I3
tp25
g16
I00
S'#j\xdfWN\xdbO\xc0\x17\xb5\xab\x9c\xad]\xf7?KTcR\xa2(e\xc0'
p26
tp27
bsS'center_target_pixels'
p28
(I960
I414
tp29
sS'center_actual_pixels'
p30
(I999
I384
tp31
s.(dp0
S'actual_pos'
p1
(lp2
F0.031073870115633825
aF0.03780008609382014
aF-0.1660790966473964
asS'actual_rot'
p3
(lp4
F-52.33614956316489
aF-2.1599720323965483
aF-165.6530249349098
asS'target_pos'
p5
cnumpy.core.multiarray
_reconstruct
p6
(cnumpy
ndarray
p7
(I0
tp8
S'b'
p9
tp10
Rp11
(I1
(I3
tp12
cnumpy
dtype
p13
(S'f8'
p14
I0
I1
tp15
Rp16
(I3
S'<'
p17
NNNI-1
I-1
I0
tp18
bI00
S'ZQ\x88\xb2\xc6\xf8\x9f?\x17\x07\x9c*>a\xa3?\xbaYUBOL\xc5\xbf'
p19
tp20
bsS'target_rot'
p21
g6
(g7
(I0
tp22
g9
tp23
Rp24
(I1
(I3
tp25
g16
I00
S'\xa0L\xa4\xec\x19\x83I\xc0\xc7\xf4m\x9f\x93R\x01@\x16$\xc1\xd8Z\x1de\xc0'
p26
tp27
bsS'center_target_pixels'
p28
(I1134
I419
tp29
sS'center_actual_pixels'
p30
(I1165
I381
tp31
s.(dp0
S'actual_pos'
p1
(lp2
F0.014974087095659774
aF0.036002515635996775
aF-0.1656208228532038
asS'actual_rot'
p3
(lp4
F11.948976070323107
aF2.0080757366575934
aF-166.4418205833592
asS'target_pos'
p5
cnumpy.core.multiarray
_reconstruct
p6
(cnumpy
ndarray
p7
(I0
tp8
S'b'
p9
tp10
Rp11
(I1
(I3
tp12
cnumpy
dtype
p13
(S'f8'
p14
I0
I1
tp15
Rp16
(I3
S'<'
p17
NNNI-1
I-1
I0
tp18
bI00
S"\x18f\xc0\r$n\x8e?\x82z\x07'\xcf\x15\xa2?\x0e\x7f.I\xd5?\xc5\xbf"
p19
tp20
bsS'target_rot'
p21
g6
(g7
(I0
tp22
g9
tp23
Rp24
(I1
(I3
tp25
g16
I00
S'\x883\x93\xbd\x0cV)@\x0f[\x10\x15\xac\xd0\x16@\x94\xbe\xabO\xbd\xe4d\xc0'
p26
tp27
bsS'center_target_pixels'
p28
(I1305
I424
tp29
sS'center_actual_pixels'
p30
(I1328
I399
tp31
s.(dp0
S'actual_pos'
p1
(lp2
F0.06843590197575079
aF0.04975084939353133
aF-0.1713079587603727
asS'actual_rot'
p3
(lp4
F7.871743565141063
aF-0.9700525457774937
aF-163.28494718181744
asS'target_pos'
p5
cnumpy.core.multiarray
_reconstruct
p6
(cnumpy
ndarray
p7
(I0
tp8
S'b'
p9
tp10
Rp11
(I1
(I3
tp12
cnumpy
dtype
p13
(S'f8'
p14
I0
I1
tp15
Rp16
(I3
S'<'
p17
NNNI-1
I-1
I0
tp18
bI00
S'\x0b0\x9e\x88Zx\xb1?\x8c#\xddw\xd6\x0e\xa9?j\xbct\x93\x18\x04\xc6\xbf'
p19
tp20
bsS'target_rot'
p21
g6
(g7
(I0
tp22
g9
tp23
Rp24
(I1
(I3
tp25
g16
I00
S'\xb8\x80\xae\xb1\xf2\x81"@\x86\x9c\xa1Lp\x0e\x16@\x8ey\xcd>\xc6\xe7d\xc0'
p26
tp27
bsS'center_target_pixels'
p28
(I694
I493
tp29
sS'center_actual_pixels'
p30
(I711
I472
tp31
s.(dp0
S'actual_pos'
p1
(lp2
F0.051109976037002666
aF0.04829424495758897
aF-0.16960168940323864
asS'actual_rot'
p3
(lp4
F45.22031277109328
aF6.80004636051167
aF-168.78865671324547
asS'target_pos'
p5
cnumpy.core.multiarray
_reconstruct
p6
(cnumpy
ndarray
p7
(I0
tp8
S'b'
p9
tp10
Rp11
(I1
(I3
tp12
cnumpy
dtype
p13
(S'f8'
p14
I0
I1
tp15
Rp16
(I3
S'<'
p17
NNNI-1
I-1
I0
tp18
bI00
S'\x90\x1b\xe5\xec\xe8\x92\xaa?\x10\xe2a\xa5\xecb\xa8?\xe4\xe2\t\xb1\x0e\xd5\xc5\xbf'
p19
tp20
bsS'target_rot'
p21
g6
(g7
(I0
tp22
g9
tp23
Rp24
(I1
(I3
tp25
g16
I00
S'p\x13\x87\x9a\xbf\x88F@\xdd\x96\x1fa\xe3\x03\x1e@\xa5\x81{r\xf0\xc7d\xc0'
p26
tp27
bsS'center_target_pixels'
p28
(I871
I498
tp29
sS'center_actual_pixels'
p30
(I917
I490
tp31
s.(dp0
S'actual_pos'
p1
(lp2
F0.03788888913461095
aF0.047135602175023564
aF-0.16263456538578552
asS'actual_rot'
p3
(lp4
F76.9437309932449
aF9.931361581774874
aF-170.4262842167929
asS'target_pos'
p5
cnumpy.core.multiarray
_reconstruct
p6
(cnumpy
ndarray
p7
(I0
tp8
S'b'
p9
tp10
Rp11
(I1
(I3
tp12
cnumpy
dtype
p13
(S'f8'
p14
I0
I1
tp15
Rp16
(I3
S'<'
p17
NNNI-1
I-1
I0
tp18
bI00
S'\x94R\xc6 e\xc0\xa3?\xcf\xf9\xf3dV\x19\xa8?\x15\xdb\x01\x06n\xd8\xc4\xbf'
p19
tp20
bsS'target_rot'
p21
g6
(g7
(I0
tp22
g9
tp23
Rp24
(I1
(I3
tp25
g16
I00
S'\x14\xd5e\x8c\xab@S@\xb4^\xf4!\x85\x8e"@\n]\xf0\xd6\x8b\xabd\xc0'
p26
tp27
bsS'center_target_pixels'
p28
(I1045
I503
tp29
sS'center_actual_pixels'
p30
(I1075
I497
tp31
s.(dp0
S'actual_pos'
p1
(lp2
F0.021202784421393988
aF0.04516494864320346
aF-0.16743631278839918
asS'actual_rot'
p3
(lp4
F-37.582855305496615
aF3.4316916212213417
aF-168.57171923262766
asS'target_pos'
p5
cnumpy.core.multiarray
_reconstruct
p6
(cnumpy
ndarray
p7
(I0
tp8
S'b'
p9
tp10
Rp11
(I1
(I3
tp12
cnumpy
dtype
p13
(S'f8'
p14
I0
I1
tp15
Rp16
(I3
S'<'
p17
NNNI-1
I-1
I0
tp18
bI00
S'\x98\xf0A7\xc3\x93\x96?\x14\xfd\x9a\xa3\x8e\xad\xa6? S\xa7\xcb\xb5\x98\xc5\xbf'
p19
tp20
bsS'target_rot'
p21
g6
(g7
(I0
tp22
g9
tp23
Rp24
(I1
(I3
tp25
g16
I00
S'\xe1\xd9\x02 \x9c\xd6B\xc0\x8d\xccRU<A\x07@gZU\x87}\x11e\xc0'
p26
tp27
bsS'center_target_pixels'
p28
(I1217
I508
tp29
sS'center_actual_pixels'
p30
(I1264
I494
tp31
s.(dp0
S'actual_pos'
p1
(lp2
F0.0055823465810122585
aF0.042388810514277106
aF-0.16182554450498635
asS'actual_rot'
p3
(lp4
F42.17007355725627
aF5.6061048722033595
aF-167.0063276087528
asS'target_pos'
p5
cnumpy.core.multiarray
_reconstruct
p6
(cnumpy
ndarray
p7
(I0
tp8
S'b'
p9
tp10
Rp11
(I1
(I3
tp12
cnumpy
dtype
p13
(S'f8'
p14
I0
I1
tp15
Rp16
(I3
S'<'
p17
NNNI-1
I-1
I0
tp18
bI00
S'\xb0\xda\x01\xb7\x89\xb8w?\x10\x14@\xab\x91y\xa5?\xee\xc9\xa1V\x8b\xbf\xc4\xbf'
p19
tp20
bsS'target_rot'
p21
g6
(g7
(I0
tp22
g9
tp23
Rp24
(I1
(I3
tp25
g16
I00
S"\xd0q\xed\xf4'=E@$\x16M\x89\x83p\x1d@\xa7\xcb\xda\xf1=\xcad\xc0"
p26
tp27
bsS'center_target_pixels'
p28
(I1387
I513
tp29
sS'center_actual_pixels'
p30
(I1430
I485
tp31
s.(dp0
S'actual_pos'
p1
(lp2
F0.059959644135520566
aF0.0562351128889996
aF-0.1708590848244711
asS'actual_rot'
p3
(lp4
F-24.77496215614562
aF-0.5239585392278041
aF-163.11371843440583
asS'target_pos'
p5
cnumpy.core.multiarray
_reconstruct
p6
(cnumpy
ndarray
p7
(I0
tp8
S'b'
p9
tp10
Rp11
(I1
(I3
tp12
cnumpy
dtype
p13
(S'f8'
p14
I0
I1
tp15
Rp16
(I3
S'<'
p17
NNNI-1
I-1
I0
tp18
bI00
S'\x02\xdb~\xf5\xf0\xe6\xae?\xde|\x10H\x08\xb8\xac?j\xbct\x93\x18\x04\xc6\xbf'
p19
tp20
bsS'target_rot'
p21
g6
(g7
(I0
tp22
g9
tp23
Rp24
(I1
(I3
tp25
g16
I00
S'|\x01hX\xfc\xd96\xc0t\xc6\xd1\x9f\x01\xd8\r@s\\\xc0\xfcO\x04e\xc0'
p26
tp27
bsS'center_target_pixels'
p28
(I780
I583
tp29
sS'center_actual_pixels'
p30
(I811
I553
tp31
s.(dp0
S'actual_pos'
p1
(lp2
F0.04149132124678751
aF0.05424641148249416
aF-0.17016626977327637
asS'actual_rot'
p3
(lp4
F31.589332874268692
aF3.437781919044984
aF-163.88643906167866
asS'target_pos'
p5
cnumpy.core.multiarray
_reconstruct
p6
(cnumpy
ndarray
p7
(I0
tp8
S'b'
p9
tp10
Rp11
(I1
(I3
tp12
cnumpy
dtype
p13
(S'f8'
p14
I0
I1
tp15
Rp16
(I3
S'<'
p17
NNNI-1
I-1
I0
tp18
bI00
S'\x08\x17R\xb1\xb1\xaa\xa5?\x9b\xb4w\xa8\xcfM\xab?j\xbct\x93\x18\x04\xc6\xbf'
p19
tp20
bsS'target_rot'
p21
g6
(g7
(I0
tp22
g9
tp23
Rp24
(I1
(I3
tp25
g16
I00
S'\x9au\x95sy\x14@@\x0c\xa6\xd0O\x8b%\x1b@h\xbd\xc0\xd2i\xd3d\xc0'
p26
tp27
bsS'center_target_pixels'
p28
(I955
I587
tp29
sS'center_actual_pixels'
p30
(I1030
I587
tp31
s.(dp0
S'actual_pos'
p1
(lp2
F0.027262734496064533
aF0.05278984970898637
aF-0.16707705885617052
asS'actual_rot'
p3
(lp4
F58.35219553295051
aF7.331836066653329
aF-168.37591671218544
asS'target_pos'
p5
cnumpy.core.multiarray
_reconstruct
p6
(cnumpy
ndarray
p7
(I0
tp8
S'b'
p9
tp10
Rp11
(I1
(I3
tp12
cnumpy
dtype
p13
(S'f8'
p14
I0
I1
tp15
Rp16
(I3
S'<'
p17
NNNI-1
I-1
I0
tp18
bI00
S'N:\x04L=\x80\x9c?!\xfe\xe3\x0c\xe2\xd8\xaa?4t\xac\x03\x19x\xc5\xbf'
p19
tp20
bsS'target_rot'
p21
g6
(g7
(I0
tp22
g9
tp23
Rp24
(I1
(I3
tp25
g16
I00
S'\xec\xe7\x11\xb21)M@\xfcOY\x99\xeez @\x8055\x8b(\xbcd\xc0'
p26
tp27
bsS'center_target_pixels'
p28
(I1129
I592
tp29
sS'center_actual_pixels'
p30
(I1182
I581
tp31
s.(dp0
S'actual_pos'
p1
(lp2
F0.01381234588415359
aF0.05234435330437055
aF-0.16496413788450817
asS'actual_rot'
p3
(lp4
F-34.85808516133175
aF4.541685078138125
aF-170.28793465013337
asS'target_pos'
p5
cnumpy.core.multiarray
_reconstruct
p6
(cnumpy
ndarray
p7
(I0
tp8
S'b'
p9
tp10
Rp11
(I1
(I3
tp12
cnumpy
dtype
p13
(S'f8'
p14
I0
I1
tp15
Rp16
(I3
S'<'
p17
NNNI-1
I-1
I0
tp18
bI00
S'\x0c6\xc0Q,\x9a\x8d?\x9ak3\xd6\xee\xa6\xaa?4#\xa4\r\x05)\xc5\xbf'
p19
tp20
bsS'target_rot'
p21
g6
(g7
(I0
tp22
g9
tp23
Rp24
(I1
(I3
tp25
g16
I00
S'W\xb2\xeb\xces\xa3A\xc0\x96(\xd9\xb9CR\x08@\xafM\x8cx[\x0fe\xc0'
p26
tp27
bsS'center_target_pixels'
p28
(I1300
I596
tp29
sS'center_actual_pixels'
p30
(I1336
I577
tp31
s.(dp0
S'actual_pos'
p1
(lp2
F0.068209109172058
aF0.06607442630217782
aF-0.16554189689157572
asS'actual_rot'
p3
(lp4
F-89.07825410042098
aF0.053557807423586255
aF-165.11570979144432
asS'target_pos'
p5
cnumpy.core.multiarray
_reconstruct
p6
(cnumpy
ndarray
p7
(I0
tp8
S'b'
p9
tp10
Rp11
(I1
(I3
tp12
cnumpy
dtype
p13
(S'f8'
p14
I0
I1
tp15
Rp16
(I3
S'<'
p17
NNNI-1
I-1
I0
tp18
bI00
S'\xed\xccO]\xce\xad\xb1?\xf79\xa3\x1c`\xec\xb0?\xe00\x16\xae\xa62\xc5\xbf'
p19
tp20
bsS'target_rot'
p21
g6
(g7
(I0
tp22
g9
tp23
Rp24
(I1
(I3
tp25
g16
I00
S'X\xe9\xd7\xb1\xc2EV\xc0\xc6\x11\n\xa0[\xe2\xa9?\xaf\xff"\xed0?e\xc0'
p26
tp27
bsS'center_target_pixels'
p28
(I689
I668
tp29
sS'center_actual_pixels'
p30
(I699
I651
tp31
s.(dp0
S'actual_pos'
p1
(lp2
F0.051274406688820634
aF0.06436256429822017
aF-0.16614667840263778
asS'actual_rot'
p3
(lp4
F75.86341006756608
aF8.288416630711108
aF-169.2692946384596
asS'target_pos'
p5
cnumpy.core.multiarray
_reconstruct
p6
(cnumpy
ndarray
p7
(I0
tp8
S'b'
p9
tp10
Rp11
(I1
(I3
tp12
cnumpy
dtype
p13
(S'f8'
p14
I0
I1
tp15
Rp16
(I3
S'<'
p17
NNNI-1
I-1
I0
tp18
bI00
S"yBE(\x7f\xa4\xaa?\x80\xac1<'p\xb0?\x08hQu\xf0G\xc5\xbf"
p19
tp20
bsS'target_rot'
p21
g6
(g7
(I0
tp22
g9
tp23
Rp24
(I1
(I3
tp25
g16
I00
S'\xbc\xb0\x82\x02\xdd\xe6R@\xfej\x8f\x1d\x9bf"@\xa8\x84\x13\'\xcb\xacd\xc0'
p26
tp27
bsS'center_target_pixels'
p28
(I866
I673
tp29
sS'center_actual_pixels'
p30
(I893
I667
tp31
s.(dp0
S'actual_pos'
p1
(lp2
F0.03507133058644145
aF0.06179584059582006
aF-0.1700712456287951
asS'actual_rot'
p3
(lp4
F-34.643730602422124
aF1.6698287071883913
aF-165.3410330505021
asS'target_pos'
p5
cnumpy.core.multiarray
_reconstruct
p6
(cnumpy
ndarray
p7
(I0
tp8
S'b'
p9
tp10
Rp11
(I1
(I3
tp12
cnumpy
dtype
p13
(S'f8'
p14
I0
I1
tp15
Rp16
(I3
S'<'
p17
NNNI-1
I-1
I0
tp18
bI00
S'\xcf<\xa0\xdd\xbe\x8f\xa2?X\\\xdfj\x88}\xaf?\xf7\xf5_\x8d\x0f\x01\xc6\xbf'
p19
tp20
bsS'target_rot'
p21
g6
(g7
(I0
tp22
g9
tp23
Rp24
(I1
(I3
tp25
g16
I00
S'\xdb \xa8\xf74\xf7@\xc0\x93T\xdc#_\xeb\x08@WG\xb8A)\x0ee\xc0'
p26
tp27
bsS'center_target_pixels'
p28
(I1040
I676
tp29
sS'center_actual_pixels'
p30
(I1101
I664
tp31
s.(dp0
S'actual_pos'
p1
(lp2
F0.01900204088478693
aF0.06026903326307838
aF-0.1691842989335958
asS'actual_rot'
p3
(lp4
F-63.622137368496546
aF2.6667123503979075
aF-169.86717017358993
asS'target_pos'
p5
cnumpy.core.multiarray
_reconstruct
p6
(cnumpy
ndarray
p7
(I0
tp8
S'b'
p9
tp10
Rp11
(I1
(I3
tp12
cnumpy
dtype
p13
(S'f8'
p14
I0
I1
tp15
Rp16
(I3
S'<'
p17
NNNI-1
I-1
I0
tp18
bI00
S'0\x14sr(\xd2\x94?\x1f\xe7V\xc8z\xa4\xae?\xa3\xb4Xm\x13\xe9\xc5\xbf'
p19
tp20
bsS'target_rot'
p21
g6
(g7
(I0
tp22
g9
tp23
Rp24
(I1
(I3
tp25
g16
I00
S'\xe6p\xa9NL\xeeO\xc0\x84\xc5\xd2\x1e\xea;\xf7?:-\xe1\x15\xc4(e\xc0'
p26
tp27
bsS'center_target_pixels'
p28
(I1212
I680
tp29
sS'center_actual_pixels'
p30
(I1270
I673
tp31
s.(dp0
S'actual_pos'
p1
(lp2
F0.005763414490152099
aF0.05875833249425465
aF-0.16409596874860796
asS'actual_rot'
p3
(lp4
F18.086634592926412
aF0.8415758533558602
aF-162.77550546672592
asS'target_pos'
p5
cnumpy.core.multiarray
_reconstruct
p6
(cnumpy
ndarray
p7
(I0
tp8
S'b'
p9
tp10
Rp11
(I1
(I3
tp12
cnumpy
dtype
p13
(S'f8'
p14
I0
I1
tp15
Rp16
(I3
S'<'
p17
NNNI-1
I-1
I0
tp18
bI00
S'\x80\xdd\xe9\xc2\xe8\xd9u?\xa7?e\x98\x8d\xdd\xad?)5\xe6\x96\xd4\x06\xc5\xbf'
p19
tp20
bsS'target_rot'
p21
g6
(g7
(I0
tp22
g9
tp23
Rp24
(I1
(I3
tp25
g16
I00
S'\xecUw\\:\xd53@\xc2\xbd\xa8\xdbEh\x18@\t]\x91\xe8^\xded\xc0'
p26
tp27
bsS'center_target_pixels'
p28
(I1383
I684
tp29
sS'center_actual_pixels'
p30
(I1400
I659
tp31
s.(dp0
S'actual_pos'
p1
(lp2
F0.05568112896463001
aF0.07127798071401133
aF-0.17107590690871122
asS'actual_rot'
p3
(lp4
F38.430294457790325
aF1.112236129262792
aF-162.5321653662013
asS'target_pos'
p5
cnumpy.core.multiarray
_reconstruct
p6
(cnumpy
ndarray
p7
(I0
tp8
S'b'
p9
tp10
Rp11
(I1
(I3
tp12
cnumpy
dtype
p13
(S'f8'
p14
I0
I1
tp15
Rp16
(I3
S'<'
p17
NNNI-1
I-1
I0
tp18
bI00
S"\xa29\xb11j\xa6\xac?\xa4\xccr\xed'7\xb2?j\xbct\x93\x18\x04\xc6\xbf"
p19
tp20
bsS'target_rot'
p21
g6
(g7
(I0
tp22
g9
tp23
Rp24
(I1
(I3
tp25
g16
I00
S'\xfc\xa8\xf6\x8b\x0e\x97C@\xa8.Q\x05\xea\xb4\x1c@E\xbb\xeaW,\xcdd\xc0'
p26
tp27
bsS'center_target_pixels'
p28
(I775
I758
tp29
sS'center_actual_pixels'
p30
(I830
I745
tp31
s.(dp0
S'actual_pos'
p1
(lp2
F0.03949995084432635
aF0.06904622515751954
aF-0.1705340638315055
asS'actual_rot'
p3
(lp4
F45.73702549800428
aF4.7651439204758175
aF-163.56711277969092
asS'target_pos'
p5
cnumpy.core.multiarray
_reconstruct
p6
(cnumpy
ndarray
p7
(I0
tp8
S'b'
p9
tp10
Rp11
(I1
(I3
tp12
cnumpy
dtype
p13
(S'f8'
p14
I0
I1
tp15
Rp16
(I3
S'<'
p17
NNNI-1
I-1
I0
tp18
bI00
S'\x9f\xb6\x8bN\xc5\xc1\xa4?\xdcd\xbf\x7f\xc2\xb8\xb1?j\xbct\x93\x18\x04\xc6\xbf'
p19
tp20
bsS'target_rot'
p21
g6
(g7
(I0
tp22
g9
tp23
Rp24
(I1
(I3
tp25
g16
I00
S'\xa4\x17\x10\xce\xd9"G@J|\\\xcd`H\x1e@\x0f\x8e\xca|\xde\xc6d\xc0'
p26
tp27
bsS'center_target_pixels'
p28
(I950
I761
tp29
sS'center_actual_pixels'
p30
(I1024
I748
tp31
s.(dp0
S'actual_pos'
p1
(lp2
F0.02644399659161452
aF0.06832513731675513
aF-0.1690147041696516
asS'actual_rot'
p3
(lp4
F17.652779404815945
aF2.690559894763777
aF-162.54251910591768
asS'target_pos'
p5
cnumpy.core.multiarray
_reconstruct
p6
(cnumpy
ndarray
p7
(I0
tp8
S'b'
p9
tp10
Rp11
(I1
(I3
tp12
cnumpy
dtype
p13
(S'f8'
p14
I0
I1
tp15
Rp16
(I3
S'<'
p17
NNNI-1
I-1
I0
tp18
bI00
S'f\x15z\xcd\xd4\x95\x9b?\x05;\x13`\xe1|\xb1?b\x80z\x9f\xae\xcf\xc5\xbf'
p19
tp20
bsS'target_rot'
p21
g6
(g7
(I0
tp22
g9
tp23
Rp24
(I1
(I3
tp25
g16
I00
S'D/BU\x7f\xdb2@H|\x80\xf6\xc60\x18@\x0f\xfe%\xe4<\xdfd\xc0'
p26
tp27
bsS'center_target_pixels'
p28
(I1124
I764
tp29
sS'center_actual_pixels'
p30
(I1169
I743
tp31
s.(dp0
S'actual_pos'
p1
(lp2
F0.011479594436511061
aF0.0671616017780045
aF-0.1668599376026368
asS'actual_rot'
p3
(lp4
F-31.45070093085622
aF6.2465980537334636
aF-169.11112133979069
asS'target_pos'
p5
cnumpy.core.multiarray
_reconstruct
p6
(cnumpy
ndarray
p7
(I0
tp8
S'b'
p9
tp10
Rp11
(I1
(I3
tp12
cnumpy
dtype
p13
(S'f8'
p14
I0
I1
tp15
Rp16
(I3
S'<'
p17
NNNI-1
I-1
I0
tp18
bI00
S'\xd8\xf9\xc1\xa2\xcf\xe1\x89?\x98\xad\x84\x81\x1b=\xb1?#\x10&\x05(|\xc5\xbf'
p19
tp20
bsS'target_rot'
p21
g6
(g7
(I0
tp22
g9
tp23
Rp24
(I1
(I3
tp25
g16
I00
S'\x15~\x16\xbc+C@\xc0\xee\x8f\xcfXg\x8b\t@\xe0`N1\xe9\x0ce\xc0'
p26
tp27
bsS'center_target_pixels'
p28
(I1296
I768
tp29
sS'center_actual_pixels'
p30
(I1337
I745
tp31
s.