(dp0
S'actual_pos'
p1
(cnumpy.core.multiarray
_reconstruct
p2
(cnumpy.matrixlib.defmatrix
matrix
p3
(I0
tp4
S'b'
p5
tp6
Rp7
(I1
(I1
I1
tp8
cnumpy
dtype
p9
(S'f8'
p10
I0
I1
tp11
Rp12
(I3
S'<'
p13
NNNI-1
I-1
I0
tp14
bI00
S'F\xc0\x89\x91\x97\xcf\xaf?'
p15
tp16
bg2
(g3
(I0
tp17
g5
tp18
Rp19
(I1
(I1
I1
tp20
g12
I00
S'\x07\x05\x84\r%\x81\x91?'
p21
tp22
bg2
(g3
(I0
tp23
g5
tp24
Rp25
(I1
(I1
I1
tp26
g12
I00
S'\xac8\x18\n\x95`\xc5\xbf'
p27
tp28
btp29
sS'actual_rot'
p30
(F-0.3185559633055099
F-13.148735479781452
F-170.539076988523
tp31
sS'target_pos'
p32
(lp33
cnumpy.core.multiarray
scalar
p34
(g12
S'-tT~\xbf\x04\xb0?'
p35
tp36
Rp37
ag34
(g12
S'\x9b&J\xa8\x1c\xe1\x90?'
p38
tp39
Rp40
ag34
(g12
S"]x\x84'\xe0g\xc5\xbf"
p41
tp42
Rp43
asS'target_rot'
p44
g2
(cnumpy
ndarray
p45
(I0
tp46
g5
tp47
Rp48
(I1
(I3
tp49
g12
I00
S'~\x98\t\xee@\xf3\xc4\xbf>\x9eN\x87\x0f"\'\xc0\xf0\x89\xf5\xf2\xb9\x1fe\xc0'
p50
tp51
bsS'center_target_pixels'
p52
(I807
I102
tp53
sS'center_actual_pixels'
p54
(I808
I104
tp55
s.(dp0
S'actual_pos'
p1
(cnumpy.core.multiarray
_reconstruct
p2
(cnumpy.matrixlib.defmatrix
matrix
p3
(I0
tp4
S'b'
p5
tp6
Rp7
(I1
(I1
I1
tp8
cnumpy
dtype
p9
(S'f8'
p10
I0
I1
tp11
Rp12
(I3
S'<'
p13
NNNI-1
I-1
I0
tp14
bI00
S'\x7f\x1f\x9a\xbc\x99\xf5\xa7?'
p15
tp16
bg2
(g3
(I0
tp17
g5
tp18
Rp19
(I1
(I1
I1
tp20
g12
I00
S'`\x14\xe0=\x19U\x90?'
p21
tp22
bg2
(g3
(I0
tp23
g5
tp24
Rp25
(I1
(I1
I1
tp26
g12
I00
S'\x0e\xbf\xf2\x8d\x86&\xc5\xbf'
p27
tp28
btp29
sS'actual_rot'
p30
(F-0.14578580762347645
F-11.136476652733029
F-172.37175017663947
tp31
sS'target_pos'
p32
(lp33
cnumpy.core.multiarray
scalar
p34
(g12
S'Z\xd7\xe5\xdc\xa3X\xa8?'
p35
tp36
Rp37
ag34
(g12
S'\xba\xc7\xd1\x95\x82C\x8f?'
p38
tp39
Rp40
ag34
(g12
S'\xf5\xf5R\x14\t,\xc5\xbf'
p41
tp42
Rp43
asS'target_rot'
p44
g2
(cnumpy
ndarray
p45
(I0
tp46
g5
tp47
Rp48
(I1
(I3
tp49
g12
I00
S'~\x98\t\xee@\xf3\xc4\xbf>\x9eN\x87\x0f"\'\xc0\xf0\x89\xf5\xf2\xb9\x1fe\xc0'
p50
tp51
bsS'center_target_pixels'
p52
(I985
I114
tp53
sS'center_actual_pixels'
p54
(I987
I114
tp55
s.(dp0
S'actual_pos'
p1
(cnumpy.core.multiarray
_reconstruct
p2
(cnumpy.matrixlib.defmatrix
matrix
p3
(I0
tp4
S'b'
p5
tp6
Rp7
(I1
(I1
I1
tp8
cnumpy
dtype
p9
(S'f8'
p10
I0
I1
tp11
Rp12
(I3
S'<'
p13
NNNI-1
I-1
I0
tp14
bI00
S'2\xaf\x99\x01\xda\x04\xa0?'
p15
tp16
bg2
(g3
(I0
tp17
g5
tp18
Rp19
(I1
(I1
I1
tp20
g12
I00
S'\xf2\xf0}\xb0&\x06\x8e?'
p21
tp22
bg2
(g3
(I0
tp23
g5
tp24
Rp25
(I1
(I1
I1
tp26
g12
I00
S'\xcef\x90\x1f\x06\xec\xc4\xbf'
p27
tp28
btp29
sS'actual_rot'
p30
(F0.12744820407023325
F-7.934380143566353
F-172.84564141369236
tp31
sS'target_pos'
p32
(lp33
cnumpy.core.multiarray
scalar
p34
(g12
S'\x9d\xdf\xf55\x10\x97\xa0?'
p35
tp36
Rp37
ag34
(g12
S'6\xff\x90B;\xc4\x8c?'
p38
tp39
Rp40
ag34
(g12
S'\x94E\x05\xa7"\xef\xc4\xbf'
p41
tp42
Rp43
asS'target_rot'
p44
g2
(cnumpy
ndarray
p45
(I0
tp46
g5
tp47
Rp48
(I1
(I3
tp49
g12
I00
S'~\x98\t\xee@\xf3\xc4\xbf>\x9eN\x87\x0f"\'\xc0\xf0\x89\xf5\xf2\xb9\x1fe\xc0'
p50
tp51
bsS'center_target_pixels'
p52
(I1162
I126
tp53
sS'center_actual_pixels'
p54
(I1164
I126
tp55
s.(dp0
S'actual_pos'
p1
(cnumpy.core.multiarray
_reconstruct
p2
(cnumpy.matrixlib.defmatrix
matrix
p3
(I0
tp4
S'b'
p5
tp6
Rp7
(I1
(I1
I1
tp8
cnumpy
dtype
p9
(S'f8'
p10
I0
I1
tp11
Rp12
(I3
S'<'
p13
NNNI-1
I-1
I0
tp14
bI00
S'}\x0bb\xd1\xa5\r\x90?'
p15
tp16
bg2
(g3
(I0
tp17
g5
tp18
Rp19
(I1
(I1
I1
tp20
g12
I00
S'\x8bRs\xeb+\x8c\x8b?'
p21
tp22
bg2
(g3
(I0
tp23
g5
tp24
Rp25
(I1
(I1
I1
tp26
g12
I00
S'\x87u\xe3\x92\x16\xac\xc4\xbf'
p27
tp28
btp29
sS'actual_rot'
p30
(F0.2760395036415113
F-5.856505208197011
F-173.56638753375793
tp31
sS'target_pos'
p32
(lp33
cnumpy.core.multiarray
scalar
p34
(g12
S'\xe47\x184\xafs\x91?'
p35
tp36
Rp37
ag34
(g12
S'\x1a\x9d/M\xe7=\x8a?'
p38
tp39
Rp40
ag34
(g12
S'\xda!\x7f!\xd2\xb0\xc4\xbf'
p41
tp42
Rp43
asS'target_rot'
p44
g2
(cnumpy
ndarray
p45
(I0
tp46
g5
tp47
Rp48
(I1
(I3
tp49
g12
I00
S'~\x98\t\xee@\xf3\xc4\xbf>\x9eN\x87\x0f"\'\xc0\xf0\x89\xf5\xf2\xb9\x1fe\xc0'
p50
tp51
bsS'center_target_pixels'
p52
(I1339
I138
tp53
sS'center_actual_pixels'
p54
(I1344
I141
tp55
s.(dp0
S'actual_pos'
p1
(cnumpy.core.multiarray
_reconstruct
p2
(cnumpy.matrixlib.defmatrix
matrix
p3
(I0
tp4
S'b'
p5
tp6
Rp7
(I1
(I1
I1
tp8
cnumpy
dtype
p9
(S'f8'
p10
I0
I1
tp11
Rp12
(I3
S'<'
p13
NNNI-1
I-1
I0
tp14
bI00
S'\x84t\xa1\x83\x7f\xd1\xb1?'
p15
tp16
bg2
(g3
(I0
tp17
g5
tp18
Rp19
(I1
(I1
I1
tp20
g12
I00
S'9\xf7D\xed\x1b\x90\x99?'
p21
tp22
bg2
(g3
(I0
tp23
g5
tp24
Rp25
(I1
(I1
I1
tp26
g12
I00
S'I<)\xdc\xa8y\xc5\xbf'
p27
tp28
btp29
sS'actual_rot'
p30
(F-0.8157287760783022
F-15.856115175325117
F-168.08786731473714
tp31
sS'target_pos'
p32
(lp33
cnumpy.core.multiarray
scalar
p34
(g12
S'9&\xe5k\x05\xd4\xb1?'
p35
tp36
Rp37
ag34
(g12
S'\xe3\xa4\xf7\x002*\x99?'
p38
tp39
Rp40
ag34
(g12
S'dQXTT\x84\xc5\xbf'
p41
tp42
Rp43
asS'target_rot'
p44
g2
(cnumpy
ndarray
p45
(I0
tp46
g5
tp47
Rp48
(I1
(I3
tp49
g12
I00
S'~\x98\t\xee@\xf3\xc4\xbf>\x9eN\x87\x0f"\'\xc0\xf0\x89\xf5\xf2\xb9\x1fe\xc0'
p50
tp51
bsS'center_target_pixels'
p52
(I711
I184
tp53
sS'center_actual_pixels'
p54
(I711
I185
tp55
s.(dp0
S'actual_pos'
p1
(cnumpy.core.multiarray
_reconstruct
p2
(cnumpy.matrixlib.defmatrix
matrix
p3
(I0
tp4
S'b'
p5
tp6
Rp7
(I1
(I1
I1
tp8
cnumpy
dtype
p9
(S'f8'
p10
I0
I1
tp11
Rp12
(I3
S'<'
p13
NNNI-1
I-1
I0
tp14
bI00
S'$\xbc\t\x81\xac\xaa\xab?'
p15
tp16
bg2
(g3
(I0
tp17
g5
tp18
Rp19
(I1
(I1
I1
tp20
g12
I00
S'\x82\xe9\x0b\x9e\r~\x98?'
p21
tp22
bg2
(g3
(I0
tp23
g5
tp24
Rp25
(I1
(I1
I1
tp26
g12
I00
S'\x9b\xf0\xaa\x80:A\xc5\xbf'
p27
tp28
btp29
sS'actual_rot'
p30
(F-0.3718083975578982
F-12.834452269676357
F-169.6402742151125
tp31
sS'target_pos'
p32
(lp33
cnumpy.core.multiarray
scalar
p34
(g12
S'\xb1D\x07 \xcb\xec\xab?'
p35
tp36
Rp37
ag34
(g12
S'mk\xbf\xe3\x1c\n\x98?'
p38
tp39
Rp40
ag34
(g12
S'\xc3v%k\xb0H\xc5\xbf'
p41
tp42
Rp43
asS'target_rot'
p44
g2
(cnumpy
ndarray
p45
(I0
tp46
g5
tp47
Rp48
(I1
(I3
tp49
g12
I00
S'~\x98\t\xee@\xf3\xc4\xbf>\x9eN\x87\x0f"\'\xc0\xf0\x89\xf5\xf2\xb9\x1fe\xc0'
p50
tp51
bsS'center_target_pixels'
p52
(I891
I197
tp53
sS'center_actual_pixels'
p54
(I893
I198
tp55
s.(dp0
S'actual_pos'
p1
(cnumpy.core.multiarray
_reconstruct
p2
(cnumpy.matrixlib.defmatrix
matrix
p3
(I0
tp4
S'b'
p5
tp6
Rp7
(I1
(I1
I1
tp8
cnumpy
dtype
p9
(S'f8'
p10
I0
I1
tp11
Rp12
(I3
S'<'
p13
NNNI-1
I-1
I0
tp14
bI00
S'l\x9f\xeeA\x14\xc8\xa3?'
p15
tp16
bg2
(g3
(I0
tp17
g5
tp18
Rp19
(I1
(I1
I1
tp20
g12
I00
S'\xbb\x98"\x1d\xd9K\x97?'
p21
tp22
bg2
(g3
(I0
tp23
g5
tp24
Rp25
(I1
(I1
I1
tp26
g12
I00
S'\xb4b\x87>s\x08\xc5\xbf'
p27
tp28
btp29
sS'actual_rot'
p30
(F0.0140987847438581
F-10.16007807822164
F-170.9280386972274
tp31
sS'target_pos'
p32
(lp33
cnumpy.core.multiarray
scalar
p34
(g12
S'\xdfz\xb2\x1e\xa47\xa4?'
p35
tp36
Rp37
ag34
(g12
S'\xa1\xe9\xe6\xd1\xf0\xd9\x96?'
p38
tp39
Rp40
ag34
(g12
S'D\x8c\xfa\x12\xaf\x0c\xc5\xbf'
p41
tp42
Rp43
asS'target_rot'
p44
g2
(cnumpy
ndarray
p45
(I0
tp46
g5
tp47
Rp48
(I1
(I3
tp49
g12
I00
S'~\x98\t\xee@\xf3\xc4\xbf>\x9eN\x87\x0f"\'\xc0\xf0\x89\xf5\xf2\xb9\x1fe\xc0'
p50
tp51
bsS'center_target_pixels'
p52
(I1068
I209
tp53
sS'center_actual_pixels'
p54
(I1069
I210
tp55
s.(dp0
S'actual_pos'
p1
(cnumpy.core.multiarray
_reconstruct
p2
(cnumpy.matrixlib.defmatrix
matrix
p3
(I0
tp4
S'b'
p5
tp6
Rp7
(I1
(I1
I1
tp8
cnumpy
dtype
p9
(S'f8'
p10
I0
I1
tp11
Rp12
(I3
S'<'
p13
NNNI-1
I-1
I0
tp14
bI00
S'\xcb\xbb\xdc\xdf\x19\x99\x97?'
p15
tp16
bg2
(g3
(I0
tp17
g5
tp18
Rp19
(I1
(I1
I1
tp20
g12
I00
S'\xe4vL\x0c\xe0-\x96?'
p21
tp22
bg2
(g3
(I0
tp23
g5
tp24
Rp25
(I1
(I1
I1
tp26
g12
I00
S'\xb5\xf1\xd4\xbe;\xcb\xc4\xbf'
p27
tp28
btp29
sS'actual_rot'
p30
(F0.37784862156616333
F-7.130953783101613
F-171.98246678956065
tp31
sS'target_pos'
p32
(lp33
cnumpy.core.multiarray
scalar
p34
(g12
S'\xf8\xce\xcaXg\xca\x98?'
p35
tp36
Rp37
ag34
(g12
S'E\x12\x94J\xba\xbc\x95?'
p38
tp39
Rp40
ag34
(g12
S'\xac\xad\x08\xbc>\xcf\xc4\xbf'
p41
tp42
Rp43
asS'target_rot'
p44
g2
(cnumpy
ndarray
p45
(I0
tp46
g5
tp47
Rp48
(I1
(I3
tp49
g12
I00
S'~\x98\t\xee@\xf3\xc4\xbf>\x9eN\x87\x0f"\'\xc0\xf0\x89\xf5\xf2\xb9\x1fe\xc0'
p50
tp51
bsS'center_target_pixels'
p52
(I1245
I222
tp53
sS'center_actual_pixels'
p54
(I1247
I222
tp55
s.(dp0
S'actual_pos'
p1
(cnumpy.core.multiarray
_reconstruct
p2
(cnumpy.matrixlib.defmatrix
matrix
p3
(I0
tp4
S'b'
p5
tp6
Rp7
(I1
(I1
I1
tp8
cnumpy
dtype
p9
(S'f8'
p10
I0
I1
tp11
Rp12
(I3
S'<'
p13
NNNI-1
I-1
I0
tp14
bI00
S'i//~b;\x7f?'
p15
tp16
bg2
(g3
(I0
tp17
g5
tp18
Rp19
(I1
(I1
I1
tp20
g12
I00
S'\xc1\xbb\xa7\xa5\xac\x9f\x94?'
p21
tp22
bg2
(g3
(I0
tp23
g5
tp24
Rp25
(I1
(I1
I1
tp26
g12
I00
S'\x94\x8eD\xbb\x03\x8e\xc4\xbf'
p27
tp28
btp29
sS'actual_rot'
p30
(F0.5398187546333214
F-5.7871370409760665
F-172.76174886177162
tp31
sS'target_pos'
p32
(lp33
cnumpy.core.multiarray
scalar
p34
(g12
S'l\xbdSf\x00I\x82?'
p35
tp36
Rp37
ag34
(g12
S'm\xb9/\xa2\xe1^\x94?'
p38
tp39
Rp40
ag34
(g12
S'\x87\x9a\xce-0\x91\xc4\xbf'
p41
tp42
Rp43
asS'target_rot'
p44
g2
(cnumpy
ndarray
p45
(I0
tp46
g5
tp47
Rp48
(I1
(I3
tp49
g12
I00
S'~\x98\t\xee@\xf3\xc4\xbf>\x9eN\x87\x0f"\'\xc0\xf0\x89\xf5\xf2\xb9\x1fe\xc0'
p50
tp51
bsS'center_target_pixels'
p52
(I1420
I232
tp53
sS'center_actual_pixels'
p54
(I1421
I232
tp55
s.(dp0
S'actual_pos'
p1
(cnumpy.core.multiarray
_reconstruct
p2
(cnumpy.matrixlib.defmatrix
matrix
p3
(I0
tp4
S'b'
p5
tp6
Rp7
(I1
(I1
I1
tp8
cnumpy
dtype
p9
(S'f8'
p10
I0
I1
tp11
Rp12
(I3
S'<'
p13
NNNI-1
I-1
I0
tp14
bI00
S'\xe5\xf1\xc8j\xeau\xaf?'
p15
tp16
bg2
(g3
(I0
tp17
g5
tp18
Rp19
(I1
(I1
I1
tp20
g12
I00
S'\x16Y\xc9\x89\xc1d\xa0?'
p21
tp22
bg2
(g3
(I0
tp23
g5
tp24
Rp25
(I1
(I1
I1
tp26
g12
I00
S'\x89\x17Ze\x11Z\xc5\xbf'
p27
tp28
btp29
sS'actual_rot'
p30
(F-0.9250304000505705
F-15.601293587333338
F-167.301786056284
tp31
sS'target_pos'
p32
(lp33
cnumpy.core.multiarray
scalar
p34
(g12
S'@\x1f\xa1\xc8\x96\x87\xaf?'
p35
tp36
Rp37
ag34
(g12
S'D\xcf\x9aw2)\xa0?'
p38
tp39
Rp40
ag34
(g12
S'\xcd2\xdc|\x11e\xc5\xbf'
p41
tp42
Rp43
asS'target_rot'
p44
g2
(cnumpy
ndarray
p45
(I0
tp46
g5
tp47
Rp48
(I1
(I3
tp49
g12
I00
S'~\x98\t\xee@\xf3\xc4\xbf>\x9eN\x87\x0f"\'\xc0\xf0\x89\xf5\xf2\xb9\x1fe\xc0'
p50
tp51
bsS'center_target_pixels'
p52
(I796
I279
tp53
sS'center_actual_pixels'
p54
(I793
I279
tp55
s.(dp0
S'actual_pos'
p1
(cnumpy.core.multiarray
_reconstruct
p2
(cnumpy.matrixlib.defmatrix
matrix
p3
(I0
tp4
S'b'
p5
tp6
Rp7
(I1
(I1
I1
tp8
cnumpy
dtype
p9
(S'f8'
p10
I0
I1
tp11
Rp12
(I3
S'<'
p13
NNNI-1
I-1
I0
tp14
bI00
S'\xaf\xfa\x14W\x90\x8d\xa7?'
p15
tp16
bg2
(g3
(I0
tp17
g5
tp18
Rp19
(I1
(I1
I1
tp20
g12
I00
S'/\xf9c2$\x91\x9f?'
p21
tp22
bg2
(g3
(I0
tp23
g5
tp24
Rp25
(I1
(I1
I1
tp26
g12
I00
S'\xd0T\xa9\xa7\x9c"\xc5\xbf'
p27
tp28
btp29
sS'actual_rot'
p30
(F-0.22609311413075645
F-11.788555733133789
F-170.30914668649498
tp31
sS'target_pos'
p32
(lp33
cnumpy.core.multiarray
scalar
p34
(g12
S'\xb7_\xcd\xd5+\xd4\xa7?'
p35
tp36
Rp37
ag34
(g12
S'H+\x0c\x06\x9c.\x9f?'
p38
tp39
Rp40
ag34
(g12
S'\xdde\x96\x11\x9f)\xc5\xbf'
p41
tp42
Rp43
asS'target_rot'
p44
g2
(cnumpy
ndarray
p45
(I0
tp46
g5
tp47
Rp48
(I1
(I3
tp49
g12
I00
S'~\x98\t\xee@\xf3\xc4\xbf>\x9eN\x87\x0f"\'\xc0\xf0\x89\xf5\xf2\xb9\x1fe\xc0'
p50
tp51
bsS'center_target_pixels'
p52
(I974
I291
tp53
sS'center_actual_pixels'
p54
(I971
I287
tp55
s.(dp0
S'actual_pos'
p1
(cnumpy.core.multiarray
_reconstruct
p2
(cnumpy.matrixlib.defmatrix
matrix
p3
(I0
tp4
S'b'
p5
tp6
Rp7
(I1
(I1
I1
tp8
cnumpy
dtype
p9
(S'f8'
p10
I0
I1
tp11
Rp12
(I3
S'<'
p13
NNNI-1
I-1
I0
tp14
bI00
S'\xc6\n;\xb7\x8f!\x9f?'
p15
tp16
bg2
(g3
(I0
tp17
g5
tp18
Rp19
(I1
(I1
I1
tp20
g12
I00
S'\x9e\xd5\xf0\xa7\xd0j\x9e?'
p21
tp22
bg2
(g3
(I0
tp23
g5
tp24
Rp25
(I1
(I1
I1
tp26
g12
I00
S'\xac\xcc.\xb3\x94\xe6\xc4\xbf'
p27
tp28
btp29
sS'actual_rot'
p30
(F0.2909107477919956
F-8.837688151678122
F-171.41947416471425
tp31
sS'target_pos'
p32
(lp33
cnumpy.core.multiarray
scalar
p34
(g12
S'i\x866\x10(\x11\xa0?'
p35
tp36
Rp37
ag34
(g12
S'2\x93/=\xe6\xf3\x9d?'
p38
tp39
Rp40
ag34
(g12
S'%i\xb5\xca%\xed\xc4\xbf'
p41
tp42
Rp43
asS'target_rot'
p44
g2
(cnumpy
ndarray
p45
(I0
tp46
g5
tp47
Rp48
(I1
(I3
tp49
g12
I00
S'~\x98\t\xee@\xf3\xc4\xbf>\x9eN\x87\x0f"\'\xc0\xf0\x89\xf5\xf2\xb9\x1fe\xc0'
p50
tp51
bsS'center_target_pixels'
p52
(I1151
I302
tp53
sS'center_actual_pixels'
p54
(I1152
I302
tp55
s.(dp0
S'actual_pos'
p1
(cnumpy.core.multiarray
_reconstruct
p2
(cnumpy.matrixlib.defmatrix
matrix
p3
(I0
tp4
S'b'
p5
tp6
Rp7
(I1
(I1
I1
tp8
cnumpy
dtype
p9
(S'f8'
p10
I0
I1
tp11
Rp12
(I3
S'<'
p13
NNNI-1
I-1
I0
tp14
bI00
S'\x83\xe4\xb5\xa1\xf7\x1b\x8e?'
p15
tp16
bg2
(g3
(I0
tp17
g5
tp18
Rp19
(I1
(I1
I1
tp20
g12
I00
S'\x89j\x8b\xeeV$\x9d?'
p21
tp22
bg2
(g3
(I0
tp23
g5
tp24
Rp25
(I1
(I1
I1
tp26
g12
I00
S'\xd8\xb2\x08\x8e\xb5\xa8\xc4\xbf'
p27
tp28
btp29
sS'actual_rot'
p30
(F0.7053141087859229
F-6.363856449910088
F-172.25253890987506
tp31
sS'target_pos'
p32
(lp33
cnumpy.core.multiarray
scalar
p34
(g12
S'\xe2\xd6\xfb\xc5]d\x90?'
p35
tp36
Rp37
ag34
(g12
S'/\xabm\xbfP\xb5\x9c?'
p38
tp39
Rp40
ag34
(g12
S'\xafmj\xceA\xaf\xc4\xbf'
p41
tp42
Rp43
asS'target_rot'
p44
g2
(cnumpy
ndarray
p45
(I0
tp46
g5
tp47
Rp48
(I1
(I3
tp49
g12
I00
S'~\x98\t\xee@\xf3\xc4\xbf>\x9eN\x87\x0f"\'\xc0\xf0\x89\xf5\xf2\xb9\x1fe\xc0'
p50
tp51
bsS'center_target_pixels'
p52
(I1328
I313
tp53
sS'center_actual_pixels'
p54
(I1329
I311
tp55
s.(dp0
S'actual_pos'
p1
(cnumpy.core.multiarray
_reconstruct
p2
(cnumpy.matrixlib.defmatrix
matrix
p3
(I0
tp4
S'b'
p5
tp6
Rp7
(I1
(I1
I1
tp8
cnumpy
dtype
p9
(S'f8'
p10
I0
I1
tp11
Rp12
(I3
S'<'
p13
NNNI-1
I-1
I0
tp14
bI00
S'm\x96\xd3\x90\n\x87\xb1?'
p15
tp16
bg2
(g3
(I0
tp17
g5
tp18
Rp19
(I1
(I1
I1
tp20
g12
I00
S'\xc2\xecE\x80\x8a\x97\xa4?'
p21
tp22
bg2
(g3
(I0
tp23
g5
tp24
Rp25
(I1
(I1
I1
tp26
g12
I00
S'\xd0\x88\xeb9%s\xc5\xbf'
p27
tp28
btp29
sS'actual_rot'
p30
(F-1.2239810808099592
F-16.06781349088513
F-166.90394560364015
tp31
sS'target_pos'
p32
(lp33
cnumpy.core.multiarray
scalar
p34
(g12
S'(\xa6\xdf_\x7f\x8d\xb1?'
p35
tp36
Rp37
ag34
(g12
S'\x00s^\xd4\xa6Q\xa4?'
p38
tp39
Rp40
ag34
(g12
S'J\xdc\xd5H\xc4\x80\xc5\xbf'
p41
tp42
Rp43
asS'target_rot'
p44
g2
(cnumpy
ndarray
p45
(I0
tp46
g5
tp47
Rp48
(I1
(I3
tp49
g12
I00
S'~\x98\t\xee@\xf3\xc4\xbf>\x9eN\x87\x0f"\'\xc0\xf0\x89\xf5\xf2\xb9\x1fe\xc0'
p50
tp51
bsS'center_target_pixels'
p52
(I701
I362
tp53
sS'center_actual_pixels'
p54
(I704
I355
tp55
s.(dp0
S'actual_pos'
p1
(cnumpy.core.multiarray
_reconstruct
p2
(cnumpy.matrixlib.defmatrix
matrix
p3
(I0
tp4
S'b'
p5
tp6
Rp7
(I1
(I1
I1
tp8
cnumpy
dtype
p9
(S'f8'
p10
I0
I1
tp11
Rp12
(I3
S'<'
p13
NNNI-1
I-1
I0
tp14
bI00
S'\x91\x16\x94\xd660\xab?'
p15
tp16
bg2
(g3
(I0
tp17
g5
tp18
Rp19
(I1
(I1
I1
tp20
g12
I00
S'\xeepY\xd4W\x11\xa4?'
p21
tp22
bg2
(g3
(I0
tp23
g5
tp24
Rp25
(I1
(I1
I1
tp26
g12
I00
S'`F\x85\x95~:\xc5\xbf'
p27
tp28
btp29
sS'actual_rot'
p30
(F-0.5802406880092297
F-13.239258741739787
F-168.17074423702022
tp31
sS'target_pos'
p32
(lp33
cnumpy.core.multiarray
scalar
p34
(g12
S'\xc3M\x93\x9a\x9bi\xab?'
p35
tp36
Rp37
ag34
(g12
S'\x9a}\xe4\x7f6\xc6\xa3?'
p38
tp39
Rp40
ag34
(g12
S'\x90\xdd\xb4\xde\xe1E\xc5\xbf'
p41
tp42
Rp43
asS'target_rot'
p44
g2
(cnumpy
ndarray
p45
(I0
tp46
g5
tp47
Rp48
(I1
(I3
tp49
g12
I00
S'~\x98\t\xee@\xf3\xc4\xbf>\x9eN\x87\x0f"\'\xc0\xf0\x89\xf5\xf2\xb9\x1fe\xc0'
p50
tp51
bsS'center_target_pixels'
p52
(I880
I374
tp53
sS'center_actual_pixels'
p54
(I881
I369
tp55
s.(dp0
S'actual_pos'
p1
(cnumpy.core.multiarray
_reconstruct
p2
(cnumpy.matrixlib.defmatrix
matrix
p3
(I0
tp4
S'b'
p5
tp6
Rp7
(I1
(I1
I1
tp8
cnumpy
dtype
p9
(S'f8'
p10
I0
I1
tp11
Rp12
(I3
S'<'
p13
NNNI-1
I-1
I0
tp14
bI00
S'\x87\x03\x045\x89F\xa3?'
p15
tp16
bg2
(g3
(I0
tp17
g5
tp18
Rp19
(I1
(I1
I1
tp20
g12
I00
S'a\x1d\x87R+e\xa3?'
p21
tp22
bg2
(g3
(I0
tp23
g5
tp24
Rp25
(I1
(I1
I1
tp26
g12
I00
S'\x8e3a\x8e7\x00\xc5\xbf'
p27
tp28
btp29
sS'actual_rot'
p30
(F0.0597382321262657
F-10.451183338560705
F-169.54651327520125
tp31
sS'target_pos'
p32
(lp33
cnumpy.core.multiarray
scalar
p34
(g12
S'L\x93\xb2\x07\x8a\xa9\xa3?'
p35
tp36
Rp37
ag34
(g12
S'\x92j\xf9\r\r$\xa3?'
p38
tp39
Rp40
ag34
(g12
S'sV\xf7h\x00\n\xc5\xbf'
p41
tp42
Rp43
asS'target_rot'
p44
g2
(cnumpy
ndarray
p45
(I0
tp46
g5
tp47
Rp48
(I1
(I3
tp49
g12
I00
S'~\x98\t\xee@\xf3\xc4\xbf>\x9eN\x87\x0f"\'\xc0\xf0\x89\xf5\xf2\xb9\x1fe\xc0'
p50
tp51
bsS'center_target_pixels'
p52
(I1058
I384
tp53
sS'center_actual_pixels'
p54
(I1059
I379
tp55
s.(dp0
S'actual_pos'
p1
(cnumpy.core.multiarray
_reconstruct
p2
(cnumpy.matrixlib.defmatrix
matrix
p3
(I0
tp4
S'b'
p5
tp6
Rp7
(I1
(I1
I1
tp8
cnumpy
dtype
p9
(S'f8'
p10
I0
I1
tp11
Rp12
(I3
S'<'
p13
NNNI-1
I-1
I0
tp14
bI00
S'\xd4g\xe1\n\xd1\x85\x96?'
p15
tp16
bg2
(g3
(I0
tp17
g5
tp18
Rp19
(I1
(I1
I1
tp20
g12
I00
S'\xab9B\xf1\xcc\xd5\xa2?'
p21
tp22
bg2
(g3
(I0
tp23
g5
tp24
Rp25
(I1
(I1
I1
tp26
g12
I00
S'\xcb\xf2\x12%\xe4\xc4\xc4\xbf'
p27
tp28
btp29
sS'actual_rot'
p30
(F0.7861486073282029
F-7.089984391001253
F-170.32788716224474
tp31
sS'target_pos'
p32
(lp33
cnumpy.core.multiarray
scalar
p34
(g12
S'\xd6\x1b\x96Np\xc4\x97?'
p35
tp36
Rp37
ag34
(g12
S'\x86\x893J*\x8e\xa2?'
p38
tp39
Rp40
ag34
(g12
S'x\xa5~K[\xcd\xc4\xbf'
p41
tp42
Rp43
asS'target_rot'
p44
g2
(cnumpy
ndarray
p45
(I0
tp46
g5
tp47
Rp48
(I1
(I3
tp49
g12
I00
S'~\x98\t\xee@\xf3\xc4\xbf>\x9eN\x87\x0f"\'\xc0\xf0\x89\xf5\xf2\xb9\x1fe\xc0'
p50
tp51
bsS'center_target_pixels'
p52
(I1234
I395
tp53
sS'center_actual_pixels'
p54
(I1238
I398
tp55
s.(dp0
S'actual_pos'
p1
(cnumpy.core.multiarray
_reconstruct
p2
(cnumpy.matrixlib.defmatrix
matrix
p3
(I0
tp4
S'b'
p5
tp6
Rp7
(I1
(I1
I1
tp8
cnumpy
dtype
p9
(S'f8'
p10
I0
I1
tp11
Rp12
(I3
S'<'
p13
NNNI-1
I-1
I0
tp14
bI00
S'=}\x82\x8c\xc2\xc8z?'
p15
tp16
bg2
(g3
(I0
tp17
g5
tp18
Rp19
(I1
(I1
I1
tp20
g12
I00
S'\x9a\xc0\xc3>\xb1"\xa2?'
p21
tp22
bg2
(g3
(I0
tp23
g5
tp24
Rp25
(I1
(I1
I1
tp26
g12
I00
S'\xa1\x8b|\xcc\xce\x89\xc4\xbf'
p27
tp28
btp29
sS'actual_rot'
p30
(F0.9956437848133252
F-6.1044595682363205
F-170.85069864881282
tp31
sS'target_pos'
p32
(lp33
cnumpy.core.multiarray
scalar
p34
(g12
S'\xccNX\xbe;\x02\x80?'
p35
tp36
Rp37
ag34
(g12
S'\x9c\xd1\xaa\xad\x01\xeb\xa1?'
p38
tp39
Rp40
ag34
(g12
S'V\xa2\x9c\xddT\x8f\xc4\xbf'
p41
tp42
Rp43
asS'target_rot'
p44
g2
(cnumpy
ndarray
p45
(I0
tp46
g5
tp47
Rp48
(I1
(I3
tp49
g12
I00
S'~\x98\t\xee@\xf3\xc4\xbf>\x9eN\x87\x0f"\'\xc0\xf0\x89\xf5\xf2\xb9\x1fe\xc0'
p50
tp51
bsS'center_target_pixels'
p52
(I1410
I405
tp53
sS'center_actual_pixels'
p54
(I1413
I403
tp55
s.(dp0
S'actual_pos'
p1
(cnumpy.core.multiarray
_reconstruct
p2
(cnumpy.matrixlib.defmatrix
matrix
p3
(I0
tp4
S'b'
p5
tp6
Rp7
(I1
(I1
I1
tp8
cnumpy
dtype
p9
(S'f8'
p10
I0
I1
tp11
Rp12
(I3
S'<'
p13
NNNI-1
I-1
I0
tp14
bI00
S'h$\xaf\xea\xc8\xd4\xae?'
p15
tp16
bg2
(g3
(I0
tp17
g5
tp18
Rp19
(I1
(I1
I1
tp20
g12
I00
S'\xceO\xb0\xcd\rk\xa8?'
p21
tp22
bg2
(g3
(I0
tp23
g5
tp24
Rp25
(I1
(I1
I1
tp26
g12
I00
S'\xc2\x14\xf8N|S\xc5\xbf'
p27
tp28
btp29
sS'actual_rot'
p30
(F-1.4240476702500227
F-15.91287918815627
F-165.60173612397304
tp31
sS'target_pos'
p32
(lp33
cnumpy.core.multiarray
scalar
p34
(g12
S'\xce-\x1f\xf8j\xde\xae?'
p35
tp36
Rp37
ag34
(g12
S'w{\xd4w\xf0+\xa8?'
p38
tp39
Rp40
ag34
(g12
S'1\xae;\x86\xdea\xc5\xbf'
p41
tp42
Rp43
asS'target_rot'
p44
g2
(cnumpy
ndarray
p45
(I0
tp46
g5
tp47
Rp48
(I1
(I3
tp49
g12
I00
S'~\x98\t\xee@\xf3\xc4\xbf>\x9eN\x87\x0f"\'\xc0\xf0\x89\xf5\xf2\xb9\x1fe\xc0'
p50
tp51
bsS'center_target_pixels'
p52
(I785
I456
tp53
sS'center_actual_pixels'
p54
(I787
I455
tp55
s.(dp0
S'actual_pos'
p1
(cnumpy.core.multiarray
_reconstruct
p2
(cnumpy.matrixlib.defmatrix
matrix
p3
(I0
tp4
S'b'
p5
tp6
Rp7
(I1
(I1
I1
tp8
cnumpy
dtype
p9
(S'f8'
p10
I0
I1
tp11
Rp12
(I3
S'<'
p13
NNNI-1
I-1
I0
tp14
bI00
S'\x1c\x8dp\xce\xcb\xec\xa6?'
p15
tp16
bg2
(g3
(I0
tp17
g5
tp18
Rp19
(I1
(I1
I1
tp20
g12
I00
S'\x90)4\xcb\xe1\xd4\xa7?'
p21
tp22
bg2
(g3
(I0
tp23
g5
tp24
Rp25
(I1
(I1
I1
tp26
g12
I00
S'\xe6\x8c\x14A\xd7\x1a\xc5\xbf'
p27
tp28
btp29
sS'actual_rot'
p30
(F-0.5369340666592338
F-12.763568356831168
F-166.71389240790992
tp31
sS'target_pos'
p32
(lp33
cnumpy.core.multiarray
scalar
p34
(g12
S"#\xeck\xedm'\xa7?"
p35
tp36
Rp37
ag34
(g12
S'eF\xcb\xf4;\x93\xa7?'
p38
tp39
Rp40
ag34
(g12
S'\x11P\x0b\xda\x84&\xc5\xbf'
p41
tp42
Rp43
asS'target_rot'
p44
g2
(cnumpy
ndarray
p45
(I0
tp46
g5
tp47
Rp48
(I1
(I3
tp49
g12
I00
S'~\x98\t\xee@\xf3\xc4\xbf>\x9eN\x87\x0f"\'\xc0\xf0\x89\xf5\xf2\xb9\x1fe\xc0'
p50
tp51
bsS'center_target_pixels'
p52
(I964
I467
tp53
sS'center_actual_pixels'
p54
(I964
I466
tp55
s.(dp0
S'actual_pos'
p1
(cnumpy.core.multiarray
_reconstruct
p2
(cnumpy.matrixlib.defmatrix
matrix
p3
(I0
tp4
S'b'
p5
tp6
Rp7
(I1
(I1
I1
tp8
cnumpy
dtype
p9
(S'f8'
p10
I0
I1
tp11
Rp12
(I3
S'<'
p13
NNNI-1
I-1
I0
tp14
bI00
S'Z\x94g\x98\x0c\n\x9e?'
p15
tp16
bg2
(g3
(I0
tp17
g5
tp18
Rp19
(I1
(I1
I1
tp20
g12
I00
S'\x18\xa1\xb4\xb5\x96\x0e\xa7?'
p21
tp22
bg2
(g3
(I0
tp23
g5
tp24
Rp25
(I1
(I1
I1
tp26
g12
I00
S'-L\x83\xee\xcb\xe0\xc4\xbf'
p27
tp28
btp29
sS'actual_rot'
p30
(F0.31853620462442106
F-9.627953212015147
F-168.2747167272902
tp31
sS'target_pos'
p32
(lp33
cnumpy.core.multiarray
scalar
p34
(g12
S'#\xd3f\xbd\xbb\xf3\x9e?'
p35
tp36
Rp37
ag34
(g12
S'\x97\x9a\x9ckO\xc9\xa6?'
p38
tp39
Rp40
ag34
(g12
S'\xb4g\xda\x1dw\xea\xc4\xbf'
p41
tp42
Rp43
asS'target_rot'
p44
g2
(cnumpy
ndarray
p45
(I0
tp46
g5
tp47
Rp48
(I1
(I3
tp49
g12
I00
S'~\x98\t\xee@\xf3\xc4\xbf>\x9eN\x87\x0f"\'\xc0\xf0\x89\xf5\xf2\xb9\x1fe\xc0'
p50
tp51
bsS'center_target_pixels'
p52
(I1141
I477
tp53
sS'center_actual_pixels'
p54
(I1146
I475
tp55
s.(dp0
S'actual_pos'
p1
(cnumpy.core.multiarray
_reconstruct
p2
(cnumpy.matrixlib.defmatrix
matrix
p3
(I0
tp4
S'b'
p5
tp6
Rp7
(I1
(I1
I1
tp8
cnumpy
dtype
p9
(S'f8'
p10
I0
I1
tp11
Rp12
(I3
S'<'
p13
NNNI-1
I-1
I0
tp14
bI00
S'\xeaX\xfb\xbd~\xfc\x8b?'
p15
tp16
bg2
(g3
(I0
tp17
g5
tp18
Rp19
(I1
(I1
I1
tp20
g12
I00
S'\xff\x89\xb3T\xff_\xa6?'
p21
tp22
bg2
(g3
(I0
tp23
g5
tp24
Rp25
(I1
(I1
I1
tp26
g12
I00
S'Vx\xdd\xe5\xf3\xa6\xc4\xbf'
p27
tp28
btp29
sS'actual_rot'
p30
(F1.0106787665160977
F-7.0517327148800755
F-169.03357246995745
tp31
sS'target_pos'
p32
(lp33
cnumpy.core.multiarray
scalar
p34
(g12
S'\xc2\x96G\xa3xd\x8e?'
p35
tp36
Rp37
ag34
(g12
S'\xfd\xc2\x07q\x88,\xa6?'
p38
tp39
Rp40
ag34
(g12
S'\xec|\xdf\x1c\xfe\xac\xc4\xbf'
p41
tp42
Rp43
asS'target_rot'
p44
g2
(cnumpy
ndarray
p45
(I0
tp46
g5
tp47
Rp48
(I1
(I3
tp49
g12
I00
S'~\x98\t\xee@\xf3\xc4\xbf>\x9eN\x87\x0f"\'\xc0\xf0\x89\xf5\xf2\xb9\x1fe\xc0'
p50
tp51
bsS'center_target_pixels'
p52
(I1318
I487
tp53
sS'center_actual_pixels'
p54
(I1324
I484
tp55
s.(dp0
S'actual_pos'
p1
(cnumpy.core.multiarray
_reconstruct
p2
(cnumpy.matrixlib.defmatrix
matrix
p3
(I0
tp4
S'b'
p5
tp6
Rp7
(I1
(I1
I1
tp8
cnumpy
dtype
p9
(S'f8'
p10
I0
I1
tp11
Rp12
(I3
S'<'
p13
NNNI-1
I-1
I0
tp14
bI00
S',\xc5\x10i\xc1,\xb1?'
p15
tp16
bg2
(g3
(I0
tp17
g5
tp18
Rp19
(I1
(I1
I1
tp20
g12
I00
S'\x84u\xa6\x8d\x93\xd5\xac?'
p21
tp22
bg2
(g3
(I0
tp23
g5
tp24
Rp25
(I1
(I1
I1
tp26
g12
I00
S'\xc9q\x92\x15\x00m\xc5\xbf'
p27
tp28
btp29
sS'actual_rot'
p30
(F-1.7838202980120623
F-16.352012238920636
F-164.05026105806027
tp31
sS'target_pos'
p32
(lp33
cnumpy.core.multiarray
scalar
p34
(g12
S'\x1a\xf7\xe3\xc9\xda,\xb1?'
p35
tp36
Rp37
ag34
(g12
S'<\\\xeb<\xb5\xad\xac?'
p38
tp39
Rp40
ag34
(g12
S'`\xb5\xd1\x14"}\xc5\xbf'
p41
tp42
Rp43
asS'target_rot'
p44
g2
(cnumpy
ndarray
p45
(I0
tp46
g5
tp47
Rp48
(I1
(I3
tp49
g12
I00
S'~\x98\t\xee@\xf3\xc4\xbf>\x9eN\x87\x0f"\'\xc0\xf0\x89\xf5\xf2\xb9\x1fe\xc0'
p50
tp51
bsS'center_target_pixels'
p52
(I690
I540
tp53
sS'center_actual_pixels'
p54
(I693
I543
tp55
s.(dp0
S'actual_pos'
p1
(cnumpy.core.multiarray
_reconstruct
p2
(cnumpy.matrixlib.defmatrix
matrix
p3
(I0
tp4
S'b'
p5
tp6
Rp7
(I1
(I1
I1
tp8
cnumpy
dtype
p9
(S'f8'
p10
I0
I1
tp11
Rp12
(I3
S'<'
p13
NNNI-1
I-1
I0
tp14
bI00
S'#N5\x8eG{\xaa?'
p15
tp16
bg2
(g3
(I0
tp17
g5
tp18
Rp19
(I1
(I1
I1
tp20
g12
I00
S'l\xcb\x87\xd73\x1a\xac?'
p21
tp22
bg2
(g3
(I0
tp23
g5
tp24
Rp25
(I1
(I1
I1
tp26
g12
I00
S'\x89i\xb9x25\xc5\xbf'
p27
tp28
btp29
sS'actual_rot'
p30
(F-0.8896513223016234
F-13.644130313871626
F-165.29195919257145
tp31
sS'target_pos'
p32
(lp33
cnumpy.core.multiarray
scalar
p34
(g12
S']\x9e0\xc2,\xa9\xaa?'
p35
tp36
Rp37
ag34
(g12
S'\xb3\xa3\x0f\x98\x91\xf5\xab?'
p38
tp39
Rp40
ag34
(g12
S'\xef\x9d\xb0\xe4dB\xc5\xbf'
p41
tp42
Rp43
asS'target_rot'
p44
g2
(cnumpy
ndarray
p45
(I0
tp46
g5
tp47
Rp48
(I1
(I3
tp49
g12
I00
S'~\x98\t\xee@\xf3\xc4\xbf>\x9eN\x87\x0f"\'\xc0\xf0\x89\xf5\xf2\xb9\x1fe\xc0'
p50
tp51
bsS'center_target_pixels'
p52
(I870
I550
tp53
sS'center_actual_pixels'
p54
(I874
I553
tp55
s.(dp0
S'actual_pos'
p1
(cnumpy.core.multiarray
_reconstruct
p2
(cnumpy.matrixlib.defmatrix
matrix
p3
(I0
tp4
S'b'
p5
tp6
Rp7
(I1
(I1
I1
tp8
cnumpy
dtype
p9
(S'f8'
p10
I0
I1
tp11
Rp12
(I3
S'<'
p13
NNNI-1
I-1
I0
tp14
bI00
S'\xf1\xb6\x16_$\x88\xa2?'
p15
tp16
bg2
(g3
(I0
tp17
g5
tp18
Rp19
(I1
(I1
I1
tp20
g12
I00
S'\xad\x83I+!|\xab?'
p21
tp22
bg2
(g3
(I0
tp23
g5
tp24
Rp25
(I1
(I1
I1
tp26
g12
I00
S'\xca\x89l\x0c\x80\xfc\xc4\xbf'
p27
tp28
btp29
sS'actual_rot'
p30
(F0.08933759100527197
F-10.583074566117249
F-166.48971620751098
tp31
sS'target_pos'
p32
(lp33
cnumpy.core.multiarray
scalar
p34
(g12
S'e\xa2\xff^2\xf5\xa2?'
p35
tp36
Rp37
ag34
(g12
S'B\xd2`,\nZ\xab?'
p38
tp39
Rp40
ag34
(g12
S'\xea\x92Y\x93<\x07\xc5\xbf'
p41
tp42
Rp43
asS'target_rot'
p44
g2
(cnumpy
ndarray
p45
(I0
tp46
g5
tp47
Rp48
(I1
(I3
tp49
g12
I00
S'~\x98\t\xee@\xf3\xc4\xbf>\x9eN\x87\x0f"\'\xc0\xf0\x89\xf5\xf2\xb9\x1fe\xc0'
p50
tp51
bsS'center_target_pixels'
p52
(I1047
I560
tp53
sS'center_actual_pixels'
p54
(I1056
I569
tp55
s.(dp0
S'actual_pos'
p1
(cnumpy.core.multiarray
_reconstruct
p2
(cnumpy.matrixlib.defmatrix
matrix
p3
(I0
tp4
S'b'
p5
tp6
Rp7
(I1
(I1
I1
tp8
cnumpy
dtype
p9
(S'f8'
p10
I0
I1
tp11
Rp12
(I3
S'<'
p13
NNNI-1
I-1
I0
tp14
bI00
S'\xd5>1\x96\xe9P\x95?'
p15
tp16
bg2
(g3
(I0
tp17
g5
tp18
Rp19
(I1
(I1
I1
tp20
g12
I00
S'\\\x94\x93\x9b\x94\xba\xaa?'
p21
tp22
bg2
(g3
(I0
tp23
g5
tp24
Rp25
(I1
(I1
I1
tp26
g12
I00
S'5\xc9\xd7%Y\xc4\xc4\xbf'
p27
tp28
btp29
sS'actual_rot'
p30
(F0.9248069367991123
F-8.015389563292437
F-168.36815430862882
tp31
sS'target_pos'
p32
(lp33
cnumpy.core.multiarray
scalar
p34
(g12
S'\x08M\xb8\x18Qd\x96?'
p35
tp36
Rp37
ag34
(g12
S'q\xcf\x91JL\x94\xaa?'
p38
tp39
Rp40
ag34
(g12
S"\xf7\x03'\x87\xac\xca\xc4\xbf"
p41
tp42
Rp43
asS'target_rot'
p44
g2
(cnumpy
ndarray
p45
(I0
tp46
g5
tp47
Rp48
(I1
(I3
tp49
g12
I00
S'~\x98\t\xee@\xf3\xc4\xbf>\x9eN\x87\x0f"\'\xc0\xf0\x89\xf5\xf2\xb9\x1fe\xc0'
p50
tp51
bsS'center_target_pixels'
p52
(I1224
I570
tp53
sS'center_actual_pixels'
p54
(I1229
I573
tp55
s.(dp0
S'actual_pos'
p1
(cnumpy.core.multiarray
_reconstruct
p2
(cnumpy.matrixlib.defmatrix
matrix
p3
(I0
tp4
S'b'
p5
tp6
Rp7
(I1
(I1
I1
tp8
cnumpy
dtype
p9
(S'f8'
p10
I0
I1
tp11
Rp12
(I3
S'<'
p13
NNNI-1
I-1
I0
tp14
bI00
S'3\x8a\\\x00@,u?'
p15
tp16
bg2
(g3
(I0
tp17
g5
tp18
Rp19
(I1
(I1
I1
tp20
g12
I00
S'\xa8-N\x13X!\xaa?'
p21
tp22
bg2
(g3
(I0
tp23
g5
tp24
Rp25
(I1
(I1
I1
tp26
g12
I00
S'w\x94\x86\x81\x1f\x87\xc4\xbf'
p27
tp28
btp29
sS'actual_rot'
p30
(F1.4268318723420534
F-6.448324563617097
F-169.12370891789405
tp31
sS'target_pos'
p32
(lp33
cnumpy.core.multiarray
scalar
p34
(g12
S',\xcd\xbe\xa4Y`z?'
p35
tp36
Rp37
ag34
(g12
S'4\xf3\xe3\xfc\xf1\xff\xa9?'
p38
tp39
Rp40
ag34
(g12
S'\xec\xa4pU\x08\x8d\xc4\xbf'
p41
tp42
Rp43
asS'target_rot'
p44
g2
(cnumpy
ndarray
p45
(I0
tp46
g5
tp47
Rp48
(I1
(I3
tp49
g12
I00
S'~\x98\t\xee@\xf3\xc4\xbf>\x9eN\x87\x0f"\'\xc0\xf0\x89\xf5\xf2\xb9\x1fe\xc0'
p50
tp51
bsS'center_target_pixels'
p52
(I1400
I580
tp53
sS'center_actual_pixels'
p54
(I1406
I580
tp55
s.(dp0
S'actual_pos'
p1
(cnumpy.core.multiarray
_reconstruct
p2
(cnumpy.matrixlib.defmatrix
matrix
p3
(I0
tp4
S'b'
p5
tp6
Rp7
(I1
(I1
I1
tp8
cnumpy
dtype
p9
(S'f8'
p10
I0
I1
tp11
Rp12
(I3
S'<'
p13
NNNI-1
I-1
I0
tp14
bI00
S'\xc7\xa3O\x82\x95+\xae?'
p15
tp16
bg2
(g3
(I0
tp17
g5
tp18
Rp19
(I1
(I1
I1
tp20
g12
I00
S'po#A\xb04\xb0?'
p21
tp22
bg2
(g3
(I0
tp23
g5
tp24
Rp25
(I1
(I1
I1
tp26
g12
I00
S'\xb34\xad\xddrP\xc5\xbf'
p27
tp28
btp29
sS'actual_rot'
p30
(F-2.0106828590292425
F-16.30726199712615
F-163.92551403600294
tp31
sS'target_pos'
p32
(lp33
cnumpy.core.multiarray
scalar
p34
(g12
S'\xbf\xfc\xbdA<%\xae?'
p35
tp36
Rp37
ag34
(g12
S'A\xc8\x89\x9b\x94(\xb0?'
p38
tp39
Rp40
ag34
(g12
S'\xb6\xdc\x9c\xc0\xe9]\xc5\xbf'
p41
tp42
Rp43
asS'target_rot'
p44
g2
(cnumpy
ndarray
p45
(I0
tp46
g5
tp47
Rp48
(I1
(I3
tp49
g12
I00
S'~\x98\t\xee@\xf3\xc4\xbf>\x9eN\x87\x0f"\'\xc0\xf0\x89\xf5\xf2\xb9\x1fe\xc0'
p50
tp51
bsS'center_target_pixels'
p52
(I775
I634
tp53
sS'center_actual_pixels'
p54
(I776
I634
tp55
s.(dp0
S'actual_pos'
p1
(cnumpy.core.multiarray
_reconstruct
p2
(cnumpy.matrixlib.defmatrix
matrix
p3
(I0
tp4
S'b'
p5
tp6
Rp7
(I1
(I1
I1
tp8
cnumpy
dtype
p9
(S'f8'
p10
I0
I1
tp11
Rp12
(I3
S'<'
p13
NNNI-1
I-1
I0
tp14
bI00
S'z\xe8\xfd\xbb\x16K\xa6?'
p15
tp16
bg2
(g3
(I0
tp17
g5
tp18
Rp19
(I1
(I1
I1
tp20
g12
I00
S'J\x19\x17&Q\xc8\xaf?'
p21
tp22
bg2
(g3
(I0
tp23
g5
tp24
Rp25
(I1
(I1
I1
tp26
g12
I00
S'\xdd5\xee \x1f\x17\xc5\xbf'
p27
tp28
btp29
sS'actual_rot'
p30
(F-0.8910717916298837
F-13.313923870267459
F-164.95215844184452
tp31
sS'target_pos'
p32
(lp33
cnumpy.core.multiarray
scalar
p34
(g12
S'&[\xa9\xe6\xc6}\xa6?'
p35
tp36
Rp37
ag34
(g12
S'm\xbaQa\x94\xac\xaf?'
p38
tp39
Rp40
ag34
(g12
S'H\x1c8\xdc\xfd"\xc5\xbf'
p41
tp42
Rp43
asS'target_rot'
p44
g2
(cnumpy
ndarray
p45
(I0
tp46
g5
tp47
Rp48
(I1
(I3
tp49
g12
I00
S'~\x98\t\xee@\xf3\xc4\xbf>\x9eN\x87\x0f"\'\xc0\xf0\x89\xf5\xf2\xb9\x1fe\xc0'
p50
tp51
bsS'center_target_pixels'
p52
(I954
I644
tp53
sS'center_actual_pixels'
p54
(I956
I647
tp55
s.(dp0
S'actual_pos'
p1
(cnumpy.core.multiarray
_reconstruct
p2
(cnumpy.matrixlib.defmatrix
matrix
p3
(I0
tp4
S'b'
p5
tp6
Rp7
(I1
(I1
I1
tp8
cnumpy
dtype
p9
(S'f8'
p10
I0
I1
tp11
Rp12
(I3
S'<'
p13
NNNI-1
I-1
I0
tp14
bI00
S's\xed\x0c\xf1Y\xca\x9c?'
p15
tp16
bg2
(g3
(I0
tp17
g5
tp18
Rp19
(I1
(I1
I1
tp20
g12
I00
S'7_z\xbb.-\xaf?'
p21
tp22
bg2
(g3
(I0
tp23
g5
tp24
Rp25
(I1
(I1
I1
tp26
g12
I00
S'\x03g\xb1\x1a\xc8\xdc\xc4\xbf'
p27
tp28
btp29
sS'actual_rot'
p30
(F0.16242235954362882
F-10.534583734077636
F-166.22439603995352
tp31
sS'target_pos'
p32
(lp33
cnumpy.core.multiarray
scalar
p34
(g12
S'\xc4\xfb\xb7\xf1\r\x88\x9d?'
p35
tp36
Rp37
ag34
(g12
S'1]\xb4\x13\xf4\x0e\xaf?'
p38
tp39
Rp40
ag34
(g12
S'\x80\r\xae\xb4\xb3\xe7\xc4\xbf'
p41
tp42
Rp43
asS'target_rot'
p44
g2
(cnumpy
ndarray
p45
(I0
tp46
g5
tp47
Rp48
(I1
(I3
tp49
g12
I00
S'~\x98\t\xee@\xf3\xc4\xbf>\x9eN\x87\x0f"\'\xc0\xf0\x89\xf5\xf2\xb9\x1fe\xc0'
p50
tp51
bsS'center_target_pixels'
p52
(I1130
I653
tp53
sS'center_actual_pixels'
p54
(I1134
I657
tp55
s.(dp0
S'actual_pos'
p1
(cnumpy.core.multiarray
_reconstruct
p2
(cnumpy.matrixlib.defmatrix
matrix
p3
(I0
tp4
S'b'
p5
tp6
Rp7
(I1
(I1
I1
tp8
cnumpy
dtype
p9
(S'f8'
p10
I0
I1
tp11
Rp12
(I3
S'<'
p13
NNNI-1
I-1
I0
tp14
bI00
S'\xb8*\x10T6f\x89?'
p15
tp16
bg2
(g3
(I0
tp17
g5
tp18
Rp19
(I1
(I1
I1
tp20
g12
I00
S'\x10\xc7\xef\x80\xa0\x9b\xae?'
p21
tp22
bg2
(g3
(I0
tp23
g5
tp24
Rp25
(I1
(I1
I1
tp26
g12
I00
S'\xca\xc0\xcf`\xc1\xa4\xc4\xbf'
p27
tp28
btp29
sS'actual_rot'
p30
(F1.0082280274278963
F-8.253170947949812
F-168.04394217804818
tp31
sS'target_pos'
p32
(lp33
cnumpy.core.multiarray
scalar
p34
(g12
S'E\xcd\xcdY_l\x8b?'
p35
tp36
Rp37
ag34
(g12
S'\xb8TJ\xf9\x1c}\xae?'
p38
tp39
Rp40
ag34
(g12
S'V\x98\xff\xdc\x9f\xaa\xc4\xbf'
p41
tp42
Rp43
asS'target_rot'
p44
g2
(cnumpy
ndarray
p45
(I0
tp46
g5
tp47
Rp48
(I1
(I3
tp49
g12
I00
S'~\x98\t\xee@\xf3\xc4\xbf>\x9eN\x87\x0f"\'\xc0\xf0\x89\xf5\xf2\xb9\x1fe\xc0'
p50
tp51
bsS'center_target_pixels'
p52
(I1307
I663
tp53
sS'center_actual_pixels'
p54
(I1311
I667
tp55
s.(dp0
S'actual_pos'
p1
(cnumpy.core.multiarray
_reconstruct
p2
(cnumpy.matrixlib.defmatrix
matrix
p3
(I0
tp4
S'b'
p5
tp6
Rp7
(I1
(I1
I1
tp8
cnumpy
dtype
p9
(S'f8'
p10
I0
I1
tp11
Rp12
(I3
S'<'
p13
NNNI-1
I-1
I0
tp14
bI00
S'\x98I\xda\x95\xb0\xef\xb0?'
p15
tp16
bg2
(g3
(I0
tp17
g5
tp18
Rp19
(I1
(I1
I1
tp20
g12
I00
S'7c\x89g\x84i\xb2?'
p21
tp22
bg2
(g3
(I0
tp23
g5
tp24
Rp25
(I1
(I1
I1
tp26
g12
I00
S'4`\xcf@\xd9g\xc5\xbf'
p27
tp28
btp29
sS'actual_rot'
p30
(F-2.297162790472053
F-16.440554171679224
F-163.20770894474788
tp31
sS'target_pos'
p32
(lp33
cnumpy.core.multiarray
scalar
p34
(g12
S'E\x08z\xc9\x86\xeb\xb0?'
p35
tp36
Rp37
ag34
(g12
S'\x85\xb5\xa9*\xe3\\\xb2?'
p38
tp39
Rp40
ag34
(g12
S'\x97\xdaQ\x0b\xc9x\xc5\xbf'
p41
tp42
Rp43
asS'target_rot'
p44
g2
(cnumpy
ndarray
p45
(I0
tp46
g5
tp47
Rp48
(I1
(I3
tp49
g12
I00
S'~\x98\t\xee@\xf3\xc4\xbf>\x9eN\x87\x0f"\'\xc0\xf0\x89\xf5\xf2\xb9\x1fe\xc0'
p50
tp51
bsS'center_target_pixels'
p52
(I680
I718
tp53
sS'center_actual_pixels'
p54
(I682
I715
tp55
s.(dp0
S'actual_pos'
p1
(cnumpy.core.multiarray
_reconstruct
p2
(cnumpy.matrixlib.defmatrix
matrix
p3
(I0
tp4
S'b'
p5
tp6
Rp7
(I1
(I1
I1
tp8
cnumpy
dtype
p9
(S'f8'
p10
I0
I1
tp11
Rp12
(I3
S'<'
p13
NNNI-1
I-1
I0
tp14
bI00
S'\x8d\x0c\xf9\xa0\xd3\xf8\xa9?'
p15
tp16
bg2
(g3
(I0
tp17
g5
tp18
Rp19
(I1
(I1
I1
tp20
g12
I00
S'}\xaa\xfc\xd4\xd7\n\xb2?'
p21
tp22
bg2
(g3
(I0
tp23
g5
tp24
Rp25
(I1
(I1
I1
tp26
g12
I00
S'\xc7v\x1d \xa71\xc5\xbf'
p27
tp28
btp29
sS'actual_rot'
p30
(F-1.1913087726376883
F-13.864536242306034
F-164.22214653445403
tp31
sS'target_pos'
p32
(lp33
cnumpy.core.multiarray
scalar
p34
(g12
S'\x9d\x06V*\xc7#\xaa?'
p35
tp36
Rp37
ag34
(g12
S'w\xb9\x97\xe4~\xff\xb1?'
p38
tp39
Rp40
ag34
(g12
S'\x07\x1c\xb7l\xc3>\xc5\xbf'
p41
tp42
Rp43
asS'target_rot'
p44
g2
(cnumpy
ndarray
p45
(I0
tp46
g5
tp47
Rp48
(I1
(I3
tp49
g12
I00
S'~\x98\t\xee@\xf3\xc4\xbf>\x9eN\x87\x0f"\'\xc0\xf0\x89\xf5\xf2\xb9\x1fe\xc0'
p50
tp51
bsS'center_target_pixels'
p52
(I859
I728
tp53
sS'center_actual_pixels'
p54
(I864
I727
tp55
s.(dp0
S'actual_pos'
p1
(cnumpy.core.multiarray
_reconstruct
p2
(cnumpy.matrixlib.defmatrix
matrix
p3
(I0
tp4
S'b'
p5
tp6
Rp7
(I1
(I1
I1
tp8
cnumpy
dtype
p9
(S'f8'
p10
I0
I1
tp11
Rp12
(I3
S'<'
p13
NNNI-1
I-1
I0
tp14
bI00
S'\x8d\x17\x87\x10\x85\x08\xa2?'
p15
tp16
bg2
(g3
(I0
tp17
g5
tp18
Rp19
(I1
(I1
I1
tp20
g12
I00
S' JI \x98\xb4\xb1?'
p21
tp22
bg2
(g3
(I0
tp23
g5
tp24
Rp25
(I1
(I1
I1
tp26
g12
I00
S'\xd9k\x06\xf0(\xf8\xc4\xbf'
p27
tp28
btp29
sS'actual_rot'
p30
(F-0.17935128885125026
F-11.369408636234004
F-164.86456146332893
tp31
sS'target_pos'
p32
(lp33
cnumpy.core.multiarray
scalar
p34
(g12
S'T\x8e\x18\xac\xee_\xa2?'
p35
tp36
Rp37
ag34
(g12
S'\xbf\xd0>\xfe\x8c\xaa\xb1?'
p38
tp39
Rp40
ag34
(g12
S'\xfe\xbf\xce\t\xb5\x03\xc5\xbf'
p41
tp42
Rp43
asS'target_rot'
p44
g2
(cnumpy
ndarray
p45
(I0
tp46
g5
tp47
Rp48
(I1
(I3
tp49
g12
I00
S'~\x98\t\xee@\xf3\xc4\xbf>\x9eN\x87\x0f"\'\xc0\xf0\x89\xf5\xf2\xb9\x1fe\xc0'
p50
tp51
bsS'center_target_pixels'
p52
(I1037
I737
tp53
sS'center_actual_pixels'
p54
(I1041
I740
tp55
s.(dp0
S'actual_pos'
p1
(cnumpy.core.multiarray
_reconstruct
p2
(cnumpy.matrixlib.defmatrix
matrix
p3
(I0
tp4
S'b'
p5
tp6
Rp7
(I1
(I1
I1
tp8
cnumpy
dtype
p9
(S'f8'
p10
I0
I1
tp11
Rp12
(I3
S'<'
p13
NNNI-1
I-1
I0
tp14
bI00
S'x\xf1\xe3\x1b\xcc6\x94?'
p15
tp16
bg2
(g3
(I0
tp17
g5
tp18
Rp19
(I1
(I1
I1
tp20
g12
I00
S"\x11!'b\x1ah\xb1?"
p21
tp22
bg2
(g3
(I0
tp23
g5
tp24
Rp25
(I1
(I1
I1
tp26
g12
I00
S'\xb8A\x08\x07m\xc0\xc4\xbf'
p27
tp28
btp29
sS'actual_rot'
p30
(F0.6530254249007111
F-9.430662884024882
F-166.4633017515672
tp31
sS'target_pos'
p32
(lp33
cnumpy.core.multiarray
scalar
p34
(g12
S'\xbd\xec!\xeb\x84\x00\x95?'
p35
tp36
Rp37
ag34
(g12
S'+-\xf2\xad\xc4Y\xb1?'
p38
tp39
Rp40
ag34
(g12
S'9;8\xf7\x91\xc7\xc4\xbf'
p41
tp42
Rp43
asS'target_rot'
p44
g2
(cnumpy
ndarray
p45
(I0
tp46
g5
tp47
Rp48
(I1
(I3
tp49
g12
I00
S'~\x98\t\xee@\xf3\xc4\xbf>\x9eN\x87\x0f"\'\xc0\xf0\x89\xf5\xf2\xb9\x1fe\xc0'
p50
tp51
bsS'center_target_pixels'
p52
(I1214
I746
tp53
sS'center_actual_pixels'
p54
(I1220
I753
tp55
s.(dp0
S'actual_pos'
p1
(cnumpy.core.multiarray
_reconstruct
p2
(cnumpy.matrixlib.defmatrix
matrix
p3
(I0
tp4
S'b'
p5
tp6
Rp7
(I1
(I1
I1
tp8
cnumpy
dtype
p9
(S'f8'
p10
I0
I1
tp11
Rp12
(I3
S'<'
p13
NNNI-1
I-1
I0
tp14
bI00
S'\xc47\xb8\x89\x9a\x84p?'
p15
tp16
bg2
(g3
(I0
tp17
g5
tp18
Rp19
(I1
(I1
I1
tp20
g12
I00
S'f\x86\x96\xcb\xa9\x1a\xb1?'
p21
tp22
bg2
(g3
(I0
tp23
g5
tp24
Rp25
(I1
(I1
I1
tp26
g12
I00
S'@.\xc1\xe5\xf8\x82\xc4\xbf'
p27
tp28
btp29
sS'actual_rot'
p30
(F1.432167311040045
F-7.655796476603652
F-168.3560381615322
tp31
sS'target_pos'
p32
(lp33
cnumpy.core.multiarray
scalar
p34
(g12
S'\xa0\x1d\xbeV7\xc6t?'
p35
tp36
Rp37
ag34
(g12
S'q\xc2\xc1\x0f\xde\x11\xb1?'
p38
tp39
Rp40
ag34
(g12
S"\xf18'\xa8Y\x8a\xc4\xbf"
p41
tp42
Rp43
asS'target_rot'
p44
g2
(cnumpy
ndarray
p45
(I0
tp46
g5
tp47
Rp48
(I1
(I3
tp49
g12
I00
S'~\x98\t\xee@\xf3\xc4\xbf>\x9eN\x87\x0f"\'\xc0\xf0\x89\xf5\xf2\xb9\x1fe\xc0'
p50
tp51
bsS'center_target_pixels'
p52
(I1390
I755
tp53
sS'center_actual_pixels'
p54
(I1395
I755
tp55
s.