(dp0
S'actual_pos'
p1
(lp2
F0.07251418118294654
aF0.020755234626971493
aF-0.17017392165305262
asS'actual_rot'
p3
(lp4
F-0.3653176753246606
aF1.3824267790641849
aF-166.91633618488493
asS'target_pos'
p5
cnumpy.core.multiarray
_reconstruct
p6
(cnumpy
ndarray
p7
(I0
tp8
S'b'
p9
tp10
Rp11
(I1
(I3
tp12
cnumpy
dtype
p13
(S'f8'
p14
I0
I1
tp15
Rp16
(I3
S'<'
p17
NNNI-1
I-1
I0
tp18
bI00
S'\x80A\xe7k\xfe\x9e\xb2?9J\xb7\x02\xf3\x8f\x94?\x0f{\x86\xf4J\xd5\xc5\xbf'
p19
tp20
bsS'target_rot'
p21
g6
(g7
(I0
tp22
g9
tp23
Rp24
(I1
(I3
tp25
g16
I00
S'\x00\x00\x00\x00\x00\x00\x00\x00\x00\x00\x00\x00\x00\x00\x14@\x00\x00\x00\x00\x00\xf0d\xc0'
p26
tp27
bsS'center_target_pixels'
p28
(I712
I118
tp29
sS'center_actual_pixels'
p30
(I713
I123
tp31
s.(dp0
S'actual_pos'
p1
(lp2
F0.055934278461510306
aF0.019943545444359976
aF-0.16757165722537334
asS'actual_rot'
p3
(lp4
F-0.10671736966502898
aF3.697667575735279
aF-168.70583998361963
asS'target_pos'
p5
cnumpy.core.multiarray
_reconstruct
p6
(cnumpy
ndarray
p7
(I0
tp8
S'b'
p9
tp10
Rp11
(I1
(I3
tp12
cnumpy
dtype
p13
(S'f8'
p14
I0
I1
tp15
Rp16
(I3
S'<'
p17
NNNI-1
I-1
I0
tp18
bI00
S'\x97\xbd:8\xca\xe9\xac?\x04\x9e\xb8\xf8\x0e\xe8\x93?B?R\xce\xcey\xc5\xbf'
p19
tp20
bsS'target_rot'
p21
g6
(g7
(I0
tp22
g9
tp23
Rp24
(I1
(I3
tp25
g16
I00
S'\x00\x00\x00\x00\x00\x00\x00\x00\x00\x00\x00\x00\x00\x00\x14@\x00\x00\x00\x00\x00\xf0d\xc0'
p26
tp27
bsS'center_target_pixels'
p28
(I892
I136
tp29
sS'center_actual_pixels'
p30
(I900
I123
tp31
s.(dp0
S'actual_pos'
p1
(lp2
F0.04003591939175663
aF0.01890153110751163
aF-0.16618536903314246
asS'actual_rot'
p3
(lp4
F0.06134123823321918
aF5.308186925572619
aF-170.82155353964976
asS'target_pos'
p5
cnumpy.core.multiarray
_reconstruct
p6
(cnumpy
ndarray
p7
(I0
tp8
S'b'
p9
tp10
Rp11
(I1
(I3
tp12
cnumpy
dtype
p13
(S'f8'
p14
I0
I1
tp15
Rp16
(I3
S'<'
p17
NNNI-1
I-1
I0
tp18
bI00
S'\xd1\xb9g\xe1\xde\xce\xa4?\xc4w\x8a\xdaS\xf6\x92?\xdf\x80G\xfa\xebM\xc5\xbf'
p19
tp20
bsS'target_rot'
p21
g6
(g7
(I0
tp22
g9
tp23
Rp24
(I1
(I3
tp25
g16
I00
S'\x00\x00\x00\x00\x00\x00\x00\x00\x00\x00\x00\x00\x00\x00\x14@\x00\x00\x00\x00\x00\xf0d\xc0'
p26
tp27
bsS'center_target_pixels'
p28
(I1070
I153
tp29
sS'center_actual_pixels'
p30
(I1075
I145
tp31
s.(dp0
S'actual_pos'
p1
(lp2
F0.026387053898827312
aF0.017792674829338335
aF-0.16399426777601075
asS'actual_rot'
p3
(lp4
F0.07728783438697232
aF5.550840163525547
aF-171.68376600858412
asS'target_pos'
p5
cnumpy.core.multiarray
_reconstruct
p6
(cnumpy
ndarray
p7
(I0
tp8
S'b'
p9
tp10
Rp11
(I1
(I3
tp12
cnumpy
dtype
p13
(S'f8'
p14
I0
I1
tp15
Rp16
(I3
S'<'
p17
NNNI-1
I-1
I0
tp18
bI00
S'\xc5\x15U\xe4,\x96\x9b?\x00\x17\xeb\xd5\x0c\xda\x91?8\xd6\xc2\xd2A\x05\xc5\xbf'
p19
tp20
bsS'target_rot'
p21
g6
(g7
(I0
tp22
g9
tp23
Rp24
(I1
(I3
tp25
g16
I00
S'\x00\x00\x00\x00\x00\x00\x00\x00\x00\x00\x00\x00\x00\x00\x14@\x00\x00\x00\x00\x00\xf0d\xc0'
p26
tp27
bsS'center_target_pixels'
p28
(I1247
I169
tp29
sS'center_actual_pixels'
p30
(I1230
I150
tp31
s.(dp0
S'actual_pos'
p1
(lp2
F0.06481970101149732
aF0.027787736112535086
aF-0.1686337211504148
asS'actual_rot'
p3
(lp4
F-0.8467780728163833
aF-0.13520616143973324
aF-165.3608462648343
asS'target_pos'
p5
cnumpy.core.multiarray
_reconstruct
p6
(cnumpy
ndarray
p7
(I0
tp8
S'b'
p9
tp10
Rp11
(I1
(I3
tp12
cnumpy
dtype
p13
(S'f8'
p14
I0
I1
tp15
Rp16
(I3
S'<'
p17
NNNI-1
I-1
I0
tp18
bI00
S'Z\xb8\xa2\xef\x81\x92\xb0?\xb69\x9b@\x0f\x1a\x9c?\xa4\x9f\x86F"\x9b\xc5\xbf'
p19
tp20
bsS'target_rot'
p21
g6
(g7
(I0
tp22
g9
tp23
Rp24
(I1
(I3
tp25
g16
I00
S'\x00\x00\x00\x00\x00\x00\x00\x00\x00\x00\x00\x00\x00\x00\x14@\x00\x00\x00\x00\x00\xf0d\xc0'
p26
tp27
bsS'center_target_pixels'
p28
(I794
I216
tp29
sS'center_actual_pixels'
p30
(I786
I205
tp31
s.(dp0
S'actual_pos'
p1
(lp2
F0.04685491751101318
aF0.027454835522673877
aF-0.16646233631051977
asS'actual_rot'
p3
(lp4
F-0.3894621465104607
aF2.616686330841815
aF-167.31778400889846
asS'target_pos'
p5
cnumpy.core.multiarray
_reconstruct
p6
(cnumpy
ndarray
p7
(I0
tp8
S'b'
p9
tp10
Rp11
(I1
(I3
tp12
cnumpy
dtype
p13
(S'f8'
p14
I0
I1
tp15
Rp16
(I3
S'<'
p17
NNNI-1
I-1
I0
tp18
bI00
S'\xeb\x02\xa1\xfb\x93$\xa8?\xabl-}F\xcc\x9b?\xdf\xa2T\x96cT\xc5\xbf'
p19
tp20
bsS'target_rot'
p21
g6
(g7
(I0
tp22
g9
tp23
Rp24
(I1
(I3
tp25
g16
I00
S'\x00\x00\x00\x00\x00\x00\x00\x00\x00\x00\x00\x00\x00\x00\x14@\x00\x00\x00\x00\x00\xf0d\xc0'
p26
tp27
bsS'center_target_pixels'
p28
(I973
I233
tp29
sS'center_actual_pixels'
p30
(I992
I232
tp31
s.(dp0
S'actual_pos'
p1
(lp2
F0.031931239889307746
aF0.026496901139004186
aF-0.1651376454593134
asS'actual_rot'
p3
(lp4
F-0.05784688560067737
aF4.640453851820358
aF-169.33325674498516
asS'target_pos'
p5
cnumpy.core.multiarray
_reconstruct
p6
(cnumpy
ndarray
p7
(I0
tp8
S'b'
p9
tp10
Rp11
(I1
(I3
tp12
cnumpy
dtype
p13
(S'f8'
p14
I0
I1
tp15
Rp16
(I3
S'<'
p17
NNNI-1
I-1
I0
tp18
bI00
S'{\xf1\xea\xec\xd8\x9f\xa0?S\xe2\x00\x85\xd2\xd1\x9a?\xb5\xa5\xe4Vd*\xc5\xbf'
p19
tp20
bsS'target_rot'
p21
g6
(g7
(I0
tp22
g9
tp23
Rp24
(I1
(I3
tp25
g16
I00
S'\x00\x00\x00\x00\x00\x00\x00\x00\x00\x00\x00\x00\x00\x00\x14@\x00\x00\x00\x00\x00\xf0d\xc0'
p26
tp27
bsS'center_target_pixels'
p28
(I1151
I249
tp29
sS'center_actual_pixels'
p30
(I1153
I237
tp31
s.(dp0
S'actual_pos'
p1
(lp2
F0.016215469172845727
aF0.023996055084675765
aF-0.1634453315838279
asS'actual_rot'
p3
(lp4
F0.21906395059337058
aF6.521003076195068
aF-171.6344793686575
asS'target_pos'
p5
cnumpy.core.multiarray
_reconstruct
p6
(cnumpy
ndarray
p7
(I0
tp8
S'b'
p9
tp10
Rp11
(I1
(I3
tp12
cnumpy
dtype
p13
(S'f8'
p14
I0
I1
tp15
Rp16
(I3
S'<'
p17
NNNI-1
I-1
I0
tp18
bI00
S'\xb5_o\xfc\xf2;\x91?}\x03<\xff\x9dy\x98?\x0c0\x1e\xb7e\xf3\xc4\xbf'
p19
tp20
bsS'target_rot'
p21
g6
(g7
(I0
tp22
g9
tp23
Rp24
(I1
(I3
tp25
g16
I00
S'\x00\x00\x00\x00\x00\x00\x00\x00\x00\x00\x00\x00\x00\x00\x14@\x00\x00\x00\x00\x00\xf0d\xc0'
p26
tp27
bsS'center_target_pixels'
p28
(I1329
I265
tp29
sS'center_actual_pixels'
p30
(I1337
I239
tp31
s.(dp0
S'actual_pos'
p1
(lp2
F0.07278759668125478
aF0.0367840524332188
aF-0.16971419148248307
asS'actual_rot'
p3
(lp4
F-1.276860690211601
aF-0.8899052661011952
aF-164.09201361843648
asS'target_pos'
p5
cnumpy.core.multiarray
_reconstruct
p6
(cnumpy
ndarray
p7
(I0
tp8
S'b'
p9
tp10
Rp11
(I1
(I3
tp12
cnumpy
dtype
p13
(S'f8'
p14
I0
I1
tp15
Rp16
(I3
S'<'
p17
NNNI-1
I-1
I0
tp18
bI00
S':\xb2\x04@\x98\x95\xb2?{\x1f\x11\xf2\xeb\xa3\xa2?\xc1\x16\xd0\xeb"\xc3\xc5\xbf'
p19
tp20
bsS'target_rot'
p21
g6
(g7
(I0
tp22
g9
tp23
Rp24
(I1
(I3
tp25
g16
I00
S'\x00\x00\x00\x00\x00\x00\x00\x00\x00\x00\x00\x00\x00\x00\x14@\x00\x00\x00\x00\x00\xf0d\xc0'
p26
tp27
bsS'center_target_pixels'
p28
(I696
I297
tp29
sS'center_actual_pixels'
p30
(I680
I305
tp31
s.(dp0
S'actual_pos'
p1
(lp2
F0.05521066844298914
aF0.03574894384740098
aF-0.16795667012315746
asS'actual_rot'
p3
(lp4
F-0.7871168632580486
aF1.2345520640561134
aF-166.4060991464073
asS'target_pos'
p5
cnumpy.core.multiarray
_reconstruct
p6
(cnumpy
ndarray
p7
(I0
tp8
S'b'
p9
tp10
Rp11
(I1
(I3
tp12
cnumpy
dtype
p13
(S'f8'
p14
I0
I1
tp15
Rp16
(I3
S'<'
p17
NNNI-1
I-1
I0
tp18
bI00
S'\xa3N3\x96\xd2J\xac?l\x8e\xfd\x8bC\x14\xa2?j\x04hG\n\x8b\xc5\xbf'
p19
tp20
bsS'target_rot'
p21
g6
(g7
(I0
tp22
g9
tp23
Rp24
(I1
(I3
tp25
g16
I00
S'\x00\x00\x00\x00\x00\x00\x00\x00\x00\x00\x00\x00\x00\x00\x14@\x00\x00\x00\x00\x00\xf0d\xc0'
p26
tp27
bsS'center_target_pixels'
p28
(I876
I313
tp29
sS'center_actual_pixels'
p30
(I883
I321
tp31
s.(dp0
S'actual_pos'
p1
(lp2
F0.03956133025466891
aF0.03486423804831012
aF-0.16608703243327022
asS'actual_rot'
p3
(lp4
F-0.27847130142159277
aF3.7485226460123537
aF-168.0638667436666
asS'target_pos'
p5
cnumpy.core.multiarray
_reconstruct
p6
(cnumpy
ndarray
p7
(I0
tp8
S'b'
p9
tp10
Rp11
(I1
(I3
tp12
cnumpy
dtype
p13
(S'f8'
p14
I0
I1
tp15
Rp16
(I3
S'<'
p17
NNNI-1
I-1
I0
tp18
bI00
S'\xc8\xb5F\xbe\x95\x80\xa4?qE\xd2[\x0e\xa2\xa1?\xec\n\xfa\x08\xf1L\xc5\xbf'
p19
tp20
bsS'target_rot'
p21
g6
(g7
(I0
tp22
g9
tp23
Rp24
(I1
(I3
tp25
g16
I00
S'\x00\x00\x00\x00\x00\x00\x00\x00\x00\x00\x00\x00\x00\x00\x14@\x00\x00\x00\x00\x00\xf0d\xc0'
p26
tp27
bsS'center_target_pixels'
p28
(I1055
I330
tp29
sS'center_actual_pixels'
p30
(I1060
I323
tp31
s.(dp0
S'actual_pos'
p1
(lp2
F0.02451667406062586
aF0.03528537517604812
aF-0.16431238691367198
asS'actual_rot'
p3
(lp4
F0.046065684857109046
aF5.173735726638492
aF-169.99096674465525
asS'target_pos'
p5
cnumpy.core.multiarray
_reconstruct
p6
(cnumpy
ndarray
p7
(I0
tp8
S'b'
p9
tp10
Rp11
(I1
(I3
tp12
cnumpy
dtype
p13
(S'f8'
p14
I0
I1
tp15
Rp16
(I3
S'<'
p17
NNNI-1
I-1
I0
tp18
bI00
S'\xe1}\xbf\xe9\x01\xaa\x99?C\r\x06\xc3+\xd3\xa1?\x86n\x87\xca\x8d\x13\xc5\xbf'
p19
tp20
bsS'target_rot'
p21
g6
(g7
(I0
tp22
g9
tp23
Rp24
(I1
(I3
tp25
g16
I00
S'\x00\x00\x00\x00\x00\x00\x00\x00\x00\x00\x00\x00\x00\x00\x14@\x00\x00\x00\x00\x00\xf0d\xc0'
p26
tp27
bsS'center_target_pixels'
p28
(I1232
I345
tp29
sS'center_actual_pixels'
p30
(I1232
I352
tp31
s.(dp0
S'actual_pos'
p1
(lp2
F0.009480260378136738
aF0.03409622817603377
aF-0.16333471400149174
asS'actual_rot'
p3
(lp4
F0.5117478755066605
aF7.4733051366362035
aF-171.05903561954236
asS'target_pos'
p5
cnumpy.core.multiarray
_reconstruct
p6
(cnumpy
ndarray
p7
(I0
tp8
S'b'
p9
tp10
Rp11
(I1
(I3
tp12
cnumpy
dtype
p13
(S'f8'
p14
I0
I1
tp15
Rp16
(I3
S'<'
p17
NNNI-1
I-1
I0
tp18
bI00
S'>ax\x1eT\x17\x85?\x00\xd5\xcf>\x93J\xa1?\xc3\x952uF\xf4\xc4\xbf'
p19
tp20
bsS'target_rot'
p21
g6
(g7
(I0
tp22
g9
tp23
Rp24
(I1
(I3
tp25
g16
I00
S'\x00\x00\x00\x00\x00\x00\x00\x00\x00\x00\x00\x00\x00\x00\x14@\x00\x00\x00\x00\x00\xf0d\xc0'
p26
tp27
bsS'center_target_pixels'
p28
(I1409
I360
tp29
sS'center_actual_pixels'
p30
(I1397
I360
tp31
s.(dp0
S'actual_pos'
p1
(lp2
F0.06343306337889734
aF0.044142901212280476
aF-0.16889288240717987
asS'actual_rot'
p3
(lp4
F-1.4053665006476035
aF-0.4865902847044989
aF-164.13129324316523
asS'target_pos'
p5
cnumpy.core.multiarray
_reconstruct
p6
(cnumpy
ndarray
p7
(I0
tp8
S'b'
p9
tp10
Rp11
(I1
(I3
tp12
cnumpy
dtype
p13
(S'f8'
p14
I0
I1
tp15
Rp16
(I3
S'<'
p17
NNNI-1
I-1
I0
tp18
bI00
S'\xe6\xd2>\xe4=:\xb0?\xe2H|\xbb\xe6C\xa6?=\xff\xcdU8\xae\xc5\xbf'
p19
tp20
bsS'target_rot'
p21
g6
(g7
(I0
tp22
g9
tp23
Rp24
(I1
(I3
tp25
g16
I00
S'\x00\x00\x00\x00\x00\x00\x00\x00\x00\x00\x00\x00\x00\x00\x14@\x00\x00\x00\x00\x00\xf0d\xc0'
p26
tp27
bsS'center_target_pixels'
p28
(I778
I394
tp29
sS'center_actual_pixels'
p30
(I778
I401
tp31
s.(dp0
S'actual_pos'
p1
(lp2
F0.046856250350564975
aF0.043604607792027676
aF-0.16707679236470005
asS'actual_rot'
p3
(lp4
F-0.9152938291475413
aF1.5372552239206523
aF-166.11990740871155
asS'target_pos'
p5
cnumpy.core.multiarray
_reconstruct
p6
(cnumpy
ndarray
p7
(I0
tp8
S'b'
p9
tp10
Rp11
(I1
(I3
tp12
cnumpy
dtype
p13
(S'f8'
p14
I0
I1
tp15
Rp16
(I3
S'<'
p17
NNNI-1
I-1
I0
tp18
bI00
S'K\xec\x05\xf1K\x13\xa8?|\xbb\x8f\xdb\xef\n\xa6?\x9d\xb5\xd9\xee(q\xc5\xbf'
p19
tp20
bsS'target_rot'
p21
g6
(g7
(I0
tp22
g9
tp23
Rp24
(I1
(I3
tp25
g16
I00
S'\x00\x00\x00\x00\x00\x00\x00\x00\x00\x00\x00\x00\x00\x00\x14@\x00\x00\x00\x00\x00\xf0d\xc0'
p26
tp27
bsS'center_target_pixels'
p28
(I958
I410
tp29
sS'center_actual_pixels'
p30
(I964
I418
tp31
s.(dp0
S'actual_pos'
p1
(lp2
F0.03190765470555321
aF0.04286711896326961
aF-0.16557076188054867
asS'actual_rot'
p3
(lp4
F-0.2165976889089536
aF4.135178176190726
aF-167.58166876350913
asS'target_pos'
p5
cnumpy.core.multiarray
_reconstruct
p6
(cnumpy
ndarray
p7
(I0
tp8
S'b'
p9
tp10
Rp11
(I1
(I3
tp12
cnumpy
dtype
p13
(S'f8'
p14
I0
I1
tp15
Rp16
(I3
S'<'
p17
NNNI-1
I-1
I0
tp18
bI00
S'\xf3i\xaf\xe9\xc9\x97\xa0?\x9e|\x17\xf3\xd9\xad\xa5?Gb\xca\x86:@\xc5\xbf'
p19
tp20
bsS'target_rot'
p21
g6
(g7
(I0
tp22
g9
tp23
Rp24
(I1
(I3
tp25
g16
I00
S'\x00\x00\x00\x00\x00\x00\x00\x00\x00\x00\x00\x00\x00\x00\x14@\x00\x00\x00\x00\x00\xf0d\xc0'
p26
tp27
bsS'center_target_pixels'
p28
(I1136
I425
tp29
sS'center_actual_pixels'
p30
(I1135
I423
tp31
s.(dp0
S'actual_pos'
p1
(lp2
F0.015712881297598544
aF0.041477987711721405
aF-0.1638235913157509
asS'actual_rot'
p3
(lp4
F0.31451380332999507
aF6.224867927239569
aF-169.72033412946558
asS'target_pos'
p5
cnumpy.core.multiarray
_reconstruct
p6
(cnumpy
ndarray
p7
(I0
tp8
S'b'
p9
tp10
Rp11
(I1
(I3
tp12
cnumpy
dtype
p13
(S'f8'
p14
I0
I1
tp15
Rp16
(I3
S'<'
p17
NNNI-1
I-1
I0
tp18
bI00
S'\x00f\xc4\x94\x7f\xbf\x90?\x8e\x9e\x83\xca\xf6\xfd\xa4?\x95-\xfe]\xe0\x04\xc5\xbf'
p19
tp20
bsS'target_rot'
p21
g6
(g7
(I0
tp22
g9
tp23
Rp24
(I1
(I3
tp25
g16
I00
S'\x00\x00\x00\x00\x00\x00\x00\x00\x00\x00\x00\x00\x00\x00\x14@\x00\x00\x00\x00\x00\xf0d\xc0'
p26
tp27
bsS'center_target_pixels'
p28
(I1314
I440
tp29
sS'center_actual_pixels'
p30
(I1321
I432
tp31
s.(dp0
S'actual_pos'
p1
(lp2
F0.07239297913942909
aF0.05246049240971893
aF-0.16952452578601748
asS'actual_rot'
p3
(lp4
F-1.9771970109977692
aF-1.2139920096101142
aF-163.33739882978097
asS'target_pos'
p5
cnumpy.core.multiarray
_reconstruct
p6
(cnumpy
ndarray
p7
(I0
tp8
S'b'
p9
tp10
Rp11
(I1
(I3
tp12
cnumpy
dtype
p13
(S'f8'
p14
I0
I1
tp15
Rp16
(I3
S'<'
p17
NNNI-1
I-1
I0
tp18
bI00
S'7A\xc3\x9c\x9fu\xb2?M\xbaH\xf49\xa9\xaa?.\xda\r.\x04\xbd\xc5\xbf'
p19
tp20
bsS'target_rot'
p21
g6
(g7
(I0
tp22
g9
tp23
Rp24
(I1
(I3
tp25
g16
I00
S'\x00\x00\x00\x00\x00\x00\x00\x00\x00\x00\x00\x00\x00\x00\x14@\x00\x00\x00\x00\x00\xf0d\xc0'
p26
tp27
bsS'center_target_pixels'
p28
(I681
I476
tp29
sS'center_actual_pixels'
p30
(I657
I473
tp31
s.(dp0
S'actual_pos'
p1
(lp2
F0.055248557768313375
aF0.05181970263149466
aF-0.16819563318844216
asS'actual_rot'
p3
(lp4
F-1.2720439469980787
aF0.9240704392004802
aF-165.1099961277228
asS'target_pos'
p5
cnumpy.core.multiarray
_reconstruct
p6
(cnumpy
ndarray
p7
(I0
tp8
S'b'
p9
tp10
Rp11
(I1
(I3
tp12
cnumpy
dtype
p13
(S'f8'
p14
I0
I1
tp15
Rp16
(I3
S'<'
p17
NNNI-1
I-1
I0
tp18
bI00
S':\xa6\x8f\xd4{d\xac?\x19x\x04k\xe3M\xaa?n#-\xf5\xdc\x99\xc5\xbf'
p19
tp20
bsS'target_rot'
p21
g6
(g7
(I0
tp22
g9
tp23
Rp24
(I1
(I3
tp25
g16
I00
S'\x00\x00\x00\x00\x00\x00\x00\x00\x00\x00\x00\x00\x00\x00\x14@\x00\x00\x00\x00\x00\xf0d\xc0'
p26
tp27
bsS'center_target_pixels'
p28
(I860
I491
tp29
sS'center_actual_pixels'
p30
(I861
I498
tp31
s.(dp0
S'actual_pos'
p1
(lp2
F0.03928701762908791
aF0.05103394423567772
aF-0.16598215898356303
asS'actual_rot'
p3
(lp4
F-0.7018947715979594
aF2.842162679586476
aF-166.99396361147384
asS'target_pos'
p5
cnumpy.core.multiarray
_reconstruct
p6
(cnumpy
ndarray
p7
(I0
tp8
S'b'
p9
tp10
Rp11
(I1
(I3
tp12
cnumpy
dtype
p13
(S'f8'
p14
I0
I1
tp15
Rp16
(I3
S'<'
p17
NNNI-1
I-1
I0
tp18
bI00
S'\x0c\x0e\xc9<\xf3H\xa4?\xce\xb6\xf8.\xb4\xfe\xa9?\xaaR\xa26[H\xc5\xbf'
p19
tp20
bsS'target_rot'
p21
g6
(g7
(I0
tp22
g9
tp23
Rp24
(I1
(I3
tp25
g16
I00
S'\x00\x00\x00\x00\x00\x00\x00\x00\x00\x00\x00\x00\x00\x00\x14@\x00\x00\x00\x00\x00\xf0d\xc0'
p26
tp27
bsS'center_target_pixels'
p28
(I1039
I506
tp29
sS'center_actual_pixels'
p30
(I1038
I505
tp31
s.(dp0
S'actual_pos'
p1
(lp2
F0.02305465374979983
aF0.049867141440073315
aF-0.16421821720865742
asS'actual_rot'
p3
(lp4
F0.10944636937886153
aF5.430253477552208
aF-168.8674154965223
asS'target_pos'
p5
cnumpy.core.multiarray
_reconstruct
p6
(cnumpy
ndarray
p7
(I0
tp8
S'b'
p9
tp10
Rp11
(I1
(I3
tp12
cnumpy
dtype
p13
(S'f8'
p14
I0
I1
tp15
Rp16
(I3
S'<'
p17
NNNI-1
I-1
I0
tp18
bI00
S'xpd\xf3,*\x98?Kax\x96\xc7d\xa9?ID\xe9CR\x0f\xc5\xbf'
p19
tp20
bsS'target_rot'
p21
g6
(g7
(I0
tp22
g9
tp23
Rp24
(I1
(I3
tp25
g16
I00
S'\x00\x00\x00\x00\x00\x00\x00\x00\x00\x00\x00\x00\x00\x00\x14@\x00\x00\x00\x00\x00\xf0d\xc0'
p26
tp27
bsS'center_target_pixels'
p28
(I1218
I521
tp29
sS'center_actual_pixels'
p30
(I1226
I509
tp31
s.(dp0
S'actual_pos'
p1
(lp2
F0.008428060943388748
aF0.049925345666771
aF-0.16350002075515888
asS'actual_rot'
p3
(lp4
F0.725373349561531
aF7.358378782094165
aF-170.1285060881466
asS'target_pos'
p5
cnumpy.core.multiarray
_reconstruct
p6
(cnumpy
ndarray
p7
(I0
tp8
S'b'
p9
tp10
Rp11
(I1
(I3
tp12
cnumpy
dtype
p13
(S'f8'
p14
I0
I1
tp15
Rp16
(I3
S'<'
p17
NNNI-1
I-1
I0
tp18
bI00
S'\x1c\xb0\xb5\x92\xf7\r\x83?d\x06\x1b\xcdKh\xa9?\xd6\x17\xe1\x8a\xf1\xfd\xc4\xbf'
p19
tp20
bsS'target_rot'
p21
g6
(g7
(I0
tp22
g9
tp23
Rp24
(I1
(I3
tp25
g16
I00
S'\x00\x00\x00\x00\x00\x00\x00\x00\x00\x00\x00\x00\x00\x00\x14@\x00\x00\x00\x00\x00\xf0d\xc0'
p26
tp27
bsS'center_target_pixels'
p28
(I1393
I536
tp29
sS'center_actual_pixels'
p30
(I1397
I542
tp31
s.(dp0
S'actual_pos'
p1
(lp2
F0.06316156455579201
aF0.06014786922466988
aF-0.16867878993615418
asS'actual_rot'
p3
(lp4
F-2.05980717363314
aF-0.5315842946590876
aF-163.3254277208136
asS'target_pos'
p5
cnumpy.core.multiarray
_reconstruct
p6
(cnumpy
ndarray
p7
(I0
tp8
S'b'
p9
tp10
Rp11
(I1
(I3
tp12
cnumpy
dtype
p13
(S'f8'
p14
I0
I1
tp15
Rp16
(I3
S'<'
p17
NNNI-1
I-1
I0
tp18
bI00
S'\x81\xef/\x14\x93(\xb0?D\xdcb\x80\x83\xb9\xae?\x89Q\x119\xa0\xa4\xc5\xbf'
p19
tp20
bsS'target_rot'
p21
g6
(g7
(I0
tp22
g9
tp23
Rp24
(I1
(I3
tp25
g16
I00
S'\x00\x00\x00\x00\x00\x00\x00\x00\x00\x00\x00\x00\x00\x00\x14@\x00\x00\x00\x00\x00\xf0d\xc0'
p26
tp27
bsS'center_target_pixels'
p28
(I763
I572
tp29
sS'center_actual_pixels'
p30
(I761
I576
tp31
s.(dp0
S'actual_pos'
p1
(lp2
F0.0472962608515928
aF0.05903021651833049
aF-0.16686786635110012
asS'actual_rot'
p3
(lp4
F-1.4046382917497364
aF1.2352589620333336
aF-164.99323313357874
asS'target_pos'
p5
cnumpy.core.multiarray
_reconstruct
p6
(cnumpy
ndarray
p7
(I0
tp8
S'b'
p9
tp10
Rp11
(I1
(I3
tp12
cnumpy
dtype
p13
(S'f8'
p14
I0
I1
tp15
Rp16
(I3
S'<'
p17
NNNI-1
I-1
I0
tp18
bI00
S'\xc9\xf1\x02f0<\xa8?\xb5\\\x923\r*\xae?/#\xad\x8a\xd9f\xc5\xbf'
p19
tp20
bsS'target_rot'
p21
g6
(g7
(I0
tp22
g9
tp23
Rp24
(I1
(I3
tp25
g16
I00
S'\x00\x00\x00\x00\x00\x00\x00\x00\x00\x00\x00\x00\x00\x00\x14@\x00\x00\x00\x00\x00\xf0d\xc0'
p26
tp27
bsS'center_target_pixels'
p28
(I942
I587
tp29
sS'center_actual_pixels'
p30
(I938
I581
tp31
s.(dp0
S'actual_pos'
p1
(lp2
F0.030534691021327737
aF0.05840174885308393
aF-0.16465597457955128
asS'actual_rot'
p3
(lp4
F-0.5042797246020341
aF3.7466020785490306
aF-166.66241573971342
asS'target_pos'
p5
cnumpy.core.multiarray
_reconstruct
p6
(cnumpy
ndarray
p7
(I0
tp8
S'b'
p9
tp10
Rp11
(I1
(I3
tp12
cnumpy
dtype
p13
(S'f8'
p14
I0
I1
tp15
Rp16
(I3
S'<'
p17
NNNI-1
I-1
I0
tp18
bI00
S'\xad\x05g\x87\xc6\xa2\x9f?\xb1\xc7K\x04\xdd\xdc\xad?\x99I0\xab\t\x1b\xc5\xbf'
p19
tp20
bsS'target_rot'
p21
g6
(g7
(I0
tp22
g9
tp23
Rp24
(I1
(I3
tp25
g16
I00
S'\x00\x00\x00\x00\x00\x00\x00\x00\x00\x00\x00\x00\x00\x00\x14@\x00\x00\x00\x00\x00\xf0d\xc0'
p26
tp27
bsS'center_target_pixels'
p28
(I1121
I602
tp29
sS'center_actual_pixels'
p30
(I1135
I598
tp31
s.(dp0
S'actual_pos'
p1
(lp2
F0.016046657570320352
aF0.05774006840187674
aF-0.1635803491787925
asS'actual_rot'
p3
(lp4
F0.2656128206919856
aF5.781363562123416
aF-168.53357666518446
asS'target_pos'
p5
cnumpy.core.multiarray
_reconstruct
p6
(cnumpy
ndarray
p7
(I0
tp8
S'b'
p9
tp10
Rp11
(I1
(I3
tp12
cnumpy
dtype
p13
(S'f8'
p14
I0
I1
tp15
Rp16
(I3
S'<'
p17
NNNI-1
I-1
I0
tp18
bI00
S'p]a\xc1D\xef\x90?h\xbf\tj8\x8b\xad?\xd1\x94Q\xde\x97\xf9\xc4\xbf'
p19
tp20
bsS'target_rot'
p21
g6
(g7
(I0
tp22
g9
tp23
Rp24
(I1
(I3
tp25
g16
I00
S'\x00\x00\x00\x00\x00\x00\x00\x00\x00\x00\x00\x00\x00\x00\x14@\x00\x00\x00\x00\x00\xf0d\xc0'
p26
tp27
bsS'center_target_pixels'
p28
(I1298
I616
tp29
sS'center_actual_pixels'
p30
(I1299
I614
tp31
s.(dp0
S'actual_pos'
p1
(lp2
F0.07134315407445223
aF0.06888127519292908
aF-0.1687306465284243
asS'actual_rot'
p3
(lp4
F-2.4183383663055564
aF-0.5060106759178902
aF-162.53682025839424
asS'target_pos'
p5
cnumpy.core.multiarray
_reconstruct
p6
(cnumpy
ndarray
p7
(I0
tp8
S'b'
p9
tp10
Rp11
(I1
(I3
tp12
cnumpy
dtype
p13
(S'f8'
p14
I0
I1
tp15
Rp16
(I3
S'<'
p17
NNNI-1
I-1
I0
tp18
bI00
S'S\xc19Bx>\xb2?(\xab\x10)\x02\xa5\xb1?\xee\xeb\xa1\x02\xe1\x9d\xc5\xbf'
p19
tp20
bsS'target_rot'
p21
g6
(g7
(I0
tp22
g9
tp23
Rp24
(I1
(I3
tp25
g16
I00
S'\x00\x00\x00\x00\x00\x00\x00\x00\x00\x00\x00\x00\x00\x00\x14@\x00\x00\x00\x00\x00\xf0d\xc0'
p26
tp27
bsS'center_target_pixels'
p28
(I665
I654
tp29
sS'center_actual_pixels'
p30
(I661
I653
tp31
s.(dp0
S'actual_pos'
p1
(lp2
F0.05542499889357971
aF0.06753111638730006
aF-0.16714536133219632
asS'actual_rot'
p3
(lp4
F-1.948708481005846
aF0.5181785015487236
aF-163.93286564513016
asS'target_pos'
p5
cnumpy.core.multiarray
_reconstruct
p6
(cnumpy
ndarray
p7
(I0
tp8
S'b'
p9
tp10
Rp11
(I1
(I3
tp12
cnumpy
dtype
p13
(S'f8'
p14
I0
I1
tp15
Rp16
(I3
S'<'
p17
NNNI-1
I-1
I0
tp18
bI00
S'\xcem\xda\x9d\x08Q\xac?\x026\x1d<\xe1Q\xb1?<\xb3\xa0:\ri\xc5\xbf'
p19
tp20
bsS'target_rot'
p21
g6
(g7
(I0
tp22
g9
tp23
Rp24
(I1
(I3
tp25
g16
I00
S'\x00\x00\x00\x00\x00\x00\x00\x00\x00\x00\x00\x00\x00\x00\x14@\x00\x00\x00\x00\x00\xf0d\xc0'
p26
tp27
bsS'center_target_pixels'
p28
(I845
I669
tp29
sS'center_actual_pixels'
p30
(I832
I661
tp31
s.(dp0
S'actual_pos'
p1
(lp2
F0.03876520667560077
aF0.06637022462672185
aF-0.1657229173353999
asS'actual_rot'
p3
(lp4
F-1.0236209722381133
aF2.726900823213021
aF-165.51792570363205
asS'target_pos'
p5
cnumpy.core.multiarray
_reconstruct
p6
(cnumpy
ndarray
p7
(I0
tp8
S'b'
p9
tp10
Rp11
(I1
(I3
tp12
cnumpy
dtype
p13
(S'f8'
p14
I0
I1
tp15
Rp16
(I3
S'<'
p17
NNNI-1
I-1
I0
tp18
bI00
S'\x99l\xe7\x0b\x84\xff\xa3?\x89\xf1sz\xd0\x07\xb1?\x8c\x07M\n%=\xc5\xbf'
p19
tp20
bsS'target_rot'
p21
g6
(g7
(I0
tp22
g9
tp23
Rp24
(I1
(I3
tp25
g16
I00
S'\x00\x00\x00\x00\x00\x00\x00\x00\x00\x00\x00\x00\x00\x00\x14@\x00\x00\x00\x00\x00\xf0d\xc0'
p26
tp27
bsS'center_target_pixels'
p28
(I1024
I683
tp29
sS'center_actual_pixels'
p30
(I1029
I674
tp31
s.(dp0
S'actual_pos'
p1
(lp2
F0.0221401097991106
aF0.06525877269046082
aF-0.1641844340478987
asS'actual_rot'
p3
(lp4
F-0.07815556135322697
aF4.969416010237721
aF-167.41127370727565
asS'target_pos'
p5
cnumpy.core.multiarray
_reconstruct
p6
(cnumpy
ndarray
p7
(I0
tp8
S'b'
p9
tp10
Rp11
(I1
(I3
tp12
cnumpy
dtype
p13
(S'f8'
p14
I0
I1
tp15
Rp16
(I3
S'<'
p17
NNNI-1
I-1
I0
tp18
bI00
S'\x7fE2\xcc\xac+\x97?\x83\xaaN\xd2s\xc4\xb0?\xc0Y\xd1\xc7\x15\x0c\xc5\xbf'
p19
tp20
bsS'target_rot'
p21
g6
(g7
(I0
tp22
g9
tp23
Rp24
(I1
(I3
tp25
g16
I00
S'\x00\x00\x00\x00\x00\x00\x00\x00\x00\x00\x00\x00\x00\x00\x14@\x00\x00\x00\x00\x00\xf0d\xc0'
p26
tp27
bsS'center_target_pixels'
p28
(I1202
I697
tp29
sS'center_actual_pixels'
p30
(I1219
I683
tp31
s.(dp0
S'actual_pos'
p1
(lp2
F0.007797723773593685
aF0.06457635694248204
aF-0.16296780143391934
asS'actual_rot'
p3
(lp4
F1.0050693104623578
aF7.704828892073985
aF-168.65562477563466
asS'target_pos'
p5
cnumpy.core.multiarray
_reconstruct
p6
(cnumpy
ndarray
p7
(I0
tp8
S'b'
p9
tp10
Rp11
(I1
(I3
tp12
cnumpy
dtype
p13
(S'f8'
p14
I0
I1
tp15
Rp16
(I3
S'<'
p17
NNNI-1
I-1
I0
tp18
bI00
S'\x08\xd5\xf3\xb6R\xc3\x81?\x8d?\r\x03\xd7\xb7\xb0?\xa7$,\xc2\xc7\xe1\xc4\xbf'
p19
tp20
bsS'target_rot'
p21
g6
(g7
(I0
tp22
g9
tp23
Rp24
(I1
(I3
tp25
g16
I00
S'\x00\x00\x00\x00\x00\x00\x00\x00\x00\x00\x00\x00\x00\x00\x14@\x00\x00\x00\x00\x00\xf0d\xc0'
p26
tp27
bsS'center_target_pixels'
p28
(I1378
I711
tp29
sS'center_actual_pixels'
p30
(I1391
I699
tp31
s.(dp0
S'actual_pos'
p1
(lp2
F0.0635313514375748
aF0.0758032300152316
aF-0.1683359883440589
asS'actual_rot'
p3
(lp4
F-2.624941857958593
aF-0.2521793391677979
aF-162.55791491219438
asS'target_pos'
p5
cnumpy.core.multiarray
_reconstruct
p6
(cnumpy
ndarray
p7
(I0
tp8
S'b'
p9
tp10
Rp11
(I1
(I3
tp12
cnumpy
dtype
p13
(S'f8'
p14
I0
I1
tp15
Rp16
(I3
S'<'
p17
NNNI-1
I-1
I0
tp18
bI00
S'\x08\xbf\x9b\xa2y)\xb0?Hh#<\xf3\x9b\xb3?\x89\x18\x9c-\xfc\x86\xc5\xbf'
p19
tp20
bsS'target_rot'
p21
g6
(g7
(I0
tp22
g9
tp23
Rp24
(I1
(I3
tp25
g16
I00
S'\x00\x00\x00\x00\x00\x00\x00\x00\x00\x00\x00\x00\x00\x00\x14@\x00\x00\x00\x00\x00\xf0d\xc0'
p26
tp27
bsS'center_target_pixels'
p28
(I747
I750
tp29
sS'center_actual_pixels'
p30
(I731
I750
tp31
s.(dp0
S'actual_pos'
p1
(lp2
F0.04613065478087011
aF0.07369164526361822
aF-0.16681369255034345
asS'actual_rot'
p3
(lp4
F-1.785313107192412
aF1.4334703705427296
aF-163.9523639244126
asS'target_pos'
p5
cnumpy.core.multiarray
_reconstruct
p6
(cnumpy
ndarray
p7
(I0
tp8
S'b'
p9
tp10
Rp11
(I1
(I3
tp12
cnumpy
dtype
p13
(S'f8'
p14
I0
I1
tp15
Rp16
(I3
S'<'
p17
NNNI-1
I-1
I0
tp18
bI00
S'\xfe\xd6\xcd\x1b\x96\x96\xa7?=*\xa2\xab~\x16\xb3?\xd5m\xff\xa3\xb9Z\xc5\xbf'
p19
tp20
bsS'target_rot'
p21
g6
(g7
(I0
tp22
g9
tp23
Rp24
(I1
(I3
tp25
g16
I00
S'\x00\x00\x00\x00\x00\x00\x00\x00\x00\x00\x00\x00\x00\x00\x14@\x00\x00\x00\x00\x00\xf0d\xc0'
p26
tp27
bsS'center_target_pixels'
p28
(I927
I764
tp29
sS'center_actual_pixels'
p30
(I938
I746
tp31
s.(dp0
S'actual_pos'
p1
(lp2
F0.029878377292490987
aF0.0726051274798957
aF-0.16552960889691123
asS'actual_rot'
p3
(lp4
F-0.7526092683972094
aF3.620730426411392
aF-165.6073038459675
asS'target_pos'
p5
cnumpy.core.multiarray
_reconstruct
p6
(cnumpy
ndarray
p7
(I0
tp8
S'b'
p9
tp10
Rp11
(I1
(I3
tp12
cnumpy
dtype
p13
(S'f8'
p14
I0
I1
tp15
Rp16
(I3
S'<'
p17
NNNI-1
I-1
I0
tp18
bI00
S'\x95\xc0Y\\\xf2\xe0\x9e?\xbaA\xe4\xcb\xbb\xcf\xb2?\xe3[\x04\xd2\xca5\xc5\xbf'
p19
tp20
bsS'target_rot'
p21
g6
(g7
(I0
tp22
g9
tp23
Rp24
(I1
(I3
tp25
g16
I00
S'\x00\x00\x00\x00\x00\x00\x00\x00\x00\x00\x00\x00\x00\x00\x14@\x00\x00\x00\x00\x00\xf0d\xc0'
p26
tp27
bsS'center_target_pixels'
p28
(I1105
I777
tp29
sS'center_actual_pixels'
p30
(I1120
I762
tp31
s.(dp0
S'actual_pos'
p1
(lp2
F0.01430476206881093
aF0.071966045361224
aF-0.16360544676752378
asS'actual_rot'
p3
(lp4
F0.23843225988399253
aF5.791296442767832
aF-167.09533297525195
asS'target_pos'
p5
cnumpy.core.multiarray
_reconstruct
p6
(cnumpy
ndarray
p7
(I0
tp8
S'b'
p9
tp10
Rp11
(I1
(I3
tp12
cnumpy
dtype
p13
(S'f8'
p14
I0
I1
tp15
Rp16
(I3
S'<'
p17
NNNI-1
I-1
I0
tp18
bI00
S'01\xec\x04\xbax\x8e?\xec\x00\xc7\xa0s\xa6\xb2?\xde$\xd1u\x97\xf4\xc4\xbf'
p19
tp20
bsS'target_rot'
p21
g6
(g7
(I0
tp22
g9
tp23
Rp24
(I1
(I3
tp25
g16
I00
S'\x00\x00\x00\x00\x00\x00\x00\x00\x00\x00\x00\x00\x00\x00\x14@\x00\x00\x00\x00\x00\xf0d\xc0'
p26
tp27
bsS'center_target_pixels'
p28
(I1282
I791
tp29
sS'center_actual_pixels'
p30
(I1302
I774
tp31
s.