(dp0
S'center_target_pixels'
p1
(I811
I92
tp2
sS'target_pos'
p3
(lp4
cnumpy.core.multiarray
scalar
p5
(cnumpy
dtype
p6
(S'f8'
p7
I0
I1
tp8
Rp9
(I3
S'<'
p10
NNNI-1
I-1
I0
tp11
bS'o\xb8xG\xae6\xb0?'
p12
tp13
Rp14
ag5
(g9
S'$\x85/U\xe5\xb0\x8c?'
p15
tp16
Rp17
ag5
(g9
S'Z0\xb4=\x07\xde\xc5\xbf'
p18
tp19
Rp20
asS'actual_rot'
p21
(F0.07220476176435776
F-12.380259315389164
F-171.47679303210697
tp22
sS'actual_pos'
p23
(cnumpy.core.multiarray
_reconstruct
p24
(cnumpy.matrixlib.defmatrix
matrix
p25
(I0
tp26
S'b'
p27
tp28
Rp29
(I1
(I1
I1
tp30
g6
(S'f8'
p31
I0
I1
tp32
Rp33
(I3
S'<'
p34
NNNI-1
I-1
I0
tp35
bI00
S'k\xbb\xfe\x1bc\x06\xb0?'
p36
tp37
bg24
(g25
(I0
tp38
g27
tp39
Rp40
(I1
(I1
I1
tp41
g33
I00
S'\xd1\xc0\x9d\xce\xd6u\x8e?'
p42
tp43
bg24
(g25
(I0
tp44
g27
tp45
Rp46
(I1
(I1
I1
tp47
g33
I00
S's\r.\xdfk\xd5\xc5\xbf'
p48
tp49
btp50
sS'target_rot'
p51
g24
(cnumpy
ndarray
p52
(I0
tp53
g27
tp54
Rp55
(I1
(I3
tp56
g33
I00
S'C\xc7\xe7\xe7\x91\t\xb4?\xf5\x11>!\xe6d(\xc0a@\tTb4e\xc0'
p57
tp58
bsS'center_actual_pixels'
p59
(I821
I68
tp60
s.(dp0
S'center_target_pixels'
p1
(I989
I104
tp2
sS'target_pos'
p3
(lp4
cnumpy.core.multiarray
scalar
p5
(cnumpy
dtype
p6
(S'f8'
p7
I0
I1
tp8
Rp9
(I3
S'<'
p10
NNNI-1
I-1
I0
tp11
bS'\x19\xff\x82\x8d\ro\xa8?'
p12
tp13
Rp14
ag5
(g9
S'\x03]i6\xaa\xe4\x89?'
p15
tp16
Rp17
ag5
(g9
S'k\x80m\xe2\x18\xa4\xc5\xbf'
p18
tp19
Rp20
asS'actual_rot'
p21
(F0.2090918044972692
F-10.585001913183072
F-172.97958184197242
tp22
sS'actual_pos'
p23
(cnumpy.core.multiarray
_reconstruct
p24
(cnumpy.matrixlib.defmatrix
matrix
p25
(I0
tp26
S'b'
p27
tp28
Rp29
(I1
(I1
I1
tp30
g6
(S'f8'
p31
I0
I1
tp32
Rp33
(I3
S'<'
p34
NNNI-1
I-1
I0
tp35
bI00
S'\x1fi\x83\xb41\xfd\xa7?'
p36
tp37
bg24
(g25
(I0
tp38
g27
tp39
Rp40
(I1
(I1
I1
tp41
g33
I00
S'nV\xca\x98\xd1r\x8b?'
p42
tp43
bg24
(g25
(I0
tp44
g27
tp45
Rp46
(I1
(I1
I1
tp47
g33
I00
S'h\x1a\r\x8bA\x9b\xc5\xbf'
p48
tp49
btp50
sS'target_rot'
p51
g24
(cnumpy
ndarray
p52
(I0
tp53
g27
tp54
Rp55
(I1
(I3
tp56
g33
I00
S'C\xc7\xe7\xe7\x91\t\xb4?\xf5\x11>!\xe6d(\xc0a@\tTb4e\xc0'
p57
tp58
bsS'center_actual_pixels'
p59
(I1004
I72
tp60
s.(dp0
S'center_target_pixels'
p1
(I1166
I117
tp2
sS'target_pos'
p3
(lp4
cnumpy.core.multiarray
scalar
p5
(cnumpy
dtype
p6
(S'f8'
p7
I0
I1
tp8
Rp9
(I3
S'<'
p10
NNNI-1
I-1
I0
tp11
bS'\xb8Q\x05\x03\xfdk\xa0?'
p12
tp13
Rp14
ag5
(g9
S'\xc6\x01\x1d\xc8\x02U\x87?'
p15
tp16
Rp17
ag5
(g9
S'C\xc9`\x8c\x02i\xc5\xbf'
p18
tp19
Rp20
asS'actual_rot'
p21
(F0.3572636893309778
F-7.992817845020952
F-173.94758873441444
tp22
sS'actual_pos'
p23
(cnumpy.core.multiarray
_reconstruct
p24
(cnumpy.matrixlib.defmatrix
matrix
p25
(I0
tp26
S'b'
p27
tp28
Rp29
(I1
(I1
I1
tp30
g6
(S'f8'
p31
I0
I1
tp32
Rp33
(I3
S'<'
p34
NNNI-1
I-1
I0
tp35
bI00
S'\x16gV\xeeL\xa0\x9f?'
p36
tp37
bg24
(g25
(I0
tp38
g27
tp39
Rp40
(I1
(I1
I1
tp41
g33
I00
S'\x8ciT\xba\xe7\x8f\x88?'
p42
tp43
bg24
(g25
(I0
tp44
g27
tp45
Rp46
(I1
(I1
I1
tp47
g33
I00
S'\xf1e\x8cc\xb3c\xc5\xbf'
p48
tp49
btp50
sS'target_rot'
p51
g24
(cnumpy
ndarray
p52
(I0
tp53
g27
tp54
Rp55
(I1
(I3
tp56
g33
I00
S'C\xc7\xe7\xe7\x91\t\xb4?\xf5\x11>!\xe6d(\xc0a@\tTb4e\xc0'
p57
tp58
bsS'center_actual_pixels'
p59
(I1178
I91
tp60
s.(dp0
S'center_target_pixels'
p1
(I1342
I129
tp2
sS'target_pos'
p3
(lp4
cnumpy.core.multiarray
scalar
p5
(cnumpy
dtype
p6
(S'f8'
p7
I0
I1
tp8
Rp9
(I3
S'<'
p10
NNNI-1
I-1
I0
tp11
bS'\x98t%?\xf0a\x91?'
p12
tp13
Rp14
ag5
(g9
S'\x8f-\xa6\xf8\xae\x03\x86?'
p15
tp16
Rp17
ag5
(g9
S'\xe8"\x00\xe7\xe4,\xc5\xbf'
p18
tp19
Rp20
asS'actual_rot'
p21
(F0.4292599015324805
F-6.504842873378875
F-174.40482121581783
tp22
sS'actual_pos'
p23
(cnumpy.core.multiarray
_reconstruct
p24
(cnumpy.matrixlib.defmatrix
matrix
p25
(I0
tp26
S'b'
p27
tp28
Rp29
(I1
(I1
I1
tp30
g6
(S'f8'
p31
I0
I1
tp32
Rp33
(I3
S'<'
p34
NNNI-1
I-1
I0
tp35
bI00
S'\xe1\xf2\x14\xfc\xc2\x00\x90?'
p36
tp37
bg24
(g25
(I0
tp38
g27
tp39
Rp40
(I1
(I1
I1
tp41
g33
I00
S'\xe0\x96\x02E\x0f:\x87?'
p42
tp43
bg24
(g25
(I0
tp44
g27
tp45
Rp46
(I1
(I1
I1
tp47
g33
I00
S'\xbcX\x1d\xe8W)\xc5\xbf'
p48
tp49
btp50
sS'target_rot'
p51
g24
(cnumpy
ndarray
p52
(I0
tp53
g27
tp54
Rp55
(I1
(I3
tp56
g33
I00
S'C\xc7\xe7\xe7\x91\t\xb4?\xf5\x11>!\xe6d(\xc0a@\tTb4e\xc0'
p57
tp58
bsS'center_actual_pixels'
p59
(I1355
I110
tp60
s.(dp0
S'center_target_pixels'
p1
(I716
I174
tp2
sS'target_pos'
p3
(lp4
cnumpy.core.multiarray
scalar
p5
(cnumpy
dtype
p6
(S'f8'
p7
I0
I1
tp8
Rp9
(I3
S'<'
p10
NNNI-1
I-1
I0
tp11
bS'\xf9d\xf45\xb7\x00\xb2?'
p12
tp13
Rp14
ag5
(g9
S'\x90\xb8\xd6\xd0\xbf\xbe\x96?'
p15
tp16
Rp17
ag5
(g9
S'\xc9X\x8a\xed\xbf\xf5\xc5\xbf'
p18
tp19
Rp20
asS'actual_rot'
p21
(F-0.47700723922043864
F-16.391883821003752
F-167.5419914670663
tp22
sS'actual_pos'
p23
(cnumpy.core.multiarray
_reconstruct
p24
(cnumpy.matrixlib.defmatrix
matrix
p25
(I0
tp26
S'b'
p27
tp28
Rp29
(I1
(I1
I1
tp30
g6
(S'f8'
p31
I0
I1
tp32
Rp33
(I3
S'<'
p34
NNNI-1
I-1
I0
tp35
bI00
S'\x0blK\xe1\xf5\xf6\xb1?'
p36
tp37
bg24
(g25
(I0
tp38
g27
tp39
Rp40
(I1
(I1
I1
tp41
g33
I00
S'\xd5n\xc4)\xb9=\x97?'
p42
tp43
bg24
(g25
(I0
tp44
g27
tp45
Rp46
(I1
(I1
I1
tp47
g33
I00
S'4R\xa5l\x82\xea\xc5\xbf'
p48
tp49
btp50
sS'target_rot'
p51
g24
(cnumpy
ndarray
p52
(I0
tp53
g27
tp54
Rp55
(I1
(I3
tp56
g33
I00
S'C\xc7\xe7\xe7\x91\t\xb4?\xf5\x11>!\xe6d(\xc0a@\tTb4e\xc0'
p57
tp58
bsS'center_actual_pixels'
p59
(I721
I146
tp60
s.(dp0
S'center_target_pixels'
p1
(I894
I187
tp2
sS'target_pos'
p3
(lp4
cnumpy.core.multiarray
scalar
p5
(cnumpy
dtype
p6
(S'f8'
p7
I0
I1
tp8
Rp9
(I3
S'<'
p10
NNNI-1
I-1
I0
tp11
bS'\xb2\xc9\\\x80\xdb\x04\xac?'
p12
tp13
Rp14
ag5
(g9
S' M\xce\x81\x06{\x95?'
p15
tp16
Rp17
ag5
(g9
S':\x17D\x1e\xa7\xbc\xc5\xbf'
p18
tp19
Rp20
asS'actual_rot'
p21
(F-0.07896992775277006
F-13.38052303346912
F-169.41283622851876
tp22
sS'actual_pos'
p23
(cnumpy.core.multiarray
_reconstruct
p24
(cnumpy.matrixlib.defmatrix
matrix
p25
(I0
tp26
S'b'
p27
tp28
Rp29
(I1
(I1
I1
tp30
g6
(S'f8'
p31
I0
I1
tp32
Rp33
(I3
S'<'
p34
NNNI-1
I-1
I0
tp35
bI00
S'\x8aK\x93\xb0\xef\xb7\xab?'
p36
tp37
bg24
(g25
(I0
tp38
g27
tp39
Rp40
(I1
(I1
I1
tp41
g33
I00
S'\r\xeeVX \x04\x96?'
p42
tp43
bg24
(g25
(I0
tp44
g27
tp45
Rp46
(I1
(I1
I1
tp47
g33
I00
S'\xf0n\xc8\xf8\x9e\xb3\xc5\xbf'
p48
tp49
btp50
sS'target_rot'
p51
g24
(cnumpy
ndarray
p52
(I0
tp53
g27
tp54
Rp55
(I1
(I3
tp56
g33
I00
S'C\xc7\xe7\xe7\x91\t\xb4?\xf5\x11>!\xe6d(\xc0a@\tTb4e\xc0'
p57
tp58
bsS'center_actual_pixels'
p59
(I904
I156
tp60
s.(dp0
S'center_target_pixels'
p1
(I1071
I199
tp2
sS'target_pos'
p3
(lp4
cnumpy.core.multiarray
scalar
p5
(cnumpy
dtype
p6
(S'f8'
p7
I0
I1
tp8
Rp9
(I3
S'<'
p10
NNNI-1
I-1
I0
tp11
bS'\xd75}H\n\x13\xa4?'
p12
tp13
Rp14
ag5
(g9
S'\xe4b\xa9\x0cb:\x94?'
p15
tp16
Rp17
ag5
(g9
S'jA\x08\x06\x90\x82\xc5\xbf'
p18
tp19
Rp20
asS'actual_rot'
p21
(F0.1973643076378208
F-10.927050026922945
F-170.93565335570418
tp22
sS'actual_pos'
p23
(cnumpy.core.multiarray
_reconstruct
p24
(cnumpy.matrixlib.defmatrix
matrix
p25
(I0
tp26
S'b'
p27
tp28
Rp29
(I1
(I1
I1
tp30
g6
(S'f8'
p31
I0
I1
tp32
Rp33
(I3
S'<'
p34
NNNI-1
I-1
I0
tp35
bI00
S"\xe7\xdc9\xdd'\xa1\xa3?"
p36
tp37
bg24
(g25
(I0
tp38
g27
tp39
Rp40
(I1
(I1
I1
tp41
g33
I00
S'd\xec\xe9\x9f\xca\xc7\x94?'
p42
tp43
bg24
(g25
(I0
tp44
g27
tp45
Rp46
(I1
(I1
I1
tp47
g33
I00
S"\xd4\xbf\x86\xd3'{\xc5\xbf"
p48
tp49
btp50
sS'target_rot'
p51
g24
(cnumpy
ndarray
p52
(I0
tp53
g27
tp54
Rp55
(I1
(I3
tp56
g33
I00
S'C\xc7\xe7\xe7\x91\t\xb4?\xf5\x11>!\xe6d(\xc0a@\tTb4e\xc0'
p57
tp58
bsS'center_actual_pixels'
p59
(I1085
I175
tp60
s.(dp0
S'center_target_pixels'
p1
(I1248
I211
tp2
sS'target_pos'
p3
(lp4
cnumpy.core.multiarray
scalar
p5
(cnumpy
dtype
p6
(S'f8'
p7
I0
I1
tp8
Rp9
(I3
S'<'
p10
NNNI-1
I-1
I0
tp11
bS')\xc6\x82[\x951\x98?'
p12
tp13
Rp14
ag5
(g9
S'u\x0b\x8e\xffP\xd8\x92?'
p15
tp16
Rp17
ag5
(g9
S'\x93\t\xf1\xfb\rG\xc5\xbf'
p18
tp19
Rp20
asS'actual_rot'
p21
(F0.5279239385268009
F-7.898049748968345
F-172.29294119649433
tp22
sS'actual_pos'
p23
(cnumpy.core.multiarray
_reconstruct
p24
(cnumpy.matrixlib.defmatrix
matrix
p25
(I0
tp26
S'b'
p27
tp28
Rp29
(I1
(I1
I1
tp30
g6
(S'f8'
p31
I0
I1
tp32
Rp33
(I3
S'<'
p34
NNNI-1
I-1
I0
tp35
bI00
S'\xe2\x9a3\x16\x17\x08\x97?'
p36
tp37
bg24
(g25
(I0
tp38
g27
tp39
Rp40
(I1
(I1
I1
tp41
g33
I00
S'\x10G\xbb/#B\x93?'
p42
tp43
bg24
(g25
(I0
tp44
g27
tp45
Rp46
(I1
(I1
I1
tp47
g33
I00
S'\x93\r\xf9t\xe6A\xc5\xbf'
p48
tp49
btp50
sS'target_rot'
p51
g24
(cnumpy
ndarray
p52
(I0
tp53
g27
tp54
Rp55
(I1
(I3
tp56
g33
I00
S'C\xc7\xe7\xe7\x91\t\xb4?\xf5\x11>!\xe6d(\xc0a@\tTb4e\xc0'
p57
tp58
bsS'center_actual_pixels'
p59
(I1266
I183
tp60
s.(dp0
S'center_target_pixels'
p1
(I1425
I223
tp2
sS'target_pos'
p3
(lp4
cnumpy.core.multiarray
scalar
p5
(cnumpy
dtype
p6
(S'f8'
p7
I0
I1
tp8
Rp9
(I3
S'<'
p10
NNNI-1
I-1
I0
tp11
bS'2*+\xb0\xef\x0b\x80?'
p12
tp13
Rp14
ag5
(g9
S'\x86+\x92Vg\x14\x92?'
p15
tp16
Rp17
ag5
(g9
S'(\x0cYE\x17\n\xc5\xbf'
p18
tp19
Rp20
asS'actual_rot'
p21
(F0.6571635076393747
F-6.51869457682315
F-174.30524414664
tp22
sS'actual_pos'
p23
(cnumpy.core.multiarray
_reconstruct
p24
(cnumpy.matrixlib.defmatrix
matrix
p25
(I0
tp26
S'b'
p27
tp28
Rp29
(I1
(I1
I1
tp30
g6
(S'f8'
p31
I0
I1
tp32
Rp33
(I3
S'<'
p34
NNNI-1
I-1
I0
tp35
bI00
S'\x1a\xdc\xc7\xdd\xb5\xc1z?'
p36
tp37
bg24
(g25
(I0
tp38
g27
tp39
Rp40
(I1
(I1
I1
tp41
g33
I00
S'\xd6h\xc4\x97\xa3\x83\x92?'
p42
tp43
bg24
(g25
(I0
tp44
g27
tp45
Rp46
(I1
(I1
I1
tp47
g33
I00
S'\xf3\x08=\x85\x8f\x03\xc5\xbf'
p48
tp49
btp50
sS'target_rot'
p51
g24
(cnumpy
ndarray
p52
(I0
tp53
g27
tp54
Rp55
(I1
(I3
tp56
g33
I00
S'C\xc7\xe7\xe7\x91\t\xb4?\xf5\x11>!\xe6d(\xc0a@\tTb4e\xc0'
p57
tp58
bsS'center_actual_pixels'
p59
(I1443
I193
tp60
s.(dp0
S'center_target_pixels'
p1
(I799
I269
tp2
sS'target_pos'
p3
(lp4
cnumpy.core.multiarray
scalar
p5
(cnumpy
dtype
p6
(S'f8'
p7
I0
I1
tp8
Rp9
(I3
S'<'
p10
NNNI-1
I-1
I0
tp11
bS'\xd2\xcfaj\x9a\xc4\xaf?'
p12
tp13
Rp14
ag5
(g9
S':L\x8a\xa9!+\x9e?'
p15
tp16
Rp17
ag5
(g9
S'\x17\x7f\xf2\x80\x8e\xd4\xc5\xbf'
p18
tp19
Rp20
asS'actual_rot'
p21
(F-0.3551776479529437
F-14.7566721042232
F-169.26100095906332
tp22
sS'actual_pos'
p23
(cnumpy.core.multiarray
_reconstruct
p24
(cnumpy.matrixlib.defmatrix
matrix
p25
(I0
tp26
S'b'
p27
tp28
Rp29
(I1
(I1
I1
tp30
g6
(S'f8'
p31
I0
I1
tp32
Rp33
(I3
S'<'
p34
NNNI-1
I-1
I0
tp35
bI00
S'\xa9\xe3\xdf\xea\x18\x95\xaf?'
p36
tp37
bg24
(g25
(I0
tp38
g27
tp39
Rp40
(I1
(I1
I1
tp41
g33
I00
S'\xed\x05\xc6\x8e\xcb\x8c\x9e?'
p42
tp43
bg24
(g25
(I0
tp44
g27
tp45
Rp46
(I1
(I1
I1
tp47
g33
I00
S'\x82\xc2\x8eN\xd4\xc9\xc5\xbf'
p48
tp49
btp50
sS'target_rot'
p51
g24
(cnumpy
ndarray
p52
(I0
tp53
g27
tp54
Rp55
(I1
(I3
tp56
g33
I00
S'C\xc7\xe7\xe7\x91\t\xb4?\xf5\x11>!\xe6d(\xc0a@\tTb4e\xc0'
p57
tp58
bsS'center_actual_pixels'
p59
(I804
I242
tp60
s.(dp0
S'center_target_pixels'
p1
(I977
I282
tp2
sS'target_pos'
p3
(lp4
cnumpy.core.multiarray
scalar
p5
(cnumpy
dtype
p6
(S'f8'
p7
I0
I1
tp8
Rp9
(I3
S'<'
p10
NNNI-1
I-1
I0
tp11
bS'\xb2 \xf6\x83"\xc3\xa7?'
p12
tp13
Rp14
ag5
(g9
S'OYg\x1a_\x00\x9d?'
p15
tp16
Rp17
ag5
(g9
S'k\xad=\xd7\xfa\x9a\xc5\xbf'
p18
tp19
Rp20
asS'actual_rot'
p21
(F0.1110662785352581
F-11.883518579590413
F-170.688817201927
tp22
sS'actual_pos'
p23
(cnumpy.core.multiarray
_reconstruct
p24
(cnumpy.matrixlib.defmatrix
matrix
p25
(I0
tp26
S'b'
p27
tp28
Rp29
(I1
(I1
I1
tp30
g6
(S'f8'
p31
I0
I1
tp32
Rp33
(I3
S'<'
p34
NNNI-1
I-1
I0
tp35
bI00
S'\xfd\x0b\xe2\xb0\xabc\xa7?'
p36
tp37
bg24
(g25
(I0
tp38
g27
tp39
Rp40
(I1
(I1
I1
tp41
g33
I00
S'\x9eN\x1c>Sn\x9d?'
p42
tp43
bg24
(g25
(I0
tp44
g27
tp45
Rp46
(I1
(I1
I1
tp47
g33
I00
S'\x7f;F\xb40\x91\xc5\xbf'
p48
tp49
btp50
sS'target_rot'
p51
g24
(cnumpy
ndarray
p52
(I0
tp53
g27
tp54
Rp55
(I1
(I3
tp56
g33
I00
S'C\xc7\xe7\xe7\x91\t\xb4?\xf5\x11>!\xe6d(\xc0a@\tTb4e\xc0'
p57
tp58
bsS'center_actual_pixels'
p59
(I986
I256
tp60
s.(dp0
S'center_target_pixels'
p1
(I1153
I294
tp2
sS'target_pos'
p3
(lp4
cnumpy.core.multiarray
scalar
p5
(cnumpy
dtype
p6
(S'f8'
p7
I0
I1
tp8
Rp9
(I3
S'<'
p10
NNNI-1
I-1
I0
tp11
bS'>>\xf92Y\x96\x9f?'
p12
tp13
Rp14
ag5
(g9
S'\xc3v8E\xf1\xb8\x9b?'
p15
tp16
Rp17
ag5
(g9
S'\xc7\x922\x9a\xba`\xc5\xbf'
p18
tp19
Rp20
asS'actual_rot'
p21
(F0.5363798996461351
F-9.202206284061113
F-172.36712220514173
tp22
sS'actual_pos'
p23
(cnumpy.core.multiarray
_reconstruct
p24
(cnumpy.matrixlib.defmatrix
matrix
p25
(I0
tp26
S'b'
p27
tp28
Rp29
(I1
(I1
I1
tp30
g6
(S'f8'
p31
I0
I1
tp32
Rp33
(I3
S'<'
p34
NNNI-1
I-1
I0
tp35
bI00
S'}\xd3\xf3\x02\x81\xa0\x9e?'
p36
tp37
bg24
(g25
(I0
tp38
g27
tp39
Rp40
(I1
(I1
I1
tp41
g33
I00
S'\xceo\x07\\\x93\xfe\x9b?'
p42
tp43
bg24
(g25
(I0
tp44
g27
tp45
Rp46
(I1
(I1
I1
tp47
g33
I00
S'\xe1\xbf\x0e\x95_\\\xc5\xbf'
p48
tp49
btp50
sS'target_rot'
p51
g24
(cnumpy
ndarray
p52
(I0
tp53
g27
tp54
Rp55
(I1
(I3
tp56
g33
I00
S'C\xc7\xe7\xe7\x91\t\xb4?\xf5\x11>!\xe6d(\xc0a@\tTb4e\xc0'
p57
tp58
bsS'center_actual_pixels'
p59
(I1168
I265
tp60
s.(dp0
S'center_target_pixels'
p1
(I1330
I305
tp2
sS'target_pos'
p3
(lp4
cnumpy.core.multiarray
scalar
p5
(cnumpy
dtype
p6
(S'f8'
p7
I0
I1
tp8
Rp9
(I3
S'<'
p10
NNNI-1
I-1
I0
tp11
bS'\xa8\xf9\x00\xcd\xb9\xd3\x8f?'
p12
tp13
Rp14
ag5
(g9
S'\xd0k\xfe\x81\xb7\xff\x9a?'
p15
tp16
Rp17
ag5
(g9
S'\x91@\x0fv\xcb$\xc5\xbf'
p18
tp19
Rp20
asS'actual_rot'
p21
(F0.8559234806107249
F-6.942141073718182
F-173.39405796109577
tp22
sS'actual_pos'
p23
(cnumpy.core.multiarray
_reconstruct
p24
(cnumpy.matrixlib.defmatrix
matrix
p25
(I0
tp26
S'b'
p27
tp28
Rp29
(I1
(I1
I1
tp30
g6
(S'f8'
p31
I0
I1
tp32
Rp33
(I3
S'<'
p34
NNNI-1
I-1
I0
tp35
bI00
S'\xf2\xf4\x17\xeaQ#\x8d?'
p36
tp37
bg24
(g25
(I0
tp38
g27
tp39
Rp40
(I1
(I1
I1
tp41
g33
I00
S'\x0e\x9d:\x93{l\x9b?'
p42
tp43
bg24
(g25
(I0
tp44
g27
tp45
Rp46
(I1
(I1
I1
tp47
g33
I00
S'\xf8\x9c\xc8\x91\xed\x1c\xc5\xbf'
p48
tp49
btp50
sS'target_rot'
p51
g24
(cnumpy
ndarray
p52
(I0
tp53
g27
tp54
Rp55
(I1
(I3
tp56
g33
I00
S'C\xc7\xe7\xe7\x91\t\xb4?\xf5\x11>!\xe6d(\xc0a@\tTb4e\xc0'
p57
tp58
bsS'center_actual_pixels'
p59
(I1346
I280
tp60
s.(dp0
S'center_target_pixels'
p1
(I702
I351
tp2
sS'target_pos'
p3
(lp4
cnumpy.core.multiarray
scalar
p5
(cnumpy
dtype
p6
(S'f8'
p7
I0
I1
tp8
Rp9
(I3
S'<'
p10
NNNI-1
I-1
I0
tp11
bS'v\x8c\xdc7\xfc\xca\xb1?'
p12
tp13
Rp14
ag5
(g9
S'\x97\x1b\xd1\xa1d`\xa3?'
p15
tp16
Rp17
ag5
(g9
S'\xe8<S\xe1]\xec\xc5\xbf'
p18
tp19
Rp20
asS'actual_rot'
p21
(F-0.9300049218256393
F-16.700386018784318
F-166.6306939916921
tp22
sS'actual_pos'
p23
(cnumpy.core.multiarray
_reconstruct
p24
(cnumpy.matrixlib.defmatrix
matrix
p25
(I0
tp26
S'b'
p27
tp28
Rp29
(I1
(I1
I1
tp30
g6
(S'f8'
p31
I0
I1
tp32
Rp33
(I3
S'<'
p34
NNNI-1
I-1
I0
tp35
bI00
S'\x87r.\x92\x8f\xc3\xb1?'
p36
tp37
bg24
(g25
(I0
tp38
g27
tp39
Rp40
(I1
(I1
I1
tp41
g33
I00
S'\xe1\x92\xbat\x05\x9b\xa3?'
p42
tp43
bg24
(g25
(I0
tp44
g27
tp45
Rp46
(I1
(I1
I1
tp47
g33
I00
S"\xceF\xbe('\xdf\xc5\xbf"
p48
tp49
btp50
sS'target_rot'
p51
g24
(cnumpy
ndarray
p52
(I0
tp53
g27
tp54
Rp55
(I1
(I3
tp56
g33
I00
S'C\xc7\xe7\xe7\x91\t\xb4?\xf5\x11>!\xe6d(\xc0a@\tTb4e\xc0'
p57
tp58
bsS'center_actual_pixels'
p59
(I709
I322
tp60
s.(dp0
S'center_target_pixels'
p1
(I883
I364
tp2
sS'target_pos'
p3
(lp4
cnumpy.core.multiarray
scalar
p5
(cnumpy
dtype
p6
(S'f8'
p7
I0
I1
tp8
Rp9
(I3
S'<'
p10
NNNI-1
I-1
I0
tp11
bS'|\xf80Ipz\xab?'
p12
tp13
Rp14
ag5
(g9
S'\x97\xa0xd\x92\xd3\xa2?'
p15
tp16
Rp17
ag5
(g9
S'\xd3e\x9d\xab\xc0\xb2\xc5\xbf'
p18
tp19
Rp20
asS'actual_rot'
p21
(F-0.3349397917203629
F-13.993963373733184
F-168.06958287760054
tp22
sS'actual_pos'
p23
(cnumpy.core.multiarray
_reconstruct
p24
(cnumpy.matrixlib.defmatrix
matrix
p25
(I0
tp26
S'b'
p27
tp28
Rp29
(I1
(I1
I1
tp30
g6
(S'f8'
p31
I0
I1
tp32
Rp33
(I3
S'<'
p34
NNNI-1
I-1
I0
tp35
bI00
S'v\x11d\xa9K=\xab?'
p36
tp37
bg24
(g25
(I0
tp38
g27
tp39
Rp40
(I1
(I1
I1
tp41
g33
I00
S'\xf39sW\xe8\x13\xa3?'
p42
tp43
bg24
(g25
(I0
tp44
g27
tp45
Rp46
(I1
(I1
I1
tp47
g33
I00
S'\xcd5&\xc0\xf8\xa6\xc5\xbf'
p48
tp49
btp50
sS'target_rot'
p51
g24
(cnumpy
ndarray
p52
(I0
tp53
g27
tp54
Rp55
(I1
(I3
tp56
g33
I00
S'C\xc7\xe7\xe7\x91\t\xb4?\xf5\x11>!\xe6d(\xc0a@\tTb4e\xc0'
p57
tp58
bsS'center_actual_pixels'
p59
(I890
I341
tp60
s.(dp0
S'center_target_pixels'
p1
(I1060
I376
tp2
sS'target_pos'
p3
(lp4
cnumpy.core.multiarray
scalar
p5
(cnumpy
dtype
p6
(S'f8'
p7
I0
I1
tp8
Rp9
(I3
S'<'
p10
NNNI-1
I-1
I0
tp11
bS'*\xe7\xe6\xb0\xdd\x89\xa3?'
p12
tp13
Rp14
ag5
(g9
S'<PN\x03\x07C\xa2?'
p15
tp16
Rp17
ag5
(g9
S'\xde\xc3`\xc9\x14y\xc5\xbf'
p18
tp19
Rp20
asS'actual_rot'
p21
(F0.2828184077280358
F-11.046919172183774
F-170.51646360189633
tp22
sS'actual_pos'
p23
(cnumpy.core.multiarray
_reconstruct
p24
(cnumpy.matrixlib.defmatrix
matrix
p25
(I0
tp26
S'b'
p27
tp28
Rp29
(I1
(I1
I1
tp30
g6
(S'f8'
p31
I0
I1
tp32
Rp33
(I3
S'<'
p34
NNNI-1
I-1
I0
tp35
bI00
S'\xeeU\xc2%\r\x1c\xa3?'
p36
tp37
bg24
(g25
(I0
tp38
g27
tp39
Rp40
(I1
(I1
I1
tp41
g33
I00
S'\xc1\xa6! \x8a\x84\xa2?'
p42
tp43
bg24
(g25
(I0
tp44
g27
tp45
Rp46
(I1
(I1
I1
tp47
g33
I00
S'\xed\x8f>\xcf\xadn\xc5\xbf'
p48
tp49
btp50
sS'target_rot'
p51
g24
(cnumpy
ndarray
p52
(I0
tp53
g27
tp54
Rp55
(I1
(I3
tp56
g33
I00
S'C\xc7\xe7\xe7\x91\t\xb4?\xf5\x11>!\xe6d(\xc0a@\tTb4e\xc0'
p57
tp58
bsS'center_actual_pixels'
p59
(I1072
I352
tp60
s.(dp0
S'center_target_pixels'
p1
(I1236
I387
tp2
sS'target_pos'
p3
(lp4
cnumpy.core.multiarray
scalar
p5
(cnumpy
dtype
p6
(S'f8'
p7
I0
I1
tp8
Rp9
(I3
S'<'
p10
NNNI-1
I-1
I0
tp11
bS' \xd0\xd1 }C\x97?'
p12
tp13
Rp14
ag5
(g9
S'\xe4\xa1\xf5\xfcd\x93\xa1?'
p15
tp16
Rp17
ag5
(g9
S'\xb9\x97\xc11h>\xc5\xbf'
p18
tp19
Rp20
asS'actual_rot'
p21
(F0.852202912078995
F-8.297936734121068
F-171.65552605881777
tp22
sS'actual_pos'
p23
(cnumpy.core.multiarray
_reconstruct
p24
(cnumpy.matrixlib.defmatrix
matrix
p25
(I0
tp26
S'b'
p27
tp28
Rp29
(I1
(I1
I1
tp30
g6
(S'f8'
p31
I0
I1
tp32
Rp33
(I3
S'<'
p34
NNNI-1
I-1
I0
tp35
bI00
S'\xbah\xe02\xa1$\x96?'
p36
tp37
bg24
(g25
(I0
tp38
g27
tp39
Rp40
(I1
(I1
I1
tp41
g33
I00
S' \xf2\x9e\xc7Z\xce\xa1?'
p42
tp43
bg24
(g25
(I0
tp44
g27
tp45
Rp46
(I1
(I1
I1
tp47
g33
I00
S'\xda\x1d\x16\x9bd6\xc5\xbf'
p48
tp49
btp50
sS'target_rot'
p51
g24
(cnumpy
ndarray
p52
(I0
tp53
g27
tp54
Rp55
(I1
(I3
tp56
g33
I00
S'C\xc7\xe7\xe7\x91\t\xb4?\xf5\x11>!\xe6d(\xc0a@\tTb4e\xc0'
p57
tp58
bsS'center_actual_pixels'
p59
(I1252
I360
tp60
s.(dp0
S'center_target_pixels'
p1
(I1411
I398
tp2
sS'target_pos'
p3
(lp4
cnumpy.core.multiarray
scalar
p5
(cnumpy
dtype
p6
(S'f8'
p7
I0
I1
tp8
Rp9
(I3
S'<'
p10
NNNI-1
I-1
I0
tp11
bS'\xf2*<D\x80\xff|?'
p12
tp13
Rp14
ag5
(g9
S'%\xb4h\xe8\xa0<\xa1?'
p15
tp16
Rp17
ag5
(g9
S'j/\x94\xaf\xa3\x02\xc5\xbf'
p18
tp19
Rp20
asS'actual_rot'
p21
(F1.1898791869049195
F-6.621626899901701
F-172.71721214108507
tp22
sS'actual_pos'
p23
(cnumpy.core.multiarray
_reconstruct
p24
(cnumpy.matrixlib.defmatrix
matrix
p25
(I0
tp26
S'b'
p27
tp28
Rp29
(I1
(I1
I1
tp30
g6
(S'f8'
p31
I0
I1
tp32
Rp33
(I3
S'<'
p34
NNNI-1
I-1
I0
tp35
bI00
S'\xe9\xb6\\\xd9\xba\x83w?'
p36
tp37
bg24
(g25
(I0
tp38
g27
tp39
Rp40
(I1
(I1
I1
tp41
g33
I00
S'\xfeP\x86\xf1\xa2l\xa1?'
p42
tp43
bg24
(g25
(I0
tp44
g27
tp45
Rp46
(I1
(I1
I1
tp47
g33
I00
S':\xe8 \x16\xff\xfc\xc4\xbf'
p48
tp49
btp50
sS'target_rot'
p51
g24
(cnumpy
ndarray
p52
(I0
tp53
g27
tp54
Rp55
(I1
(I3
tp56
g33
I00
S'C\xc7\xe7\xe7\x91\t\xb4?\xf5\x11>!\xe6d(\xc0a@\tTb4e\xc0'
p57
tp58
bsS'center_actual_pixels'
p59
(I1431
I375
tp60
s.(dp0
S'center_target_pixels'
p1
(I787
I446
tp2
sS'target_pos'
p3
(lp4
cnumpy.core.multiarray
scalar
p5
(cnumpy
dtype
p6
(S'f8'
p7
I0
I1
tp8
Rp9
(I3
S'<'
p10
NNNI-1
I-1
I0
tp11
bS'2\xbas\xe7*G\xaf?'
p12
tp13
Rp14
ag5
(g9
S'Ha\x88&\x12\x1c\xa7?'
p15
tp16
Rp17
ag5
(g9
S'\xf8\xb1\xd7xq\xca\xc5\xbf'
p18
tp19
Rp20
asS'actual_rot'
p21
(F-1.1042468670396801
F-16.613662391635803
F-166.06501010623032
tp22
sS'actual_pos'
p23
(cnumpy.core.multiarray
_reconstruct
p24
(cnumpy.matrixlib.defmatrix
matrix
p25
(I0
tp26
S'b'
p27
tp28
Rp29
(I1
(I1
I1
tp30
g6
(S'f8'
p31
I0
I1
tp32
Rp33
(I3
S'<'
p34
NNNI-1
I-1
I0
tp35
bI00
S'^`n\xeb]F\xaf?'
p36
tp37
bg24
(g25
(I0
tp38
g27
tp39
Rp40
(I1
(I1
I1
tp41
g33
I00
S'Wk\xb6\xdfMp\xa7?'
p42
tp43
bg24
(g25
(I0
tp44
g27
tp45
Rp46
(I1
(I1
I1
tp47
g33
I00
S'\xbew\xae\x07\xec\xc1\xc5\xbf'
p48
tp49
btp50
sS'target_rot'
p51
g24
(cnumpy
ndarray
p52
(I0
tp53
g27
tp54
Rp55
(I1
(I3
tp56
g33
I00
S'C\xc7\xe7\xe7\x91\t\xb4?\xf5\x11>!\xe6d(\xc0a@\tTb4e\xc0'
p57
tp58
bsS'center_actual_pixels'
p59
(I785
I419
tp60
s.(dp0
S'center_target_pixels'
p1
(I966
I458
tp2
sS'target_pos'
p3
(lp4
cnumpy.core.multiarray
scalar
p5
(cnumpy
dtype
p6
(S'f8'
p7
I0
I1
tp8
Rp9
(I3
S'<'
p10
NNNI-1
I-1
I0
tp11
bS'F\xa5\xcf\x1eW8\xa7?'
p12
tp13
Rp14
ag5
(g9
S'\x0f\xf4\xd9\x9f\xcb\x88\xa6?'
p15
tp16
Rp17
ag5
(g9
S'\xf5\xec\xb9\xf0\n\x91\xc5\xbf'
p18
tp19
Rp20
asS'actual_rot'
p21
(F-0.29818888258944215
F-13.532248623981605
F-167.29204817736144
tp22
sS'actual_pos'
p23
(cnumpy.core.multiarray
_reconstruct
p24
(cnumpy.matrixlib.defmatrix
matrix
p25
(I0
tp26
S'b'
p27
tp28
Rp29
(I1
(I1
I1
tp30
g6
(S'f8'
p31
I0
I1
tp32
Rp33
(I3
S'<'
p34
NNNI-1
I-1
I0
tp35
bI00
S'\x97"\xcafP\xf8\xa6?'
p36
tp37
bg24
(g25
(I0
tp38
g27
tp39
Rp40
(I1
(I1
I1
tp41
g33
I00
S'\xe7\x98e\x85\x96\xd1\xa6?'
p42
tp43
bg24
(g25
(I0
tp44
g27
tp45
Rp46
(I1
(I1
I1
tp47
g33
I00
S'0\xe6(\x0b\xeb\x84\xc5\xbf'
p48
tp49
btp50
sS'target_rot'
p51
g24
(cnumpy
ndarray
p52
(I0
tp53
g27
tp54
Rp55
(I1
(I3
tp56
g33
I00
S'C\xc7\xe7\xe7\x91\t\xb4?\xf5\x11>!\xe6d(\xc0a@\tTb4e\xc0'
p57
tp58
bsS'center_actual_pixels'
p59
(I972
I432
tp60
s.(dp0
S'actual_pos'
p1
(cnumpy.core.multiarray
_reconstruct
p2
(cnumpy.matrixlib.defmatrix
matrix
p3
(I0
tp4
S'b'
p5
tp6
Rp7
(I1
(I1
I1
tp8
cnumpy
dtype
p9
(S'f8'
p10
I0
I1
tp11
Rp12
(I3
S'<'
p13
NNNI-1
I-1
I0
tp14
bI00
S';\xbe\xd6\\\x1e\xb5\x9d?'
p15
tp16
bg2
(g3
(I0
tp17
g5
tp18
Rp19
(I1
(I1
I1
tp20
g12
I00
S'\x80\xfc$\xb2\xea.\xa6?'
p21
tp22
bg2
(g3
(I0
tp23
g5
tp24
Rp25
(I1
(I1
I1
tp26
g12
I00
S'@\xab\xc4\xa1nK\xc5\xbf'
p27
tp28
btp29
sS'actual_rot'
p30
(F0.26430627048333477
F-11.230237892361965
F-169.37034247568857
tp31
sS'target_pos'
p32
(lp33
cnumpy.core.multiarray
scalar
p34
(g12
S'\x90\x9c\xea\xcb\xcaw\x9e?'
p35
tp36
Rp37
ag34
(g12
S'U\xb2H\x8bM\xe6\xa5?'
p38
tp39
Rp40
ag34
(g12
S'\xd0\xe84gHW\xc5\xbf'
p41
tp42
Rp43
asS'target_rot'
p44
g2
(cnumpy
ndarray
p45
(I0
tp46
g5
tp47
Rp48
(I1
(I3
tp49
g12
I00
S'C\xc7\xe7\xe7\x91\t\xb4?\xf5\x11>!\xe6d(\xc0a@\tTb4e\xc0'
p50
tp51
bsS'center_target_pixels'
p52
(I1142
I469
tp53
sS'center_actual_pixels'
p54
(I1156
I443
tp55
s.(dp0
S'actual_pos'
p1
(cnumpy.core.multiarray
_reconstruct
p2
(cnumpy.matrixlib.defmatrix
matrix
p3
(I0
tp4
S'b'
p5
tp6
Rp7
(I1
(I1
I1
tp8
cnumpy
dtype
p9
(S'f8'
p10
I0
I1
tp11
Rp12
(I3
S'<'
p13
NNNI-1
I-1
I0
tp14
bI00
S'\x16wQ<N\x95\x8b?'
p15
tp16
bg2
(g3
(I0
tp17
g5
tp18
Rp19
(I1
(I1
I1
tp20
g12
I00
S'l\x04\xe1\xbeF\xd9\xa5?'
p21
tp22
bg2
(g3
(I0
tp23
g5
tp24
Rp25
(I1
(I1
I1
tp26
g12
I00
S'\x96\x1e\xfdc-\x14\xc5\xbf'
p27
tp28
btp29
sS'actual_rot'
p30
(F1.0570496568464913
F-8.306150354311486
F-170.85686048226174
tp31
sS'target_pos'
p32
(lp33
cnumpy.core.multiarray
scalar
p34
(g12
S'\x1cdI\xdf\xac\xd5\x8d?'
p35
tp36
Rp37
ag34
(g12
S'!\xa2\xeaW$\x9f\xa5?'
p38
tp39
Rp40
ag34
(g12
S'\x9c\x1a\xce\x92\x1c\x1c\xc5\xbf'
p41
tp42
Rp43
asS'target_rot'
p44
g2
(cnumpy
ndarray
p45
(I0
tp46
g5
tp47
Rp48
(I1
(I3
tp49
g12
I00
S'C\xc7\xe7\xe7\x91\t\xb4?\xf5\x11>!\xe6d(\xc0a@\tTb4e\xc0'
p50
tp51
bsS'center_target_pixels'
p52
(I1318
I480
tp53
sS'center_actual_pixels'
p54
(I1331
I456
tp55
s.(dp0
S'actual_pos'
p1
(cnumpy.core.multiarray
_reconstruct
p2
(cnumpy.matrixlib.defmatrix
matrix
p3
(I0
tp4
S'b'
p5
tp6
Rp7
(I1
(I1
I1
tp8
cnumpy
dtype
p9
(S'f8'
p10
I0
I1
tp11
Rp12
(I3
S'<'
p13
NNNI-1
I-1
I0
tp14
bI00
S'\x92d\xad\xcb\xc0\x81\xb1?'
p15
tp16
bg2
(g3
(I0
tp17
g5
tp18
Rp19
(I1
(I1
I1
tp20
g12
I00
S'7\x14\xa0\xeb\xa1\x85\xab?'
p21
tp22
bg2
(g3
(I0
tp23
g5
tp24
Rp25
(I1
(I1
I1
tp26
g12
I00
S'9\x92\xb9\xc22\xd2\xc5\xbf'
p27
tp28
btp29
sS'actual_rot'
p30
(F-1.410032824108794
F-16.918039284097507
F-165.13119511984607
tp31
sS'target_pos'
p32
(lp33
cnumpy.core.multiarray
scalar
p34
(g12
S'ul\x17\xa8\x16\x84\xb1?'
p35
tp36
Rp37
ag34
(g12
S'q\xd2c\xa8\x87T\xab?'
p38
tp39
Rp40
ag34
(g12
S'\xca4{\x88k\xe1\xc5\xbf'
p41
tp42
Rp43
asS'target_rot'
p44
g2
(cnumpy
ndarray
p45
(I0
tp46
g5
tp47
Rp48
(I1
(I3
tp49
g12
I00
S'C\xc7\xe7\xe7\x91\t\xb4?\xf5\x11>!\xe6d(\xc0a@\tTb4e\xc0'
p50
tp51
bsS'center_target_pixels'
p52
(I691
I528
tp53
sS'center_actual_pixels'
p54
(I695
I493
tp55
s.(dp0
S'actual_pos'
p1
(cnumpy.core.multiarray
_reconstruct
p2
(cnumpy.matrixlib.defmatrix
matrix
p3
(I0
tp4
S'b'
p5
tp6
Rp7
(I1
(I1
I1
tp8
cnumpy
dtype
p9
(S'f8'
p10
I0
I1
tp11
Rp12
(I3
S'<'
p13
NNNI-1
I-1
I0
tp14
bI00
S'KE\xa5 \x87\xc7\xaa?'
p15
tp16
bg2
(g3
(I0
tp17
g5
tp18
Rp19
(I1
(I1
I1
tp20
g12
I00
S'\x83\x9b38\xb1\x00\xab?'
p21
tp22
bg2
(g3
(I0
tp23
g5
tp24
Rp25
(I1
(I1
I1
tp26
g12
I00
S'\x19\xd86\x87_\x9b\xc5\xbf'
p27
tp28
btp29
sS'actual_rot'
p30
(F-0.6058663187315778
F-14.328625672293153
F-166.41545172015307
tp31
sS'target_pos'
p32
(lp33
cnumpy.core.multiarray
scalar
p34
(g12
S'{\xd1\xca\xf6B\xf6\xaa?'
p35
tp36
Rp37
ag34
(g12
S'r\x93Em\xb8\xd0\xaa?'
p38
tp39
Rp40
ag34
(g12
S'3\x1e\xd2\xf7\x9b\xa8\xc5\xbf'
p41
tp42
Rp43
asS'target_rot'
p44
g2
(cnumpy
ndarray
p45
(I0
tp46
g5
tp47
Rp48
(I1
(I3
tp49
g12
I00
S'C\xc7\xe7\xe7\x91\t\xb4?\xf5\x11>!\xe6d(\xc0a@\tTb4e\xc0'
p50
tp51
bsS'center_target_pixels'
p52
(I871
I540
tp53
sS'center_actual_pixels'
p54
(I880
I511
tp55
s.(dp0
S'actual_pos'
p1
(cnumpy.core.multiarray
_reconstruct
p2
(cnumpy.matrixlib.defmatrix
matrix
p3
(I0
tp4
S'b'
p5
tp6
Rp7
(I1
(I1
I1
tp8
cnumpy
dtype
p9
(S'f8'
p10
I0
I1
tp11
Rp12
(I3
S'<'
p13
NNNI-1
I-1
I0
tp14
bI00
S'\x8b\xc2F\x1b\xf4\x9e\xa2?'
p15
tp16
bg2
(g3
(I0
tp17
g5
tp18
Rp19
(I1
(I1
I1
tp20
g12
I00
S'\xdf\x80\tI\xdap\xaa?'
p21
tp22
bg2
(g3
(I0
tp23
g5
tp24
Rp25
(I1
(I1
I1
tp26
g12
I00
S'\x1d\x1a\x8f\xa2\x17e\xc5\xbf'
p27
tp28
btp29
sS'actual_rot'
p30
(F0.09968768835093847
F-11.932520954456313
F-168.1379965559753
tp31
sS'target_pos'
p32
(lp33
cnumpy.core.multiarray
scalar
p34
(g12
S'<\xd6~=\xc0\xf7\xa2?'
p35
tp36
Rp37
ag34
(g12
S'\xf3\xe3\xf8jtB\xaa?'
p38
tp39
Rp40
ag34
(g12
S'y6;\x94\x1co\xc5\xbf'
p41
tp42
Rp43
asS'target_rot'
p44
g2
(cnumpy
ndarray
p45
(I0
tp46
g5
tp47
Rp48
(I1
(I3
tp49
g12
I00
S'C\xc7\xe7\xe7\x91\t\xb4?\xf5\x11>!\xe6d(\xc0a@\tTb4e\xc0'
p50
tp51
bsS'center_target_pixels'
p52
(I1049
I551
tp53
sS'center_actual_pixels'
p54
(I1064
I523
tp55
s.(dp0
S'actual_pos'
p1
(cnumpy.core.multiarray
_reconstruct
p2
(cnumpy.matrixlib.defmatrix
matrix
p3
(I0
tp4
S'b'
p5
tp6
Rp7
(I1
(I1
I1
tp8
cnumpy
dtype
p9
(S'f8'
p10
I0
I1
tp11
Rp12
(I3
S'<'
p13
NNNI-1
I-1
I0
tp14
bI00
S'\xc1\xc2\x9e\x83\xd9\xfc\x94?'
p15
tp16
bg2
(g3
(I0
tp17
g5
tp18
Rp19
(I1
(I1
I1
tp20
g12
I00
S'\xf7K\xb1\xa9-\xcf\xa9?'
p21
tp22
bg2
(g3
(I0
tp23
g5
tp24
Rp25
(I1
(I1
I1
tp26
g12
I00
S'\xad\x99\xb6\xaf,*\xc5\xbf'
p27
tp28
btp29
sS'actual_rot'
p30
(F0.9049401677478898
F-9.234938466839616
F-169.62307062740703
tp31
sS'target_pos'
p32
(lp33
cnumpy.core.multiarray
scalar
p34
(g12
S'\x17\xba/zD\x07\x96?'
p35
tp36
Rp37
ag34
(g12
S'\x7f5\x8e\x1e\x86\x9e\xa9?'
p38
tp39
Rp40
ag34
(g12
S'y\xcav\xa4\xda4\xc5\xbf'
p41
tp42
Rp43
asS'target_rot'
p44
g2
(cnumpy
ndarray
p45
(I0
tp46
g5
tp47
Rp48
(I1
(I3
tp49
g12
I00
S'C\xc7\xe7\xe7\x91\t\xb4?\xf5\x11>!\xe6d(\xc0a@\tTb4e\xc0'
p50
tp51
bsS'center_target_pixels'
p52
(I1225
I562
tp53
sS'center_actual_pixels'
p54
(I1245
I538
tp55
s.(dp0
S'actual_pos'
p1
(cnumpy.core.multiarray
_reconstruct
p2
(cnumpy.matrixlib.defmatrix
matrix
p3
(I0
tp4
S'b'
p5
tp6
Rp7
(I1
(I1
I1
tp8
cnumpy
dtype
p9
(S'f8'
p10
I0
I1
tp11
Rp12
(I3
S'<'
p13
NNNI-1
I-1
I0
tp14
bI00
S'\xfcM\x99\x10\xbb~q?'
p15
tp16
bg2
(g3
(I0
tp17
g5
tp18
Rp19
(I1
(I1
I1
tp20
g12
I00
S'\xe4:\xdd\xfef\x94\xa9?'
p21
tp22
bg2
(g3
(I0
tp23
g5
tp24
Rp25
(I1
(I1
I1
tp26
g12
I00
S'-\xef\x9b\xbc\x8f\xef\xc4\xbf'
p27
tp28
btp29
sS'actual_rot'
p30
(F1.5334611334499155
F-7.210059141544999
F-171.16284138551126
tp31
sS'target_pos'
p32
(lp33
cnumpy.core.multiarray
scalar
p34
(g12
S'yg\x05=\xf9\xa8v?'
p35
tp36
Rp37
ag34
(g12
S'\xd6\x0cz\xd3\x94g\xa9?'
p38
tp39
Rp40
ag34
(g12
S'\xd1\xdd\xf0\xb4W\xf8\xc4\xbf'
p41
tp42
Rp43
asS'target_rot'
p44
g2
(cnumpy
ndarray
p45
(I0
tp46
g5
tp47
Rp48
(I1
(I3
tp49
g12
I00
S'C\xc7\xe7\xe7\x91\t\xb4?\xf5\x11>!\xe6d(\xc0a@\tTb4e\xc0'
p50
tp51
bsS'center_target_pixels'
p52
(I1403
I575
tp53
sS'center_actual_pixels'
p54
(I1424
I548
tp55
s.(dp0
S'actual_pos'
p1
(cnumpy.core.multiarray
_reconstruct
p2
(cnumpy.matrixlib.defmatrix
matrix
p3
(I0
tp4
S'b'
p5
tp6
Rp7
(I1
(I1
I1
tp8
cnumpy
dtype
p9
(S'f8'
p10
I0
I1
tp11
Rp12
(I3
S'<'
p13
NNNI-1
I-1
I0
tp14
bI00
S'\x80\x81\x1c\xf9\x8a\xbf\xae?'
p15
tp16
bg2
(g3
(I0
tp17
g5
tp18
Rp19
(I1
(I1
I1
tp20
g12
I00
S'|\xfb\xefD\xa1;\xaf?'
p21
tp22
bg2
(g3
(I0
tp23
g5
tp24
Rp25
(I1
(I1
I1
tp26
g12
I00
S'\x08\xab\x8d\xd1\xf9\xb4\xc5\xbf'
p27
tp28
btp29
sS'actual_rot'
p30
(F-1.5972036095210747
F-16.78662655240881
F-164.96389090127036
tp31
sS'target_pos'
p32
(lp33
cnumpy.core.multiarray
scalar
p34
(g12
S'\xac7\xf6q\x0e\xba\xae?'
p35
tp36
Rp37
ag34
(g12
S'"\xec\xb7\xd3?!\xaf?'
p38
tp39
Rp40
ag34
(g12
S'+\xc6\x04\x91\xb1\xbf\xc5\xbf'
p41
tp42
Rp43
asS'target_rot'
p44
g2
(cnumpy
ndarray
p45
(I0
tp46
g5
tp47
Rp48
(I1
(I3
tp49
g12
I00
S'C\xc7\xe7\xe7\x91\t\xb4?\xf5\x11>!\xe6d(\xc0a@\tTb4e\xc0'
p50
tp51
bsS'center_target_pixels'
p52
(I775
I623
tp53
sS'center_actual_pixels'
p54
(I778
I587
tp55
s.(dp0
S'actual_pos'
p1
(cnumpy.core.multiarray
_reconstruct
p2
(cnumpy.matrixlib.defmatrix
matrix
p3
(I0
tp4
S'b'
p5
tp6
Rp7
(I1
(I1
I1
tp8
cnumpy
dtype
p9
(S'f8'
p10
I0
I1
tp11
Rp12
(I3
S'<'
p13
NNNI-1
I-1
I0
tp14
bI00
S'$\x93\xf4ikx\xa6?'
p15
tp16
bg2
(g3
(I0
tp17
g5
tp18
Rp19
(I1
(I1
I1
tp20
g12
I00
S'\x9e\xf1\xf9\\\xff\xaf\xae?'
p21
tp22
bg2
(g3
(I0
tp23
g5
tp24
Rp25
(I1
(I1
I1
tp26
g12
I00
S'\x8a\xcfx1?|\xc5\xbf'
p27
tp28
btp29
sS'actual_rot'
p30
(F-0.6509920108957108
F-14.071685999063472
F-165.54783097848534
tp31
sS'target_pos'
p32
(lp33
cnumpy.core.multiarray
scalar
p34
(g12
S'\xd2\xa9\x99\r_\xae\xa6?'
p35
tp36
Rp37
ag34
(g12
S'\xf0\xf0`\xb0;\x8e\xae?'
p38
tp39
Rp40
ag34
(g12
S'>\xf5T*\xca\x86\xc5\xbf'
p41
tp42
Rp43
asS'target_rot'
p44
g2
(cnumpy
ndarray
p45
(I0
tp46
g5
tp47
Rp48
(I1
(I3
tp49
g12
I00
S'C\xc7\xe7\xe7\x91\t\xb4?\xf5\x11>!\xe6d(\xc0a@\tTb4e\xc0'
p50
tp51
bsS'center_target_pixels'
p52
(I954
I634
tp53
sS'center_actual_pixels'
p54
(I964
I602
tp55
s.(dp0
S'actual_pos'
p1
(cnumpy.core.multiarray
_reconstruct
p2
(cnumpy.matrixlib.defmatrix
matrix
p3
(I0
tp4
S'b'
p5
tp6
Rp7
(I1
(I1
I1
tp8
cnumpy
dtype
p9
(S'f8'
p10
I0
I1
tp11
Rp12
(I3
S'<'
p13
NNNI-1
I-1
I0
tp14
bI00
S'\xbf\xa26\x01\x0f\xab\x9c?'
p15
tp16
bg2
(g3
(I0
tp17
g5
tp18
Rp19
(I1
(I1
I1
tp20
g12
I00
S'\xa1\x8e\xd7\xab\xd1\n\xae?'
p21
tp22
bg2
(g3
(I0
tp23
g5
tp24
Rp25
(I1
(I1
I1
tp26
g12
I00
S'\xf2\xb5\x1c|\x02B\xc5\xbf'
p27
tp28
btp29
sS'actual_rot'
p30
(F0.08098057621698024
F-11.98819535884184
F-167.4524477170937
tp31
sS'target_pos'
p32
(lp33
cnumpy.core.multiarray
scalar
p34
(g12
S'\x16\xb5\x8cC.@\x9d?'
p35
tp36
Rp37
ag34
(g12
S'\xb7\xd5\x93\xce\xc1\xf1\xad?'
p38
tp39
Rp40
ag34
(g12
S'DOt\x83\x1fM\xc5\xbf'
p41
tp42
Rp43
asS'target_rot'
p44
g2
(cnumpy
ndarray
p45
(I0
tp46
g5
tp47
Rp48
(I1
(I3
tp49
g12
I00
S'C\xc7\xe7\xe7\x91\t\xb4?\xf5\x11>!\xe6d(\xc0a@\tTb4e\xc0'
p50
tp51
bsS'center_target_pixels'
p52
(I1131
I645
tp53
sS'center_actual_pixels'
p54
(I1148
I615
tp55
s.(dp0
S'actual_pos'
p1
(cnumpy.core.multiarray
_reconstruct
p2
(cnumpy.matrixlib.defmatrix
matrix
p3
(I0
tp4
S'b'
p5
tp6
Rp7
(I1
(I1
I1
tp8
cnumpy
dtype
p9
(S'f8'
p10
I0
I1
tp11
Rp12
(I3
S'<'
p13
NNNI-1
I-1
I0
tp14
bI00
S'\x96\x83j;?\xe2\x88?'
p15
tp16
bg2
(g3
(I0
tp17
g5
tp18
Rp19
(I1
(I1
I1
tp20
g12
I00
S'\xc8\xc2%b\x14\x82\xad?'
p21
tp22
bg2
(g3
(I0
tp23
g5
tp24
Rp25
(I1
(I1
I1
tp26
g12
I00
S'\xd6;\xfb\x1c\x9b\x0b\xc5\xbf'
p27
tp28
btp29
sS'actual_rot'
p30
(F0.8981485752232192
F-9.655680024225868
F-169.45216731825613
tp31
sS'target_pos'
p32
(lp33
cnumpy.core.multiarray
scalar
p34
(g12
S'\x1f6\xfc\xab`\xaa\x8a?'
p35
tp36
Rp37
ag34
(g12
S'\xcd\x9e\xa7\xf8\re\xad?'
p38
tp39
Rp40
ag34
(g12
S'\xd9\x88K\xdbr\x12\xc5\xbf'
p41
tp42
Rp43
asS'target_rot'
p44
g2
(cnumpy
ndarray
p45
(I0
tp46
g5
tp47
Rp48
(I1
(I3
tp49
g12
I00
S'C\xc7\xe7\xe7\x91\t\xb4?\xf5\x11>!\xe6d(\xc0a@\tTb4e\xc0'
p50
tp51
bsS'center_target_pixels'
p52
(I1307
I655
tp53
sS'center_actual_pixels'
p54
(I1325
I627
tp55
s.(dp0
S'actual_pos'
p1
(cnumpy.core.multiarray
_reconstruct
p2
(cnumpy.matrixlib.defmatrix
matrix
p3
(I0
tp4
S'b'
p5
tp6
Rp7
(I1
(I1
I1
tp8
cnumpy
dtype
p9
(S'f8'
p10
I0
I1
tp11
Rp12
(I3
S'<'
p13
NNNI-1
I-1
I0
tp14
bI00
S'\xcc\x92\xad\xe6\xc2O\xb1?'
p15
tp16
bg2
(g3
(I0
tp17
g5
tp18
Rp19
(I1
(I1
I1
tp20
g12
I00
S'\xa2\x1e\x8dA\x9d\xae\xb1?'
p21
tp22
bg2
(g3
(I0
tp23
g5
tp24
Rp25
(I1
(I1
I1
tp26
g12
I00
S'\x80D\xb97\xd1\xc7\xc5\xbf'
p27
tp28
btp29
sS'actual_rot'
p30
(F-1.9216311821494718
F-17.07359877238243
F-163.75134135338308
tp31
sS'target_pos'
p32
(lp33
cnumpy.core.multiarray
scalar
p34
(g12
S'\x10\xcd\xb7\xca\x90Q\xb1?'
p35
tp36
Rp37
ag34
(g12
S'}\xfa\xa8\xf8\xf3\xa0\xb1?'
p38
tp39
Rp40
ag34
(g12
S'\xd0\xfc4@^\xd7\xc5\xbf'
p41
tp42
Rp43
asS'target_rot'
p44
g2
(cnumpy
ndarray
p45
(I0
tp46
g5
tp47
Rp48
(I1
(I3
tp49
g12
I00
S'C\xc7\xe7\xe7\x91\t\xb4?\xf5\x11>!\xe6d(\xc0a@\tTb4e\xc0'
p50
tp51
bsS'center_target_pixels'
p52
(I675
I705
tp53
sS'center_actual_pixels'
p54
(I688
I666
tp55
s.(dp0
S'actual_pos'
p1
(cnumpy.core.multiarray
_reconstruct
p2
(cnumpy.matrixlib.defmatrix
matrix
p3
(I0
tp4
S'b'
p5
tp6
Rp7
(I1
(I1
I1
tp8
cnumpy
dtype
p9
(S'f8'
p10
I0
I1
tp11
Rp12
(I3
S'<'
p13
NNNI-1
I-1
I0
tp14
bI00
S'\xc24uV\xfeG\xaa?'
p15
tp16
bg2
(g3
(I0
tp17
g5
tp18
Rp19
(I1
(I1
I1
tp20
g12
I00
S'\xdf\x1bO\x8f\xa5z\xb1?'
p21
tp22
bg2
(g3
(I0
tp23
g5
tp24
Rp25
(I1
(I1
I1
tp26
g12
I00
S'\xd1S\xaa\xc4\x9c\x90\xc5\xbf'
p27
tp28
btp29
sS'actual_rot'
p30
(F-0.9194308688630238
F-14.527579529499562
F-164.91360210272813
tp31
sS'target_pos'
p32
(lp33
cnumpy.core.multiarray
scalar
p34
(g12
S'\x91\x8e\t\xef\x84t\xaa?'
p35
tp36
Rp37
ag34
(g12
S't\x95aOxm\xb1?'
p38
tp39
Rp40
ag34
(g12
S'i\xbc\xff\xf7\x0f\x9e\xc5\xbf'
p41
tp42
Rp43
asS'target_rot'
p44
g2
(cnumpy
ndarray
p45
(I0
tp46
g5
tp47
Rp48
(I1
(I3
tp49
g12
I00
S'C\xc7\xe7\xe7\x91\t\xb4?\xf5\x11>!\xe6d(\xc0a@\tTb4e\xc0'
p50
tp51
bsS'center_target_pixels'
p52
(I858
I717
tp53
sS'center_actual_pixels'
p54
(I870
I683
tp55
s.(dp0
S'actual_pos'
p1
(cnumpy.core.multiarray
_reconstruct
p2
(cnumpy.matrixlib.defmatrix
matrix
p3
(I0
tp4
S'b'
p5
tp6
Rp7
(I1
(I1
I1
tp8
cnumpy
dtype
p9
(S'f8'
p10
I0
I1
tp11
Rp12
(I3
S'<'
p13
NNNI-1
I-1
I0
tp14
bI00
S'\xe7\xa2u0\xe3\xff\xa1?'
p15
tp16
bg2
(g3
(I0
tp17
g5
tp18
Rp19
(I1
(I1
I1
tp20
g12
I00
S'[\x1d\xbd\x06F4\xb1?'
p21
tp22
bg2
(g3
(I0
tp23
g5
tp24
Rp25
(I1
(I1
I1
tp26
g12
I00
S'\xac\x01r\xf4\x87W\xc5\xbf'
p27
tp28
btp29
sS'actual_rot'
p30
(F0.05689989496336315
F-11.992418372173393
F-166.22781632896394
tp31
sS'target_pos'
p32
(lp33
cnumpy.core.multiarray
scalar
p34
(g12
S'\xab\x9d\x8a\xad\xff[\xa2?'
p35
tp36
Rp37
ag34
(g12
S'\x8a \x9aX\t(\xb1?'
p38
tp39
Rp40
ag34
(g12
S'|\x98\xd5\x92Yd\xc5\xbf'
p41
tp42
Rp43
asS'target_rot'
p44
g2
(cnumpy
ndarray
p45
(I0
tp46
g5
tp47
Rp48
(I1
(I3
tp49
g12
I00
S'C\xc7\xe7\xe7\x91\t\xb4?\xf5\x11>!\xe6d(\xc0a@\tTb4e\xc0'
p50
tp51
bsS'center_target_pixels'
p52
(I1038
I728
tp53
sS'center_actual_pixels'
p54
(I1056
I698
tp55
s.(dp0
S'actual_pos'
p1
(cnumpy.core.multiarray
_reconstruct
p2
(cnumpy.matrixlib.defmatrix
matrix
p3
(I0
tp4
S'b'
p5
tp6
Rp7
(I1
(I1
I1
tp8
cnumpy
dtype
p9
(S'f8'
p10
I0
I1
tp11
Rp12
(I3
S'<'
p13
NNNI-1
I-1
I0
tp14
bI00
S'\xf2\xe9/\xeer\x12\x94?'
p15
tp16
bg2
(g3
(I0
tp17
g5
tp18
Rp19
(I1
(I1
I1
tp20
g12
I00
S'\xa8[<\xc8\xa1\xe8\xb0?'
p21
tp22
bg2
(g3
(I0
tp23
g5
tp24
Rp25
(I1
(I1
I1
tp26
g12
I00
S'\x84\x94\xd1\xae\x85\x1e\xc5\xbf'
p27
tp28
btp29
sS'actual_rot'
p30
(F0.1901535546495611
F-11.696116857957726
F-166.84486990054353
tp31
sS'target_pos'
p32
(lp33
cnumpy.core.multiarray
scalar
p34
(g12
S' \xc3,\x18r\xaa\x94?'
p35
tp36
Rp37
ag34
(g12
S'H\xd7W\x1d\xdf\xdb\xb0?'
p38
tp39
Rp40
ag34
(g12
S'\x87\xc5\x0c\xf1A*\xc5\xbf'
p41
tp42
Rp43
asS'target_rot'
p44
g2
(cnumpy
ndarray
p45
(I0
tp46
g5
tp47
Rp48
(I1
(I3
tp49
g12
I00
S'C\xc7\xe7\xe7\x91\t\xb4?\xf5\x11>!\xe6d(\xc0a@\tTb4e\xc0'
p50
tp51
bsS'center_target_pixels'
p52
(I1215
I738
tp53
sS'center_actual_pixels'
p54
(I1228
I708
tp55
s.(dp0
S'actual_pos'
p1
(cnumpy.core.multiarray
_reconstruct
p2
(cnumpy.matrixlib.defmatrix
matrix
p3
(I0
tp4
S'b'
p5
tp6
Rp7
(I1
(I1
I1
tp8
cnumpy
dtype
p9
(S'f8'
p10
I0
I1
tp11
Rp12
(I3
S'<'
p13
NNNI-1
I-1
I0
tp14
bI00
S'\xe7`Z\xf7\x91\x80m?'
p15
tp16
bg2
(g3
(I0
tp17
g5
tp18
Rp19
(I1
(I1
I1
tp20
g12
I00
S'\x04\x96\xf7\xb6\xda\xbf\xb0?'
p21
tp22
bg2
(g3
(I0
tp23
g5
tp24
Rp25
(I1
(I1
I1
tp26
g12
I00
S'\x97\xbe2\xd8L\xe3\xc4\xbf'
p27
tp28
btp29
sS'actual_rot'
p30
(F0.9414537361762186
F-9.923294523764753
F-169.06796451807986
tp31
sS'target_pos'
p32
(lp33
cnumpy.core.multiarray
scalar
p34
(g12
S'\xb0\x17\xf2\x96Z\xdeq?'
p35
tp36
Rp37
ag34
(g12
S'\x94GF\xc7U\xb5\xb0?'
p38
tp39
Rp40
ag34
(g12
S'\rI?;\xba\xee\xc4\xbf'
p41
tp42
Rp43
asS'target_rot'
p44
g2
(cnumpy
ndarray
p45
(I0
tp46
g5
tp47
Rp48
(I1
(I3
tp49
g12
I00
S'C\xc7\xe7\xe7\x91\t\xb4?\xf5\x11>!\xe6d(\xc0a@\tTb4e\xc0'
p50
tp51
bsS'center_target_pixels'
p52
(I1392
I748
tp53
sS'center_actual_pixels'
p54
(I1406
I719
tp55
s.