(dp0
S'actual_pos'
p1
(lp2
F0.07144714661763585
aF0.019885160982608008
aF-0.17054921706506362
asS'actual_rot'
p3
(lp4
F-91.9457795226135
aF-4.636282779606367
aF-164.81802718242832
asS'target_pos'
p5
(lp6
F0.07220769673585892
aF0.020069684833288193
aF-0.17096151411533356
asS'target_rot'
p7
cnumpy.core.multiarray
_reconstruct
p8
(cnumpy
ndarray
p9
(I0
tp10
S'b'
p11
tp12
Rp13
(I1
(I3
tp14
cnumpy
dtype
p15
(S'f8'
p16
I0
I1
tp17
Rp18
(I3
S'<'
p19
NNNI-1
I-1
I0
tp20
bI00
S'\x00\x00\x00\x00\x00\x80V\xc0\x00\x00\x00\x00\x00\x00\x00\x00\x00\x00\x00\x00\x00@e\xc0'
p21
tp22
bsS'center_target_pixels'
p23
(I700
I116
tp24
sS'center_actual_pixels'
p25
(I742
I93
tp26
s.(dp0
S'actual_pos'
p1
(lp2
F0.057139625993357236
aF0.017876871004889505
aF-0.16823100217900017
asS'actual_rot'
p3
(lp4
F-91.6329541263243
aF-4.798997049457954
aF-164.9560583103858
asS'target_pos'
p5
(lp6
F0.05788854509592056
aF0.018203765153884888
aF-0.168439120054245
asS'target_rot'
p7
cnumpy.core.multiarray
_reconstruct
p8
(cnumpy
ndarray
p9
(I0
tp10
S'b'
p11
tp12
Rp13
(I1
(I3
tp14
cnumpy
dtype
p15
(S'f8'
p16
I0
I1
tp17
Rp18
(I3
S'<'
p19
NNNI-1
I-1
I0
tp20
bI00
S'\x00\x00\x00\x00\x00\x80V\xc0\x00\x00\x00\x00\x00\x00\x00\x00\x00\x00\x00\x00\x00@e\xc0'
p21
tp22
bsS'center_target_pixels'
p23
(I881
I128
tp24
sS'center_actual_pixels'
p25
(I909
I92
tp26
s.(dp0
S'actual_pos'
p1
(lp2
F0.041287149880732725
aF0.01653930537450695
aF-0.16690742476143042
asS'actual_rot'
p3
(lp4
F-91.16024253898632
aF-4.683830648007214
aF-165.46124520059183
asS'target_pos'
p5
(lp6
F0.04197760671377182
aF0.01688454858958721
aF-0.167140930891037
asS'target_rot'
p7
cnumpy.core.multiarray
_reconstruct
p8
(cnumpy
ndarray
p9
(I0
tp10
S'b'
p11
tp12
Rp13
(I1
(I3
tp14
cnumpy
dtype
p15
(S'f8'
p16
I0
I1
tp17
Rp18
(I3
S'<'
p19
NNNI-1
I-1
I0
tp20
bI00
S'\x00\x00\x00\x00\x00\x80V\xc0\x00\x00\x00\x00\x00\x00\x00\x00\x00\x00\x00\x00\x00@e\xc0'
p21
tp22
bsS'center_target_pixels'
p23
(I1060
I137
tp24
sS'center_actual_pixels'
p25
(I1086
I109
tp26
s.(dp0
S'actual_pos'
p1
(lp2
F0.02518700802611716
aF0.016070103754519054
aF-0.16280133387993587
asS'actual_rot'
p3
(lp4
F-90.69995419456549
aF-4.521398767141434
aF-166.6388963115645
asS'target_pos'
p5
(lp6
F0.025669749826192856
aF0.0164436437189579
aF-0.16302645206451416
asS'target_rot'
p7
cnumpy.core.multiarray
_reconstruct
p8
(cnumpy
ndarray
p9
(I0
tp10
S'b'
p11
tp12
Rp13
(I1
(I3
tp14
cnumpy
dtype
p15
(S'f8'
p16
I0
I1
tp17
Rp18
(I3
S'<'
p19
NNNI-1
I-1
I0
tp20
bI00
S'\x00\x00\x00\x00\x00\x80V\xc0\x00\x00\x00\x00\x00\x00\x00\x00\x00\x00\x00\x00\x00@e\xc0'
p21
tp22
bsS'center_target_pixels'
p23
(I1236
I147
tp24
sS'center_actual_pixels'
p25
(I1264
I123
tp26
s.(dp0
S'actual_pos'
p1
(lp2
F0.0650666043990816
aF0.02683229098813608
aF-0.16828061309018338
asS'actual_rot'
p3
(lp4
F-91.64548570411002
aF-4.250069915569893
aF-165.00854037017126
asS'target_pos'
p5
(lp6
F0.06578925251960754
aF0.027223698794841766
aF-0.16837471723556519
asS'target_rot'
p7
cnumpy.core.multiarray
_reconstruct
p8
(cnumpy
ndarray
p9
(I0
tp10
S'b'
p11
tp12
Rp13
(I1
(I3
tp14
cnumpy
dtype
p15
(S'f8'
p16
I0
I1
tp17
Rp18
(I3
S'<'
p19
NNNI-1
I-1
I0
tp20
bI00
S'\x00\x00\x00\x00\x00\x80V\xc0\x00\x00\x00\x00\x00\x00\x00\x00\x00\x00\x00\x00\x00@e\xc0'
p21
tp22
bsS'center_target_pixels'
p23
(I786
I211
tp24
sS'center_actual_pixels'
p25
(I811
I180
tp26
s.(dp0
S'actual_pos'
p1
(lp2
F0.0486592362175057
aF0.024877902733971894
aF-0.1668478822183374
asS'actual_rot'
p3
(lp4
F-91.24919161978293
aF-4.2786311290921795
aF-165.39711652245302
asS'target_pos'
p5
(lp6
F0.04940585047006607
aF0.02524084411561489
aF-0.16705946624279022
asS'target_rot'
p7
cnumpy.core.multiarray
_reconstruct
p8
(cnumpy
ndarray
p9
(I0
tp10
S'b'
p11
tp12
Rp13
(I1
(I3
tp14
cnumpy
dtype
p15
(S'f8'
p16
I0
I1
tp17
Rp18
(I3
S'<'
p19
NNNI-1
I-1
I0
tp20
bI00
S'\x00\x00\x00\x00\x00\x80V\xc0\x00\x00\x00\x00\x00\x00\x00\x00\x00\x00\x00\x00\x00@e\xc0'
p21
tp22
bsS'center_target_pixels'
p23
(I966
I221
tp24
sS'center_actual_pixels'
p25
(I993
I189
tp26
s.(dp0
S'actual_pos'
p1
(lp2
F0.03294498199368383
aF0.02383956795047678
aF-0.16550786513110466
asS'actual_rot'
p3
(lp4
F-90.82478883282941
aF-4.141319359009469
aF-166.00806678098076
asS'target_pos'
p5
(lp6
F0.033513061702251434
aF0.02424921654164791
aF-0.16571059823036194
asS'target_rot'
p7
cnumpy.core.multiarray
_reconstruct
p8
(cnumpy
ndarray
p9
(I0
tp10
S'b'
p11
tp12
Rp13
(I1
(I3
tp14
cnumpy
dtype
p15
(S'f8'
p16
I0
I1
tp17
Rp18
(I3
S'<'
p19
NNNI-1
I-1
I0
tp20
bI00
S'\x00\x00\x00\x00\x00\x80V\xc0\x00\x00\x00\x00\x00\x00\x00\x00\x00\x00\x00\x00\x00@e\xc0'
p21
tp22
bsS'center_target_pixels'
p23
(I1144
I231
tp24
sS'center_actual_pixels'
p25
(I1162
I203
tp26
s.(dp0
S'actual_pos'
p1
(lp2
F0.017500352687259524
aF0.02307787720500207
aF-0.16248917351950254
asS'actual_rot'
p3
(lp4
F-90.40527083552409
aF-3.7668236022516304
aF-168.14296377513256
asS'target_pos'
p5
(lp6
F0.017945554107427597
aF0.023494038730859756
aF-0.16273285448551178
asS'target_rot'
p7
cnumpy.core.multiarray
_reconstruct
p8
(cnumpy
ndarray
p9
(I0
tp10
S'b'
p11
tp12
Rp13
(I1
(I3
tp14
cnumpy
dtype
p15
(S'f8'
p16
I0
I1
tp17
Rp18
(I3
S'<'
p19
NNNI-1
I-1
I0
tp20
bI00
S'\x00\x00\x00\x00\x00\x80V\xc0\x00\x00\x00\x00\x00\x00\x00\x00\x00\x00\x00\x00\x00@e\xc0'
p21
tp22
bsS'center_target_pixels'
p23
(I1320
I240
tp24
sS'center_actual_pixels'
p25
(I1345
I214
tp26
s.(dp0
S'actual_pos'
p1
(lp2
F0.07163161115815506
aF0.03491415690032172
aF-0.16907739579993647
asS'actual_rot'
p3
(lp4
F-91.58397796979547
aF-3.735545656178292
aF-164.817682733847
asS'target_pos'
p5
(lp6
F0.07242430746555328
aF0.035177722573280334
aF-0.16926683485507965
asS'target_rot'
p7
cnumpy.core.multiarray
_reconstruct
p8
(cnumpy
ndarray
p9
(I0
tp10
S'b'
p11
tp12
Rp13
(I1
(I3
tp14
cnumpy
dtype
p15
(S'f8'
p16
I0
I1
tp17
Rp18
(I3
S'<'
p19
NNNI-1
I-1
I0
tp20
bI00
S'\x00\x00\x00\x00\x00\x80V\xc0\x00\x00\x00\x00\x00\x00\x00\x00\x00\x00\x00\x00\x00@e\xc0'
p21
tp22
bsS'center_target_pixels'
p23
(I691
I295
tp24
sS'center_actual_pixels'
p25
(I717
I266
tp26
s.(dp0
S'actual_pos'
p1
(lp2
F0.0564187769082359
aF0.033988279590229924
aF-0.16775338012966923
asS'actual_rot'
p3
(lp4
F-91.23982677197031
aF-3.68419137859859
aF-165.097779333792
asS'target_pos'
p5
(lp6
F0.05710199475288391
aF0.03425706923007965
aF-0.16796091198921204
asS'target_rot'
p7
cnumpy.core.multiarray
_reconstruct
p8
(cnumpy
ndarray
p9
(I0
tp10
S'b'
p11
tp12
Rp13
(I1
(I3
tp14
cnumpy
dtype
p15
(S'f8'
p16
I0
I1
tp17
Rp18
(I3
S'<'
p19
NNNI-1
I-1
I0
tp20
bI00
S'\x00\x00\x00\x00\x00\x80V\xc0\x00\x00\x00\x00\x00\x00\x00\x00\x00\x00\x00\x00\x00@e\xc0'
p21
tp22
bsS'center_target_pixels'
p23
(I872
I305
tp24
sS'center_actual_pixels'
p25
(I894
I282
tp26
s.(dp0
S'actual_pos'
p1
(lp2
F0.03879494224193153
aF0.03382188723320072
aF-0.16627123120647938
asS'actual_rot'
p3
(lp4
F-90.75864074447028
aF-3.252234384617644
aF-166.0174824828321
asS'target_pos'
p5
(lp6
F0.03949633985757828
aF0.03390615060925484
aF-0.16654038429260254
asS'target_rot'
p7
cnumpy.core.multiarray
_reconstruct
p8
(cnumpy
ndarray
p9
(I0
tp10
S'b'
p11
tp12
Rp13
(I1
(I3
tp14
cnumpy
dtype
p15
(S'f8'
p16
I0
I1
tp17
Rp18
(I3
S'<'
p19
NNNI-1
I-1
I0
tp20
bI00
S'\x00\x00\x00\x00\x00\x80V\xc0\x00\x00\x00\x00\x00\x00\x00\x00\x00\x00\x00\x00\x00@e\xc0'
p21
tp22
bsS'center_target_pixels'
p23
(I1051
I315
tp24
sS'center_actual_pixels'
p25
(I1082
I305
tp26
s.(dp0
S'actual_pos'
p1
(lp2
F0.024783286359188892
aF0.03237134736024472
aF-0.163969468467515
asS'actual_rot'
p3
(lp4
F-90.4210579322992
aF-2.7902012077045195
aF-167.28184681097514
asS'target_pos'
p5
(lp6
F0.025285203009843826
aF0.03240720555186272
aF-0.16425269842147827
asS'target_rot'
p7
cnumpy.core.multiarray
_reconstruct
p8
(cnumpy
ndarray
p9
(I0
tp10
S'b'
p11
tp12
Rp13
(I1
(I3
tp14
cnumpy
dtype
p15
(S'f8'
p16
I0
I1
tp17
Rp18
(I3
S'<'
p19
NNNI-1
I-1
I0
tp20
bI00
S'\x00\x00\x00\x00\x00\x80V\xc0\x00\x00\x00\x00\x00\x00\x00\x00\x00\x00\x00\x00\x00@e\xc0'
p21
tp22
bsS'center_target_pixels'
p23
(I1227
I324
tp24
sS'center_actual_pixels'
p25
(I1242
I307
tp26
s.(dp0
S'actual_pos'
p1
(lp2
F0.009009876363093812
aF0.03172822408666036
aF-0.16192659906393964
asS'actual_rot'
p3
(lp4
F-90.09091301973938
aF-1.651430277888107
aF-170.1395226714046
asS'target_pos'
p5
(lp6
F0.009421124123036861
aF0.03160005807876587
aF-0.16227257251739502
asS'target_rot'
p7
cnumpy.core.multiarray
_reconstruct
p8
(cnumpy
ndarray
p9
(I0
tp10
S'b'
p11
tp12
Rp13
(I1
(I3
tp14
cnumpy
dtype
p15
(S'f8'
p16
I0
I1
tp17
Rp18
(I3
S'<'
p19
NNNI-1
I-1
I0
tp20
bI00
S'\x00\x00\x00\x00\x00\x80V\xc0\x00\x00\x00\x00\x00\x00\x00\x00\x00\x00\x00\x00\x00@e\xc0'
p21
tp22
bsS'center_target_pixels'
p23
(I1403
I333
tp24
sS'center_actual_pixels'
p25
(I1422
I321
tp26
s.(dp0
S'actual_pos'
p1
(lp2
F0.06377386760065352
aF0.042653538174858285
aF-0.16905949358943986
asS'actual_rot'
p3
(lp4
F-90.99217203391373
aF-2.5984130919309694
aF-165.1432928902069
asS'target_pos'
p5
(lp6
F0.06461446732282639
aF0.04252620413899422
aF-0.16950787603855133
asS'target_rot'
p7
cnumpy.core.multiarray
_reconstruct
p8
(cnumpy
ndarray
p9
(I0
tp10
S'b'
p11
tp12
Rp13
(I1
(I3
tp14
cnumpy
dtype
p15
(S'f8'
p16
I0
I1
tp17
Rp18
(I3
S'<'
p19
NNNI-1
I-1
I0
tp20
bI00
S'\x00\x00\x00\x00\x00\x80V\xc0\x00\x00\x00\x00\x00\x00\x00\x00\x00\x00\x00\x00\x00@e\xc0'
p21
tp22
bsS'center_target_pixels'
p23
(I778
I390
tp24
sS'center_actual_pixels'
p25
(I792
I375
tp26
s.(dp0
S'actual_pos'
p1
(lp2
F0.046554261322369686
aF0.04208681949646041
aF-0.1667928479882673
asS'actual_rot'
p3
(lp4
F-90.64925303864413
aF-2.3711826696846727
aF-165.5267585515457
asS'target_pos'
p5
(lp6
F0.04715414345264435
aF0.04208284243941307
aF-0.16701005399227142
asS'target_rot'
p7
cnumpy.core.multiarray
_reconstruct
p8
(cnumpy
ndarray
p9
(I0
tp10
S'b'
p11
tp12
Rp13
(I1
(I3
tp14
cnumpy
dtype
p15
(S'f8'
p16
I0
I1
tp17
Rp18
(I3
S'<'
p19
NNNI-1
I-1
I0
tp20
bI00
S'\x00\x00\x00\x00\x00\x80V\xc0\x00\x00\x00\x00\x00\x00\x00\x00\x00\x00\x00\x00\x00@e\xc0'
p21
tp22
bsS'center_target_pixels'
p23
(I957
I399
tp24
sS'center_actual_pixels'
p25
(I981
I387
tp26
s.(dp0
S'actual_pos'
p1
(lp2
F0.03167560272879336
aF0.040547769837518406
aF-0.16534418211051854
asS'actual_rot'
p3
(lp4
F-90.42343795664537
aF-2.2144250508636603
aF-166.8336119945592
asS'target_pos'
p5
(lp6
F0.03216034919023514
aF0.040585994720458984
aF-0.16562031209468842
asS'target_rot'
p7
cnumpy.core.multiarray
_reconstruct
p8
(cnumpy
ndarray
p9
(I0
tp10
S'b'
p11
tp12
Rp13
(I1
(I3
tp14
cnumpy
dtype
p15
(S'f8'
p16
I0
I1
tp17
Rp18
(I3
S'<'
p19
NNNI-1
I-1
I0
tp20
bI00
S'\x00\x00\x00\x00\x00\x80V\xc0\x00\x00\x00\x00\x00\x00\x00\x00\x00\x00\x00\x00\x00@e\xc0'
p21
tp22
bsS'center_target_pixels'
p23
(I1136
I407
tp24
sS'center_actual_pixels'
p25
(I1153
I393
tp26
s.(dp0
S'actual_pos'
p1
(lp2
F0.015367752468370438
aF0.03991068396625928
aF-0.16275402781726356
asS'actual_rot'
p3
(lp4
F-90.07957654670425
aF-0.8532354505361975
aF-169.50939359013088
asS'target_pos'
p5
(lp6
F0.015856634825468063
aF0.03963994234800339
aF-0.16307395696640015
asS'target_rot'
p7
cnumpy.core.multiarray
_reconstruct
p8
(cnumpy
ndarray
p9
(I0
tp10
S'b'
p11
tp12
Rp13
(I1
(I3
tp14
cnumpy
dtype
p15
(S'f8'
p16
I0
I1
tp17
Rp18
(I3
S'<'
p19
NNNI-1
I-1
I0
tp20
bI00
S'\x00\x00\x00\x00\x00\x80V\xc0\x00\x00\x00\x00\x00\x00\x00\x00\x00\x00\x00\x00\x00@e\xc0'
p21
tp22
bsS'center_target_pixels'
p23
(I1311
I416
tp24
sS'center_actual_pixels'
p25
(I1330
I408
tp26
s.(dp0
S'actual_pos'
p1
(lp2
F0.07186120878122233
aF0.05124540226418263
aF-0.1695506978077245
asS'actual_rot'
p3
(lp4
F-90.54600719137919
aF-1.3491513033736153
aF-164.86460827043655
asS'target_pos'
p5
(lp6
F0.0726400837302208
aF0.05111472308635712
aF-0.16990560293197632
asS'target_rot'
p7
cnumpy.core.multiarray
_reconstruct
p8
(cnumpy
ndarray
p9
(I0
tp10
S'b'
p11
tp12
Rp13
(I1
(I3
tp14
cnumpy
dtype
p15
(S'f8'
p16
I0
I1
tp17
Rp18
(I3
S'<'
p19
NNNI-1
I-1
I0
tp20
bI00
S'\x00\x00\x00\x00\x00\x80V\xc0\x00\x00\x00\x00\x00\x00\x00\x00\x00\x00\x00\x00\x00@e\xc0'
p21
tp22
bsS'center_target_pixels'
p23
(I683
I474
tp24
sS'center_actual_pixels'
p25
(I696
I458
tp26
s.(dp0
S'actual_pos'
p1
(lp2
F0.054767983828992874
aF0.050037670635470426
aF-0.16800149809641957
asS'actual_rot'
p3
(lp4
F-90.35508453909651
aF-1.1291416574342679
aF-165.45078834706638
asS'target_pos'
p5
(lp6
F0.055582620203495026
aF0.04996443912386894
aF-0.1683446764945984
asS'target_rot'
p7
cnumpy.core.multiarray
_reconstruct
p8
(cnumpy
ndarray
p9
(I0
tp10
S'b'
p11
tp12
Rp13
(I1
(I3
tp14
cnumpy
dtype
p15
(S'f8'
p16
I0
I1
tp17
Rp18
(I3
S'<'
p19
NNNI-1
I-1
I0
tp20
bI00
S'\x00\x00\x00\x00\x00\x80V\xc0\x00\x00\x00\x00\x00\x00\x00\x00\x00\x00\x00\x00\x00@e\xc0'
p21
tp22
bsS'center_target_pixels'
p23
(I864
I483
tp24
sS'center_actual_pixels'
p25
(I880
I468
tp26
s.(dp0
S'actual_pos'
p1
(lp2
F0.03812140099660942
aF0.04938397845404189
aF-0.16562572972850464
asS'actual_rot'
p3
(lp4
F-90.15600141448299
aF-0.6821045782950373
aF-166.33929882083066
asS'target_pos'
p5
(lp6
F0.038807809352874756
aF0.04931485280394554
aF-0.165859192609787
asS'target_rot'
p7
cnumpy.core.multiarray
_reconstruct
p8
(cnumpy
ndarray
p9
(I0
tp10
S'b'
p11
tp12
Rp13
(I1
(I3
tp14
cnumpy
dtype
p15
(S'f8'
p16
I0
I1
tp17
Rp18
(I3
S'<'
p19
NNNI-1
I-1
I0
tp20
bI00
S'\x00\x00\x00\x00\x00\x80V\xc0\x00\x00\x00\x00\x00\x00\x00\x00\x00\x00\x00\x00\x00@e\xc0'
p21
tp22
bsS'center_target_pixels'
p23
(I1043
I491
tp24
sS'center_actual_pixels'
p25
(I1062
I484
tp26
s.(dp0
S'actual_pos'
p1
(lp2
F0.02298867678729899
aF0.048472235250311586
aF-0.1639624669893013
asS'actual_rot'
p3
(lp4
F-90.04895831434426
aF-0.35623134060611633
aF-168.72410808857907
asS'target_pos'
p5
(lp6
F0.023502834141254425
aF0.048325635492801666
aF-0.16425061225891113
asS'target_rot'
p7
cnumpy.core.multiarray
_reconstruct
p8
(cnumpy
ndarray
p9
(I0
tp10
S'b'
p11
tp12
Rp13
(I1
(I3
tp14
cnumpy
dtype
p15
(S'f8'
p16
I0
I1
tp17
Rp18
(I3
S'<'
p19
NNNI-1
I-1
I0
tp20
bI00
S'\x00\x00\x00\x00\x00\x80V\xc0\x00\x00\x00\x00\x00\x00\x00\x00\x00\x00\x00\x00\x00@e\xc0'
p21
tp22
bsS'center_target_pixels'
p23
(I1219
I499
tp24
sS'center_actual_pixels'
p25
(I1237
I492
tp26
s.(dp0
S'actual_pos'
p1
(lp2
F0.006921524446300961
aF0.04732801785240586
aF-0.16148979372304864
asS'actual_rot'
p3
(lp4
F-89.95138489791441
aF1.111086975414659
aF-172.02789582196974
asS'target_pos'
p5
(lp6
F0.007303571328520775
aF0.04713236168026924
aF-0.1617312729358673
asS'target_rot'
p7
cnumpy.core.multiarray
_reconstruct
p8
(cnumpy
ndarray
p9
(I0
tp10
S'b'
p11
tp12
Rp13
(I1
(I3
tp14
cnumpy
dtype
p15
(S'f8'
p16
I0
I1
tp17
Rp18
(I3
S'<'
p19
NNNI-1
I-1
I0
tp20
bI00
S'\x00\x00\x00\x00\x00\x80V\xc0\x00\x00\x00\x00\x00\x00\x00\x00\x00\x00\x00\x00\x00@e\xc0'
p21
tp22
bsS'center_target_pixels'
p23
(I1396
I507
tp24
sS'center_actual_pixels'
p25
(I1421
I502
tp26
s.(dp0
S'actual_pos'
p1
(lp2
F0.062043715254029394
aF0.05877131134889886
aF-0.16884378052389074
asS'actual_rot'
p3
(lp4
F-90.07027514639897
aF-0.1282392656697995
aF-165.28343310587564
asS'target_pos'
p5
(lp6
F0.06287388503551483
aF0.05862770974636078
aF-0.16924479603767395
asS'target_rot'
p7
cnumpy.core.multiarray
_reconstruct
p8
(cnumpy
ndarray
p9
(I0
tp10
S'b'
p11
tp12
Rp13
(I1
(I3
tp14
cnumpy
dtype
p15
(S'f8'
p16
I0
I1
tp17
Rp18
(I3
S'<'
p19
NNNI-1
I-1
I0
tp20
bI00
S'\x00\x00\x00\x00\x00\x80V\xc0\x00\x00\x00\x00\x00\x00\x00\x00\x00\x00\x00\x00\x00@e\xc0'
p21
tp22
bsS'center_target_pixels'
p23
(I770
I567
tp24
sS'center_actual_pixels'
p25
(I786
I558
tp26
s.(dp0
S'actual_pos'
p1
(lp2
F0.04619939539499953
aF0.057820939279599935
aF-0.16649634198118496
asS'actual_rot'
p3
(lp4
F-89.98889914771814
aF0.03638426836445217
aF-165.82479221148984
asS'target_pos'
p5
(lp6
F0.04679763317108154
aF0.05777769908308983
aF-0.16667792201042175
asS'target_rot'
p7
cnumpy.core.multiarray
_reconstruct
p8
(cnumpy
ndarray
p9
(I0
tp10
S'b'
p11
tp12
Rp13
(I1
(I3
tp14
cnumpy
dtype
p15
(S'f8'
p16
I0
I1
tp17
Rp18
(I3
S'<'
p19
NNNI-1
I-1
I0
tp20
bI00
S'\x00\x00\x00\x00\x00\x80V\xc0\x00\x00\x00\x00\x00\x00\x00\x00\x00\x00\x00\x00\x00@e\xc0'
p21
tp22
bsS'center_target_pixels'
p23
(I949
I575
tp24
sS'center_actual_pixels'
p25
(I965
I561
tp26
s.(dp0
S'actual_pos'
p1
(lp2
F0.030709734227174323
aF0.05708917931223761
aF-0.1646400005631629
asS'actual_rot'
p3
(lp4
F-89.92534980321429
aF0.3949247145203284
aF-167.68429001253358
asS'target_pos'
p5
(lp6
F0.03114454820752144
aF0.05687854066491127
aF-0.16457884013652802
asS'target_rot'
p7
cnumpy.core.multiarray
_reconstruct
p8
(cnumpy
ndarray
p9
(I0
tp10
S'b'
p11
tp12
Rp13
(I1
(I3
tp14
cnumpy
dtype
p15
(S'f8'
p16
I0
I1
tp17
Rp18
(I3
S'<'
p19
NNNI-1
I-1
I0
tp20
bI00
S'\x00\x00\x00\x00\x00\x80V\xc0\x00\x00\x00\x00\x00\x00\x00\x00\x00\x00\x00\x00\x00@e\xc0'
p21
tp22
bsS'center_target_pixels'
p23
(I1127
I583
tp24
sS'center_actual_pixels'
p25
(I1136
I574
tp26
s.(dp0
S'actual_pos'
p1
(lp2
F0.013723479502252401
aF0.055798722870863356
aF-0.16122484367020767
asS'actual_rot'
p3
(lp4
F-89.87105240622863
aF1.5030635406052422
aF-170.99380368444696
asS'target_pos'
p5
(lp6
F0.014201582409441471
aF0.05549289658665657
aF-0.16151085495948792
asS'target_rot'
p7
cnumpy.core.multiarray
_reconstruct
p8
(cnumpy
ndarray
p9
(I0
tp10
S'b'
p11
tp12
Rp13
(I1
(I3
tp14
cnumpy
dtype
p15
(S'f8'
p16
I0
I1
tp17
Rp18
(I3
S'<'
p19
NNNI-1
I-1
I0
tp20
bI00
S'\x00\x00\x00\x00\x00\x80V\xc0\x00\x00\x00\x00\x00\x00\x00\x00\x00\x00\x00\x00\x00@e\xc0'
p21
tp22
bsS'center_target_pixels'
p23
(I1303
I591
tp24
sS'center_actual_pixels'
p25
(I1332
I591
tp26
s.(dp0
S'actual_pos'
p1
(lp2
F0.0692605149556801
aF0.0676386427606307
aF-0.16903906623041512
asS'actual_rot'
p3
(lp4
F-89.98947673207539
aF0.023159619323092757
aF-165.05183052956352
asS'target_pos'
p5
(lp6
F0.07010249048471451
aF0.06760304421186447
aF-0.16929394006729126
asS'target_rot'
p7
cnumpy.core.multiarray
_reconstruct
p8
(cnumpy
ndarray
p9
(I0
tp10
S'b'
p11
tp12
Rp13
(I1
(I3
tp14
cnumpy
dtype
p15
(S'f8'
p16
I0
I1
tp17
Rp18
(I3
S'<'
p19
NNNI-1
I-1
I0
tp20
bI00
S'\x00\x00\x00\x00\x00\x80V\xc0\x00\x00\x00\x00\x00\x00\x00\x00\x00\x00\x00\x00\x00@e\xc0'
p21
tp22
bsS'center_target_pixels'
p23
(I674
I652
tp24
sS'center_actual_pixels'
p25
(I693
I645
tp26
s.(dp0
S'actual_pos'
p1
(lp2
F0.05408722026408945
aF0.06645629119273821
aF-0.1663946280896411
asS'actual_rot'
p3
(lp4
F-90.01993417618857
aF-0.06440743398963661
aF-165.51521456875645
asS'target_pos'
p5
(lp6
F0.05483860522508621
aF0.06652267277240753
aF-0.1665506213903427
asS'target_rot'
p7
cnumpy.core.multiarray
_reconstruct
p8
(cnumpy
ndarray
p9
(I0
tp10
S'b'
p11
tp12
Rp13
(I1
(I3
tp14
cnumpy
dtype
p15
(S'f8'
p16
I0
I1
tp17
Rp18
(I3
S'<'
p19
NNNI-1
I-1
I0
tp20
bI00
S'\x00\x00\x00\x00\x00\x80V\xc0\x00\x00\x00\x00\x00\x00\x00\x00\x00\x00\x00\x00\x00@e\xc0'
p21
tp22
bsS'center_target_pixels'
p23
(I855
I660
tp24
sS'center_actual_pixels'
p25
(I867
I644
tp26
s.(dp0
S'actual_pos'
p1
(lp2
F0.03787944758938995
aF0.06528264258964502
aF-0.1652750290594553
asS'actual_rot'
p3
(lp4
F-89.89588791418245
aF0.44997963972368055
aF-167.13757733044838
asS'target_pos'
p5
(lp6
F0.038455232977867126
aF0.06527422368526459
aF-0.1654496192932129
asS'target_rot'
p7
cnumpy.core.multiarray
_reconstruct
p8
(cnumpy
ndarray
p9
(I0
tp10
S'b'
p11
tp12
Rp13
(I1
(I3
tp14
cnumpy
dtype
p15
(S'f8'
p16
I0
I1
tp17
Rp18
(I3
S'<'
p19
NNNI-1
I-1
I0
tp20
bI00
S'\x00\x00\x00\x00\x00\x80V\xc0\x00\x00\x00\x00\x00\x00\x00\x00\x00\x00\x00\x00\x00@e\xc0'
p21
tp22
bsS'center_target_pixels'
p23
(I1035
I667
tp24
sS'center_actual_pixels'
p25
(I1048
I663
tp26
s.(dp0
S'actual_pos'
p1
(lp2
F0.02196864872078569
aF0.06417946757380169
aF-0.163485699412421
asS'actual_rot'
p3
(lp4
F-89.80754347723398
aF1.4247192547186587
aF-170.13332840717587
asS'target_pos'
p5
(lp6
F0.022382089868187904
aF0.06401266902685165
aF-0.16362948715686798
asS'target_rot'
p7
cnumpy.core.multiarray
_reconstruct
p8
(cnumpy
ndarray
p9
(I0
tp10
S'b'
p11
tp12
Rp13
(I1
(I3
tp14
cnumpy
dtype
p15
(S'f8'
p16
I0
I1
tp17
Rp18
(I3
S'<'
p19
NNNI-1
I-1
I0
tp20
bI00
S'\x00\x00\x00\x00\x00\x80V\xc0\x00\x00\x00\x00\x00\x00\x00\x00\x00\x00\x00\x00\x00@e\xc0'
p21
tp22
bsS'center_target_pixels'
p23
(I1211
I675
tp24
sS'center_actual_pixels'
p25
(I1225
I668
tp26
s.(dp0
S'actual_pos'
p1
(lp2
F0.006084093833909788
aF0.0636036875017161
aF-0.15951208035596634
asS'actual_rot'
p3
(lp4
F-89.86730273709925
aF3.449420535424505
aF-173.67139847499507
asS'target_pos'
p5
(lp6
F0.006409221328794956
aF0.06332013756036758
aF-0.1595965027809143
asS'target_rot'
p7
cnumpy.core.multiarray
_reconstruct
p8
(cnumpy
ndarray
p9
(I0
tp10
S'b'
p11
tp12
Rp13
(I1
(I3
tp14
cnumpy
dtype
p15
(S'f8'
p16
I0
I1
tp17
Rp18
(I3
S'<'
p19
NNNI-1
I-1
I0
tp20
bI00
S'\x00\x00\x00\x00\x00\x80V\xc0\x00\x00\x00\x00\x00\x00\x00\x00\x00\x00\x00\x00\x00@e\xc0'
p21
tp22
bsS'center_target_pixels'
p23
(I1387
I682
tp24
sS'center_actual_pixels'
p25
(I1409
I682
tp26
s.(dp0
S'actual_pos'
p1
(lp2
F0.06139392575149463
aF0.07425759755817732
aF-0.16767152152599227
asS'actual_rot'
p3
(lp4
F-90.11602437653036
aF-0.3195960056240064
aF-165.3595716904732
asS'target_pos'
p5
(lp6
F0.06205113232135773
aF0.07519986480474472
aF-0.16746607422828674
asS'target_rot'
p7
cnumpy.core.multiarray
_reconstruct
p8
(cnumpy
ndarray
p9
(I0
tp10
S'b'
p11
tp12
Rp13
(I1
(I3
tp14
cnumpy
dtype
p15
(S'f8'
p16
I0
I1
tp17
Rp18
(I3
S'<'
p19
NNNI-1
I-1
I0
tp20
bI00
S'\x00\x00\x00\x00\x00\x80V\xc0\x00\x00\x00\x00\x00\x00\x00\x00\x00\x00\x00\x00\x00@e\xc0'
p21
tp22
bsS'center_target_pixels'
p23
(I761
I746
tp24
sS'center_actual_pixels'
p25
(I772
I727
tp26
s.(dp0
S'actual_pos'
p1
(lp2
F0.045220642344158055
aF0.07284050645352287
aF-0.16665990725169771
asS'actual_rot'
p3
(lp4
F-89.97383568472021
aF0.09284350483617117
aF-166.73069863680897
asS'target_pos'
p5
(lp6
F0.04585202783346176
aF0.07375235110521317
aF-0.16651180386543274
asS'target_rot'
p7
cnumpy.core.multiarray
_reconstruct
p8
(cnumpy
ndarray
p9
(I0
tp10
S'b'
p11
tp12
Rp13
(I1
(I3
tp14
cnumpy
dtype
p15
(S'f8'
p16
I0
I1
tp17
Rp18
(I3
S'<'
p19
NNNI-1
I-1
I0
tp20
bI00
S'\x00\x00\x00\x00\x00\x80V\xc0\x00\x00\x00\x00\x00\x00\x00\x00\x00\x00\x00\x00\x00@e\xc0'
p21
tp22
bsS'center_target_pixels'
p23
(I941
I752
tp24
sS'center_actual_pixels'
p25
(I950
I734
tp26
s.(dp0
S'actual_pos'
p1
(lp2
F0.02945334242880678
aF0.07184156251800719
aF-0.16553052340965058
asS'actual_rot'
p3
(lp4
F-89.80750215974699
aF1.0763399771553646
aF-169.40935717989942
asS'target_pos'
p5
(lp6
F0.02989698201417923
aF0.07254063338041306
aF-0.16553135216236115
asS'target_rot'
p7
cnumpy.core.multiarray
_reconstruct
p8
(cnumpy
ndarray
p9
(I0
tp10
S'b'
p11
tp12
Rp13
(I1
(I3
tp14
cnumpy
dtype
p15
(S'f8'
p16
I0
I1
tp17
Rp18
(I3
S'<'
p19
NNNI-1
I-1
I0
tp20
bI00
S'\x00\x00\x00\x00\x00\x80V\xc0\x00\x00\x00\x00\x00\x00\x00\x00\x00\x00\x00\x00\x00@e\xc0'
p21
tp22
bsS'center_target_pixels'
p23
(I1119
I759
tp24
sS'center_actual_pixels'
p25
(I1134
I743
tp26
s.(dp0
S'actual_pos'
p1
(lp2
F0.012243946594263784
aF0.07054822149665228
aF-0.1613960271504003
asS'actual_rot'
p3
(lp4
F-89.76958942092095
aF3.021767899435941
aF-172.93094998560346
asS'target_pos'
p5
(lp6
F0.012711826711893082
aF0.07100863009691238
aF-0.1612427681684494
asS'target_rot'
p7
cnumpy.core.multiarray
_reconstruct
p8
(cnumpy
ndarray
p9
(I0
tp10
S'b'
p11
tp12
Rp13
(I1
(I3
tp14
cnumpy
dtype
p15
(S'f8'
p16
I0
I1
tp17
Rp18
(I3
S'<'
p19
NNNI-1
I-1
I0
tp20
bI00
S'\x00\x00\x00\x00\x00\x80V\xc0\x00\x00\x00\x00\x00\x00\x00\x00\x00\x00\x00\x00\x00@e\xc0'
p21
tp22
bsS'center_target_pixels'
p23
(I1295
I766
tp24
sS'center_actual_pixels'
p25
(I1326
I755
tp26
s.