(dp0
S'actual_pos'
p1
(lp2
F0.07234988096506241
aF0.020401213323583932
aF-0.1708178297110912
asS'actual_rot'
p3
(lp4
F-0.2473726572636961
aF2.1671831324589954
aF-167.01758555346177
asS'target_pos'
p5
(lp6
F0.07276438176631927
aF0.01957012712955475
aF-0.1714787483215332
asS'target_rot'
p7
(lp8
F0.0
aF5.0
aF-167.5
asS'center_target_pixels'
p9
(I699
I116
tp10
sS'center_actual_pixels'
p11
(I718
I131
tp12
s.(dp0
S'actual_pos'
p1
(lp2
F0.05877623261310573
aF0.017597882940368344
aF-0.16828438384957548
asS'actual_rot'
p3
(lp4
F-0.05806818404572702
aF3.9745773035016354
aF-168.90938323428423
asS'target_pos'
p5
(lp6
F0.059282563626766205
aF0.017078537493944168
aF-0.16844820976257324
asS'target_rot'
p7
(lp8
F0.0
aF5.0
aF-167.5
asS'center_target_pixels'
p9
(I881
I128
tp10
sS'center_actual_pixels'
p11
(I870
I108
tp12
s.(dp0
S'actual_pos'
p1
(lp2
F0.04073731829924627
aF0.01688773412884267
aF-0.16678356694219773
asS'actual_rot'
p3
(lp4
F0.07163351431255614
aF5.285136347744781
aF-170.93732268136347
asS'target_pos'
p5
(lp6
F0.04144630953669548
aF0.016354326158761978
aF-0.16698500514030457
asS'target_rot'
p7
(lp8
F0.0
aF5.0
aF-167.5
asS'center_target_pixels'
p9
(I1060
I137
tp10
sS'center_actual_pixels'
p11
(I1077
I125
tp12
s.(dp0
S'actual_pos'
p1
(lp2
F0.02637477308940983
aF0.015414945772331243
aF-0.16373828215950958
asS'actual_rot'
p3
(lp4
F0.07441643036531491
aF5.67530495648002
aF-171.68388992350816
asS'target_pos'
p5
(lp6
F0.026966063305735588
aF0.014962438493967056
aF-0.16396017372608185
asS'target_rot'
p7
(lp8
F0.0
aF5.0
aF-167.5
asS'center_target_pixels'
p9
(I1236
I148
tp10
sS'center_actual_pixels'
p11
(I1235
I129
tp12
s.(dp0
S'actual_pos'
p1
(lp2
F0.06654138981524267
aF0.026891894642500334
aF-0.16920389521540938
asS'actual_rot'
p3
(lp4
F-0.8343227816118544
aF-0.18133308568364445
aF-165.130008016542
asS'target_pos'
p5
(lp6
F0.06647367030382156
aF0.026556354016065598
aF-0.16933652758598328
asS'target_rot'
p7
(lp8
F0.0
aF5.0
aF-167.5
asS'center_target_pixels'
p9
(I787
I211
tp10
sS'center_actual_pixels'
p11
(I775
I197
tp12
s.(dp0
S'actual_pos'
p1
(lp2
F0.04959028697611259
aF0.024874976072926932
aF-0.1669297838137534
asS'actual_rot'
p3
(lp4
F-0.351840421694683
aF2.4932544889444266
aF-167.2910173713749
asS'target_pos'
p5
(lp6
F0.04990530014038086
aF0.024524014443159103
aF-0.16707870364189148
asS'target_rot'
p7
(lp8
F0.0
aF5.0
aF-167.5
asS'center_target_pixels'
p9
(I966
I221
tp10
sS'center_actual_pixels'
p11
(I965
I204
tp12
s.(dp0
S'actual_pos'
p1
(lp2
F0.033486297672423206
aF0.024440620067416815
aF-0.16497064559498553
asS'actual_rot'
p3
(lp4
F-0.05181836589646538
aF4.56657261831607
aF-169.24671984663254
asS'target_pos'
p5
(lp6
F0.0340452566742897
aF0.02409113198518753
aF-0.16515794396400452
asS'target_rot'
p7
(lp8
F0.0
aF5.0
aF-167.5
asS'center_target_pixels'
p9
(I1145
I231
tp10
sS'center_actual_pixels'
p11
(I1148
I220
tp12
s.(dp0
S'actual_pos'
p1
(lp2
F0.018657742834170855
aF0.021709974046816988
aF-0.16393273930649616
asS'actual_rot'
p3
(lp4
F0.12780284589808497
aF5.925668152898601
aF-171.604768893076
asS'target_pos'
p5
(lp6
F0.01923896186053753
aF0.02145102247595787
aF-0.16417130827903748
asS'target_rot'
p7
(lp8
F0.0
aF5.0
aF-167.5
asS'center_target_pixels'
p9
(I1320
I241
tp10
sS'center_actual_pixels'
p11
(I1313
I216
tp12
s.(dp0
S'actual_pos'
p1
(lp2
F0.07363728942093956
aF0.03493013872560037
aF-0.16951368228304164
asS'actual_rot'
p3
(lp4
F-1.2357084000622887
aF-0.9035408868665629
aF-164.15406128709668
asS'target_pos'
p5
(lp6
F0.07341745495796204
aF0.034558311104774475
aF-0.16964256763458252
asS'target_rot'
p7
(lp8
F0.0
aF5.0
aF-167.5
asS'center_target_pixels'
p9
(I692
I296
tp10
sS'center_actual_pixels'
p11
(I679
I277
tp12
s.(dp0
S'actual_pos'
p1
(lp2
F0.05793617045181796
aF0.03386256367216385
aF-0.1684878384455533
asS'actual_rot'
p3
(lp4
F-0.7454521544188435
aF1.241700888614486
aF-166.15862517688896
asS'target_pos'
p5
(lp6
F0.05811727046966553
aF0.03341548144817352
aF-0.168802410364151
asS'target_rot'
p7
(lp8
F0.0
aF5.0
aF-167.5
asS'center_target_pixels'
p9
(I873
I306
tp10
sS'center_actual_pixels'
p11
(I860
I295
tp12
s.(dp0
S'actual_pos'
p1
(lp2
F0.03965082860531305
aF0.0328621906030073
aF-0.16665486297803517
asS'actual_rot'
p3
(lp4
F-0.21241047500972268
aF3.8501625747506014
aF-168.39191947506927
asS'target_pos'
p5
(lp6
F0.040113069117069244
aF0.03248756378889084
aF-0.16689971089363098
asS'target_rot'
p7
(lp8
F0.0
aF5.0
aF-167.5
asS'center_target_pixels'
p9
(I1052
I315
tp10
sS'center_actual_pixels'
p11
(I1061
I308
tp12
s.(dp0
S'actual_pos'
p1
(lp2
F0.02468788385349701
aF0.031182141978866436
aF-0.16467411093343512
asS'actual_rot'
p3
(lp4
F0.03875629046901537
aF5.150515827534072
aF-170.4749089238751
asS'target_pos'
p5
(lp6
F0.025147797539830208
aF0.030832726508378983
aF-0.16492898762226105
asS'target_rot'
p7
(lp8
F0.0
aF5.0
aF-167.5
asS'center_target_pixels'
p9
(I1228
I324
tp10
sS'center_actual_pixels'
p11
(I1231
I308
tp12
s.(dp0
S'actual_pos'
p1
(lp2
F0.009489333858603646
aF0.029896937538213333
aF-0.16302441870409068
asS'actual_rot'
p3
(lp4
F0.4548809852065601
aF7.490972361433269
aF-171.3302275897303
asS'target_pos'
p5
(lp6
F0.010290578007698059
aF0.029652826488018036
aF-0.16331571340560913
asS'target_rot'
p7
(lp8
F0.0
aF5.0
aF-167.5
asS'center_target_pixels'
p9
(I1403
I333
tp10
sS'center_actual_pixels'
p11
(I1403
I316
tp12
s.(dp0
S'actual_pos'
p1
(lp2
F0.06632985289160662
aF0.04239449901195652
aF-0.16941736306672683
asS'actual_rot'
p3
(lp4
F-1.4090792327782067
aF-0.5911127553695533
aF-164.28075132686698
asS'target_pos'
p5
(lp6
F0.0661887601017952
aF0.04191824048757553
aF-0.169704407453537
asS'target_rot'
p7
(lp8
F0.0
aF5.0
aF-167.5
asS'center_target_pixels'
p9
(I778
I390
tp10
sS'center_actual_pixels'
p11
(I750
I380
tp12
s.(dp0
S'actual_pos'
p1
(lp2
F0.04827135523464104
aF0.04076967796515765
aF-0.16747206897746295
asS'actual_rot'
p3
(lp4
F-0.8193080482083122
aF1.6367387442050498
aF-166.68258034405233
asS'target_pos'
p5
(lp6
F0.04842238873243332
aF0.040346939116716385
aF-0.1677611619234085
asS'target_rot'
p7
(lp8
F0.0
aF5.0
aF-167.5
asS'center_target_pixels'
p9
(I958
I399
tp10
sS'center_actual_pixels'
p11
(I953
I381
tp12
s.(dp0
S'actual_pos'
p1
(lp2
F0.03163321508522927
aF0.03905963408352089
aF-0.16579439533863163
asS'actual_rot'
p3
(lp4
F-0.11915762682657978
aF4.480726995832207
aF-168.56802454472157
asS'target_pos'
p5
(lp6
F0.0320408008992672
aF0.0386546291410923
aF-0.16607534885406494
asS'target_rot'
p7
(lp8
F0.0
aF5.0
aF-167.5
asS'center_target_pixels'
p9
(I1136
I408
tp10
sS'center_actual_pixels'
p11
(I1142
I390
tp12
s.(dp0
S'actual_pos'
p1
(lp2
F0.016112477748233652
aF0.03792735832164581
aF-0.16372610268017856
asS'actual_rot'
p3
(lp4
F0.31148570385819707
aF6.394444000500492
aF-170.3285561991546
asS'target_pos'
p5
(lp6
F0.01674577035009861
aF0.03758510947227478
aF-0.16404476761817932
asS'target_rot'
p7
(lp8
F0.0
aF5.0
aF-167.5
asS'center_target_pixels'
p9
(I1312
I416
tp10
sS'center_actual_pixels'
p11
(I1323
I400
tp12
s.(dp0
S'actual_pos'
p1
(lp2
F0.0741371614161447
aF0.051113300484270485
aF-0.16979493542990398
asS'actual_rot'
p3
(lp4
F-1.880040008160723
aF-1.052361361817446
aF-163.60192722386253
asS'target_pos'
p5
(lp6
F0.07398445159196854
aF0.050730206072330475
aF-0.1699768602848053
asS'target_rot'
p7
(lp8
F0.0
aF5.0
aF-167.5
asS'center_target_pixels'
p9
(I684
I474
tp10
sS'center_actual_pixels'
p11
(I654
I458
tp12
s.(dp0
S'actual_pos'
p1
(lp2
F0.05685879677749299
aF0.04944396682707335
aF-0.16869992477738766
asS'actual_rot'
p3
(lp4
F-1.1890543340545572
aF0.9469812603207771
aF-165.65967305889095
asS'target_pos'
p5
(lp6
F0.05687686800956726
aF0.048996951431035995
aF-0.16912376880645752
asS'target_rot'
p7
(lp8
F0.0
aF5.0
aF-167.5
asS'center_target_pixels'
p9
(I864
I483
tp10
sS'center_actual_pixels'
p11
(I844
I473
tp12
s.(dp0
S'actual_pos'
p1
(lp2
F0.03961027671830905
aF0.047804271751639885
aF-0.16620867663420139
asS'actual_rot'
p3
(lp4
F-0.4043281820770236
aF3.6124908991659006
aF-167.49057173864458
asS'target_pos'
p5
(lp6
F0.04001769796013832
aF0.047496452927589417
aF-0.16644440591335297
asS'target_rot'
p7
(lp8
F0.0
aF5.0
aF-167.5
asS'center_target_pixels'
p9
(I1043
I491
tp10
sS'center_actual_pixels'
p11
(I1040
I471
tp12
s.(dp0
S'actual_pos'
p1
(lp2
F0.024045982117785504
aF0.046248552129685434
aF-0.16473864733645743
asS'actual_rot'
p3
(lp4
F0.17843080676605994
aF5.640811312657994
aF-169.60899392881504
asS'target_pos'
p5
(lp6
F0.024629611521959305
aF0.04586527869105339
aF-0.16506409645080566
asS'target_rot'
p7
(lp8
F0.0
aF5.0
aF-167.5
asS'center_target_pixels'
p9
(I1220
I500
tp10
sS'center_actual_pixels'
p11
(I1220
I477
tp12
s.(dp0
S'actual_pos'
p1
(lp2
F0.007574655664637746
aF0.04631700309839206
aF-0.16191759033662495
asS'actual_rot'
p3
(lp4
F0.7911783490370322
aF7.7855693829075845
aF-170.71388326617054
asS'target_pos'
p5
(lp6
F0.008446527644991875
aF0.04600142687559128
aF-0.1623055338859558
asS'target_rot'
p7
(lp8
F0.0
aF5.0
aF-167.5
asS'center_target_pixels'
p9
(I1396
I507
tp10
sS'center_actual_pixels'
p11
(I1413
I501
tp12
s.(dp0
S'actual_pos'
p1
(lp2
F0.06474049109808004
aF0.05817466575738133
aF-0.1689165608285993
asS'actual_rot'
p3
(lp4
F-2.068450087862603
aF-0.7288250445277766
aF-163.73129848991806
asS'target_pos'
p5
(lp6
F0.06445824354887009
aF0.05805246904492378
aF-0.1691206693649292
asS'target_rot'
p7
(lp8
F0.0
aF5.0
aF-167.5
asS'center_target_pixels'
p9
(I770
I568
tp10
sS'center_actual_pixels'
p11
(I747
I554
tp12
s.(dp0
S'actual_pos'
p1
(lp2
F0.04833647966518107
aF0.056125728209769674
aF-0.167181749230067
asS'actual_rot'
p3
(lp4
F-1.3223329328359767
aF1.2760813237380644
aF-165.62688121415576
asS'target_pos'
p5
(lp6
F0.04837820678949356
aF0.05600283667445183
aF-0.16736969351768494
asS'target_rot'
p7
(lp8
F0.0
aF5.0
aF-167.5
asS'center_target_pixels'
p9
(I949
I575
tp10
sS'center_actual_pixels'
p11
(I932
I560
tp12
s.(dp0
S'actual_pos'
p1
(lp2
F0.031437552024514384
aF0.05478662043373206
aF-0.16458931036705754
asS'actual_rot'
p3
(lp4
F-0.41053227035414036
aF3.838686210217878
aF-167.4064802659636
asS'target_pos'
p5
(lp6
F0.03172548860311508
aF0.054703161120414734
aF-0.16479367017745972
asS'target_rot'
p7
(lp8
F0.0
aF5.0
aF-167.5
asS'center_target_pixels'
p9
(I1127
I584
tp10
sS'center_actual_pixels'
p11
(I1121
I561
tp12
s.(dp0
S'actual_pos'
p1
(lp2
F0.01470924095431572
aF0.05289919262192781
aF-0.1619017329116342
asS'actual_rot'
p3
(lp4
F0.4599238718255459
aF6.423669298341082
aF-169.32239278661558
asS'target_pos'
p5
(lp6
F0.015290875919163227
aF0.05286847800016403
aF-0.1621457040309906
asS'target_rot'
p7
(lp8
F0.0
aF5.0
aF-167.5
asS'center_target_pixels'
p9
(I1303
I591
tp10
sS'center_actual_pixels'
p11
(I1316
I562
tp12
s.(dp0
S'actual_pos'
p1
(lp2
F0.0722067288548176
aF0.06692347016639082
aF-0.16913826774652976
asS'actual_rot'
p3
(lp4
F-2.4253153919681845
aF-0.6924177810454243
aF-162.99507106340207
asS'target_pos'
p5
(lp6
F0.0720023661851883
aF0.06700146943330765
aF-0.1691811978816986
asS'target_rot'
p7
(lp8
F0.0
aF5.0
aF-167.5
asS'center_target_pixels'
p9
(I675
I652
tp10
sS'center_actual_pixels'
p11
(I651
I636
tp12
s.(dp0
S'actual_pos'
p1
(lp2
F0.05596001148821366
aF0.06516678112934243
aF-0.16733178649645536
asS'actual_rot'
p3
(lp4
F-1.9046145571910906
aF0.4611115480274586
aF-164.39587638638903
asS'target_pos'
p5
(lp6
F0.05585866421461105
aF0.0652485266327858
aF-0.1673913300037384
asS'target_rot'
p7
(lp8
F0.0
aF5.0
aF-167.5
asS'center_target_pixels'
p9
(I856
I660
tp10
sS'center_actual_pixels'
p11
(I838
I641
tp12
s.(dp0
S'actual_pos'
p1
(lp2
F0.03902384098294174
aF0.06341253563651478
aF-0.16539160631193792
asS'actual_rot'
p3
(lp4
F-0.8914637177952888
aF2.8927143291827124
aF-166.0445973754904
asS'target_pos'
p5
(lp6
F0.039192453026771545
aF0.06347109377384186
aF-0.16550840437412262
asS'target_rot'
p7
(lp8
F0.0
aF5.0
aF-167.5
asS'center_target_pixels'
p9
(I1035
I667
tp10
sS'center_actual_pixels'
p11
(I1031
I647
tp12
s.(dp0
S'actual_pos'
p1
(lp2
F0.022683922510306473
aF0.06194410391422953
aF-0.16385606347350287
asS'actual_rot'
p3
(lp4
F0.032081456168326715
aF5.208689233097984
aF-167.73073957401027
asS'target_pos'
p5
(lp6
F0.02315470576286316
aF0.06193066015839577
aF-0.16403266787528992
asS'target_rot'
p7
(lp8
F0.0
aF5.0
aF-167.5
asS'center_target_pixels'
p9
(I1211
I675
tp10
sS'center_actual_pixels'
p11
(I1214
I653
tp12
s.(dp0
S'actual_pos'
p1
(lp2
F0.006078702147070014
aF0.06138209805478991
aF-0.15988932880326256
asS'actual_rot'
p3
(lp4
F1.2013819759732394
aF8.176806350583297
aF-169.10860261208686
asS'target_pos'
p5
(lp6
F0.006925265304744244
aF0.06144276633858681
aF-0.1600765883922577
asS'target_rot'
p7
(lp8
F0.0
aF5.0
aF-167.5
asS'center_target_pixels'
p9
(I1387
I682
tp10
sS'center_actual_pixels'
p11
(I1409
I672
tp12
s.(dp0
S'actual_pos'
p1
(lp2
F0.06379324975560507
aF0.07366661779780434
aF-0.16815672837785206
asS'actual_rot'
p3
(lp4
F-2.581068424493871
aF-0.32623385327986765
aF-162.90399691415615
asS'target_pos'
p5
(lp6
F0.06344223767518997
aF0.07439757883548737
aF-0.16798654198646545
asS'target_rot'
p7
(lp8
F0.0
aF5.0
aF-167.5
asS'center_target_pixels'
p9
(I761
I746
tp10
sS'center_actual_pixels'
p11
(I734
I728
tp12
s.(dp0
S'actual_pos'
p1
(lp2
F0.046417370412612145
aF0.07128971326144928
aF-0.1668708696750747
asS'actual_rot'
p3
(lp4
F-1.7500465117031856
aF1.4136880207970908
aF-164.40680613488493
asS'target_pos'
p5
(lp6
F0.04637746512889862
aF0.072173573076725
aF-0.1667272001504898
asS'target_rot'
p7
(lp8
F0.0
aF5.0
aF-167.5
asS'center_target_pixels'
p9
(I941
I752
tp10
sS'center_actual_pixels'
p11
(I932
I729
tp12
s.(dp0
S'actual_pos'
p1
(lp2
F0.029904173535274973
aF0.06941452523691732
aF-0.16527777094707444
asS'actual_rot'
p3
(lp4
F-0.6427734325705007
aF3.779800268661491
aF-166.16330865660925
asS'target_pos'
p5
(lp6
F0.03013676032423973
aF0.07029074430465698
aF-0.16520677506923676
asS'target_rot'
p7
(lp8
F0.0
aF5.0
aF-167.5
asS'center_target_pixels'
p9
(I1119
I759
tp10
sS'center_actual_pixels'
p11
(I1123
I734
tp12
s.(dp0
S'actual_pos'
p1
(lp2
F0.012291973890850131
aF0.06803062514113455
aF-0.1618204049055541
asS'actual_rot'
p3
(lp4
F0.5170038411588653
aF6.389907858961913
aF-167.77735410175137
asS'target_pos'
p5
(lp6
F0.01285584270954132
aF0.06889656186103821
aF-0.16176831722259521
asS'target_rot'
p7
(lp8
F0.0
aF5.0
aF-167.5
asS'center_target_pixels'
p9
(I1295
I766
tp10
sS'center_actual_pixels'
p11
(I1329
I746
tp12
s.