(dp0
S'min_x'
p1
cnumpy.core.multiarray
scalar
p2
(cnumpy
dtype
p3
(S'f8'
p4
I0
I1
tp5
Rp6
(I3
S'<'
p7
NNNI-1
I-1
I0
tp8
bS'\xdaL\x0f\xe0\xa7Qp?'
p9
tp10
Rp11
sS'min_y'
p12
g2
(g6
S'\xe9\xb8\x01D\xf3n\x8f?'
p13
tp14
Rp15
sS'max_pitch'
p16
I50
sS'max_roll'
p17
I-100
sS'min_pitch'
p18
I-50
sS'z_gamma'
p19
g2
(g6
S'0\x8b\xb5\xff\xc4\xfe\xc4\xbf'
p20
tp21
Rp22
sS'z_alpha'
p23
g2
(g6
S'@\xadk\x92\x84j\xc0\xbf'
p24
tp25
Rp26
sS'min_yaw'
p27
I-90
sS'min_roll'
p28
I-180
sS'z_beta'
p29
g2
(g6
S'\x00\xa0y\x01\x8a\xd9x?'
p30
tp31
Rp32
sS'max_yaw'
p33
I90
sS'max_x'
p34
g2
(g6
S'\xbf#i\t\xd8\xd1\xb0?'
p35
tp36
Rp37
sS'max_y'
p38
g2
(g6
S'\xb5\x93\x908{\xab\xb3?'
p39
tp40
Rp41
s.