(dp0
S'actual_pos'
p1
(cnumpy.core.multiarray
_reconstruct
p2
(cnumpy.matrixlib.defmatrix
matrix
p3
(I0
tp4
S'b'
p5
tp6
Rp7
(I1
(I1
I1
tp8
cnumpy
dtype
p9
(S'f8'
p10
I0
I1
tp11
Rp12
(I3
S'<'
p13
NNNI-1
I-1
I0
tp14
bI00
S'\x80\x83_\xee`x\xb3?'
p15
tp16
bg2
(g3
(I0
tp17
g5
tp18
Rp19
(I1
(I1
I1
tp20
g12
I00
S'\x91\x84\xaa\xf7G\xcd\xa4?'
p21
tp22
bg2
(g3
(I0
tp23
g5
tp24
Rp25
(I1
(I1
I1
tp26
g12
I00
S'w\\\xe5\x0e\x17p\xc5\xbf'
p27
tp28
btp29
sS'actual_rot'
p30
(F-1.8361325241571957
F-7.817557988755498
F-159.37552867154386
tp31
sS'target_pos'
p32
(lp33
cnumpy.core.multiarray
scalar
p34
(g12
S'-e-N8]\xb3?'
p35
tp36
Rp37
ag34
(g12
S'V:\x15L\xc5n\xa4?'
p38
tp39
Rp40
aF-0.16773688
asS'target_rot'
p41
(F0.0
F0.0
F-160.0
tp42
sS'center_target_pixels'
p43
(I575
I238
tp44
sS'center_actual_pixels'
p45
(I574
I262
tp46
s.(dp0
S'actual_pos'
p1
(cnumpy.core.multiarray
_reconstruct
p2
(cnumpy.matrixlib.defmatrix
matrix
p3
(I0
tp4
S'b'
p5
tp6
Rp7
(I1
(I1
I1
tp8
cnumpy
dtype
p9
(S'f8'
p10
I0
I1
tp11
Rp12
(I3
S'<'
p13
NNNI-1
I-1
I0
tp14
bI00
S'(.\xf9q\x7f\xf3\xae?'
p15
tp16
bg2
(g3
(I0
tp17
g5
tp18
Rp19
(I1
(I1
I1
tp20
g12
I00
S'\x97I\xcd_?\xf6\xa3?'
p21
tp22
bg2
(g3
(I0
tp23
g5
tp24
Rp25
(I1
(I1
I1
tp26
g12
I00
S'\xf8$}\x82\xd7p\xc5\xbf'
p27
tp28
btp29
sS'actual_rot'
p30
(F-0.9510049901580375
F-4.257285513321577
F-161.89941460380857
tp31
sS'target_pos'
p32
(lp33
cnumpy.core.multiarray
scalar
p34
(g12
S'7\x95\xec\x9f\x88\xf2\xae?'
p35
tp36
Rp37
ag34
(g12
S'\xca\xf2y\xcbk\x9d\xa3?'
p38
tp39
Rp40
aF-0.16773688
asS'target_rot'
p41
(F0.0
F0.0
F-160.0
tp42
sS'center_target_pixels'
p43
(I756
I244
tp44
sS'center_actual_pixels'
p45
(I755
I272
tp46
s.(dp0
S'actual_pos'
p1
(cnumpy.core.multiarray
_reconstruct
p2
(cnumpy.matrixlib.defmatrix
matrix
p3
(I0
tp4
S'b'
p5
tp6
Rp7
(I1
(I1
I1
tp8
cnumpy
dtype
p9
(S'f8'
p10
I0
I1
tp11
Rp12
(I3
S'<'
p13
NNNI-1
I-1
I0
tp14
bI00
S'\xfa\x9f\x08\xbdVL\xa6?'
p15
tp16
bg2
(g3
(I0
tp17
g5
tp18
Rp19
(I1
(I1
I1
tp20
g12
I00
S'"\xdc\x91\xc0\xb6\xf2\xa2?'
p21
tp22
bg2
(g3
(I0
tp23
g5
tp24
Rp25
(I1
(I1
I1
tp26
g12
I00
S'#H\x94\x958f\xc5\xbf'
p27
tp28
btp29
sS'actual_rot'
p30
(F-0.610301221382633
F-2.908835724984898
F-162.97608797243254
tp31
sS'target_pos'
p32
(lp33
cnumpy.core.multiarray
scalar
p34
(g12
S'\x17\xc8\x01z\x85i\xa6?'
p35
tp36
Rp37
ag34
(g12
S'\x14&\xaa4\xb8\x86\xa2?'
p38
tp39
Rp40
aF-0.16773688
asS'target_rot'
p41
(F0.0
F0.0
F-160.0
tp42
sS'center_target_pixels'
p43
(I936
I250
tp44
sS'center_actual_pixels'
p45
(I948
I282
tp46
s.(dp0
S'actual_pos'
p1
(cnumpy.core.multiarray
_reconstruct
p2
(cnumpy.matrixlib.defmatrix
matrix
p3
(I0
tp4
S'b'
p5
tp6
Rp7
(I1
(I1
I1
tp8
cnumpy
dtype
p9
(S'f8'
p10
I0
I1
tp11
Rp12
(I3
S'<'
p13
NNNI-1
I-1
I0
tp14
bI00
S'\x9f\xbe\r\xbf\x8c\x96\x9c?'
p15
tp16
bg2
(g3
(I0
tp17
g5
tp18
Rp19
(I1
(I1
I1
tp20
g12
I00
S'\xac\x17a\x9d\xacU\xa2?'
p21
tp22
bg2
(g3
(I0
tp23
g5
tp24
Rp25
(I1
(I1
I1
tp26
g12
I00
S'\xdcO\xe2,\x89T\xc5\xbf'
p27
tp28
btp29
sS'actual_rot'
p30
(F-0.03114317244515418
F-0.28159801677682916
F-163.0152796293109
tp31
sS'target_pos'
p32
(lp33
cnumpy.core.multiarray
scalar
p34
(g12
S'M[\xb2\xf6\xd2(\x9d?'
p35
tp36
Rp37
ag34
(g12
S'\xc0\x9d\x06\x81\xff\xc9\xa1?'
p38
tp39
Rp40
aF-0.16773688
asS'target_rot'
p41
(F0.0
F0.0
F-160.0
tp42
sS'center_target_pixels'
p43
(I1115
I255
tp44
sS'center_actual_pixels'
p45
(I1126
I304
tp46
s.(dp0
S'actual_pos'
p1
(cnumpy.core.multiarray
_reconstruct
p2
(cnumpy.matrixlib.defmatrix
matrix
p3
(I0
tp4
S'b'
p5
tp6
Rp7
(I1
(I1
I1
tp8
cnumpy
dtype
p9
(S'f8'
p10
I0
I1
tp11
Rp12
(I3
S'<'
p13
NNNI-1
I-1
I0
tp14
bI00
S'ng\xf4hh\xcb\xb4?'
p15
tp16
bg2
(g3
(I0
tp17
g5
tp18
Rp19
(I1
(I1
I1
tp20
g12
I00
S'\xa1\xc2=\xc0w\x87\xa8?'
p21
tp22
bg2
(g3
(I0
tp23
g5
tp24
Rp25
(I1
(I1
I1
tp26
g12
I00
S'\x1f\xdc\x9b*\xe5q\xc5\xbf'
p27
tp28
btp29
sS'actual_rot'
p30
(F-2.182154624334684
F-7.7890101125326066
F-159.20781878855294
tp31
sS'target_pos'
p32
(lp33
cnumpy.core.multiarray
scalar
p34
(g12
S'$\xc5z\x1bP\xb5\xb4?'
p35
tp36
Rp37
ag34
(g12
S'\x94R\x14\xf3\xf9/\xa8?'
p38
tp39
Rp40
aF-0.16773688
asS'target_rot'
p41
(F0.0
F0.0
F-160.0
tp42
sS'center_target_pixels'
p43
(I481
I324
tp44
sS'center_actual_pixels'
p45
(I508
I335
tp46
s.(dp0
S'actual_pos'
p1
(cnumpy.core.multiarray
_reconstruct
p2
(cnumpy.matrixlib.defmatrix
matrix
p3
(I0
tp4
S'b'
p5
tp6
Rp7
(I1
(I1
I1
tp8
cnumpy
dtype
p9
(S'f8'
p10
I0
I1
tp11
Rp12
(I3
S'<'
p13
NNNI-1
I-1
I0
tp14
bI00
S'\xc7X}\xb8p\xfa\xb0?'
p15
tp16
bg2
(g3
(I0
tp17
g5
tp18
Rp19
(I1
(I1
I1
tp20
g12
I00
S'qF\xd2v:\x99\xa7?'
p21
tp22
bg2
(g3
(I0
tp23
g5
tp24
Rp25
(I1
(I1
I1
tp26
g12
I00
S'\xc5\xfb\x05d?n\xc5\xbf'
p27
tp28
btp29
sS'actual_rot'
p30
(F-1.4766041491758701
F-5.448400929126952
F-160.38763467186786
tp31
sS'target_pos'
p32
(lp33
cnumpy.core.multiarray
scalar
p34
(g12
S'8\xef\x97{\xc5\xf6\xb0?'
p35
tp36
Rp37
ag34
(g12
S'A\xca\xeb-BB\xa7?'
p38
tp39
Rp40
aF-0.16773688
asS'target_rot'
p41
(F0.0
F0.0
F-160.0
tp42
sS'center_target_pixels'
p43
(I663
I331
tp44
sS'center_actual_pixels'
p45
(I684
I341
tp46
s.(dp0
S'actual_pos'
p1
(cnumpy.core.multiarray
_reconstruct
p2
(cnumpy.matrixlib.defmatrix
matrix
p3
(I0
tp4
S'b'
p5
tp6
Rp7
(I1
(I1
I1
tp8
cnumpy
dtype
p9
(S'f8'
p10
I0
I1
tp11
Rp12
(I3
S'<'
p13
NNNI-1
I-1
I0
tp14
bI00
S'M\xd6\xc2:\xb2\xaa\xaa?'
p15
tp16
bg2
(g3
(I0
tp17
g5
tp18
Rp19
(I1
(I1
I1
tp20
g12
I00
S'\xab\xb3\xe3\xaa\x8a\xb4\xa6?'
p21
tp22
bg2
(g3
(I0
tp23
g5
tp24
Rp25
(I1
(I1
I1
tp26
g12
I00
S'V\n \xf1\xddl\xc5\xbf'
p27
tp28
btp29
sS'actual_rot'
p30
(F-1.0506395649420768
F-3.9664861631778807
F-162.22079665764636
tp31
sS'target_pos'
p32
(lp33
cnumpy.core.multiarray
scalar
p34
(g12
S'\x80\xd3n\x8f_\xb3\xaa?'
p35
tp36
Rp37
ag34
(g12
S'x\x9eQ>\x9b\\\xa6?'
p38
tp39
Rp40
aF-0.16773688
asS'target_rot'
p41
(F0.0
F0.0
F-160.0
tp42
sS'center_target_pixels'
p43
(I844
I337
tp44
sS'center_actual_pixels'
p45
(I843
I346
tp46
s.(dp0
S'actual_pos'
p1
(cnumpy.core.multiarray
_reconstruct
p2
(cnumpy.matrixlib.defmatrix
matrix
p3
(I0
tp4
S'b'
p5
tp6
Rp7
(I1
(I1
I1
tp8
cnumpy
dtype
p9
(S'f8'
p10
I0
I1
tp11
Rp12
(I3
S'<'
p13
NNNI-1
I-1
I0
tp14
bI00
S'\x97|\xc0\xea\xfc\x81\xa0?'
p15
tp16
bg2
(g3
(I0
tp17
g5
tp18
Rp19
(I1
(I1
I1
tp20
g12
I00
S'v}\x1f\x93\xce]\xa6?'
p21
tp22
bg2
(g3
(I0
tp23
g5
tp24
Rp25
(I1
(I1
I1
tp26
g12
I00
S'y\xfb+\x00JW\xc5\xbf'
p27
tp28
btp29
sS'actual_rot'
p30
(F-0.26958051450260034
F-1.1048751488082447
F-162.63750108016055
tp31
sS'target_pos'
p32
(lp33
cnumpy.core.multiarray
scalar
p34
(g12
S'\xc6\xa7v\x8dF\xc1\xa0?'
p35
tp36
Rp37
ag34
(g12
S'?\xf9\x1b\x93\x81\xea\xa5?'
p38
tp39
Rp40
aF-0.16773688
asS'target_rot'
p41
(F0.0
F0.0
F-160.0
tp42
sS'center_target_pixels'
p43
(I1025
I348
tp44
sS'center_actual_pixels'
p45
(I1060
I384
tp46
s.(dp0
S'actual_pos'
p1
(cnumpy.core.multiarray
_reconstruct
p2
(cnumpy.matrixlib.defmatrix
matrix
p3
(I0
tp4
S'b'
p5
tp6
Rp7
(I1
(I1
I1
tp8
cnumpy
dtype
p9
(S'f8'
p10
I0
I1
tp11
Rp12
(I3
S'<'
p13
NNNI-1
I-1
I0
tp14
bI00
S'\xd1z{;\x07p\x95?'
p15
tp16
bg2
(g3
(I0
tp17
g5
tp18
Rp19
(I1
(I1
I1
tp20
g12
I00
S'VR\xc2\x9d\xf6/\xa5?'
p21
tp22
bg2
(g3
(I0
tp23
g5
tp24
Rp25
(I1
(I1
I1
tp26
g12
I00
S'`\xae\xd5|kM\xc5\xbf'
p27
tp28
btp29
sS'actual_rot'
p30
(F0.26824071922332166
F1.0851805089902578
F-162.6898705176967
tp31
sS'target_pos'
p32
(lp33
cnumpy.core.multiarray
scalar
p34
(g12
S'\x12\xa7\xe8~\x1f{\x96?'
p35
tp36
Rp37
ag34
(g12
S'\xceYg\xd1\x16\x9e\xa4?'
p38
tp39
Rp40
aF-0.16773688
asS'target_rot'
p41
(F0.0
F0.0
F-160.0
tp42
sS'center_target_pixels'
p43
(I1201
I349
tp44
sS'center_actual_pixels'
p45
(I1201
I381
tp46
s.(dp0
S'actual_pos'
p1
(cnumpy.core.multiarray
_reconstruct
p2
(cnumpy.matrixlib.defmatrix
matrix
p3
(I0
tp4
S'b'
p5
tp6
Rp7
(I1
(I1
I1
tp8
cnumpy
dtype
p9
(S'f8'
p10
I0
I1
tp11
Rp12
(I3
S'<'
p13
NNNI-1
I-1
I0
tp14
bI00
S'\x12\xb6\x90\xcd\x1a\xc9\xb2?'
p15
tp16
bg2
(g3
(I0
tp17
g5
tp18
Rp19
(I1
(I1
I1
tp20
g12
I00
S'/\xc3[\x88\x98:\xac?'
p21
tp22
bg2
(g3
(I0
tp23
g5
tp24
Rp25
(I1
(I1
I1
tp26
g12
I00
S'\xa4\x08\xcftBn\xc5\xbf'
p27
tp28
btp29
sS'actual_rot'
p30
(F-2.4165534918426923
F-7.285821176236784
F-158.94302907132612
tp31
sS'target_pos'
p32
(lp33
cnumpy.core.multiarray
scalar
p34
(g12
S'\x81\xb0TQe\xb6\xb2?'
p35
tp36
Rp37
ag34
(g12
S'1T!H\xb7\x02\xac?'
p38
tp39
Rp40
aF-0.16773688
asS'target_rot'
p41
(F0.0
F0.0
F-160.0
tp42
sS'center_target_pixels'
p43
(I570
I417
tp44
sS'center_actual_pixels'
p45
(I587
I430
tp46
s.(dp0
S'actual_pos'
p1
(cnumpy.core.multiarray
_reconstruct
p2
(cnumpy.matrixlib.defmatrix
matrix
p3
(I0
tp4
S'b'
p5
tp6
Rp7
(I1
(I1
I1
tp8
cnumpy
dtype
p9
(S'f8'
p10
I0
I1
tp11
Rp12
(I3
S'<'
p13
NNNI-1
I-1
I0
tp14
bI00
S'\x1a=\xce\x8a\x00\x1c\xae?'
p15
tp16
bg2
(g3
(I0
tp17
g5
tp18
Rp19
(I1
(I1
I1
tp20
g12
I00
S'\xd5\xfcwE\xa9\xc5\xaa?'
p21
tp22
bg2
(g3
(I0
tp23
g5
tp24
Rp25
(I1
(I1
I1
tp26
g12
I00
S'\xc4x\xd2\xd6\xd5p\xc5\xbf'
p27
tp28
btp29
sS'actual_rot'
p30
(F-1.6227416198238067
F-5.140937223092415
F-160.26442159089788
tp31
sS'target_pos'
p32
(lp33
cnumpy.core.multiarray
scalar
p34
(g12
S'\x97\xc8@\xb1\x1c\x14\xae?'
p35
tp36
Rp37
ag34
(g12
S'\xd7\x9dc\x93J\x86\xaa?'
p38
tp39
Rp40
aF-0.16773688
asS'target_rot'
p41
(F0.0
F0.0
F-160.0
tp42
sS'center_target_pixels'
p43
(I752
I423
tp44
sS'center_actual_pixels'
p45
(I760
I422
tp46
s.(dp0
S'actual_pos'
p1
(cnumpy.core.multiarray
_reconstruct
p2
(cnumpy.matrixlib.defmatrix
matrix
p3
(I0
tp4
S'b'
p5
tp6
Rp7
(I1
(I1
I1
tp8
cnumpy
dtype
p9
(S'f8'
p10
I0
I1
tp11
Rp12
(I3
S'<'
p13
NNNI-1
I-1
I0
tp14
bI00
S'\xbd\xe4\xee%3\x8b\xa5?'
p15
tp16
bg2
(g3
(I0
tp17
g5
tp18
Rp19
(I1
(I1
I1
tp20
g12
I00
S';6\\3\xb4\xa0\xa9?'
p21
tp22
bg2
(g3
(I0
tp23
g5
tp24
Rp25
(I1
(I1
I1
tp26
g12
I00
S'xO6T\x19d\xc5\xbf'
p27
tp28
btp29
sS'actual_rot'
p30
(F-0.8750742257872041
F-2.9130024810318678
F-162.01551048890627
tp31
sS'target_pos'
p32
(lp33
cnumpy.core.multiarray
scalar
p34
(g12
S'\x00X\xf6\xb2\x03\xaf\xa5?'
p35
tp36
Rp37
ag34
(g12
S'\xeal\xd5\x96\xa4L\xa9?'
p38
tp39
Rp40
aF-0.16773688
asS'target_rot'
p41
(F0.0
F0.0
F-160.0
tp42
sS'center_target_pixels'
p43
(I931
I429
tp44
sS'center_actual_pixels'
p45
(I946
I431
tp46
s.(dp0
S'actual_pos'
p1
(cnumpy.core.multiarray
_reconstruct
p2
(cnumpy.matrixlib.defmatrix
matrix
p3
(I0
tp4
S'b'
p5
tp6
Rp7
(I1
(I1
I1
tp8
cnumpy
dtype
p9
(S'f8'
p10
I0
I1
tp11
Rp12
(I3
S'<'
p13
NNNI-1
I-1
I0
tp14
bI00
S'\x96\x13\x1be\xd6\x0c\x9b?'
p15
tp16
bg2
(g3
(I0
tp17
g5
tp18
Rp19
(I1
(I1
I1
tp20
g12
I00
S'\xdcf\x9fU\x90\xe3\xa8?'
p21
tp22
bg2
(g3
(I0
tp23
g5
tp24
Rp25
(I1
(I1
I1
tp26
g12
I00
S'\xf6*C!\xefO\xc5\xbf'
p27
tp28
btp29
sS'actual_rot'
p30
(F0.0016795564124819707
F0.012111749265914826
F-162.42648203528387
tp31
sS'target_pos'
p32
(lp33
cnumpy.core.multiarray
scalar
p34
(g12
S' ]0\xf1\xc4\xc7\x9b?'
p35
tp36
Rp37
ag34
(g12
S'\x94\x8d\x17.\xa3s\xa8?'
p38
tp39
Rp40
aF-0.16773688
asS'target_rot'
p41
(F0.0
F0.0
F-160.0
tp42
sS'center_target_pixels'
p43
(I1109
I433
tp44
sS'center_actual_pixels'
p45
(I1125
I450
tp46
s.(dp0
S'actual_pos'
p1
(cnumpy.core.multiarray
_reconstruct
p2
(cnumpy.matrixlib.defmatrix
matrix
p3
(I0
tp4
S'b'
p5
tp6
Rp7
(I1
(I1
I1
tp8
cnumpy
dtype
p9
(S'f8'
p10
I0
I1
tp11
Rp12
(I3
S'<'
p13
NNNI-1
I-1
I0
tp14
bI00
S'\x0e\x7f[\x1e1\x98\xb3?'
p15
tp16
bg2
(g3
(I0
tp17
g5
tp18
Rp19
(I1
(I1
I1
tp20
g12
I00
S'\xa5^\xcc\xe5q\\\xaf?'
p21
tp22
bg2
(g3
(I0
tp23
g5
tp24
Rp25
(I1
(I1
I1
tp26
g12
I00
S']6w\x95Hp\xc5\xbf'
p27
tp28
btp29
sS'actual_rot'
p30
(F-2.8051239774982952
F-7.532337366010037
F-158.49073865792872
tp31
sS'target_pos'
p32
(lp33
cnumpy.core.multiarray
scalar
p34
(g12
S'\xa5(\xf0\xbe\xf2\x83\xb3?'
p35
tp36
Rp37
ag34
(g12
S'\xee\xf0e\n\x8d;\xaf?'
p38
tp39
Rp40
aF-0.16773688
asS'target_rot'
p41
(F0.0
F0.0
F-160.0
tp42
sS'center_target_pixels'
p43
(I476
I504
tp44
sS'center_actual_pixels'
p45
(I542
I491
tp46
s.(dp0
S'actual_pos'
p1
(cnumpy.core.multiarray
_reconstruct
p2
(cnumpy.matrixlib.defmatrix
matrix
p3
(I0
tp4
S'b'
p5
tp6
Rp7
(I1
(I1
I1
tp8
cnumpy
dtype
p9
(S'f8'
p10
I0
I1
tp11
Rp12
(I3
S'<'
p13
NNNI-1
I-1
I0
tp14
bI00
S'mS\\\xa5\xd9\xb6\xb0?'
p15
tp16
bg2
(g3
(I0
tp17
g5
tp18
Rp19
(I1
(I1
I1
tp20
g12
I00
S"c,s'\x04\x97\xae?"
p21
tp22
bg2
(g3
(I0
tp23
g5
tp24
Rp25
(I1
(I1
I1
tp26
g12
I00
S'\xba\xb7D\xcb\x97n\xc5\xbf'
p27
tp28
btp29
sS'actual_rot'
p30
(F-2.544361096148964
F-6.96104833687415
F-159.19776274188928
tp31
sS'target_pos'
p32
(lp33
cnumpy.core.multiarray
scalar
p34
(g12
S'c\xfbW[\x89\xa0\xb0?'
p35
tp36
Rp37
ag34
(g12
S'\x00zrB\xe9r\xae?'
p38
tp39
Rp40
aF-0.16773688
asS'target_rot'
p41
(F0.0
F0.0
F-160.0
tp42
sS'center_target_pixels'
p43
(I659
I510
tp44
sS'center_actual_pixels'
p45
(I675
I493
tp46
s.(dp0
S'actual_pos'
p1
(cnumpy.core.multiarray
_reconstruct
p2
(cnumpy.matrixlib.defmatrix
matrix
p3
(I0
tp4
S'b'
p5
tp6
Rp7
(I1
(I1
I1
tp8
cnumpy
dtype
p9
(S'f8'
p10
I0
I1
tp11
Rp12
(I3
S'<'
p13
NNNI-1
I-1
I0
tp14
bI00
S'\x01\x04\xd2\xf8\x9f\xa4\xa9?'
p15
tp16
bg2
(g3
(I0
tp17
g5
tp18
Rp19
(I1
(I1
I1
tp20
g12
I00
S'\x89D&\xff\t\n\xae?'
p21
tp22
bg2
(g3
(I0
tp23
g5
tp24
Rp25
(I1
(I1
I1
tp26
g12
I00
S'\\\xe9R\xc5\xa8k\xc5\xbf'
p27
tp28
btp29
sS'actual_rot'
p30
(F-1.6903209949151423
F-4.721151815891429
F-160.29839428437708
tp31
sS'target_pos'
p32
(lp33
cnumpy.core.multiarray
scalar
p34
(g12
S'\x1a\x08\xc4\xfb\xc2\xa2\xa9?'
p35
tp36
Rp37
ag34
(g12
S'Vr\xbc\x1c\xc1\xdd\xad?'
p38
tp39
Rp40
aF-0.16773688
asS'target_rot'
p41
(F0.0
F0.0
F-160.0
tp42
sS'center_target_pixels'
p43
(I840
I515
tp44
sS'center_actual_pixels'
p45
(I846
I506
tp46
s.(dp0
S'actual_pos'
p1
(cnumpy.core.multiarray
_reconstruct
p2
(cnumpy.matrixlib.defmatrix
matrix
p3
(I0
tp4
S'b'
p5
tp6
Rp7
(I1
(I1
I1
tp8
cnumpy
dtype
p9
(S'f8'
p10
I0
I1
tp11
Rp12
(I3
S'<'
p13
NNNI-1
I-1
I0
tp14
bI00
S'_\xaf\xcd\xab\x89\xc6\xa0?'
p15
tp16
bg2
(g3
(I0
tp17
g5
tp18
Rp19
(I1
(I1
I1
tp20
g12
I00
S'B\xf4#i\xaf\x18\xad?'
p21
tp22
bg2
(g3
(I0
tp23
g5
tp24
Rp25
(I1
(I1
I1
tp26
g12
I00
S'7`\x8a\x8f\xa1X\xc5\xbf'
p27
tp28
btp29
sS'actual_rot'
p30
(F-0.49619560671758084
F-1.388433418998868
F-161.4026416440075
tp31
sS'target_pos'
p32
(lp33
cnumpy.core.multiarray
scalar
p34
(g12
S'\xc1GW\xed\x91\r\xa1?'
p35
tp36
Rp37
ag34
(g12
S';\xa4X\xb5\x07\xd3\xac?'
p38
tp39
Rp40
aF-0.16773688
asS'target_rot'
p41
(F0.0
F0.0
F-160.0
tp42
sS'center_target_pixels'
p43
(I1018
I520
tp44
sS'center_actual_pixels'
p45
(I1040
I528
tp46
s.(dp0
S'actual_pos'
p1
(cnumpy.core.multiarray
_reconstruct
p2
(cnumpy.matrixlib.defmatrix
matrix
p3
(I0
tp4
S'b'
p5
tp6
Rp7
(I1
(I1
I1
tp8
cnumpy
dtype
p9
(S'f8'
p10
I0
I1
tp11
Rp12
(I3
S'<'
p13
NNNI-1
I-1
I0
tp14
bI00
S'\xd1\xc1&\x9d\x8eq\x93?'
p15
tp16
bg2
(g3
(I0
tp17
g5
tp18
Rp19
(I1
(I1
I1
tp20
g12
I00
S'I\xce\x1d\x18\xd8\xc1\xab?'
p21
tp22
bg2
(g3
(I0
tp23
g5
tp24
Rp25
(I1
(I1
I1
tp26
g12
I00
S'\x89\xc2r\x88]N\xc5\xbf'
p27
tp28
btp29
sS'actual_rot'
p30
(F0.48045863412849243
F1.6655910576620352
F-162.32204674541623
tp31
sS'target_pos'
p32
(lp33
cnumpy.core.multiarray
scalar
p34
(g12
S'\xf8\xc2\xcf\x0c\xe8\xc5\x94?'
p35
tp36
Rp37
ag34
(g12
S'\x9c-\xffd\xc4w\xab?'
p38
tp39
Rp40
aF-0.16773688
asS'target_rot'
p41
(F0.0
F0.0
F-160.0
tp42
sS'center_target_pixels'
p43
(I1195
I524
tp44
sS'center_actual_pixels'
p45
(I1210
I520
tp46
s.(dp0
S'actual_pos'
p1
(cnumpy.core.multiarray
_reconstruct
p2
(cnumpy.matrixlib.defmatrix
matrix
p3
(I0
tp4
S'b'
p5
tp6
Rp7
(I1
(I1
I1
tp8
cnumpy
dtype
p9
(S'f8'
p10
I0
I1
tp11
Rp12
(I3
S'<'
p13
NNNI-1
I-1
I0
tp14
bI00
S'\x81\xa4gS\xca\x91\xb2?'
p15
tp16
bg2
(g3
(I0
tp17
g5
tp18
Rp19
(I1
(I1
I1
tp20
g12
I00
S"\xfd'H+\xf6\xfc\xb1?"
p21
tp22
bg2
(g3
(I0
tp23
g5
tp24
Rp25
(I1
(I1
I1
tp26
g12
I00
S'V\x05\x83G\x9co\xc5\xbf'
p27
tp28
btp29
sS'actual_rot'
p30
(F-3.226151501508301
F-7.578167702792347
F-157.7743567658491
tp31
sS'target_pos'
p32
(lp33
cnumpy.core.multiarray
scalar
p34
(g12
S'\xc1\xe1\xf9\x98\x82s\xb2?'
p35
tp36
Rp37
ag34
(g12
S'\xf9\x95\x8dL\xc4\xf0\xb1?'
p38
tp39
Rp40
aF-0.16773688
asS'target_rot'
p41
(F0.0
F0.0
F-160.0
tp42
sS'center_target_pixels'
p43
(I566
I597
tp44
sS'center_actual_pixels'
p45
(I576
I594
tp46
s.(dp0
S'actual_pos'
p1
(cnumpy.core.multiarray
_reconstruct
p2
(cnumpy.matrixlib.defmatrix
matrix
p3
(I0
tp4
S'b'
p5
tp6
Rp7
(I1
(I1
I1
tp8
cnumpy
dtype
p9
(S'f8'
p10
I0
I1
tp11
Rp12
(I3
S'<'
p13
NNNI-1
I-1
I0
tp14
bI00
S'4\xf5\x8a8\xb5)\xad?'
p15
tp16
bg2
(g3
(I0
tp17
g5
tp18
Rp19
(I1
(I1
I1
tp20
g12
I00
S'\xa0\x9e\xa5)v\x86\xb1?'
p21
tp22
bg2
(g3
(I0
tp23
g5
tp24
Rp25
(I1
(I1
I1
tp26
g12
I00
S'\xee\xc9\xc6\x94\xe4n\xc5\xbf'
p27
tp28
btp29
sS'actual_rot'
p30
(F-2.6629761059202113
F-6.317591613090571
F-158.4064133428829
tp31
sS'target_pos'
p32
(lp33
cnumpy.core.multiarray
scalar
p34
(g12
S'\xca\xfa\xf0\xa8?\xfa\xac?'
p35
tp36
Rp37
ag34
(g12
S']\x86\xd5\xcc\x1ay\xb1?'
p38
tp39
Rp40
aF-0.16773688
asS'target_rot'
p41
(F0.0
F0.0
F-160.0
tp42
sS'center_target_pixels'
p43
(I747
I601
tp44
sS'center_actual_pixels'
p45
(I758
I606
tp46
s.(dp0
S'actual_pos'
p1
(cnumpy.core.multiarray
_reconstruct
p2
(cnumpy.matrixlib.defmatrix
matrix
p3
(I0
tp4
S'b'
p5
tp6
Rp7
(I1
(I1
I1
tp8
cnumpy
dtype
p9
(S'f8'
p10
I0
I1
tp11
Rp12
(I3
S'<'
p13
NNNI-1
I-1
I0
tp14
bI00
S'\xb7\x01Q\x0c\xf4\x9c\xa4?'
p15
tp16
bg2
(g3
(I0
tp17
g5
tp18
Rp19
(I1
(I1
I1
tp20
g12
I00
S'\x13\x998\xb1\x81\r\xb1?'
p21
tp22
bg2
(g3
(I0
tp23
g5
tp24
Rp25
(I1
(I1
I1
tp26
g12
I00
S'\x9d\xbe\xea75a\xc5\xbf'
p27
tp28
btp29
sS'actual_rot'
p30
(F-1.3097164323599533
F-3.2071703332774484
F-159.53125441078674
tp31
sS'target_pos'
p32
(lp33
cnumpy.core.multiarray
scalar
p34
(g12
S'\xfdp\x1e\xba\xae\xb3\xa4?'
p35
tp36
Rp37
ag34
(g12
S'\xa1\xa2C\xaf\xbf\xf3\xb0?'
p38
tp39
Rp40
aF-0.16773688
asS'target_rot'
p41
(F0.0
F0.0
F-160.0
tp42
sS'center_target_pixels'
p43
(I927
I606
tp44
sS'center_actual_pixels'
p45
(I940
I617
tp46
s.(dp0
S'actual_pos'
p1
(cnumpy.core.multiarray
_reconstruct
p2
(cnumpy.matrixlib.defmatrix
matrix
p3
(I0
tp4
S'b'
p5
tp6
Rp7
(I1
(I1
I1
tp8
cnumpy
dtype
p9
(S'f8'
p10
I0
I1
tp11
Rp12
(I3
S'<'
p13
NNNI-1
I-1
I0
tp14
bI00
S'\x985,\x93\x0e\xed\x98?'
p15
tp16
bg2
(g3
(I0
tp17
g5
tp18
Rp19
(I1
(I1
I1
tp20
g12
I00
S'8\x86\xb4\xd2\xbe\xb2\xb0?'
p21
tp22
bg2
(g3
(I0
tp23
g5
tp24
Rp25
(I1
(I1
I1
tp26
g12
I00
S'\x07\xe9E"\xa2N\xc5\xbf'
p27
tp28
btp29
sS'actual_rot'
p30
(F0.04856443581086494
F0.20628094127367097
F-159.95076508649575
tp31
sS'target_pos'
p32
(lp33
cnumpy.core.multiarray
scalar
p34
(g12
S'\x06<\x18\xcd,\xae\x99?'
p35
tp36
Rp37
ag34
(g12
S'\xdf\xf5\xf2p\xec\x95\xb0?'
p38
tp39
Rp40
aF-0.16773688
asS'target_rot'
p41
(F0.0
F0.0
F-160.0
tp42
sS'center_target_pixels'
p43
(I1105
I610
tp44
sS'center_actual_pixels'
p45
(I1125
I634
tp46
s.(dp0
S'actual_pos'
p1
(cnumpy.core.multiarray
_reconstruct
p2
(cnumpy.matrixlib.defmatrix
matrix
p3
(I0
tp4
S'b'
p5
tp6
Rp7
(I1
(I1
I1
tp8
cnumpy
dtype
p9
(S'f8'
p10
I0
I1
tp11
Rp12
(I3
S'<'
p13
NNNI-1
I-1
I0
tp14
bI00
S'Uq\xf5\x98g\xff\xb3?'
p15
tp16
bg2
(g3
(I0
tp17
g5
tp18
Rp19
(I1
(I1
I1
tp20
g12
I00
S'\xa1k\x0cL\x89\xfa\xb3?'
p21
tp22
bg2
(g3
(I0
tp23
g5
tp24
Rp25
(I1
(I1
I1
tp26
g12
I00
S'\xdb\xc8b\xb1\xe4s\xc5\xbf'
p27
tp28
btp29
sS'actual_rot'
p30
(F-3.7143893197543676
F-7.787684788118138
F-156.54513438930047
tp31
sS'target_pos'
p32
(lp33
cnumpy.core.multiarray
scalar
p34
(g12
S'\x04\x11\xb3\xd4:\xdd\xb3?'
p35
tp36
Rp37
ag34
(g12
S'L\x19\xce\xefD\xf0\xb3?'
p38
tp39
Rp40
aF-0.16773688
asS'target_rot'
p41
(F0.0
F0.0
F-160.0
tp42
sS'center_target_pixels'
p43
(I471
I684
tp44
sS'center_actual_pixels'
p45
(I500
I674
tp46
s.(dp0
S'actual_pos'
p1
(cnumpy.core.multiarray
_reconstruct
p2
(cnumpy.matrixlib.defmatrix
matrix
p3
(I0
tp4
S'b'
p5
tp6
Rp7
(I1
(I1
I1
tp8
cnumpy
dtype
p9
(S'f8'
p10
I0
I1
tp11
Rp12
(I3
S'<'
p13
NNNI-1
I-1
I0
tp14
bI00
S'\xda\xb1\x05\xe5\x0f\xa5\xb0?'
p15
tp16
bg2
(g3
(I0
tp17
g5
tp18
Rp19
(I1
(I1
I1
tp20
g12
I00
S'\x1bb,\xea\xcd\xa4\xb3?'
p21
tp22
bg2
(g3
(I0
tp23
g5
tp24
Rp25
(I1
(I1
I1
tp26
g12
I00
S';h)\x0b\xb6p\xc5\xbf'
p27
tp28
btp29
sS'actual_rot'
p30
(F-3.26297084261604
F-6.929159735149072
F-156.80242570666545
tp31
sS'target_pos'
p32
(lp33
cnumpy.core.multiarray
scalar
p34
(g12
S'\xbd?\xdd\xe0\xc7\x86\xb0?'
p35
tp36
Rp37
ag34
(g12
S'\xbd\xd3r\xa5Z\x9a\xb3?'
p38
tp39
Rp40
aF-0.16773688
asS'target_rot'
p41
(F0.0
F0.0
F-160.0
tp42
sS'center_target_pixels'
p43
(I654
I689
tp44
sS'center_actual_pixels'
p45
(I500
I674
tp46
s.