(dp0
S'actual_pos'
p1
(cnumpy.core.multiarray
_reconstruct
p2
(cnumpy.matrixlib.defmatrix
matrix
p3
(I0
tp4
S'b'
p5
tp6
Rp7
(I1
(I1
I1
tp8
cnumpy
dtype
p9
(S'f8'
p10
I0
I1
tp11
Rp12
(I3
S'<'
p13
NNNI-1
I-1
I0
tp14
bI00
S'b9\xb7?\xa7_\xb3?'
p15
tp16
bg2
(g3
(I0
tp17
g5
tp18
Rp19
(I1
(I1
I1
tp20
g12
I00
S'\x98F\xc4\xbd\xfc\xc7\xa4?'
p21
tp22
bg2
(g3
(I0
tp23
g5
tp24
Rp25
(I1
(I1
I1
tp26
g12
I00
S'_\xf3pQ\xa9\x91\xc5\xbf'
p27
tp28
btp29
sS'actual_rot'
p30
(F-1.3954669127867314
F-5.920838613456068
F-159.71694551093913
tp31
sS'target_pos'
p32
(lp33
cnumpy.core.multiarray
scalar
p34
(g12
S'-e-N8]\xb3?'
p35
tp36
Rp37
ag34
(g12
S'V:\x15L\xc5n\xa4?'
p38
tp39
Rp40
aF-0.16873688
asS'target_rot'
p41
(F0.0
F0.0
F-160.0
tp42
sS'center_target_pixels'
p43
(I575
I237
tp44
sS'center_actual_pixels'
p45
(I602
I270
tp46
s.(dp0
S'actual_pos'
p1
(cnumpy.core.multiarray
_reconstruct
p2
(cnumpy.matrixlib.defmatrix
matrix
p3
(I0
tp4
S'b'
p5
tp6
Rp7
(I1
(I1
I1
tp8
cnumpy
dtype
p9
(S'f8'
p10
I0
I1
tp11
Rp12
(I3
S'<'
p13
NNNI-1
I-1
I0
tp14
bI00
S'l\xdb>\xbf\xc8\xf0\xae?'
p15
tp16
bg2
(g3
(I0
tp17
g5
tp18
Rp19
(I1
(I1
I1
tp20
g12
I00
S'\x0f\xc0`\x89\xc5\x00\xa4?'
p21
tp22
bg2
(g3
(I0
tp23
g5
tp24
Rp25
(I1
(I1
I1
tp26
g12
I00
S'4\xab\xe9]\x84\x8b\xc5\xbf'
p27
tp28
btp29
sS'actual_rot'
p30
(F-0.9217370043820594
F-4.206294886916921
F-161.84601971154234
tp31
sS'target_pos'
p32
(lp33
cnumpy.core.multiarray
scalar
p34
(g12
S'7\x95\xec\x9f\x88\xf2\xae?'
p35
tp36
Rp37
ag34
(g12
S'\xca\xf2y\xcbk\x9d\xa3?'
p38
tp39
Rp40
aF-0.16873688
asS'target_rot'
p41
(F0.0
F0.0
F-160.0
tp42
sS'center_target_pixels'
p43
(I756
I243
tp44
sS'center_actual_pixels'
p45
(I773
I286
tp46
s.(dp0
S'actual_pos'
p1
(cnumpy.core.multiarray
_reconstruct
p2
(cnumpy.matrixlib.defmatrix
matrix
p3
(I0
tp4
S'b'
p5
tp6
Rp7
(I1
(I1
I1
tp8
cnumpy
dtype
p9
(S'f8'
p10
I0
I1
tp11
Rp12
(I3
S'<'
p13
NNNI-1
I-1
I0
tp14
bI00
S"\xcc\xa8E'\xd2]\xa6?"
p15
tp16
bg2
(g3
(I0
tp17
g5
tp18
Rp19
(I1
(I1
I1
tp20
g12
I00
S'B\r5\xd4s\xfb\xa2?'
p21
tp22
bg2
(g3
(I0
tp23
g5
tp24
Rp25
(I1
(I1
I1
tp26
g12
I00
S'\x8c\xf1ME\x94|\xc5\xbf'
p27
tp28
btp29
sS'actual_rot'
p30
(F-0.6655684704538305
F-3.2621899301207766
F-162.68268009101268
tp31
sS'target_pos'
p32
(lp33
cnumpy.core.multiarray
scalar
p34
(g12
S'\x17\xc8\x01z\x85i\xa6?'
p35
tp36
Rp37
ag34
(g12
S'\x14&\xaa4\xb8\x86\xa2?'
p38
tp39
Rp40
aF-0.16873688
asS'target_rot'
p41
(F0.0
F0.0
F-160.0
tp42
sS'center_target_pixels'
p43
(I936
I250
tp44
sS'center_actual_pixels'
p45
(I956
I295
tp46
s.(dp0
S'actual_pos'
p1
(cnumpy.core.multiarray
_reconstruct
p2
(cnumpy.matrixlib.defmatrix
matrix
p3
(I0
tp4
S'b'
p5
tp6
Rp7
(I1
(I1
I1
tp8
cnumpy
dtype
p9
(S'f8'
p10
I0
I1
tp11
Rp12
(I3
S'<'
p13
NNNI-1
I-1
I0
tp14
bI00
S'o\xac\xe2\x87\x94\x8e\x9c?'
p15
tp16
bg2
(g3
(I0
tp17
g5
tp18
Rp19
(I1
(I1
I1
tp20
g12
I00
S'\xf2\x10&\xbfIc\xa2?'
p21
tp22
bg2
(g3
(I0
tp23
g5
tp24
Rp25
(I1
(I1
I1
tp26
g12
I00
S'\xfc\x13\x13z<h\xc5\xbf'
p27
tp28
btp29
sS'actual_rot'
p30
(F-0.0679947149285838
F-0.5549270943395725
F-162.5102022263648
tp31
sS'target_pos'
p32
(lp33
cnumpy.core.multiarray
scalar
p34
(g12
S'M[\xb2\xf6\xd2(\x9d?'
p35
tp36
Rp37
ag34
(g12
S'\xc0\x9d\x06\x81\xff\xc9\xa1?'
p38
tp39
Rp40
aF-0.16873688
asS'target_rot'
p41
(F0.0
F0.0
F-160.0
tp42
sS'center_target_pixels'
p43
(I1113
I257
tp44
sS'center_actual_pixels'
p45
(I1134
I318
tp46
s.(dp0
S'actual_pos'
p1
(cnumpy.core.multiarray
_reconstruct
p2
(cnumpy.matrixlib.defmatrix
matrix
p3
(I0
tp4
S'b'
p5
tp6
Rp7
(I1
(I1
I1
tp8
cnumpy
dtype
p9
(S'f8'
p10
I0
I1
tp11
Rp12
(I3
S'<'
p13
NNNI-1
I-1
I0
tp14
bI00
S'\xe0\xb6p^\xa5\xc3\xb4?'
p15
tp16
bg2
(g3
(I0
tp17
g5
tp18
Rp19
(I1
(I1
I1
tp20
g12
I00
S'h4t5\xbb~\xa8?'
p21
tp22
bg2
(g3
(I0
tp23
g5
tp24
Rp25
(I1
(I1
I1
tp26
g12
I00
S'\xe4\x86\xa4\xa6\x1c\x91\xc5\xbf'
p27
tp28
btp29
sS'actual_rot'
p30
(F-2.0196040153293806
F-7.20691693869904
F-159.16822579465278
tp31
sS'target_pos'
p32
(lp33
cnumpy.core.multiarray
scalar
p34
(g12
S'$\xc5z\x1bP\xb5\xb4?'
p35
tp36
Rp37
ag34
(g12
S'\x94R\x14\xf3\xf9/\xa8?'
p38
tp39
Rp40
aF-0.16873688
asS'target_rot'
p41
(F0.0
F0.0
F-160.0
tp42
sS'center_target_pixels'
p43
(I481
I324
tp44
sS'center_actual_pixels'
p45
(I525
I341
tp46
s.(dp0
S'actual_pos'
p1
(cnumpy.core.multiarray
_reconstruct
p2
(cnumpy.matrixlib.defmatrix
matrix
p3
(I0
tp4
S'b'
p5
tp6
Rp7
(I1
(I1
I1
tp8
cnumpy
dtype
p9
(S'f8'
p10
I0
I1
tp11
Rp12
(I3
S'<'
p13
NNNI-1
I-1
I0
tp14
bI00
S'\x0e\x11\x82\xf6c\x00\xb1?'
p15
tp16
bg2
(g3
(I0
tp17
g5
tp18
Rp19
(I1
(I1
I1
tp20
g12
I00
S'\xa8I\xcf\xda\x94\x94\xa7?'
p21
tp22
bg2
(g3
(I0
tp23
g5
tp24
Rp25
(I1
(I1
I1
tp26
g12
I00
S'\xd7\xac\xe2\x1a>\x8e\xc5\xbf'
p27
tp28
btp29
sS'actual_rot'
p30
(F-1.4441860143350413
F-5.3745235950217465
F-160.39811164665025
tp31
sS'target_pos'
p32
(lp33
cnumpy.core.multiarray
scalar
p34
(g12
S'8\xef\x97{\xc5\xf6\xb0?'
p35
tp36
Rp37
ag34
(g12
S'A\xca\xeb-BB\xa7?'
p38
tp39
Rp40
aF-0.16873688
asS'target_rot'
p41
(F0.0
F0.0
F-160.0
tp42
sS'center_target_pixels'
p43
(I663
I331
tp44
sS'center_actual_pixels'
p45
(I694
I346
tp46
s.(dp0
S'actual_pos'
p1
(cnumpy.core.multiarray
_reconstruct
p2
(cnumpy.matrixlib.defmatrix
matrix
p3
(I0
tp4
S'b'
p5
tp6
Rp7
(I1
(I1
I1
tp8
cnumpy
dtype
p9
(S'f8'
p10
I0
I1
tp11
Rp12
(I3
S'<'
p13
NNNI-1
I-1
I0
tp14
bI00
S'\x91\xe1o=?\xab\xaa?'
p15
tp16
bg2
(g3
(I0
tp17
g5
tp18
Rp19
(I1
(I1
I1
tp20
g12
I00
S'\xf2g\x83\xa9\xcd\xc4\xa6?'
p21
tp22
bg2
(g3
(I0
tp23
g5
tp24
Rp25
(I1
(I1
I1
tp26
g12
I00
S"r'%\xa7\x87\x83\xc5\xbf"
p27
tp28
btp29
sS'actual_rot'
p30
(F-1.0376344225439935
F-4.10311679384131
F-161.98619346349042
tp31
sS'target_pos'
p32
(lp33
cnumpy.core.multiarray
scalar
p34
(g12
S'\x80\xd3n\x8f_\xb3\xaa?'
p35
tp36
Rp37
ag34
(g12
S'x\x9eQ>\x9b\\\xa6?'
p38
tp39
Rp40
aF-0.16873688
asS'target_rot'
p41
(F0.0
F0.0
F-160.0
tp42
sS'center_target_pixels'
p43
(I844
I337
tp44
sS'center_actual_pixels'
p45
(I856
I361
tp46
s.(dp0
S'actual_pos'
p1
(cnumpy.core.multiarray
_reconstruct
p2
(cnumpy.matrixlib.defmatrix
matrix
p3
(I0
tp4
S'b'
p5
tp6
Rp7
(I1
(I1
I1
tp8
cnumpy
dtype
p9
(S'f8'
p10
I0
I1
tp11
Rp12
(I3
S'<'
p13
NNNI-1
I-1
I0
tp14
bI00
S'\x85\x81\xdb\xbe\xb6\xd7\xa1?'
p15
tp16
bg2
(g3
(I0
tp17
g5
tp18
Rp19
(I1
(I1
I1
tp20
g12
I00
S'\x12\xe2 #a\xfd\xa5?'
p21
tp22
bg2
(g3
(I0
tp23
g5
tp24
Rp25
(I1
(I1
I1
tp26
g12
I00
S'\x8drD\xaf\x11o\xc5\xbf'
p27
tp28
btp29
sS'actual_rot'
p30
(F-0.37063008701634254
F-1.7040431184653395
F-162.49787024025457
tp31
sS'target_pos'
p32
(lp33
cnumpy.core.multiarray
scalar
p34
(g12
S':\xab<4\x19\x19\xa2?'
p35
tp36
Rp37
ag34
(g12
S't\x8e\xb6\xe6M\x80\xa5?'
p38
tp39
Rp40
aF-0.16873688
asS'target_rot'
p41
(F0.0
F0.0
F-160.0
tp42
sS'center_target_pixels'
p43
(I1023
I342
tp44
sS'center_actual_pixels'
p45
(I1046
I374
tp46
s.(dp0
S'actual_pos'
p1
(cnumpy.core.multiarray
_reconstruct
p2
(cnumpy.matrixlib.defmatrix
matrix
p3
(I0
tp4
S'b'
p5
tp6
Rp7
(I1
(I1
I1
tp8
cnumpy
dtype
p9
(S'f8'
p10
I0
I1
tp11
Rp12
(I3
S'<'
p13
NNNI-1
I-1
I0
tp14
bI00
S'*C\x08c\xdaq\x95?'
p15
tp16
bg2
(g3
(I0
tp17
g5
tp18
Rp19
(I1
(I1
I1
tp20
g12
I00
S'\x1a\xa5\xbe\x19tU\xa5?'
p21
tp22
bg2
(g3
(I0
tp23
g5
tp24
Rp25
(I1
(I1
I1
tp26
g12
I00
S'\x0b\x029<\xd7\x85\xc5\xbf'
p27
tp28
btp29
sS'actual_rot'
p30
(F0.20498450524955744
F0.9908249604120121
F-162.5335609276473
tp31
sS'target_pos'
p32
(lp33
cnumpy.core.multiarray
scalar
p34
(g12
S'\\\xf7=wg\xa7\x96?'
p35
tp36
Rp37
ag34
(g12
S'\x0f\xe3\xaa\xe1X\xf8\xa4?'
p38
tp39
Rp40
aF-0.16873688
asS'target_rot'
p41
(F0.0
F0.0
F-160.0
tp42
sS'center_target_pixels'
p43
(I1197
I348
tp44
sS'center_actual_pixels'
p45
(I1214
I393
tp46
s.(dp0
S'actual_pos'
p1
(cnumpy.core.multiarray
_reconstruct
p2
(cnumpy.matrixlib.defmatrix
matrix
p3
(I0
tp4
S'b'
p5
tp6
Rp7
(I1
(I1
I1
tp8
cnumpy
dtype
p9
(S'f8'
p10
I0
I1
tp11
Rp12
(I3
S'<'
p13
NNNI-1
I-1
I0
tp14
bI00
S'\x14Zt|\xdd\xd0\xb2?'
p15
tp16
bg2
(g3
(I0
tp17
g5
tp18
Rp19
(I1
(I1
I1
tp20
g12
I00
S'\xd2x\xea\x04T5\xac?'
p21
tp22
bg2
(g3
(I0
tp23
g5
tp24
Rp25
(I1
(I1
I1
tp26
g12
I00
S'\x02\xbe\xc2\x14\x92\x92\xc5\xbf'
p27
tp28
btp29
sS'actual_rot'
p30
(F-2.331807913623774
F-7.100182045307967
F-159.07141717728518
tp31
sS'target_pos'
p32
(lp33
cnumpy.core.multiarray
scalar
p34
(g12
S'\x81\xb0TQe\xb6\xb2?'
p35
tp36
Rp37
ag34
(g12
S'1T!H\xb7\x02\xac?'
p38
tp39
Rp40
aF-0.16873688
asS'target_rot'
p41
(F0.0
F0.0
F-160.0
tp42
sS'center_target_pixels'
p43
(I570
I417
tp44
sS'center_actual_pixels'
p45
(I598
I434
tp46
s.(dp0
S'actual_pos'
p1
(cnumpy.core.multiarray
_reconstruct
p2
(cnumpy.matrixlib.defmatrix
matrix
p3
(I0
tp4
S'b'
p5
tp6
Rp7
(I1
(I1
I1
tp8
cnumpy
dtype
p9
(S'f8'
p10
I0
I1
tp11
Rp12
(I3
S'<'
p13
NNNI-1
I-1
I0
tp14
bI00
S'\x9b\xfbQ\xdd\x06&\xae?'
p15
tp16
bg2
(g3
(I0
tp17
g5
tp18
Rp19
(I1
(I1
I1
tp20
g12
I00
S'dm,Ms\xca\xaa?'
p21
tp22
bg2
(g3
(I0
tp23
g5
tp24
Rp25
(I1
(I1
I1
tp26
g12
I00
S'r\xc2.HD\x8a\xc5\xbf'
p27
tp28
btp29
sS'actual_rot'
p30
(F-1.5895732030175262
F-5.08691519559324
F-160.2940147933304
tp31
sS'target_pos'
p32
(lp33
cnumpy.core.multiarray
scalar
p34
(g12
S'\x97\xc8@\xb1\x1c\x14\xae?'
p35
tp36
Rp37
ag34
(g12
S'\xd7\x9dc\x93J\x86\xaa?'
p38
tp39
Rp40
aF-0.16873688
asS'target_rot'
p41
(F0.0
F0.0
F-160.0
tp42
sS'center_target_pixels'
p43
(I752
I423
tp44
sS'center_actual_pixels'
p45
(I762
I434
tp46
s.(dp0
S'actual_pos'
p1
(cnumpy.core.multiarray
_reconstruct
p2
(cnumpy.matrixlib.defmatrix
matrix
p3
(I0
tp4
S'b'
p5
tp6
Rp7
(I1
(I1
I1
tp8
cnumpy
dtype
p9
(S'f8'
p10
I0
I1
tp11
Rp12
(I3
S'<'
p13
NNNI-1
I-1
I0
tp14
bI00
S'\x08\xf5R\x13\x82\x82\xa5?'
p15
tp16
bg2
(g3
(I0
tp17
g5
tp18
Rp19
(I1
(I1
I1
tp20
g12
I00
S'\xdc\x00\xed\xfa_\xa8\xa9?'
p21
tp22
bg2
(g3
(I0
tp23
g5
tp24
Rp25
(I1
(I1
I1
tp26
g12
I00
S'en\xd1\x9cmy\xc5\xbf'
p27
tp28
btp29
sS'actual_rot'
p30
(F-0.9179697835415247
F-3.06769016920305
F-161.95455415779858
tp31
sS'target_pos'
p32
(lp33
cnumpy.core.multiarray
scalar
p34
(g12
S'\x00X\xf6\xb2\x03\xaf\xa5?'
p35
tp36
Rp37
ag34
(g12
S'\xeal\xd5\x96\xa4L\xa9?'
p38
tp39
Rp40
aF-0.16873688
asS'target_rot'
p41
(F0.0
F0.0
F-160.0
tp42
sS'center_target_pixels'
p43
(I931
I429
tp44
sS'center_actual_pixels'
p45
(I951
I441
tp46
s.(dp0
S'actual_pos'
p1
(cnumpy.core.multiarray
_reconstruct
p2
(cnumpy.matrixlib.defmatrix
matrix
p3
(I0
tp4
S'b'
p5
tp6
Rp7
(I1
(I1
I1
tp8
cnumpy
dtype
p9
(S'f8'
p10
I0
I1
tp11
Rp12
(I3
S'<'
p13
NNNI-1
I-1
I0
tp14
bI00
S'\xfcMBx\xdd\xfc\x9a?'
p15
tp16
bg2
(g3
(I0
tp17
g5
tp18
Rp19
(I1
(I1
I1
tp20
g12
I00
S'\xf4\xee\xa9\xaf\xc6\xdd\xa8?'
p21
tp22
bg2
(g3
(I0
tp23
g5
tp24
Rp25
(I1
(I1
I1
tp26
g12
I00
S'\xc8S\xfd\xb0\x90d\xc5\xbf'
p27
tp28
btp29
sS'actual_rot'
p30
(F-0.0186331477266507
F-0.12314960508054418
F-162.45961251270143
tp31
sS'target_pos'
p32
(lp33
cnumpy.core.multiarray
scalar
p34
(g12
S' ]0\xf1\xc4\xc7\x9b?'
p35
tp36
Rp37
ag34
(g12
S'\x94\x8d\x17.\xa3s\xa8?'
p38
tp39
Rp40
aF-0.16873688
asS'target_rot'
p41
(F0.0
F0.0
F-160.0
tp42
sS'center_target_pixels'
p43
(I1109
I433
tp44
sS'center_actual_pixels'
p45
(I1130
I453
tp46
s.(dp0
S'actual_pos'
p1
(cnumpy.core.multiarray
_reconstruct
p2
(cnumpy.matrixlib.defmatrix
matrix
p3
(I0
tp4
S'b'
p5
tp6
Rp7
(I1
(I1
I1
tp8
cnumpy
dtype
p9
(S'f8'
p10
I0
I1
tp11
Rp12
(I3
S'<'
p13
NNNI-1
I-1
I0
tp14
bI00
S'm\xcbN\xf6\xda\x98\xb3?'
p15
tp16
bg2
(g3
(I0
tp17
g5
tp18
Rp19
(I1
(I1
I1
tp20
g12
I00
S'\x05/\t.~W\xaf?'
p21
tp22
bg2
(g3
(I0
tp23
g5
tp24
Rp25
(I1
(I1
I1
tp26
g12
I00
S'\xb2\xe3\xec\x80\xdd\x90\xc5\xbf'
p27
tp28
btp29
sS'actual_rot'
p30
(F-2.707887522238687
F-7.310156623011555
F-158.7269659040107
tp31
sS'target_pos'
p32
(lp33
cnumpy.core.multiarray
scalar
p34
(g12
S'\xa5(\xf0\xbe\xf2\x83\xb3?'
p35
tp36
Rp37
ag34
(g12
S'\xee\xf0e\n\x8d;\xaf?'
p38
tp39
Rp40
aF-0.16873688
asS'target_rot'
p41
(F0.0
F0.0
F-160.0
tp42
sS'center_target_pixels'
p43
(I476
I504
tp44
sS'center_actual_pixels'
p45
(I553
I496
tp46
s.(dp0
S'actual_pos'
p1
(cnumpy.core.multiarray
_reconstruct
p2
(cnumpy.matrixlib.defmatrix
matrix
p3
(I0
tp4
S'b'
p5
tp6
Rp7
(I1
(I1
I1
tp8
cnumpy
dtype
p9
(S'f8'
p10
I0
I1
tp11
Rp12
(I3
S'<'
p13
NNNI-1
I-1
I0
tp14
bI00
S'm\x14\xd5\xfc\x92\xb7\xb0?'
p15
tp16
bg2
(g3
(I0
tp17
g5
tp18
Rp19
(I1
(I1
I1
tp20
g12
I00
S'\x15\xa3,\xf3-\x92\xae?'
p21
tp22
bg2
(g3
(I0
tp23
g5
tp24
Rp25
(I1
(I1
I1
tp26
g12
I00
S'4!\x9f\x98\x80\x8e\xc5\xbf'
p27
tp28
btp29
sS'actual_rot'
p30
(F-2.3512661775796353
F-6.5100385837482015
F-159.16894486364262
tp31
sS'target_pos'
p32
(lp33
cnumpy.core.multiarray
scalar
p34
(g12
S'c\xfbW[\x89\xa0\xb0?'
p35
tp36
Rp37
ag34
(g12
S'\x00zrB\xe9r\xae?'
p38
tp39
Rp40
aF-0.16873688
asS'target_rot'
p41
(F0.0
F0.0
F-160.0
tp42
sS'center_target_pixels'
p43
(I659
I510
tp44
sS'center_actual_pixels'
p45
(I682
I503
tp46
s.(dp0
S'actual_pos'
p1
(cnumpy.core.multiarray
_reconstruct
p2
(cnumpy.matrixlib.defmatrix
matrix
p3
(I0
tp4
S'b'
p5
tp6
Rp7
(I1
(I1
I1
tp8
cnumpy
dtype
p9
(S'f8'
p10
I0
I1
tp11
Rp12
(I3
S'<'
p13
NNNI-1
I-1
I0
tp14
bI00
S'\x1b\xf7b\x02\x05\xaa\xa9?'
p15
tp16
bg2
(g3
(I0
tp17
g5
tp18
Rp19
(I1
(I1
I1
tp20
g12
I00
S'\xe5\xd0\xc2u\x9b\r\xae?'
p21
tp22
bg2
(g3
(I0
tp23
g5
tp24
Rp25
(I1
(I1
I1
tp26
g12
I00
S'^-\x96\x07=\x84\xc5\xbf'
p27
tp28
btp29
sS'actual_rot'
p30
(F-1.648172154346522
F-4.68272738411217
F-160.30691552602613
tp31
sS'target_pos'
p32
(lp33
cnumpy.core.multiarray
scalar
p34
(g12
S'\x1a\x08\xc4\xfb\xc2\xa2\xa9?'
p35
tp36
Rp37
ag34
(g12
S'Vr\xbc\x1c\xc1\xdd\xad?'
p38
tp39
Rp40
aF-0.16873688
asS'target_rot'
p41
(F0.0
F0.0
F-160.0
tp42
sS'center_target_pixels'
p43
(I839
I515
tp44
sS'center_actual_pixels'
p45
(I845
I519
tp46
s.(dp0
S'actual_pos'
p1
(cnumpy.core.multiarray
_reconstruct
p2
(cnumpy.matrixlib.defmatrix
matrix
p3
(I0
tp4
S'b'
p5
tp6
Rp7
(I1
(I1
I1
tp8
cnumpy
dtype
p9
(S'f8'
p10
I0
I1
tp11
Rp12
(I3
S'<'
p13
NNNI-1
I-1
I0
tp14
bI00
S'\xb0-O?u\xe0\xa0?'
p15
tp16
bg2
(g3
(I0
tp17
g5
tp18
Rp19
(I1
(I1
I1
tp20
g12
I00
S'\xdf\xdd\xcbI\xbf(\xad?'
p21
tp22
bg2
(g3
(I0
tp23
g5
tp24
Rp25
(I1
(I1
I1
tp26
g12
I00
S',\xb5^\xabvo\xc5\xbf'
p27
tp28
btp29
sS'actual_rot'
p30
(F-0.5217137247605816
F-1.5651158073048275
F-161.27210265720493
tp31
sS'target_pos'
p32
(lp33
cnumpy.core.multiarray
scalar
p34
(g12
S'\x16,\xc9H\xae \xa1?'
p35
tp36
Rp37
ag34
(g12
S'\xbd\xbev\xbe\xb6\xe8\xac?'
p38
tp39
Rp40
aF-0.16873688
asS'target_rot'
p41
(F0.0
F0.0
F-160.0
tp42
sS'center_target_pixels'
p43
(I1016
I518
tp44
sS'center_actual_pixels'
p45
(I1038
I532
tp46
s.(dp0
S'actual_pos'
p1
(cnumpy.core.multiarray
_reconstruct
p2
(cnumpy.matrixlib.defmatrix
matrix
p3
(I0
tp4
S'b'
p5
tp6
Rp7
(I1
(I1
I1
tp8
cnumpy
dtype
p9
(S'f8'
p10
I0
I1
tp11
Rp12
(I3
S'<'
p13
NNNI-1
I-1
I0
tp14
bI00
S';\x92\xeb\xe2\xca\x8d\x93?'
p15
tp16
bg2
(g3
(I0
tp17
g5
tp18
Rp19
(I1
(I1
I1
tp20
g12
I00
S'9\x80\x7f\xbf7\xaf\xab?'
p21
tp22
bg2
(g3
(I0
tp23
g5
tp24
Rp25
(I1
(I1
I1
tp26
g12
I00
S'&\xc4\xc5\xe2q\x8a\xc5\xbf'
p27
tp28
btp29
sS'actual_rot'
p30
(F0.44887146180002807
F1.5651458798288214
F-162.3765145115751
tp31
sS'target_pos'
p32
(lp33
cnumpy.core.multiarray
scalar
p34
(g12
S'\xf8\xc2\xcf\x0c\xe8\xc5\x94?'
p35
tp36
Rp37
ag34
(g12
S'\x9c-\xffd\xc4w\xab?'
p38
tp39
Rp40
aF-0.16873688
asS'target_rot'
p41
(F0.0
F0.0
F-160.0
tp42
sS'center_target_pixels'
p43
(I1194
I523
tp44
sS'center_actual_pixels'
p45
(I1220
I519
tp46
s.(dp0
S'actual_pos'
p1
(cnumpy.core.multiarray
_reconstruct
p2
(cnumpy.matrixlib.defmatrix
matrix
p3
(I0
tp4
S'b'
p5
tp6
Rp7
(I1
(I1
I1
tp8
cnumpy
dtype
p9
(S'f8'
p10
I0
I1
tp11
Rp12
(I3
S'<'
p13
NNNI-1
I-1
I0
tp14
bI00
S'Ba\x9cSo\x8d\xb2?'
p15
tp16
bg2
(g3
(I0
tp17
g5
tp18
Rp19
(I1
(I1
I1
tp20
g12
I00
S'C\x90\xd1=d\xfb\xb1?'
p21
tp22
bg2
(g3
(I0
tp23
g5
tp24
Rp25
(I1
(I1
I1
tp26
g12
I00
S'\xb7\xea\x8d\xb3\x7f\x90\xc5\xbf'
p27
tp28
btp29
sS'actual_rot'
p30
(F-3.1272438731969077
F-7.383916139572543
F-157.80291018371952
tp31
sS'target_pos'
p32
(lp33
cnumpy.core.multiarray
scalar
p34
(g12
S'\xc1\xe1\xf9\x98\x82s\xb2?'
p35
tp36
Rp37
ag34
(g12
S'\xf9\x95\x8dL\xc4\xf0\xb1?'
p38
tp39
Rp40
aF-0.16873688
asS'target_rot'
p41
(F0.0
F0.0
F-160.0
tp42
sS'center_target_pixels'
p43
(I566
I597
tp44
sS'center_actual_pixels'
p45
(I587
I605
tp46
s.(dp0
S'actual_pos'
p1
(cnumpy.core.multiarray
_reconstruct
p2
(cnumpy.matrixlib.defmatrix
matrix
p3
(I0
tp4
S'b'
p5
tp6
Rp7
(I1
(I1
I1
tp8
cnumpy
dtype
p9
(S'f8'
p10
I0
I1
tp11
Rp12
(I3
S'<'
p13
NNNI-1
I-1
I0
tp14
bI00
S"\x14\x8e\x928\xad'\xad?"
p15
tp16
bg2
(g3
(I0
tp17
g5
tp18
Rp19
(I1
(I1
I1
tp20
g12
I00
S'\x98\xe5l\xda\xf0\x8b\xb1?'
p21
tp22
bg2
(g3
(I0
tp23
g5
tp24
Rp25
(I1
(I1
I1
tp26
g12
I00
S'\xbf\x88);U\x89\xc5\xbf'
p27
tp28
btp29
sS'actual_rot'
p30
(F-2.6584731033793263
F-6.397725139822345
F-158.38623747051358
tp31
sS'target_pos'
p32
(lp33
cnumpy.core.multiarray
scalar
p34
(g12
S'\xca\xfa\xf0\xa8?\xfa\xac?'
p35
tp36
Rp37
ag34
(g12
S']\x86\xd5\xcc\x1ay\xb1?'
p38
tp39
Rp40
aF-0.16873688
asS'target_rot'
p41
(F0.0
F0.0
F-160.0
tp42
sS'center_target_pixels'
p43
(I747
I601
tp44
sS'center_actual_pixels'
p45
(I762
I617
tp46
s.(dp0
S'actual_pos'
p1
(cnumpy.core.multiarray
_reconstruct
p2
(cnumpy.matrixlib.defmatrix
matrix
p3
(I0
tp4
S'b'
p5
tp6
Rp7
(I1
(I1
I1
tp8
cnumpy
dtype
p9
(S'f8'
p10
I0
I1
tp11
Rp12
(I3
S'<'
p13
NNNI-1
I-1
I0
tp14
bI00
S'\x00\x11P.\xd0\x92\xa4?'
p15
tp16
bg2
(g3
(I0
tp17
g5
tp18
Rp19
(I1
(I1
I1
tp20
g12
I00
S'\x9d^\x83\xfe\xaa\x0b\xb1?'
p21
tp22
bg2
(g3
(I0
tp23
g5
tp24
Rp25
(I1
(I1
I1
tp26
g12
I00
S'l\x02s\x87\tv\xc5\xbf'
p27
tp28
btp29
sS'actual_rot'
p30
(F-1.3814196321299186
F-3.422378800862905
F-159.49993143381764
tp31
sS'target_pos'
p32
(lp33
cnumpy.core.multiarray
scalar
p34
(g12
S'\xfdp\x1e\xba\xae\xb3\xa4?'
p35
tp36
Rp37
ag34
(g12
S'\xa1\xa2C\xaf\xbf\xf3\xb0?'
p38
tp39
Rp40
aF-0.16873688
asS'target_rot'
p41
(F0.0
F0.0
F-160.0
tp42
sS'center_target_pixels'
p43
(I926
I605
tp44
sS'center_actual_pixels'
p45
(I948
I627
tp46
s.(dp0
S'actual_pos'
p1
(cnumpy.core.multiarray
_reconstruct
p2
(cnumpy.matrixlib.defmatrix
matrix
p3
(I0
tp4
S'b'
p5
tp6
Rp7
(I1
(I1
I1
tp8
cnumpy
dtype
p9
(S'f8'
p10
I0
I1
tp11
Rp12
(I3
S'<'
p13
NNNI-1
I-1
I0
tp14
bI00
S'\xe9\x81\xdd\xa5l\xcc\x98?'
p15
tp16
bg2
(g3
(I0
tp17
g5
tp18
Rp19
(I1
(I1
I1
tp20
g12
I00
S'\xe9\x81Y\xb6\xb3\xa9\xb0?'
p21
tp22
bg2
(g3
(I0
tp23
g5
tp24
Rp25
(I1
(I1
I1
tp26
g12
I00
S'\xbe\\*`4c\xc5\xbf'
p27
tp28
btp29
sS'actual_rot'
p30
(F0.016706973708496324
F0.18254340299824492
F-160.0750710050161
tp31
sS'target_pos'
p32
(lp33
cnumpy.core.multiarray
scalar
p34
(g12
S'\x06<\x18\xcd,\xae\x99?'
p35
tp36
Rp37
ag34
(g12
S'\xdf\xf5\xf2p\xec\x95\xb0?'
p38
tp39
Rp40
aF-0.16873688
asS'target_rot'
p41
(F0.0
F0.0
F-160.0
tp42
sS'center_target_pixels'
p43
(I1104
I610
tp44
sS'center_actual_pixels'
p45
(I1140
I636
tp46
s.(dp0
S'actual_pos'
p1
(cnumpy.core.multiarray
_reconstruct
p2
(cnumpy.matrixlib.defmatrix
matrix
p3
(I0
tp4
S'b'
p5
tp6
Rp7
(I1
(I1
I1
tp8
cnumpy
dtype
p9
(S'f8'
p10
I0
I1
tp11
Rp12
(I3
S'<'
p13
NNNI-1
I-1
I0
tp14
bI00
S'4W\x06^\xa3\xf2\xb3?'
p15
tp16
bg2
(g3
(I0
tp17
g5
tp18
Rp19
(I1
(I1
I1
tp20
g12
I00
S'\xf2\xc4\x9e\xe4/\xf8\xb3?'
p21
tp22
bg2
(g3
(I0
tp23
g5
tp24
Rp25
(I1
(I1
I1
tp26
g12
I00
S'\xa9\xc3\x17\xba\x15\x94\xc5\xbf'
p27
tp28
btp29
sS'actual_rot'
p30
(F-3.4825295126183398
F-7.266374746486193
F-156.58468638166903
tp31
sS'target_pos'
p32
(lp33
cnumpy.core.multiarray
scalar
p34
(g12
S'\x04\x11\xb3\xd4:\xdd\xb3?'
p35
tp36
Rp37
ag34
(g12
S'L\x19\xce\xefD\xf0\xb3?'
p38
tp39
Rp40
aF-0.16873688
asS'target_rot'
p41
(F0.0
F0.0
F-160.0
tp42
sS'center_target_pixels'
p43
(I472
I684
tp44
sS'center_actual_pixels'
p45
(I518
I683
tp46
s.(dp0
S'actual_pos'
p1
(cnumpy.core.multiarray
_reconstruct
p2
(cnumpy.matrixlib.defmatrix
matrix
p3
(I0
tp4
S'b'
p5
tp6
Rp7
(I1
(I1
I1
tp8
cnumpy
dtype
p9
(S'f8'
p10
I0
I1
tp11
Rp12
(I3
S'<'
p13
NNNI-1
I-1
I0
tp14
bI00
S'\xd97\xd2\x00\x0b\xa1\xb0?'
p15
tp16
bg2
(g3
(I0
tp17
g5
tp18
Rp19
(I1
(I1
I1
tp20
g12
I00
S')j@\xbe8\xa2\xb3?'
p21
tp22
bg2
(g3
(I0
tp23
g5
tp24
Rp25
(I1
(I1
I1
tp26
g12
I00
S'\xab\t\x1b\xc8-\x8e\xc5\xbf'
p27
tp28
btp29
sS'actual_rot'
p30
(F-3.152815289122642
F-6.774172011032862
F-156.93891899352678
tp31
sS'target_pos'
p32
(lp33
cnumpy.core.multiarray
scalar
p34
(g12
S'\xbd?\xdd\xe0\xc7\x86\xb0?'
p35
tp36
Rp37
ag34
(g12
S'\xbd\xd3r\xa5Z\x9a\xb3?'
p38
tp39
Rp40
aF-0.16873688
asS'target_rot'
p41
(F0.0
F0.0
F-160.0
tp42
sS'center_target_pixels'
p43
(I654
I689
tp44
sS'center_actual_pixels'
p45
(I659
I695
tp46
s.(dp0
S'actual_pos'
p1
(cnumpy.core.multiarray
_reconstruct
p2
(cnumpy.matrixlib.defmatrix
matrix
p3
(I0
tp4
S'b'
p5
tp6
Rp7
(I1
(I1
I1
tp8
cnumpy
dtype
p9
(S'f8'
p10
I0
I1
tp11
Rp12
(I3
S'<'
p13
NNNI-1
I-1
I0
tp14
bI00
S'^1"l;;\xa9?'
p15
tp16
bg2
(g3
(I0
tp17
g5
tp18
Rp19
(I1
(I1
I1
tp20
g12
I00
S'\xe7\xe3\xea\xf2\x82$\xb3?'
p21
tp22
bg2
(g3
(I0
tp23
g5
tp24
Rp25
(I1
(I1
I1
tp26
g12
I00
S'\xa9%\x9f~\xe5\x81\xc5\xbf'
p27
tp28
btp29
sS'actual_rot'
p30
(F-2.2998203323462763
F-5.080468381280629
F-157.69724557709617
tp31
sS'target_pos'
p32
(lp33
cnumpy.core.multiarray
scalar
p34
(g12
S'\x94|\r\xbcN(\xa9?'
p35
tp36
Rp37
ag34
(g12
S'\x82~\xda\x8f\x8b\x16\xb3?'
p38
tp39
Rp40
aF-0.16873688
asS'target_rot'
p41
(F0.0
F0.0
F-160.0
tp42
sS'center_target_pixels'
p43
(I835
I692
tp44
sS'center_actual_pixels'
p45
(I834
I705
tp46
s.(dp0
S'actual_pos'
p1
(cnumpy.core.multiarray
_reconstruct
p2
(cnumpy.matrixlib.defmatrix
matrix
p3
(I0
tp4
S'b'
p5
tp6
Rp7
(I1
(I1
I1
tp8
cnumpy
dtype
p9
(S'f8'
p10
I0
I1
tp11
Rp12
(I3
S'<'
p13
NNNI-1
I-1
I0
tp14
bI00
S'\xe9\xb7\xf8\x99\xaf9\xa0?'
p15
tp16
bg2
(g3
(I0
tp17
g5
tp18
Rp19
(I1
(I1
I1
tp20
g12
I00
S'\x13\xf5o\xea\xcd\xb4\xb2?'
p21
tp22
bg2
(g3
(I0
tp23
g5
tp24
Rp25
(I1
(I1
I1
tp26
g12
I00
S'\x02u\x15\xd4Pl\xc5\xbf'
p27
tp28
btp29
sS'actual_rot'
p30
(F-0.7129916609057505
F-1.6074741666893586
F-158.59548270637617
tp31
sS'target_pos'
p32
(lp33
cnumpy.core.multiarray
scalar
p34
(g12
S'\x93\xc4t\x90\x11\x80\xa0?'
p35
tp36
Rp37
ag34
(g12
S's\xe4\xaf\xa0m\xa8\xb2?'
p38
tp39
Rp40
aF-0.16873688
asS'target_rot'
p41
(F0.0
F0.0
F-160.0
tp42
sS'center_target_pixels'
p43
(I1013
I696
tp44
sS'center_actual_pixels'
p45
(I1032
I713
tp46
s.(dp0
S'actual_pos'
p1
(cnumpy.core.multiarray
_reconstruct
p2
(cnumpy.matrixlib.defmatrix
matrix
p3
(I0
tp4
S'b'
p5
tp6
Rp7
(I1
(I1
I1
tp8
cnumpy
dtype
p9
(S'f8'
p10
I0
I1
tp11
Rp12
(I3
S'<'
p13
NNNI-1
I-1
I0
tp14
bI00
S'Z\xb9-\x91\xe7\x0e\x91?'
p15
tp16
bg2
(g3
(I0
tp17
g5
tp18
Rp19
(I1
(I1
I1
tp20
g12
I00
S':\x1b\x02\xd1\x7f;\xb2?'
p21
tp22
bg2
(g3
(I0
tp23
g5
tp24
Rp25
(I1
(I1
I1
tp26
g12
I00
S'\x16\xb7zw\xfd\x8b\xc5\xbf'
p27
tp28
btp29
sS'actual_rot'
p30
(F0.35175319936497923
F0.9999650496986028
F-160.2230511853118
tp31
sS'target_pos'
p32
(lp33
cnumpy.core.multiarray
scalar
p34
(g12
S'\xb7\tq\xcb~\xe9\x91?'
p35
tp36
Rp37
ag34
(g12
S'\x1f0\xb2\x11\x03-\xb2?'
p38
tp39
Rp40
aF-0.16873688
asS'target_rot'
p41
(F0.0
F0.0
F-160.0
tp42
sS'center_target_pixels'
p43
(I1189
I700
tp44
sS'center_actual_pixels'
p45
(I1229
I711
tp46
s.(dp0
S'actual_pos'
p1
(cnumpy.core.multiarray
_reconstruct
p2
(cnumpy.matrixlib.defmatrix
matrix
p3
(I0
tp4
S'b'
p5
tp6
Rp7
(I1
(I1
I1
tp8
cnumpy
dtype
p9
(S'f8'
p10
I0
I1
tp11
Rp12
(I3
S'<'
p13
NNNI-1
I-1
I0
tp14
bI00
S'x&*\x1f\xff#\xb2?'
p15
tp16
bg2
(g3
(I0
tp17
g5
tp18
Rp19
(I1
(I1
I1
tp20
g12
I00
S'\x89\xf7S\x8d\xed\xa1\xb5?'
p21
tp22
bg2
(g3
(I0
tp23
g5
tp24
Rp25
(I1
(I1
I1
tp26
g12
I00
S"\xfc\x95'e\x13\x99\xc5\xbf"
p27
tp28
btp29
sS'actual_rot'
p30
(F-3.803665532286164
F-7.3100306904920895
F-156.04834271260262
tp31
sS'target_pos'
p32
(lp33
cnumpy.core.multiarray
scalar
p34
(g12
S'\xf8\x9f<5 \xfc\xb1?'
p35
tp36
Rp37
ag34
(g12
S',\x88\x1c\xba\xa6\xbd\xb5?'
p38
tp39
Rp40
aF-0.16873688
asS'target_rot'
p41
(F0.0
F0.0
F-160.0
tp42
sS'center_target_pixels'
p43
(I561
I776
tp44
sS'center_actual_pixels'
p45
(I589
I768
tp46
s.(dp0
S'actual_pos'
p1
(cnumpy.core.multiarray
_reconstruct
p2
(cnumpy.matrixlib.defmatrix
matrix
p3
(I0
tp4
S'b'
p5
tp6
Rp7
(I1
(I1
I1
tp8
cnumpy
dtype
p9
(S'f8'
p10
I0
I1
tp11
Rp12
(I3
S'<'
p13
NNNI-1
I-1
I0
tp14
bI00
S'\xc9+\x197\x9f\xbf\xac?'
p15
tp16
bg2
(g3
(I0
tp17
g5
tp18
Rp19
(I1
(I1
I1
tp20
g12
I00
S'N\xce\x03\x8c\xfa\x17\xb5?'
p21
tp22
bg2
(g3
(I0
tp23
g5
tp24
Rp25
(I1
(I1
I1
tp26
g12
I00
S'\xcf\x93v\xaf\xc8\x90\xc5\xbf'
p27
tp28
btp29
sS'actual_rot'
p30
(F-3.222498404480133
F-6.324859803462259
F-156.3958694016013
tp31
sS'target_pos'
p32
(lp33
cnumpy.core.multiarray
scalar
p34
(g12
S'Z[\x81\x83\xde\x87\xac?'
p35
tp36
Rp37
ag34
(g12
S'\x0e.t8\x857\xb5?'
p38
tp39
Rp40
aF-0.16873688
asS'target_rot'
p41
(F0.0
F0.0
F-160.0
tp42
sS'center_target_pixels'
p43
(I743
I780
tp44
sS'center_actual_pixels'
p45
(I750
I775
tp46
s.(dp0
S'actual_pos'
p1
(cnumpy.core.multiarray
_reconstruct
p2
(cnumpy.matrixlib.defmatrix
matrix
p3
(I0
tp4
S'b'
p5
tp6
Rp7
(I1
(I1
I1
tp8
cnumpy
dtype
p9
(S'f8'
p10
I0
I1
tp11
Rp12
(I3
S'<'
p13
NNNI-1
I-1
I0
tp14
bI00
S'\xe2\xd2\x10 ^\xd9\xa3?'
p15
tp16
bg2
(g3
(I0
tp17
g5
tp18
Rp19
(I1
(I1
I1
tp20
g12
I00
S'\x98\x1e\xea\xd8.{\xb4?'
p21
tp22
bg2
(g3
(I0
tp23
g5
tp24
Rp25
(I1
(I1
I1
tp26
g12
I00
S'\xf0\xb5d\x99\xbd}\xc5\xbf'
p27
tp28
btp29
sS'actual_rot'
p30
(F-1.6732466531458459
F-3.203262301858703
F-157.30838591930944
tp31
sS'target_pos'
p32
(lp33
cnumpy.core.multiarray
scalar
p34
(g12
S'\xb4\x84E\xc6\x19\xf3\xa3?'
p35
tp36
Rp37
ag34
(g12
S'\xdb8I9K\xb3\xb4?'
p38
tp39
Rp40
aF-0.16873688
asS'target_rot'
p41
(F0.0
F0.0
F-160.0
tp42
sS'center_target_pixels'
p43
(I922
I783
tp44
sS'center_actual_pixels'
p45
(I948
I783
tp46
s.(dp0
S'actual_pos'
p1
(cnumpy.core.multiarray
_reconstruct
p2
(cnumpy.matrixlib.defmatrix
matrix
p3
(I0
tp4
S'b'
p5
tp6
Rp7
(I1
(I1
I1
tp8
cnumpy
dtype
p9
(S'f8'
p10
I0
I1
tp11
Rp12
(I3
S'<'
p13
NNNI-1
I-1
I0
tp14
bI00
S'\xed\xd8\xa3\xd0\xff|\x97?'
p15
tp16
bg2
(g3
(I0
tp17
g5
tp18
Rp19
(I1
(I1
I1
tp20
g12
I00
S'%\x89(\x82\x07\xd4\xb3?'
p21
tp22
bg2
(g3
(I0
tp23
g5
tp24
Rp25
(I1
(I1
I1
tp26
g12
I00
S'\xae\xf9\xad6\xe3i\xc5\xbf'
p27
tp28
btp29
sS'actual_rot'
p30
(F-0.35331507309505084
F-0.5628361448647554
F-158.68004317371685
tp31
sS'target_pos'
p32
(lp33
cnumpy.core.multiarray
scalar
p34
(g12
S',u\xc1\xe3\x80C\x98?'
p35
tp36
Rp37
ag34
(g12
S'\xbcR!\xe0Z\xfb\xb3?'
p38
tp39
Rp40
aF-0.16873688
asS'target_rot'
p41
(F0.0
F0.0
F-160.0
tp42
sS'center_target_pixels'
p43
(I1099
I786
tp44
sS'center_actual_pixels'
p45
(I1139
I770
tp46
s.(dp0
S'actual_pos'
p1
(cnumpy.core.multiarray
_reconstruct
p2
(cnumpy.matrixlib.defmatrix
matrix
p3
(I0
tp4
S'b'
p5
tp6
Rp7
(I1
(I1
I1
tp8
cnumpy
dtype
p9
(S'f8'
p10
I0
I1
tp11
Rp12
(I3
S'<'
p13
NNNI-1
I-1
I0
tp14
bI00
S'NI>\xa4\x12\x9f\xb3?'
p15
tp16
bg2
(g3
(I0
tp17
g5
tp18
Rp19
(I1
(I1
I1
tp20
g12
I00
S'\x9a\x98+l)\xa4\xb7?'
p21
tp22
bg2
(g3
(I0
tp23
g5
tp24
Rp25
(I1
(I1
I1
tp26
g12
I00
S'\x9e>\xcc\x8d\xf8\xa3\xc5\xbf'
p27
tp28
btp29
sS'actual_rot'
p30
(F-4.214664673057501
F-7.245342082553861
F-155.85183051062063
tp31
sS'target_pos'
p32
(lp33
cnumpy.core.multiarray
scalar
p34
(g12
S'\x12R\xd7Z\xefq\xb3?'
p35
tp36
Rp37
ag34
(g12
S'\x0c\xe8\xae\xd6Q\xee\xb7?'
p38
tp39
Rp40
aF-0.16873688
asS'target_rot'
p41
(F0.0
F0.0
F-160.0
tp42
sS'center_target_pixels'
p43
(I467
I865
tp44
sS'center_actual_pixels'
p45
(I513
I843
tp46
s.(dp0
S'actual_pos'
p1
(cnumpy.core.multiarray
_reconstruct
p2
(cnumpy.matrixlib.defmatrix
matrix
p3
(I0
tp4
S'b'
p5
tp6
Rp7
(I1
(I1
I1
tp8
cnumpy
dtype
p9
(S'f8'
p10
I0
I1
tp11
Rp12
(I3
S'<'
p13
NNNI-1
I-1
I0
tp14
bI00
S'\x8a#:\x94\xcb\xfb\xaf?'
p15
tp16
bg2
(g3
(I0
tp17
g5
tp18
Rp19
(I1
(I1
I1
tp20
g12
I00
S'\x1a\xac\xd6\x06o\x01\xb7?'
p21
tp22
bg2
(g3
(I0
tp23
g5
tp24
Rp25
(I1
(I1
I1
tp26
g12
I00
S'\xcc\xa0\xe1\xa1\x98\x9b\xc5\xbf'
p27
tp28
btp29
sS'actual_rot'
p30
(F-3.8448677411575507
F-6.8299496210568895
F-155.86782277593957
tp31
sS'target_pos'
p32
(lp33
cnumpy.core.multiarray
scalar
p34
(g12
S'\xbda\x1b6\xa4\xab\xaf?'
p35
tp36
Rp37
ag34
(g12
S'%\xe4\xb7\xf2qG\xb7?'
p38
tp39
Rp40
aF-0.16873688
asS'target_rot'
p41
(F0.0
F0.0
F-160.0
tp42
sS'center_target_pixels'
p43
(I649
I868
tp44
sS'center_actual_pixels'
p45
(I670
I840
tp46
s.(dp0
S'actual_pos'
p1
(cnumpy.core.multiarray
_reconstruct
p2
(cnumpy.matrixlib.defmatrix
matrix
p3
(I0
tp4
S'b'
p5
tp6
Rp7
(I1
(I1
I1
tp8
cnumpy
dtype
p9
(S'f8'
p10
I0
I1
tp11
Rp12
(I3
S'<'
p13
NNNI-1
I-1
I0
tp14
bI00
S'd\x9a\xc2\xfa]:\xa8?'
p15
tp16
bg2
(g3
(I0
tp17
g5
tp18
Rp19
(I1
(I1
I1
tp20
g12
I00
S'\x84\xad\x14\xb0\xbfV\xb6?'
p21
tp22
bg2
(g3
(I0
tp23
g5
tp24
Rp25
(I1
(I1
I1
tp26
g12
I00
S'4A~7\xfe\x89\xc5\xbf'
p27
tp28
btp29
sS'actual_rot'
p30
(F-2.4874336690174492
F-4.493358039302467
F-156.49345997229284
tp31
sS'target_pos'
p32
(lp33
cnumpy.core.multiarray
scalar
p34
(g12
S'\x04\x13\x87]P+\xa8?'
p35
tp36
Rp37
ag34
(g12
S'\x96p\x17\xda\xe4\x9a\xb6?'
p38
tp39
Rp40
aF-0.16873688
asS'target_rot'
p41
(F0.0
F0.0
F-160.0
tp42
sS'center_target_pixels'
p43
(I830
I871
tp44
sS'center_actual_pixels'
p45
(I847
I839
tp46
s.(dp0
S'actual_pos'
p1
(cnumpy.core.multiarray
_reconstruct
p2
(cnumpy.matrixlib.defmatrix
matrix
p3
(I0
tp4
S'b'
p5
tp6
Rp7
(I1
(I1
I1
tp8
cnumpy
dtype
p9
(S'f8'
p10
I0
I1
tp11
Rp12
(I3
S'<'
p13
NNNI-1
I-1
I0
tp14
bI00
S'\xaf^\xb7>i\xcc\x9f?'
p15
tp16
bg2
(g3
(I0
tp17
g5
tp18
Rp19
(I1
(I1
I1
tp20
g12
I00
S'\xdb5\xe6\xb4\x03\xc5\xb5?'
p21
tp22
bg2
(g3
(I0
tp23
g5
tp24
Rp25
(I1
(I1
I1
tp26
g12
I00
S'B\x87\xd5\xcbXw\xc5\xbf'
p27
tp28
btp29
sS'actual_rot'
p30
(F-1.1573275390349549
F-2.036279030961762
F-157.16210057512492
tp31
sS'target_pos'
p32
(lp33
cnumpy.core.multiarray
scalar
p34
(g12
S'\x96\xe3\x84\xcb\xf0\x13\xa0?'
p35
tp36
Rp37
ag34
(g12
S')A\xa5\xf5\x9c\x11\xb6?'
p38
tp39
Rp40
aF-0.16873688
asS'target_rot'
p41
(F0.0
F0.0
F-160.0
tp42
sS'center_target_pixels'
p43
(I1008
I874
tp44
sS'center_actual_pixels'
p45
(I1039
I845
tp46
s.(dp0
S'actual_pos'
p1
(cnumpy.core.multiarray
_reconstruct
p2
(cnumpy.matrixlib.defmatrix
matrix
p3
(I0
tp4
S'b'
p5
tp6
Rp7
(I1
(I1
I1
tp8
cnumpy
dtype
p9
(S'f8'
p10
I0
I1
tp11
Rp12
(I3
S'<'
p13
NNNI-1
I-1
I0
tp14
bI00
S'\xa0\x92("\xe5\x8d\x90?'
p15
tp16
bg2
(g3
(I0
tp17
g5
tp18
Rp19
(I1
(I1
I1
tp20
g12
I00
S'#\xa3\xe6\xd5\x87T\xb5?'
p21
tp22
bg2
(g3
(I0
tp23
g5
tp24
Rp25
(I1
(I1
I1
tp26
g12
I00
S';4\xe1\xc4\xbc\x9b\xc5\xbf'
p27
tp28
btp29
sS'actual_rot'
p30
(F0.3297085099696635
F1.0288683264925051
F-158.05517989899025
tp31
sS'target_pos'
p32
(lp33
cnumpy.core.multiarray
scalar
p34
(g12
S'\xc1\xce\n\x01\x96\x92\x91?'
p35
tp36
Rp37
ag34
(g12
S"\\)\xe36'\x9b\xb5?"
p38
tp39
Rp40
aF-0.16873688
asS'target_rot'
p41
(F0.0
F0.0
F-160.0
tp42
sS'center_target_pixels'
p43
(I1185
I877
tp44
sS'center_actual_pixels'
p45
(I1218
I850
tp46
s.