((cnumpy.core.multiarray
_reconstruct
p0
(cnumpy.matrixlib.defmatrix
matrix
p1
(I0
tp2
S'b'
p3
tp4
Rp5
(I1
(I1
I1
tp6
cnumpy
dtype
p7
(S'f8'
p8
I0
I1
tp9
Rp10
(I3
S'<'
p11
NNNI-1
I-1
I0
tp12
bI00
S'`\xf1a45e\xb0?'
p13
tp14
bg0
(g1
(I0
tp15
g3
tp16
Rp17
(I1
(I1
I1
tp18
g10
I00
S'D\xaf\xad\xa3\x0f\x95\x92?'
p19
tp20
bg0
(g1
(I0
tp21
g3
tp22
Rp23
(I1
(I1
I1
tp24
g10
I00
S'\xe3\x03\x87\xf8.\xdd\xc5\xbf'
p25
tp26
btp27
(F-0.14091391410677362
F-20.091364975076456
F-177.58337052593717
tp28
I724
I139
tp29
.((cnumpy.core.multiarray
_reconstruct
p0
(cnumpy.matrixlib.defmatrix
matrix
p1
(I0
tp2
S'b'
p3
tp4
Rp5
(I1
(I1
I1
tp6
cnumpy
dtype
p7
(S'f8'
p8
I0
I1
tp9
Rp10
(I3
S'<'
p11
NNNI-1
I-1
I0
tp12
bI00
S'qNt=\x11\xdf\xa8?'
p13
tp14
bg0
(g1
(I0
tp15
g3
tp16
Rp17
(I1
(I1
I1
tp18
g10
I00
S'aI\xbdf\xbfe\x90?'
p19
tp20
bg0
(g1
(I0
tp21
g3
tp22
Rp23
(I1
(I1
I1
tp24
g10
I00
S')\x84\xcaa\x03\xac\xc5\xbf'
p25
tp26
btp27
(F0.04098518869752546
F-15.602260708281674
F-178.19520967648185
tp28
I904
I147
tp29
.((cnumpy.core.multiarray
_reconstruct
p0
(cnumpy.matrixlib.defmatrix
matrix
p1
(I0
tp2
S'b'
p3
tp4
Rp5
(I1
(I1
I1
tp6
cnumpy
dtype
p7
(S'f8'
p8
I0
I1
tp9
Rp10
(I3
S'<'
p11
NNNI-1
I-1
I0
tp12
bI00
S';\x7f\x920\x12\x0e\xa1?'
p13
tp14
bg0
(g1
(I0
tp15
g3
tp16
Rp17
(I1
(I1
I1
tp18
g10
I00
S'/ \x84\xe0q\x03\x8f?'
p19
tp20
bg0
(g1
(I0
tp21
g3
tp22
Rp23
(I1
(I1
I1
tp24
g10
I00
S',\xaf\x81\xb3Mc\xc5\xbf'
p25
tp26
btp27
(F-0.07970374334094603
F-10.828466104555336
F-178.27225126226938
tp28
I1081
I156
tp29
.((cnumpy.core.multiarray
_reconstruct
p0
(cnumpy.matrixlib.defmatrix
matrix
p1
(I0
tp2
S'b'
p3
tp4
Rp5
(I1
(I1
I1
tp6
cnumpy
dtype
p7
(S'f8'
p8
I0
I1
tp9
Rp10
(I3
S'<'
p11
NNNI-1
I-1
I0
tp12
bI00
S'\x86\xc1x~R7\x92?'
p13
tp14
bg0
(g1
(I0
tp15
g3
tp16
Rp17
(I1
(I1
I1
tp18
g10
I00
S'\xa4+\xb2\xa7\xea3\x8b?'
p19
tp20
bg0
(g1
(I0
tp21
g3
tp22
Rp23
(I1
(I1
I1
tp24
g10
I00
S'\x14?\x1a\x9e\xf00\xc5\xbf'
p25
tp26
btp27
(F-0.05950052341633414
F-5.697740171401434
F-178.80135298750795
tp28
I1258
I164
tp29
.((cnumpy.core.multiarray
_reconstruct
p0
(cnumpy.matrixlib.defmatrix
matrix
p1
(I0
tp2
S'b'
p3
tp4
Rp5
(I1
(I1
I1
tp6
cnumpy
dtype
p7
(S'f8'
p8
I0
I1
tp9
Rp10
(I3
S'<'
p11
NNNI-1
I-1
I0
tp12
bI00
S'\xd9\xc4\xf6%2$\xb2?'
p13
tp14
bg0
(g1
(I0
tp15
g3
tp16
Rp17
(I1
(I1
I1
tp18
g10
I00
S' \xda\x8c\xe7\xc0\xc9\x9a?'
p19
tp20
bg0
(g1
(I0
tp21
g3
tp22
Rp23
(I1
(I1
I1
tp24
g10
I00
S'c\xcfy\x92[\xfb\xc5\xbf'
p25
tp26
btp27
(F0.043137764285729775
F-21.992746280251705
F-175.36965470748052
tp28
I630
I223
tp29
.((cnumpy.core.multiarray
_reconstruct
p0
(cnumpy.matrixlib.defmatrix
matrix
p1
(I0
tp2
S'b'
p3
tp4
Rp5
(I1
(I1
I1
tp6
cnumpy
dtype
p7
(S'f8'
p8
I0
I1
tp9
Rp10
(I3
S'<'
p11
NNNI-1
I-1
I0
tp12
bI00
S'\x99\xda\x08\x96#d\xac?'
p13
tp14
bg0
(g1
(I0
tp15
g3
tp16
Rp17
(I1
(I1
I1
tp18
g10
I00
S'\x8eX \x11=3\x99?'
p19
tp20
bg0
(g1
(I0
tp21
g3
tp22
Rp23
(I1
(I1
I1
tp24
g10
I00
S'\x9an{y\xf0\xc2\xc5\xbf'
p25
tp26
btp27
(F0.041599646362530295
F-17.62732573394931
F-175.51128121944984
tp28
I811
I232
tp29
.((cnumpy.core.multiarray
_reconstruct
p0
(cnumpy.matrixlib.defmatrix
matrix
p1
(I0
tp2
S'b'
p3
tp4
Rp5
(I1
(I1
I1
tp6
cnumpy
dtype
p7
(S'f8'
p8
I0
I1
tp9
Rp10
(I3
S'<'
p11
NNNI-1
I-1
I0
tp12
bI00
S'IUFK\x99!\xa4?'
p13
tp14
bg0
(g1
(I0
tp15
g3
tp16
Rp17
(I1
(I1
I1
tp18
g10
I00
S'\x8fTn\xe2\x02\x0f\x98?'
p19
tp20
bg0
(g1
(I0
tp21
g3
tp22
Rp23
(I1
(I1
I1
tp24
g10
I00
S'\xa5\x1e\xdf\xd5g\x82\xc5\xbf'
p25
tp26
btp27
(F0.06328895052732965
F-12.74355003315632
F-175.6679121099567
tp28
I989
I240
tp29
.((cnumpy.core.multiarray
_reconstruct
p0
(cnumpy.matrixlib.defmatrix
matrix
p1
(I0
tp2
S'b'
p3
tp4
Rp5
(I1
(I1
I1
tp6
cnumpy
dtype
p7
(S'f8'
p8
I0
I1
tp9
Rp10
(I3
S'<'
p11
NNNI-1
I-1
I0
tp12
bI00
S'\xb9D\x80\x88<\xc2\x98?'
p13
tp14
bg0
(g1
(I0
tp15
g3
tp16
Rp17
(I1
(I1
I1
tp18
g10
I00
S'\xde\xff\x98\xff\\x\x96?'
p19
tp20
bg0
(g1
(I0
tp21
g3
tp22
Rp23
(I1
(I1
I1
tp24
g10
I00
S'\xec\xea\xe2\x80\xcdd\xc5\xbf'
p25
tp26
btp27
(F0.038357957711955604
F-7.870336798698145
F-176.12645630763356
tp28
I1165
I248
tp29
.((cnumpy.core.multiarray
_reconstruct
p0
(cnumpy.matrixlib.defmatrix
matrix
p1
(I0
tp2
S'b'
p3
tp4
Rp5
(I1
(I1
I1
tp6
cnumpy
dtype
p7
(S'f8'
p8
I0
I1
tp9
Rp10
(I3
S'<'
p11
NNNI-1
I-1
I0
tp12
bI00
S'\x93]s\x03\xb1\xf4\x82?'
p13
tp14
bg0
(g1
(I0
tp15
g3
tp16
Rp17
(I1
(I1
I1
tp18
g10
I00
S'Xt\x03\x90S.\x95?'
p19
tp20
bg0
(g1
(I0
tp21
g3
tp22
Rp23
(I1
(I1
I1
tp24
g10
I00
S'\x8a\xd4\xa5\xcb\xa3\x06\xc5\xbf'
p25
tp26
btp27
(F-0.02615052433732593
F-2.878889609283586
F-176.33881848573353
tp28
I1340
I255
tp29
.((cnumpy.core.multiarray
_reconstruct
p0
(cnumpy.matrixlib.defmatrix
matrix
p1
(I0
tp2
S'b'
p3
tp4
Rp5
(I1
(I1
I1
tp6
cnumpy
dtype
p7
(S'f8'
p8
I0
I1
tp9
Rp10
(I3
S'<'
p11
NNNI-1
I-1
I0
tp12
bI00
S'\xaa-I\xd5\xc5\xde\xaf?'
p13
tp14
bg0
(g1
(I0
tp15
g3
tp16
Rp17
(I1
(I1
I1
tp18
g10
I00
S'[\x9e\x9f\xac\xc8\x0b\xa1?'
p19
tp20
bg0
(g1
(I0
tp21
g3
tp22
Rp23
(I1
(I1
I1
tp24
g10
I00
S'5~\xa9\x0e\x9f\xca\xc5\xbf'
p25
tp26
btp27
(F0.0756109471617283
F-19.71869300420316
F-173.12244779944825
tp28
I717
I317
tp29
.((cnumpy.core.multiarray
_reconstruct
p0
(cnumpy.matrixlib.defmatrix
matrix
p1
(I0
tp2
S'b'
p3
tp4
Rp5
(I1
(I1
I1
tp6
cnumpy
dtype
p7
(S'f8'
p8
I0
I1
tp9
Rp10
(I3
S'<'
p11
NNNI-1
I-1
I0
tp12
bI00
S'\x06\x91\x0eu\xfb\xef\xa7?'
p13
tp14
bg0
(g1
(I0
tp15
g3
tp16
Rp17
(I1
(I1
I1
tp18
g10
I00
S'\xfb&\xc5\xe0:]\xa0?'
p19
tp20
bg0
(g1
(I0
tp21
g3
tp22
Rp23
(I1
(I1
I1
tp24
g10
I00
S'fL~\xbe\xf4\x8f\xc5\xbf'
p25
tp26
btp27
(F0.07341265830833656
F-15.146935491936674
F-173.19109980604162
tp28
I897
I324
tp29
.((cnumpy.core.multiarray
_reconstruct
p0
(cnumpy.matrixlib.defmatrix
matrix
p1
(I0
tp2
S'b'
p3
tp4
Rp5
(I1
(I1
I1
tp6
cnumpy
dtype
p7
(S'f8'
p8
I0
I1
tp9
Rp10
(I3
S'<'
p11
NNNI-1
I-1
I0
tp12
bI00
S'\xbf\x00\xbb\xad\xd8U\x9f?'
p13
tp14
bg0
(g1
(I0
tp15
g3
tp16
Rp17
(I1
(I1
I1
tp18
g10
I00
S'fV\xabF\xd2Z\x9f?'
p19
tp20
bg0
(g1
(I0
tp21
g3
tp22
Rp23
(I1
(I1
I1
tp24
g10
I00
S':\t\xd2\xbf\x15m\xc5\xbf'
p25
tp26
btp27
(F-0.03719055145932583
F-9.976690439547854
F-173.32447326276153
tp28
I1073
I332
tp29
.((cnumpy.core.multiarray
_reconstruct
p0
(cnumpy.matrixlib.defmatrix
matrix
p1
(I0
tp2
S'b'
p3
tp4
Rp5
(I1
(I1
I1
tp6
cnumpy
dtype
p7
(S'f8'
p8
I0
I1
tp9
Rp10
(I3
S'<'
p11
NNNI-1
I-1
I0
tp12
bI00
S'\xd3"\xf4,I\x98\x90?'
p13
tp14
bg0
(g1
(I0
tp15
g3
tp16
Rp17
(I1
(I1
I1
tp18
g10
I00
S'\xeaR\xc4\xae\xab\x92\x9d?'
p19
tp20
bg0
(g1
(I0
tp21
g3
tp22
Rp23
(I1
(I1
I1
tp24
g10
I00
S'\xd0\x10\xcb\t;,\xc5\xbf'
p25
tp26
btp27
(F0.026722342235347776
F-5.254602419758228
F-173.74485065663833
tp28
I1249
I339
tp29
.((cnumpy.core.multiarray
_reconstruct
p0
(cnumpy.matrixlib.defmatrix
matrix
p1
(I0
tp2
S'b'
p3
tp4
Rp5
(I1
(I1
I1
tp6
cnumpy
dtype
p7
(S'f8'
p8
I0
I1
tp9
Rp10
(I3
S'<'
p11
NNNI-1
I-1
I0
tp12
bI00
S'\xbe\xf2\xab\xack\xe9\xb1?'
p13
tp14
bg0
(g1
(I0
tp15
g3
tp16
Rp17
(I1
(I1
I1
tp18
g10
I00
S'g3f\xc8>\xb5\xa5?'
p19
tp20
bg0
(g1
(I0
tp21
g3
tp22
Rp23
(I1
(I1
I1
tp24
g10
I00
S'\x7f\x93\xcb\xb7\xea\xd6\xc5\xbf'
p25
tp26
btp27
(F0.08430364700970487
F-21.92562656757324
F-170.60001758146086
tp28
I623
I402
tp29
.((cnumpy.core.multiarray
_reconstruct
p0
(cnumpy.matrixlib.defmatrix
matrix
p1
(I0
tp2
S'b'
p3
tp4
Rp5
(I1
(I1
I1
tp6
cnumpy
dtype
p7
(S'f8'
p8
I0
I1
tp9
Rp10
(I3
S'<'
p11
NNNI-1
I-1
I0
tp12
bI00
S'\xf6\xf7\x15\x8f\xae\x85\xab?'
p13
tp14
bg0
(g1
(I0
tp15
g3
tp16
Rp17
(I1
(I1
I1
tp18
g10
I00
S'\t\x8a\xba\xc8K~\xa4?'
p19
tp20
bg0
(g1
(I0
tp21
g3
tp22
Rp23
(I1
(I1
I1
tp24
g10
I00
S'o\x0b\x03\xb1\xb9\xb6\xc5\xbf'
p25
tp26
btp27
(F0.11674460962793656
F-17.218532638434684
F-170.92648978643933
tp28
I803
I410
tp29
.((cnumpy.core.multiarray
_reconstruct
p0
(cnumpy.matrixlib.defmatrix
matrix
p1
(I0
tp2
S'b'
p3
tp4
Rp5
(I1
(I1
I1
tp6
cnumpy
dtype
p7
(S'f8'
p8
I0
I1
tp9
Rp10
(I3
S'<'
p11
NNNI-1
I-1
I0
tp12
bI00
S'\x8a\x9aUB\xd7\xda\xa3?'
p13
tp14
bg0
(g1
(I0
tp15
g3
tp16
Rp17
(I1
(I1
I1
tp18
g10
I00
S'\xc06$\xe5s\xd6\xa3?'
p19
tp20
bg0
(g1
(I0
tp21
g3
tp22
Rp23
(I1
(I1
I1
tp24
g10
I00
S'\xccm\x00\x94\x80r\xc5\xbf'
p25
tp26
btp27
(F0.12996204146980786
F-12.656358967024836
F-170.86488258471653
tp28
I982
I416
tp29
.((cnumpy.core.multiarray
_reconstruct
p0
(cnumpy.matrixlib.defmatrix
matrix
p1
(I0
tp2
S'b'
p3
tp4
Rp5
(I1
(I1
I1
tp6
cnumpy
dtype
p7
(S'f8'
p8
I0
I1
tp9
Rp10
(I3
S'<'
p11
NNNI-1
I-1
I0
tp12
bI00
S'>\xc2\x12r\xd4X\x97?'
p13
tp14
bg0
(g1
(I0
tp15
g3
tp16
Rp17
(I1
(I1
I1
tp18
g10
I00
S"\x87\xb4'\xf1{\xde\xa2?"
p19
tp20
bg0
(g1
(I0
tp21
g3
tp22
Rp23
(I1
(I1
I1
tp24
g10
I00
S'\xb9\x87\xaa^/R\xc5\xbf'
p25
tp26
btp27
(F0.04609955927844502
F-7.439940833656181
F-171.28517485010892
tp28
I1158
I423
tp29
.((cnumpy.core.multiarray
_reconstruct
p0
(cnumpy.matrixlib.defmatrix
matrix
p1
(I0
tp2
S'b'
p3
tp4
Rp5
(I1
(I1
I1
tp6
cnumpy
dtype
p7
(S'f8'
p8
I0
I1
tp9
Rp10
(I3
S'<'
p11
NNNI-1
I-1
I0
tp12
bI00
S'e0\x0b\x82\xf8\xdc~?'
p13
tp14
bg0
(g1
(I0
tp15
g3
tp16
Rp17
(I1
(I1
I1
tp18
g10
I00
S'\x19\xaaQ\x17\xd6|\xa2?'
p19
tp20
bg0
(g1
(I0
tp21
g3
tp22
Rp23
(I1
(I1
I1
tp24
g10
I00
S'\xde(\xc0_Y\x00\xc5\xbf'
p25
tp26
btp27
(F0.0711446101034431
F-2.2737409336203487
F-171.15661362135253
tp28
I1333
I429
tp29
.((cnumpy.core.multiarray
_reconstruct
p0
(cnumpy.matrixlib.defmatrix
matrix
p1
(I0
tp2
S'b'
p3
tp4
Rp5
(I1
(I1
I1
tp6
cnumpy
dtype
p7
(S'f8'
p8
I0
I1
tp9
Rp10
(I3
S'<'
p11
NNNI-1
I-1
I0
tp12
bI00
S'\x12\xf4\xa1#\x1ec\xaf?'
p13
tp14
bg0
(g1
(I0
tp15
g3
tp16
Rp17
(I1
(I1
I1
tp18
g10
I00
S'd\x890Cp\xfe\xa8?'
p19
tp20
bg0
(g1
(I0
tp21
g3
tp22
Rp23
(I1
(I1
I1
tp24
g10
I00
S'~\xe4\xe5\tN\xc6\xc5\xbf'
p25
tp26
btp27
(F0.0963660986738652
F-19.456305598108337
F-168.50346929468432
tp28
I710
I494
tp29
.((cnumpy.core.multiarray
_reconstruct
p0
(cnumpy.matrixlib.defmatrix
matrix
p1
(I0
tp2
S'b'
p3
tp4
Rp5
(I1
(I1
I1
tp6
cnumpy
dtype
p7
(S'f8'
p8
I0
I1
tp9
Rp10
(I3
S'<'
p11
NNNI-1
I-1
I0
tp12
bI00
S'V\x0c\xb6\xf7\x9d)\xa7?'
p13
tp14
bg0
(g1
(I0
tp15
g3
tp16
Rp17
(I1
(I1
I1
tp18
g10
I00
S'\xb6Y^\xfd\xae\\\xa8?'
p19
tp20
bg0
(g1
(I0
tp21
g3
tp22
Rp23
(I1
(I1
I1
tp24
g10
I00
S'\xbeCZJ;\x91\xc5\xbf'
p25
tp26
btp27
(F0.11890531858955607
F-14.675225130308611
F-168.26494467638852
tp28
I890
I501
tp29
.((cnumpy.core.multiarray
_reconstruct
p0
(cnumpy.matrixlib.defmatrix
matrix
p1
(I0
tp2
S'b'
p3
tp4
Rp5
(I1
(I1
I1
tp6
cnumpy
dtype
p7
(S'f8'
p8
I0
I1
tp9
Rp10
(I3
S'<'
p11
NNNI-1
I-1
I0
tp12
bI00
S'\xc7{\x1f\xedl\xfc\x9e?'
p13
tp14
bg0
(g1
(I0
tp15
g3
tp16
Rp17
(I1
(I1
I1
tp18
g10
I00
S'\x9c\x86\x80k\xbcv\xa7?'
p19
tp20
bg0
(g1
(I0
tp21
g3
tp22
Rp23
(I1
(I1
I1
tp24
g10
I00
S';\x8eYy"[\xc5\xbf'
p25
tp26
btp27
(F0.027923082961011023
F-9.879873921882245
F-168.41721840586746
tp28
I1066
I507
tp29
.((cnumpy.core.multiarray
_reconstruct
p0
(cnumpy.matrixlib.defmatrix
matrix
p1
(I0
tp2
S'b'
p3
tp4
Rp5
(I1
(I1
I1
tp6
cnumpy
dtype
p7
(S'f8'
p8
I0
I1
tp9
Rp10
(I3
S'<'
p11
NNNI-1
I-1
I0
tp12
bI00
S'\xb2S5\xdc\x8b\x83\x8e?'
p13
tp14
bg0
(g1
(I0
tp15
g3
tp16
Rp17
(I1
(I1
I1
tp18
g10
I00
S'\xbc\r\xee\xbag\x85\xa6?'
p19
tp20
bg0
(g1
(I0
tp21
g3
tp22
Rp23
(I1
(I1
I1
tp24
g10
I00
S'\x19!\x9d\x0cR\x11\xc5\xbf'
p25
tp26
btp27
(F0.09184665364277048
F-4.805891033891881
F-168.69494995360913
tp28
I1242
I513
tp29
.((cnumpy.core.multiarray
_reconstruct
p0
(cnumpy.matrixlib.defmatrix
matrix
p1
(I0
tp2
S'b'
p3
tp4
Rp5
(I1
(I1
I1
tp6
cnumpy
dtype
p7
(S'f8'
p8
I0
I1
tp9
Rp10
(I3
S'<'
p11
NNNI-1
I-1
I0
tp12
bI00
S'\xb4c\x0fC\xdd~\xb1?'
p13
tp14
bg0
(g1
(I0
tp15
g3
tp16
Rp17
(I1
(I1
I1
tp18
g10
I00
S')\x87\xe1]/$\xad?'
p19
tp20
bg0
(g1
(I0
tp21
g3
tp22
Rp23
(I1
(I1
I1
tp24
g10
I00
S'W\x1b\xbbs?\xf1\xc5\xbf'
p25
tp26
btp27
(F0.10459885761876013
F-21.399027470289376
F-166.47253595478892
tp28
I616
I580
tp29
.((cnumpy.core.multiarray
_reconstruct
p0
(cnumpy.matrixlib.defmatrix
matrix
p1
(I0
tp2
S'b'
p3
tp4
Rp5
(I1
(I1
I1
tp6
cnumpy
dtype
p7
(S'f8'
p8
I0
I1
tp9
Rp10
(I3
S'<'
p11
NNNI-1
I-1
I0
tp12
bI00
S'}\xdcF\x8bf\xf4\xaa?'
p13
tp14
bg0
(g1
(I0
tp15
g3
tp16
Rp17
(I1
(I1
I1
tp18
g10
I00
S'B\xefU\xa5\xa5\xae\xac?'
p19
tp20
bg0
(g1
(I0
tp21
g3
tp22
Rp23
(I1
(I1
I1
tp24
g10
I00
S'zC\xf5S}\xa2\xc5\xbf'
p25
tp26
btp27
(F0.13341371585617384
F-16.958409919351677
F-166.0416697542959
tp28
I797
I586
tp29
.((cnumpy.core.multiarray
_reconstruct
p0
(cnumpy.matrixlib.defmatrix
matrix
p1
(I0
tp2
S'b'
p3
tp4
Rp5
(I1
(I1
I1
tp6
cnumpy
dtype
p7
(S'f8'
p8
I0
I1
tp9
Rp10
(I3
S'<'
p11
NNNI-1
I-1
I0
tp12
bI00
S'3\xeay\xcb\xdf\x14\xa3?'
p13
tp14
bg0
(g1
(I0
tp15
g3
tp16
Rp17
(I1
(I1
I1
tp18
g10
I00
S'u%\x10z\xb5\xda\xab?'
p19
tp20
bg0
(g1
(I0
tp21
g3
tp22
Rp23
(I1
(I1
I1
tp24
g10
I00
S'f\xca\x9a\x03\xd8^\xc5\xbf'
p25
tp26
btp27
(F0.12182084366180831
F-12.231556744704895
F-165.9491841001074
tp28
I975
I592
tp29
.((cnumpy.core.multiarray
_reconstruct
p0
(cnumpy.matrixlib.defmatrix
matrix
p1
(I0
tp2
S'b'
p3
tp4
Rp5
(I1
(I1
I1
tp6
cnumpy
dtype
p7
(S'f8'
p8
I0
I1
tp9
Rp10
(I3
S'<'
p11
NNNI-1
I-1
I0
tp12
bI00
S'_\xc9\xc4N\x0c\x9b\x96?'
p13
tp14
bg0
(g1
(I0
tp15
g3
tp16
Rp17
(I1
(I1
I1
tp18
g10
I00
S'P\x92{\xf64\n\xab?'
p19
tp20
bg0
(g1
(I0
tp21
g3
tp22
Rp23
(I1
(I1
I1
tp24
g10
I00
S'\x16\xbc|\xc4\xae+\xc5\xbf'
p25
tp26
btp27
(F0.15245354901846073
F-7.191272333095299
F-166.00188547527605
tp28
I1151
I598
tp29
.((cnumpy.core.multiarray
_reconstruct
p0
(cnumpy.matrixlib.defmatrix
matrix
p1
(I0
tp2
S'b'
p3
tp4
Rp5
(I1
(I1
I1
tp6
cnumpy
dtype
p7
(S'f8'
p8
I0
I1
tp9
Rp10
(I3
S'<'
p11
NNNI-1
I-1
I0
tp12
bI00
S'r\x0b\xa8$\x16\xb8y?'
p13
tp14
bg0
(g1
(I0
tp15
g3
tp16
Rp17
(I1
(I1
I1
tp18
g10
I00
S'\x8b/n\x96\xc4Y\xaa?'
p19
tp20
bg0
(g1
(I0
tp21
g3
tp22
Rp23
(I1
(I1
I1
tp24
g10
I00
S'\xd9i\xff[\xc9\xfe\xc4\xbf'
p25
tp26
btp27
(F0.10168453728817976
F-1.8125114284716783
F-166.16903126862664
tp28
I1326
I604
tp29
.((cnumpy.core.multiarray
_reconstruct
p0
(cnumpy.matrixlib.defmatrix
matrix
p1
(I0
tp2
S'b'
p3
tp4
Rp5
(I1
(I1
I1
tp6
cnumpy
dtype
p7
(S'f8'
p8
I0
I1
tp9
Rp10
(I3
S'<'
p11
NNNI-1
I-1
I0
tp12
bI00
S'\x98\xf6\xf9\x18vs\xae?'
p13
tp14
bg0
(g1
(I0
tp15
g3
tp16
Rp17
(I1
(I1
I1
tp18
g10
I00
S"\x94\xbf\xc3\xf7'\xaf\xb0?"
p19
tp20
bg0
(g1
(I0
tp21
g3
tp22
Rp23
(I1
(I1
I1
tp24
g10
I00
S'\xcfg\x81^\xfb\xb6\xc5\xbf'
p25
tp26
btp27
(F0.1647143956537703
F-18.94796739812381
F-163.70354513983807
tp28
I703
I672
tp29
.((cnumpy.core.multiarray
_reconstruct
p0
(cnumpy.matrixlib.defmatrix
matrix
p1
(I0
tp2
S'b'
p3
tp4
Rp5
(I1
(I1
I1
tp6
cnumpy
dtype
p7
(S'f8'
p8
I0
I1
tp9
Rp10
(I3
S'<'
p11
NNNI-1
I-1
I0
tp12
bI00
S'\xa1\xf6\x8fN\x18\x8c\xa6?'
p13
tp14
bg0
(g1
(I0
tp15
g3
tp16
Rp17
(I1
(I1
I1
tp18
g10
I00
S'\xe7\r\x84\xa5\x180\xb0?'
p19
tp20
bg0
(g1
(I0
tp21
g3
tp22
Rp23
(I1
(I1
I1
tp24
g10
I00
S'n\xe6\x83\x97\xa7~\xc5\xbf'
p25
tp26
btp27
(F0.22581121016892233
F-14.362306319092482
F-163.62827268725633
tp28
I883
I678
tp29
.((cnumpy.core.multiarray
_reconstruct
p0
(cnumpy.matrixlib.defmatrix
matrix
p1
(I0
tp2
S'b'
p3
tp4
Rp5
(I1
(I1
I1
tp6
cnumpy
dtype
p7
(S'f8'
p8
I0
I1
tp9
Rp10
(I3
S'<'
p11
NNNI-1
I-1
I0
tp12
bI00
S's\x0f\xd2\xf6\xa9\xdb\x9c?'
p13
tp14
bg0
(g1
(I0
tp15
g3
tp16
Rp17
(I1
(I1
I1
tp18
g10
I00
S'h\xbbL\x08\x00\\\xaf?'
p19
tp20
bg0
(g1
(I0
tp21
g3
tp22
Rp23
(I1
(I1
I1
tp24
g10
I00
S'm\xee\\\x06Wb\xc5\xbf'
p25
tp26
btp27
(F0.13389403099491987
F-9.164532354929928
F-163.7208483392963
tp28
I1059
I683
tp29
.((cnumpy.core.multiarray
_reconstruct
p0
(cnumpy.matrixlib.defmatrix
matrix
p1
(I0
tp2
S'b'
p3
tp4
Rp5
(I1
(I1
I1
tp6
cnumpy
dtype
p7
(S'f8'
p8
I0
I1
tp9
Rp10
(I3
S'<'
p11
NNNI-1
I-1
I0
tp12
bI00
S')\xc0Y\xd2\xcd\x94\x8b?'
p13
tp14
bg0
(g1
(I0
tp15
g3
tp16
Rp17
(I1
(I1
I1
tp18
g10
I00
S'\xb7\xcd;\xac\xda\xb6\xae?'
p19
tp20
bg0
(g1
(I0
tp21
g3
tp22
Rp23
(I1
(I1
I1
tp24
g10
I00
S'\x1e#O\xfe$&\xc5\xbf'
p25
tp26
btp27
(F0.15000578817472138
F-4.271973027442484
F-163.65865567457428
tp28
I1235
I689
tp29
.((cnumpy.core.multiarray
_reconstruct
p0
(cnumpy.matrixlib.defmatrix
matrix
p1
(I0
tp2
S'b'
p3
tp4
Rp5
(I1
(I1
I1
tp6
cnumpy
dtype
p7
(S'f8'
p8
I0
I1
tp9
Rp10
(I3
S'<'
p11
NNNI-1
I-1
I0
tp12
bI00
S'&\xca-\xfa\x8d\x16\xb1?'
p13
tp14
bg0
(g1
(I0
tp15
g3
tp16
Rp17
(I1
(I1
I1
tp18
g10
I00
S'\xdd\\\xeajZ\xcb\xb2?'
p19
tp20
bg0
(g1
(I0
tp21
g3
tp22
Rp23
(I1
(I1
I1
tp24
g10
I00
S'i\x87\x12\xb3\xd7\xd4\xc5\xbf'
p25
tp26
btp27
(F0.08735649386424126
F-21.028386787224083
F-161.76796585132647
tp28
I609
I759
tp29
.((cnumpy.core.multiarray
_reconstruct
p0
(cnumpy.matrixlib.defmatrix
matrix
p1
(I0
tp2
S'b'
p3
tp4
Rp5
(I1
(I1
I1
tp6
cnumpy
dtype
p7
(S'f8'
p8
I0
I1
tp9
Rp10
(I3
S'<'
p11
NNNI-1
I-1
I0
tp12
bI00
S'\x8d\xdc;\x169\xf8\xa9?'
p13
tp14
bg0
(g1
(I0
tp15
g3
tp16
Rp17
(I1
(I1
I1
tp18
g10
I00
S'\xa0T~\x16w{\xb2?'
p19
tp20
bg0
(g1
(I0
tp21
g3
tp22
Rp23
(I1
(I1
I1
tp24
g10
I00
S'I;(D\xce\x8f\xc5\xbf'
p25
tp26
btp27
(F0.10588672606837468
F-16.40451579748711
F-161.31202549561633
tp28
I790
I764
tp29
.((cnumpy.core.multiarray
_reconstruct
p0
(cnumpy.matrixlib.defmatrix
matrix
p1
(I0
tp2
S'b'
p3
tp4
Rp5
(I1
(I1
I1
tp6
cnumpy
dtype
p7
(S'f8'
p8
I0
I1
tp9
Rp10
(I3
S'<'
p11
NNNI-1
I-1
I0
tp12
bI00
S'\xfa\xc8\x1b\xc2J\x10\xa2?'
p13
tp14
bg0
(g1
(I0
tp15
g3
tp16
Rp17
(I1
(I1
I1
tp18
g10
I00
S'yT60\xa3\xf7\xb1?'
p19
tp20
bg0
(g1
(I0
tp21
g3
tp22
Rp23
(I1
(I1
I1
tp24
g10
I00
S'\x82\xdc\x8et\x00]\xc5\xbf'
p25
tp26
btp27
(F0.1601174746073898
F-11.517697127087073
F-161.22608333027176
tp28
I968
I770
tp29
.((cnumpy.core.multiarray
_reconstruct
p0
(cnumpy.matrixlib.defmatrix
matrix
p1
(I0
tp2
S'b'
p3
tp4
Rp5
(I1
(I1
I1
tp6
cnumpy
dtype
p7
(S'f8'
p8
I0
I1
tp9
Rp10
(I3
S'<'
p11
NNNI-1
I-1
I0
tp12
bI00
S' 2B\xb3a4\x94?'
p13
tp14
bg0
(g1
(I0
tp15
g3
tp16
Rp17
(I1
(I1
I1
tp18
g10
I00
S'\x1c\xe1\xad\xb4M\x97\xb1?'
p19
tp20
bg0
(g1
(I0
tp21
g3
tp22
Rp23
(I1
(I1
I1
tp24
g10
I00
S'\x1eyq@j4\xc5\xbf'
p25
tp26
btp27
(F0.1280588055789283
F-6.442803479734846
F-161.3342541488355
tp28
I1144
I774
tp29
.((cnumpy.core.multiarray
_reconstruct
p0
(cnumpy.matrixlib.defmatrix
matrix
p1
(I0
tp2
S'b'
p3
tp4
Rp5
(I1
(I1
I1
tp6
cnumpy
dtype
p7
(S'f8'
p8
I0
I1
tp9
Rp10
(I3
S'<'
p11
NNNI-1
I-1
I0
tp12
bI00
S'e6M)m\xfft?'
p13
tp14
bg0
(g1
(I0
tp15
g3
tp16
Rp17
(I1
(I1
I1
tp18
g10
I00
S':.%\xb1#\x0f\xb1?'
p19
tp20
bg0
(g1
(I0
tp21
g3
tp22
Rp23
(I1
(I1
I1
tp24
g10
I00
S'\xe2\xde\xe5\x1e\xe3\xf9\xc4\xbf'
p25
tp26
btp27
(F0.09444705923325554
F-1.4535871870412833
F-161.64126001806483
tp28
I1319
I779
tp29
.