(lp0
((lp1
F0.05847757970840793
aF0.07378694427772459
aF-0.1532403724095949
a(lp2
F46.22422099171038
aF-1.868854630919119
aF176.13717394461258
aI722
I757
tp3
a((lp4
F0.05627322705310456
aF0.07286322727461861
aF-0.15419177594465988
a(lp5
F-47.692577941363666
aF-16.806575498804925
aF-156.5342686439511
aI822
I746
tp6
a((lp7
F0.0564051073404435
aF0.07265989589481921
aF-0.15440034382647688
a(lp8
F14.435390470950233
aF-25.796536660327693
aF171.0330702086207
aI797
I713
tp9
a((lp10
F0.05549058045095035
aF0.07187153126135067
aF-0.15476887519548932
a(lp11
F4.573153200035723
aF-21.14890070112022
aF-165.05619492140983
aI808
I705
tp12
a((lp13
F0.05482454305999712
aF0.07170870942453567
aF-0.15528759820168386
a(lp14
F29.98584158221766
aF-23.255500216907947
aF-172.0903727795913
aI809
I707
tp15
a((lp16
F0.05409734275876398
aF0.07087398230668038
aF-0.1556680182638229
a(lp17
F4.8786599982895025
aF-20.392488292501216
aF-164.2504229213505
aI825
I694
tp18
a((lp19
F0.054345313545654805
aF0.07088898318859094
aF-0.1555976989110088
a(lp20
F3.919361595654634
aF-17.108886132581386
aF171.31482427699297
aI817
I691
tp21
a((lp22
F0.053647527814960516
aF0.07106680259870632
aF-0.15597249364428958
a(lp23
F-42.145463630094575
aF4.381743220246005
aF179.10663142080057
aI830
I696
tp24
a((lp25
F0.05272185007207288
aF0.06983512295050791
aF-0.15658944957402895
a(lp26
F4.7711209183238195
aF-20.46832401068037
aF-165.1107728126761
aI845
I683
tp27
a((lp28
F0.052403723724060054
aF0.069900960723671
aF-0.15668072015189594
a(lp29
F-5.5159810984756605
aF-13.501455502230215
aF-160.12921073888342
aI844
I683
tp30
a((lp31
F0.05260255856746544
aF0.07007865445781543
aF-0.15655037850179493
a(lp32
F-61.3050589239187
aF14.53523185370487
aF-159.34881370507605
aI845
I685
tp33
a((lp34
F0.05283494210562301
aF0.06954559113709521
aF-0.1567049664872578
a(lp35
F-71.54236243056732
aF14.480848615162982
aF-170.5637142157493
aI845
I686
tp36
a((lp37
F0.051298531568603
aF0.06880989656322281
aF-0.15748448084460168
a(lp38
F4.722210361160977
aF-20.577999359228716
aF-165.34157622875577
aI865
I674
tp39
a((lp40
F0.05155432301682638
aF0.06870687015486358
aF-0.1574732229440696
a(lp41
F-28.892033054361914
aF-6.210589682237554
aF164.36913474550894
aI863
I674
tp42
a((lp43
F0.050784681053445274
aF0.06877059216782885
aF-0.15773038280583065
a(lp44
F-49.85754179473202
aF-24.73987977442303
aF-159.86650995107675
aI903
I715
tp45
a((lp46
F0.051677150124283165
aF0.06875191247191352
aF-0.15741381193910473
a(lp47
F13.496857415440937
aF-5.818909352969745
aF159.10071337511658
aI828
I671
tp48
a((lp49
F0.04982997957833626
aF0.06775490839309564
aF-0.15842821484929318
a(lp50
F4.690705371372603
aF-20.49016970491767
aF-165.05093805893378
aI884
I663
tp51
a((lp52
F0.050059749942459604
aF0.06780623455881152
aF-0.15855381584666423
a(lp53
F33.27562603630932
aF1.844096247039279
aF164.6903524883869
aI829
I681
tp54
a((lp55
F0.04951736252666707
aF0.06668885261277668
aF-0.15888549577639685
a(lp56
F62.89870025703777
aF-2.3928097496242082
aF150.30364397243142
aI861
I690
tp57
a((lp58
F0.048347651472561565
aF0.06671914259467313
aF-0.15935665951058917
a(lp59
F4.756941580091992
aF-20.252803454259663
aF-165.31807203090827
aI904
I653
tp60
a((lp61
F0.048366628303556765
aF0.06708474636557218
aF-0.15931716609088284
a(lp62
F54.46871536120793
aF-5.284699880228271
aF175.83503978650606
aI871
I685
tp63
a((lp64
F0.04823803410686047
aF0.06704381928388971
aF-0.159461139438704
a(lp65
F23.152057958990856
aF-2.989391103695594
aF-172.19960003967654
aI864
I663
tp66
a((lp67
F0.04776002642214489
aF0.0669559196734612
aF-0.15949747002403736
a(lp68
F11.296799001785606
aF-1.9286870216458112
aF-168.13684888811568
aI874
I657
tp69
a((lp70
F0.04688946167274494
aF0.06565567437986856
aF-0.16029986032176416
a(lp71
F4.849068969029251
aF-19.974934493549448
aF-165.61654762137368
aI922
I642
tp72
a((lp73
F0.046684754529697045
aF0.06578208186094896
aF-0.16033908172045366
a(lp74
F-82.3468378086125
aF20.468510538995236
aF-166.4661946341857
aI922
I644
tp75
a((lp76
F0.046295932600797327
aF0.06592616406125708
aF-0.16033892785661066
a(lp77
F-49.89446974981525
aF-3.3763262877752993
aF-155.8500179581384
aI937
I664
tp78
a((lp79
F0.04725400783336525
aF0.06578265031527042
aF-0.16053735531504448
a(lp80
F28.728718784500238
aF13.132378002192711
aF-154.25947378124414
aI847
I661
tp81
a((lp82
F0.045503893445239245
aF0.0645741322085986
aF-0.16122002711176248
a(lp83
F4.693444577655643
aF-20.381729143316914
aF-164.83633155236402
aI942
I632
tp84
a((lp85
F0.045876539199019066
aF0.06439748396671688
aF-0.16131404458128673
a(lp86
F16.59560893536029
aF5.879739478733623
aF-162.51348535631266
aI883
I630
tp87
a((lp88
F0.04508165675085968
aF0.06434423320927056
aF-0.16129352226774316
a(lp89
F-42.38681554223766
aF-26.532801326374415
aF159.15479841471733
aI978
I665
tp90
a((lp91
F0.04496012446457897
aF0.06451474428696183
aF-0.16156193961999957
a(lp92
F31.276686511653626
aF-21.331007668980305
aF-167.0700445769502
aI939
I632
tp93
a((lp94
F0.04401047448657631
aF0.06281119884137323
aF-0.16204111388428746
a(lp95
F85.90929403901438
aF14.359350257738067
aF-164.15192392520044
aI952
I681
tp96
a((lp97
F0.0443319793808121
aF0.06349658789097314
aF-0.16213740446044597
a(lp98
F27.859964131127267
aF-0.11236947716948119
aF-160.54039904470187
aI912
I631
tp99
a((lp100
F0.04221865095202046
aF0.06281265494688398
aF-0.16330305679296336
a(lp101
F-76.40076594168765
aF-18.38617706968939
aF172.1269884995094
aI987
I677
tp102
a((lp103
F0.043169046587797556
aF0.06252260433934799
aF-0.16301811454642354
a(lp104
F-9.896752644949567
aF6.310158548689027
aF171.51876943481267
aI939
I603
tp105
a((lp106
F0.042123674062722716
aF0.06183441592875756
aF-0.16358682378994904
a(lp107
F45.02796171627469
aF-12.572035017421586
aF-165.4244213428848
aI962
I618
tp108
a((lp109
F0.0412776582997527
aF0.06100474796536369
aF-0.16410295997465316
a(lp110
F-56.26201307371712
aF0.5564896537181241
aF-177.2223971247943
aI995
I611
tp111
a((lp112
F0.041555333159119114
aF0.061307890931344665
aF-0.16396801154045085
a(lp113
F-28.391882460181854
aF-9.286594288939677
aF174.90276982939076
aI995
I608
tp114
a((lp115
F0.04119025623299335
aF0.06163852697705312
aF-0.16399203432877854
a(lp116
F14.834129395308073
aF-16.835701762920436
aF174.02261667335398
aI986
I603
tp117
a((lp118
F0.03958756605784238
aF0.05997370868159211
aF-0.1649399538374725
a(lp119
F-68.00407387075339
aF6.556861269504371
aF177.25821755330614
aI1011
I599
tp120
a((lp121
F0.039210324309055855
aF0.060594490575584206
aF-0.16485503778279248
a(lp122
F-35.307610300023335
aF-3.0876729894248567
aF-161.86696270821056
aI1016
I601
tp123
a((lp124
F0.03985991887983403
aF0.06009088240208455
aF-0.1647723580417042
a(lp125
F-35.79567113596133
aF-9.212957401493533
aF-178.22455788483128
aI1018
I601
tp126
a((lp127
F0.03855862997825384
aF0.05908675855441408
aF-0.1655825034677291
a(lp128
F-30.334504071462103
aF0.6844279561635567
aF-157.60112728925498
aI1018
I578
tp129
a((lp130
F0.06243614949682982
aF0.06727634789599835
aF-0.15548272895395085
a(lp131
F5.229306995423846
aF-19.401368281357566
aF-173.2405574834623
aI724
I637
tp132
a((lp133
F0.06216708634383107
aF0.06715486226144916
aF-0.15545027870505007
a(lp134
F44.034403436744505
aF-11.403001221828582
aF-179.86291484734912
aI705
I657
tp135
a((lp136
F0.062493760639702474
aF0.06548454302379271
aF-0.15637430042753533
a(lp137
F6.070123052727432
aF-17.03886049966699
aF-170.05326178613706
aI720
I615
tp138
a((lp139
F0.062411349940755916
aF0.06574139226229536
aF-0.1563393076858471
a(lp140
F-22.53333457032542
aF-5.429888931749158
aF169.14598632218983
aI723
I612
tp141
a((lp142
F0.061755390424872034
aF0.06516876103730841
aF-0.15684473251169406
a(lp143
F28.685270952868898
aF-23.378011802636227
aF-158.51570653166033
aI734
I615
tp144
a((lp145
F0.06352474884666588
aF0.06370872867131316
aF-0.1567882135255968
a(lp146
F4.059801163598286
aF-22.354588490058898
aF-165.33932305501924
aI722
I591
tp147
a((lp148
F0.06267800693211753
aF0.06365434767028721
aF-0.1570891793075585
a(lp149
F-21.925640387885146
aF-22.206488999477855
aF-161.2203319526872
aI748
I600
tp150
a((lp151
F0.06385778090259062
aF0.06392495253185887
aF-0.15729084343155691
a(lp152
F32.58439814561115
aF11.2197181116199
aF161.12104494682998
aI644
I620
tp153
a((lp154
F0.06267460298412278
aF0.0643648511767178
aF-0.1568464162957955
a(lp155
F-31.542204025951154
aF14.107574406164034
aF178.47733741235936
aI705
I577
tp156
a((lp157
F0.06332323932215367
aF0.06177949106777768
aF-0.15790090986796518
a(lp158
F5.795906398262436
aF-17.478256785472894
aF-171.72581959572005
aI718
I569
tp159
a((lp160
F0.06271328450114212
aF0.06199412290190823
aF-0.15772553651558432
a(lp161
F-3.8900289011288813
aF1.0443599662955325
aF-155.0036166323216
aI698
I563
tp162
a((lp163
F0.06299884048184708
aF0.06087024987752845
aF-0.15787454502822892
a(lp164
F83.55858761318756
aF1.6137127799878588
aF174.55181068624225
aI728
I604
tp165
a((lp166
F0.06311936545158593
aF0.06197562765979253
aF-0.15811955989616283
a(lp167
F27.826393572241027
aF-21.17599554068581
aF-175.41742494811407
aI720
I575
tp168
a((lp169
F0.06386932637015243
aF0.06007801124982839
aF-0.15860218377121207
a(lp170
F5.261525249122843
aF-19.003298308894202
aF-167.86366522743336
aI716
I546
tp171
a((lp172
F0.06392443310298078
aF0.059692024727699966
aF-0.15863322303697577
a(lp173
F-45.82608723568386
aF12.275825119960665
aF-156.95222896011353
aI712
I523
tp174
a((lp175
F0.06371093044833434
aF0.059722783177231085
aF-0.15857952312060036
a(lp176
F-56.6049620851769
aF-10.546907389706355
aF-178.41728567134948
aI741
I568
tp177
a((lp178
F0.06373087363159606
aF0.05951359026695517
aF-0.1589362137842438
a(lp179
F-68.30678586225889
aF13.015492384548041
aF-179.31733871319696
aI726
I538
tp180
a((lp181
F0.06377732985874099
aF0.058163640819258615
aF-0.15938589538166714
a(lp182
F5.72767332528774
aF-17.305671990616457
aF-173.06220966775297
aI718
I523
tp183
a((lp184
F0.063054960820057
aF0.0575567467797448
aF-0.15944070938016827
a(lp185
F44.33525685055702
aF-9.709306277829018
aF-175.49579663751496
aI710
I536
tp186
a((lp187
F0.06348765547165056
aF0.05795936049415556
aF-0.15973972223604718
a(lp188
F48.90307244759123
aF14.214364378765774
aF-159.32571480190276
aI672
I575
tp189
a((lp190
F0.06290812411358628
aF0.05822306203478013
aF-0.15994983892997197
a(lp191
F-14.486187281103813
aF-24.05645120095164
aF-162.78727982364805
aI751
I531
tp192
a((lp193
F0.06474594620517383
aF0.05653995175973898
aF-0.15996628636088964
a(lp194
F4.181449888996248
aF-21.94548953547519
aF-167.4584366816409
aI718
I502
tp195
a((lp196
F0.06455595440349252
aF0.05633400707126073
aF-0.16011148753043816
a(lp197
F-81.74843874554627
aF15.412000073358186
aF-167.8378062071607
aI722
I503
tp198
a((lp199
F0.06509906723192017
aF0.05631295334928414
aF-0.1602436676288221
a(lp200
F-3.866582533244253
aF12.693352029042266
aF-171.89585678523545
aI654
I477
tp201
a((lp202
F0.06456990602550831
aF0.056876992217987
aF-0.1601081446089167
a(lp203
F-80.32135951039481
aF-15.169675131394817
aF-177.4279781811844
aI728
I562
tp204
a((lp205
F0.0654770401601624
aF0.05463526392000057
aF-0.16073450141871257
a(lp206
F3.6855450486074837
aF-23.69974747227865
aF-167.62539354932517
aI715
I478
tp207
a((lp208
F0.06542737462184023
aF0.05474442639471058
aF-0.16077845436486118
a(lp209
F45.64093632450944
aF-8.743618754157117
aF-173.53237957916377
aI685
I498
tp210
a((lp211
F0.06535226813218986
aF0.0548922996713365
aF-0.16088207905824758
a(lp212
F1.0274534378895237
aF-29.568511507272998
aF-179.26749471142304
aI727
I482
tp213
a((lp214
F0.06550946188121945
aF0.05482034183799661
aF-0.16069893513760244
a(lp215
F45.88477975116977
aF-13.522206602054109
aF162.8657933732565
aI691
I493
tp216
a((lp217
F0.06504867348671314
aF0.05289774818899918
aF-0.161765589305077
a(lp218
F5.493706534187925
aF-17.905141492107123
aF-172.91672114285277
aI712
I459
tp219
a((lp220
F0.06503424198269003
aF0.05302781719516317
aF-0.16176223657661834
a(lp221
F-32.97563225400679
aF-8.554323940122643
aF-171.60681959200826
aI720
I461
tp222
a((lp223
F0.06477347443495765
aF0.05319692113897308
aF-0.1620046434524217
a(lp224
F-74.40625287354602
aF-24.846258223025078
aF-164.45811753631665
aI741
I525
tp225
a((lp226
F0.06542032590430784
aF0.052728759289335396
aF-0.1618964576854914
a(lp227
F-32.24574236351693
aF-16.69769630150801
aF-155.96916878703345
aI726
I466
tp228
a((lp229
F0.06592043625307548
aF0.051355630305699146
aF-0.16230054026726964
a(lp230
F3.871664007915321
aF-23.11106042528374
aF-167.29427138984366
aI714
I440
tp231
a((lp232
F0.06555637982493169
aF0.05093662603085445
aF-0.16255854594481
a(lp233
F85.8667834305664
aF-16.488844332083698
aF-170.2366159404443
aI720
I443
tp234
a((lp235
F0.06580593033545472
aF0.05169369860013895
aF-0.16220725166377414
a(lp236
F19.101033415394607
aF-22.527631378850234
aF178.86401974829172
aI709
I444
tp237
a((lp238
F0.06595451755685493
aF0.05153304208708758
aF-0.1622301560998773
a(lp239
F39.65436640029717
aF-12.259133165596257
aF168.72718307629208
aI688
I453
tp240
a((lp241
F0.06562307385336842
aF0.04936366368874665
aF-0.16340468657230342
a(lp242
F5.366040647980897
aF-17.77865498984088
aF-172.44752302172188
aI711
I418
tp243
a((lp244
F0.06557638632747481
aF0.04919477527794106
aF-0.16347227661863079
a(lp245
F-54.16448559647265
aF-3.873014501899459
aF156.6906442730694
aI723
I423
tp246
a((lp247
F0.06510777701662977
aF0.04994567294824038
aF-0.16344158192197616
a(lp248
F-54.03324332589004
aF3.6875509867376195
aF-173.43535405874223
aI721
I421
tp249
a((lp250
F0.06480978748177765
aF0.04933266649857643
aF-0.1636882054168238
a(lp251
F18.602240008508197
aF-19.097468543367366
aF176.08275261693927
aI720
I421
tp252
a((lp253
F0.06580372284990625
aF0.04775510301992261
aF-0.1642008822525125
a(lp254
F5.3429595492768165
aF-17.647467791133508
aF-172.96689741973245
aI712
I399
tp255
a((lp256
F0.06589144564851257
aF0.04804832714627567
aF-0.1640803685421972
a(lp257
F-13.68778232880988
aF-13.502360605574848
aF170.14489547868797
aI712
I400
tp258
a((lp259
F0.06524877585601185
aF0.047355531478588495
aF-0.16408128305093778
a(lp260
F68.63743657610037
aF13.107710583161703
aF173.63230036699943
aI703
I456
tp261
a((lp262
F0.0655991621908777
aF0.04830077503703877
aF-0.1643875066424499
a(lp263
F-11.026908415889453
aF1.93065329113508
aF170.21380302108386
aI688
I392
tp264
a((lp265
F0.06604090487515848
aF0.04599487965008753
aF-0.16510082571784931
a(lp266
F5.689873203615089
aF-15.987456371037931
aF-173.2884780592235
aI710
I380
tp267
a((lp268
F0.0657623869730542
aF0.04533708772640744
aF-0.16522186849729406
a(lp269
F74.7955137370431
aF-7.534845096954694
aF-176.8797368085314
aI719
I396
tp270
a((lp271
F0.06547732032769014
aF0.04536588075920117
aF-0.16529451956475008
a(lp272
F65.53112525639844
aF-9.20012397264244
aF-167.6282725246056
aI717
I395
tp273
a((lp274
F0.0661236759348857
aF0.04611345015274454
aF-0.16508166720253795
a(lp275
F-20.735882504220108
aF9.066437386652686
aF-160.55770280573714
aI684
I358
tp276
a((lp277
F0.0664929360292958
aF0.04421061610192227
aF-0.1659010094601622
a(lp278
F5.57071854642728
aF-16.133818630722786
aF-172.69167429289644
aI708
I360
tp279
a((lp280
F0.06666469470549966
aF0.04464250771691482
aF-0.16597899531444849
a(lp281
F5.883234293261839
aF9.293300189282087
aF-178.7179948123279
aI656
I356
tp282
a((lp283
F0.06604198954799331
aF0.0450427197278766
aF-0.1658896825855549
a(lp284
F-24.3333952630734
aF20.22656229776462
aF-158.48964652233954
aI677
I335
tp285
a((lp286
F0.06581539730522329
aF0.04407664649835523
aF-0.16576965290583934
a(lp287
F30.79252226276189
aF18.97852312201557
aF-161.8808009083194
aI650
I388
tp288
a((lp289
F0.06693776045010923
aF0.04248018425395393
aF-0.1667080724523871
a(lp290
F5.5712166090154565
aF-15.990947085699393
aF-172.8641107515464
aI706
I340
tp291
a((lp292
F0.06708984649120067
aF0.04271665641981927
aF-0.1668815306055198
a(lp293
F25.316280383760223
aF7.580996458401359
aF161.87131290095687
aI656
I356
tp294
a((lp295
F0.0664564789578244
aF0.04177994232113206
aF-0.16668605145997684
a(lp296
F57.80535980332392
aF17.71838604260685
aF-162.15966029036724
aI681
I393
tp297
a((lp298
F0.06653345172365234
aF0.04217967484493904
aF-0.16719629344289041
a(lp299
F64.38974849624975
aF-18.50634611700609
aF-175.5081851644407
aI720
I345
tp300
a((lp301
F0.06758388179780678
aF0.040783594888166255
aF-0.1674297203730528
a(lp302
F4.714886734761639
aF-19.816954034890315
aF-167.27912742884683
aI709
I321
tp303
a((lp304
F0.06734204162007233
aF0.04109197059053669
aF-0.16738591523879442
a(lp305
F-48.19248172368729
aF2.2751521103702665
aF-150.5503617354079
aI708
I316
tp306
a((lp307
F0.06774949987102552
aF0.04073912645212029
aF-0.16728843336668203
a(lp308
F-0.4766853264121612
aF-5.205967515724227
aF-169.5415296046538
aI682
I313
tp309
a((lp310
F0.06745118753817705
aF0.040799729100056685
aF-0.16766653806012458
a(lp311
F-77.11018640299898
aF4.733959008750607
aF173.5870848133824
aI715
I328
tp312
a((lp313
F0.06749751945243458
aF0.0388127626599996
aF-0.1684518277329406
a(lp314
F5.2089019687488465
aF-16.75275477005248
aF-173.15397330373236
aI709
I300
tp315
a((lp316
F0.06707757368842747
aF0.039583242847170345
aF-0.1684203385377458
a(lp317
F-78.6931395619847
aF1.8816104170400891
aF-162.74132214489876
aI721
I322
tp318
a((lp319
F0.06774392922697137
aF0.03907371317285411
aF-0.1683028260881238
a(lp320
F-20.355223491724114
aF-19.22138568386715
aF-169.42472499216336
aI720
I307
tp321
a((lp322
F0.0678075998537173
aF0.03921899039670767
aF-0.16824847486743447
a(lp323
F-1.3269487899308625
aF-23.556081787175152
aF172.81236714927354
aI718
I305
tp324
a.