(lp0
((lp1
F0.009760844913108836
aF0.06677764509459108
aF-0.14556229448084368
a(lp2
F24.080799821219433
aF-0.5930930088441645
aF-168.4103944791643
aI1464
I715
tp3
a((lp4
F0.01171377653964236
aF0.0664897771928061
aF-0.14608431095778038
a(lp5
F9.389203323875273
aF-2.370955791834188
aF-167.41946226344942
aI1452
I704
tp6
a((lp7
F0.013921915043436853
aF0.06606143869932651
aF-0.14677076547641238
a(lp8
F16.666500851134998
aF11.689342891162323
aF-159.9520151823771
aI1397
I704
tp9
a((lp10
F0.013444334032834416
aF0.0663917402470573
aF-0.1465632246757524
a(lp11
F-74.61873576454951
aF11.187877826644915
aF-165.0579303451905
aI1447
I725
tp12
a((lp13
F0.032500451970132065
aF0.059366550901523096
aF-0.1539968205215639
a(lp14
F-36.25688683178086
aF13.356902658002427
aF-167.58368600106346
aI1203
I579
tp15
a((lp16
F0.03650619880927932
aF0.05807825195878377
aF-0.1554394822186909
a(lp17
F21.474820290870614
aF5.5187969257100065
aF-165.32939583553755
aI1122
I578
tp18
a((lp19
F0.03651367593914295
aF0.05722073344421071
aF-0.15538229276947804
a(lp20
F63.82785068283085
aF5.704649110352189
aF-171.51775769553413
aI1142
I608
tp21
a((lp22
F0.03804192751342023
aF0.056530734128591525
aF-0.1560511559830005
a(lp23
F57.336219289403616
aF-1.8898141040310137
aF-173.747584694808
aI1126
I582
tp24
a((lp25
F0.040077681590160515
aF0.05689118526736714
aF-0.15666844184184509
a(lp26
F38.33542127411589
aF3.224611906165487
aF-158.77281177754722
aI1082
I574
tp27
a((lp28
F0.03995425392442994
aF0.05676890832816683
aF-0.1568181746844423
a(lp29
F-40.66515863409209
aF9.783959067371997
aF-160.516584088167
aI1119
I541
tp30
a((lp31
F0.041763289710251575
aF0.05597137732023863
aF-0.1575571751060643
a(lp32
F5.771659901502572
aF-4.449896439428135
aF-162.0751455860759
aI1085
I535
tp33
a((lp34
F0.041666787181327054
aF0.05654289923115485
aF-0.1574718309129724
a(lp35
F-68.5561353167769
aF12.36331692761539
aF-163.7666939776718
aI1108
I547
tp36
a((lp37
F0.04323855393699742
aF0.055331887491679846
aF-0.15802851591010697
a(lp38
F71.0530857252445
aF6.001414274259059
aF-164.474479809225
aI1072
I579
tp39
a((lp40
F0.04313967335798072
aF0.05591458725907285
aF-0.15816574751390025
a(lp41
F-37.82878926825142
aF6.0113395718057285
aF-167.70252994417345
aI1083
I529
tp42
a((lp43
F0.045520132706373444
aF0.054763560787201106
aF-0.1586571987600141
a(lp44
F51.27733547412662
aF8.926381788344978
aF-162.74432301575982
aI1019
I561
tp45
a((lp46
F0.047598395099403557
aF0.05445391768618786
aF-0.15934826485034412
a(lp47
F32.50894456705981
aF8.720268595116076
aF-158.86461798718005
aI980
I530
tp48
a((lp49
F0.04863775252618728
aF0.053617484570985446
aF-0.16028488927366083
a(lp50
F36.94994650249596
aF-4.814181133320874
aF-160.37828264587915
aI994
I514
tp51
a((lp52
F0.048946609036358314
aF0.05372375609991318
aF-0.16015939090219916
a(lp53
F2.7127606496394177
aF2.397607866807899
aF-167.2527570625015
aI986
I493
tp54
a((lp55
F0.05099431133867696
aF0.052801850884318983
aF-0.16070814103406403
a(lp56
F85.77109595943627
aF8.34183001827353
aF-172.35585829351658
aI999
I542
tp57
a((lp58
F0.050830806366473816
aF0.053166063387620054
aF-0.16066298581681598
a(lp59
F36.70184040950836
aF3.7928168960603608
aF-167.20665962304875
aI953
I512
tp60
a((lp61
F0.05077351063766619
aF0.0532823042677287
aF-0.1606691052661915
a(lp62
F35.327268282841786
aF3.627440610663796
aF-168.15954378045848
aI954
I512
tp63
a((lp64
F0.050630431417456497
aF0.05342462396398932
aF-0.16084499671344477
a(lp65
F-71.02567590584451
aF8.312157691544725
aF-166.9899090865309
aI1003
I499
tp66
a((lp67
F0.05246161124807549
aF0.05209304501641922
aF-0.16136598394857338
a(lp68
F47.54645310761806
aF8.718711534939354
aF-169.701499622624
aI935
I513
tp69
a((lp70
F0.05265574058876305
aF0.05248098946560514
aF-0.16158152007984622
a(lp71
F-1.1309663884142978
aF-1.0732708880529653
aF-168.36822096525233
aI951
I473
tp72
a((lp73
F0.05395810282126343
aF0.05189316366202487
aF-0.16236750943794484
a(lp74
F44.01117919283143
aF-5.159313962304934
aF-169.1387577662033
aI936
I491
tp75
a((lp76
F0.0543201370594084
aF0.051682676765355796
aF-0.16216058788314133
a(lp77
F47.94090534939246
aF-1.3184240413670496
aF-168.83161776885524
aI928
I495
tp78
a((lp79
F0.05402652059638663
aF0.051768533533842774
aF-0.16217485743794666
a(lp80
F-38.46702776195979
aF-0.9250122391859632
aF-170.17975080063295
aI961
I467
tp81
a((lp82
F0.056284872245367344
aF0.05102610380894513
aF-0.16275700379383942
a(lp83
F85.53093980842164
aF8.46893988372101
aF-172.5191923031626
aI939
I511
tp84
a((lp85
F0.05618024911166116
aF0.05128014995924895
aF-0.16288536975788406
a(lp86
F12.428075920068082
aF3.9261434934115584
aF-167.9153876943617
aI890
I456
tp87
a((lp88
F0.05574734310437949
aF0.05165819640092631
aF-0.16289937519793338
a(lp89
F-27.31336256674206
aF2.2893929820885233
aF-169.33930619766323
aI929
I455
tp90
a((lp91
F0.0564259231244784
aF0.05113909801357021
aF-0.1627579671602623
a(lp92
F-21.213519262689523
aF7.564091918742693
aF-164.44256778995165
aI910
I443
tp93
a((lp94
F0.058102192249959196
aF0.05035904714330352
aF-0.16339951196671626
a(lp95
F85.37012555665017
aF8.824693936808204
aF-172.46878401320862
aI918
I501
tp96
a((lp97
F0.05807689030814765
aF0.050502094613952726
aF-0.1636323392068008
a(lp98
F-10.355284732401865
aF12.603812983682564
aF-155.75479812107218
aI872
I429
tp99
a((lp100
F0.05803981725686297
aF0.05085441663156233
aF-0.1635608023018043
a(lp101
F-21.75688180025692
aF14.141546053410798
aF-168.71139090511448
aI881
I429
tp102
a((lp103
F0.05717890058762443
aF0.05033188986715285
aF-0.16369622864498032
a(lp104
F-6.330152519133103
aF2.810874026662041
aF-165.0425132299757
aI896
I439
tp105
a((lp106
F0.05987047838264981
aF0.049823763720184114
aF-0.16409708544209292
a(lp107
F85.35476915276031
aF8.55612750092667
aF-172.20050993500627
aI898
I491
tp108
a((lp109
F0.059632997828151325
aF0.05033302346578148
aF-0.16398282589420232
a(lp110
F44.414371939066655
aF2.285491779141625
aF-157.30221828644926
aI858
I473
tp111
a((lp112
F0.059487700325781934
aF0.05059985153416435
aF-0.16419066999710302
a(lp113
F-78.72095224428462
aF14.30238747896991
aF-172.10461149884566
aI900
I444
tp114
a((lp115
F0.05942433386423446
aF0.05036073721463722
aF-0.16427906509145684
a(lp116
F-63.895493189663505
aF8.152245172177505
aF-169.9367508981923
aI899
I440
tp117
a((lp118
F0.061665312393755854
aF0.04921080961160202
aF-0.16476636599756495
a(lp119
F85.23753784579314
aF8.692392507939381
aF-172.45858460088476
aI877
I480
tp120
a((lp121
F0.0607193926064168
aF0.04885577026620118
aF-0.16506883048020565
a(lp122
F64.58481638414138
aF2.072453794094009
aF-165.02566640233857
aI868
I466
tp123
a((lp124
F0.061366229938279074
aF0.04883250797952474
aF-0.16498316837597782
a(lp125
F80.12006593103256
aF-0.08959421452919052
aF-175.97550666255242
aI877
I461
tp126
a((lp127
F0.0614674581991957
aF0.04961519506220787
aF-0.16497238852452611
a(lp128
F-30.537157281400148
aF5.157457813398357
aF-163.32239027969732
aI860
I417
tp129
a((lp130
F0.06339717218622135
aF0.048642211989794064
aF-0.1654531043519957
a(lp131
F85.27367243725614
aF8.557242911842511
aF-172.33118812919065
aI857
I469
tp132
a((lp133
F0.06299119480343249
aF0.04918583775901514
aF-0.1656519493355898
a(lp134
F-25.49697839035545
aF0.13914244750825233
aF-164.9346054305349
aI845
I415
tp135
a((lp136
F0.06256467367849775
aF0.04827021308634227
aF-0.16552404181155078
a(lp137
F24.711605074673013
aF-1.255561480442378
aF-168.6507315820782
aI826
I424
tp138
a((lp139
F0.06292384354162224
aF0.048005926784242335
aF-0.16532808605037463
a(lp140
F65.35859493817603
aF6.74026623225026
aF-169.15239648942676
aI841
I459
tp141
a((lp142
F0.03024077744663106
aF0.026911361411712256
aF-0.15342717232907654
a(lp143
F-82.4240499816382
aF10.677096132967227
aF-170.39431572923982
aI1294
I204
tp144
a((lp145
F0.02993152253098004
aF0.02682692522203835
aF-0.15348973289745335
a(lp146
F-50.296499195011
aF0.9405340153694232
aF-166.29581904959966
aI1298
I208
tp147
a((lp148
F0.03161316813231359
aF0.027560384100829432
aF-0.15425956131130983
a(lp149
F-82.92424634570077
aF8.343257352097815
aF-168.39078215008556
aI1276
I215
tp150
a((lp151
F0.03151925332567803
aF0.027622272846279515
aF-0.15408107081575678
a(lp152
F10.066753930398875
aF0.9707018809996935
aF-160.09166947331437
aI1252
I213
tp153
a((lp154
F0.031493807290926025
aF0.027577290657608285
aF-0.1542603429678925
a(lp155
F-53.45046933074786
aF9.610031991261565
aF-159.71955399058805
aI1270
I203
tp156
a((lp157
F0.032923490348895586
aF0.028470797592250442
aF-0.15506477060112295
a(lp158
F-74.37927131773829
aF8.346497401386856
aF-165.86405718001487
aI1256
I223
tp159
a((lp160
F0.033057596964366984
aF0.028561421987526404
aF-0.15490367630118904
a(lp161
F53.436176999017164
aF0.48938036379940353
aF-172.01129166371956
aI1236
I245
tp162
a((lp163
F0.032514707539781244
aF0.028401393718765964
aF-0.15506300189336247
a(lp164
F34.0351701211344
aF-1.105028299030248
aF-166.0721129355252
aI1239
I236
tp165
a((lp166
F0.0346430483336147
aF0.02985467580406977
aF-0.1557952885459247
a(lp167
F-82.76008251403182
aF8.795511443532137
aF-168.4378858198774
aI1234
I242
tp168
a((lp169
F0.034513096488339785
aF0.02967666073883001
aF-0.15576984598337312
a(lp170
F-14.184627950212024
aF-3.4686830796459516
aF-163.4583608919333
aI1226
I233
tp171
a((lp172
F0.034929500838464494
aF0.029639002157277196
aF-0.15577062863808044
a(lp173
F-21.48943813705771
aF6.5820536992482666
aF-157.714030749318
aI1208
I224
tp174
a((lp175
F0.0355949399028433
aF0.030420173602578104
aF-0.15647225291733163
a(lp176
F37.11671682409251
aF-2.3524751489820868
aF-169.0883181937271
aI1198
I258
tp177
a((lp178
F0.035866343986792636
aF0.03100602301436802
aF-0.1564003652063613
a(lp179
F-29.232615669206012
aF5.923787191676369
aF-157.87301053922616
aI1199
I240
tp180
a((lp181
F0.03625070796832101
aF0.03086396813361337
aF-0.15657046535521946
a(lp182
F29.20351450481003
aF6.351980526393874
aF-161.06507073826612
aI1173
I264
tp183
a((lp184
F0.03755008397722922
aF0.0321938482129358
aF-0.1573113125970387
a(lp185
F-82.29448542318121
aF10.364827868933016
aF-169.83999214644035
aI1192
I264
tp186
a((lp187
F0.037400186318054696
aF0.03191922173877099
aF-0.15726924913620413
a(lp188
F-42.72950857240101
aF7.63926333914106
aF-160.52141797292145
aI1184
I249
tp189
a((lp190
F0.03794408721591231
aF0.03174536397999879
aF-0.15742967351617815
a(lp191
F-6.608843864027528
aF9.371536769737482
aF-164.20142552159095
aI1151
I247
tp192
a((lp193
F0.03688232133151147
aF0.03202986917888637
aF-0.1576165021534573
a(lp194
F-25.473087206101024
aF-0.8337256804931996
aF-173.28687087189886
aI1191
I261
tp195
a((lp196
F0.03906006769991271
aF0.033406901037714286
aF-0.15805562411111623
a(lp197
F-82.0202517480347
aF11.183552873589626
aF-172.3210547272777
aI1170
I275
tp198
a((lp199
F0.039334296349490164
aF0.03308812795663671
aF-0.15807356296959038
a(lp200
F11.830511939676489
aF2.714489351931096
aF-169.5952278635217
aI1136
I273
tp201
a((lp202
F0.03929113970855082
aF0.033424204641065505
aF-0.15808474526446661
a(lp203
F-1.0819589375024126
aF3.0796312606394505
aF-169.66876388447213
aI1140
I271
tp204
a((lp205
F0.038384235391520125
aF0.03248382788791327
aF-0.15833136097405134
a(lp206
F35.48504441874986
aF-0.484259503920933
aF-169.9068380500629
aI1153
I282
tp207
a((lp208
F0.040559398598492225
aF0.03447787189922266
aF-0.1588173752107523
a(lp209
F-82.03090181306366
aF10.957151635189403
aF-170.72356948628575
aI1153
I290
tp210
a((lp211
F0.0399782446667793
aF0.03432359147206116
aF-0.15889671688205612
a(lp212
F-18.842804887654903
aF-2.793538992957486
aF-165.72377801235288
aI1149
I286
tp213
a((lp214
F0.04021224690547581
aF0.034040741594888166
aF-0.15869351212884197
a(lp215
F80.16193053241678
aF12.283537078595074
aF-174.0567155847562
aI1148
I336
tp216
a((lp217
F0.03997968096171409
aF0.03508613751678181
aF-0.1588987883335403
a(lp218
F-63.59075438430624
aF11.015009032668749
aF-164.77032165855607
aI1153
I289
tp219
a((lp220
F0.04199263652463059
aF0.03567974624762785
aF-0.15956862653318424
a(lp221
F-82.00328681738947
aF10.894650044828106
aF-170.42833917844922
aI1131
I301
tp222
a((lp223
F0.042086405559171355
aF0.035355698645207656
aF-0.15950722897122244
a(lp224
F-22.382146494339025
aF2.7349230984324677
aF-161.57864050477008
aI1115
I290
tp225
a((lp226
F0.04192208922728809
aF0.03581454432832037
aF-0.1595617902005946
a(lp227
F62.55339731458057
aF8.702271726313068
aF-174.22589967965135
aI1108
I345
tp228
a((lp229
F0.040933169847234295
aF0.035447595828094466
aF-0.15972611500259865
a(lp230
F41.027888754340154
aF5.46223847244356
aF-165.7508069019319
aI1106
I326
tp231
a((lp232
F0.04353148934228486
aF0.03683703952993152
aF-0.1603014957356052
a(lp233
F-81.89488024032927
aF11.077596095372494
aF-170.88123836911058
aI1110
I313
tp234
a((lp235
F0.04355331340372057
aF0.036751652263044145
aF-0.16024242756487841
a(lp236
F30.807989436838213
aF1.747300919056586
aF-172.130349786856
aI1076
I325
tp237
a((lp238
F0.04311358942513897
aF0.03718715126686567
aF-0.1604593794804965
a(lp239
F-62.962907804326576
aF7.191991583859498
aF-171.95067870085506
aI1112
I315
tp240
a((lp241
F0.043402695689331805
aF0.03674124589454063
aF-0.16026185864573111
a(lp242
F31.308017623037333
aF4.9035945683126725
aF-169.76916943510736
aI1072
I328
tp243
a((lp244
F0.04504437337180989
aF0.037911838412260694
aF-0.16105536690593628
a(lp245
F-81.82988457628903
aF11.162706358049713
aF-171.57052421849434
aI1091
I325
tp246
a((lp247
F0.044650042738277385
aF0.037971423981798154
aF-0.16104041321557822
a(lp248
F-41.58888033455311
aF4.466114271726823
aF-163.19816761872346
aI1087
I318
tp249
a((lp250
F0.04547251492963554
aF0.037752462961854874
aF-0.16109898483405524
a(lp251
F-6.24037718713417
aF8.038702410865639
aF-159.21847263586835
aI1049
I313
tp252
a((lp253
F0.044691422153483186
aF0.03848934891602715
aF-0.16120773432863128
a(lp254
F-65.89825803661292
aF5.16221767425409
aF-168.88634097987023
aI1094
I335
tp255
a((lp256
F0.04653561782055443
aF0.03881640808909414
aF-0.1618253524463231
a(lp257
F-81.97801854403545
aF10.505347042826607
aF-170.6718388321728
aI1071
I335
tp258
a((lp259
F0.046611425200768324
aF0.03857773140476675
aF-0.1617243365247175
a(lp260
F-16.60133000280695
aF-2.304629381007448
aF-163.93719862999467
aI1058
I327
tp261
a((lp262
F0.04616530896713155
aF0.03923406956806004
aF-0.16177939168545677
a(lp263
F-78.29032772627373
aF7.856126873877316
aF-164.86687093869097
aI1074
I343
tp264
a((lp265
F0.04623115270662451
aF0.03875376800321207
aF-0.16177655845815211
a(lp266
F49.61785635584574
aF9.204522402671154
aF-168.42857671064553
aI1036
I370
tp267
a((lp268
F0.04801487061388629
aF0.040008616351868274
aF-0.16259512686871916
a(lp269
F-81.85368379564052
aF10.797498021139287
aF-171.66674647345855
aI1051
I347
tp270
a((lp271
F0.0477147203142143
aF0.03983854291487432
aF-0.16251841981535803
a(lp272
F37.91097394309369
aF-0.7050357113591793
aF-173.021212437939
aI1023
I360
tp273
a((lp274
F0.04775975369862117
aF0.040142694712630524
aF-0.16274604861247757
a(lp275
F-63.377244406372206
aF13.378155628336406
aF-165.90284497896067
aI1048
I333
tp276
a((lp277
F0.047268730223293975
aF0.039653227559072184
aF-0.16274397513651664
a(lp278
F6.4234112702316155
aF-1.4166535208352677
aF-165.4547612364026
aI1033
I341
tp279
a((lp280
F0.0494833164315579
aF0.04110558685343369
aF-0.16333511003753798
a(lp281
F-81.72919632610986
aF11.040061724406058
aF-171.08718067620165
aI1031
I357
tp282
a((lp283
F0.049188380474261
aF0.04080381722121406
aF-0.16329092665877934
a(lp284
F-0.3014001148803049
aF-5.234205655771801
aF-166.41603336033873
aI1018
I352
tp285
a((lp286
F0.04938086164917243
aF0.04100365030077954
aF-0.1632206503514161
a(lp287
F-4.364023971665739
aF-0.8515530709378719
aF-162.5343980444458
aI1009
I350
tp288
a((lp289
F0.04969354538724771
aF0.041083176427204875
aF-0.16331275099700054
a(lp290
F-1.4444089067841215
aF4.580146283985627
aF-164.10366410153108
aI994
I349
tp291
a((lp292
F0.05099318362093826
aF0.04214474659063354
aF-0.16409739955069508
a(lp293
F-81.69998137500218
aF10.989260206693661
aF-171.50931569615116
aI1012
I369
tp294
a((lp295
F0.05101999929733867
aF0.041893822662306374
aF-0.1640462311567604
a(lp296
F-10.403886048905582
aF-7.114433026668579
aF-168.26159853963506
aI1003
I363
tp297
a((lp298
F0.050494196433570754
aF0.0412340349222196
aF-0.16403307207006484
a(lp299
F66.56872026316742
aF-1.7611717859412337
aF-175.40513982843248
aI1008
I388
tp300
a((lp301
F0.05107285360571749
aF0.042074987306668615
aF-0.1642185025250839
a(lp302
F38.46816858433199
aF4.026822472148908
aF-167.93604535260027
aI969
I387
tp303
a((lp304
F0.0106940905425378
aF0.06650458392209303
aF-0.14588672725133303
a(lp305
F33.31209905492362
aF-0.5183867229611527
aF-164.57850438357218
aI1448
I717
tp306
a((lp307
F0.011501239673291584
aF0.06549562916613076
aF-0.14650596732249682
a(lp308
F-87.93758006423926
aF24.19743492895022
aF-173.3307803940151
aI1465
I693
tp309
a((lp310
F0.012694733605925978
aF0.06369376479111119
aF-0.14740965535365153
a(lp311
F-88.21372380779914
aF21.069977661989487
aF-173.24358914444775
aI1452
I674
tp312
a((lp313
F0.013107565036229037
aF0.06366514982522713
aF-0.14729326334203707
a(lp314
F13.612360660478382
aF-0.5174604460241474
aF-168.48475718829107
aI1432
I670
tp315
a((lp316
F0.012330008643165533
aF0.06419729411967855
aF-0.14730773170565623
a(lp317
F-81.24133238998246
aF18.567446151158126
aF-168.93715364397582
aI1457
I685
tp318
a((lp319
F0.013999621932063205
aF0.062199176839801036
aF-0.1482113169795829
a(lp320
F-88.28639882745907
aF20.109952765525925
aF-170.5557558110622
aI1438
I656
tp321
a((lp322
F0.01409252475162553
aF0.0621853778252128
aF-0.1481272944543632
a(lp323
F52.957306708425136
aF-5.129363269093003
aF-161.85361576796322
aI1419
I671
tp324
a((lp325
F0.014056829149209393
aF0.0624432519407828
aF-0.14812107619080891
a(lp326
F16.365920573987218
aF2.8427418710471666
aF-165.93000685118804
aI1414
I657
tp327
a((lp328
F0.015247321103571904
aF0.06138452523654672
aF-0.14874431542355862
a(lp329
F-87.82649276429095
aF23.944061881056374
aF-173.01682586777002
aI1424
I638
tp330
a((lp331
F0.015489706571902684
aF0.061430959432604224
aF-0.14862035047740355
a(lp332
F29.441221866574516
aF-8.787454689190769
aF-161.09440086289692
aI1411
I644
tp333
a((lp334
F0.015227050237200697
aF0.06150862015767268
aF-0.1486691593626106
a(lp335
F-30.87581481633541
aF9.52231934162652
aF-162.4490862040025
aI1423
I641
tp336
a((lp337
F0.015167863688008657
aF0.06132221509096718
aF-0.14873476545391656
a(lp338
F3.702533876951087
aF-3.5104375821211025
aF-161.0917093773366
aI1420
I638
tp339
a((lp340
F0.016394089243293195
aF0.06003312984774271
aF-0.1494840813762026
a(lp341
F-87.78576473603927
aF23.976958353613014
aF-173.01300240938087
aI1413
I620
tp342
a((lp343
F0.01607905921907754
aF0.05984723832949553
aF-0.14956244436384714
a(lp344
F2.0709659165888272
aF-4.345969627025568
aF-159.95492518189934
aI1412
I619
tp345
a((lp346
F0.0166619515922681
aF0.05991207676454835
aF-0.14941244645304003
a(lp347
F23.45402245309061
aF-7.008551009671383
aF-159.9148099530395
aI1399
I624
tp348
a((lp349
F0.017618112823813828
aF0.0585774824956399
aF-0.15028300082858517
a(lp350
F-87.82209743239238
aF23.359417442039813
aF-172.6811843101843
aI1400
I602
tp351
a((lp352
F0.017656526942941182
aF0.05823230499663011
aF-0.15035259785902744
a(lp353
F-76.64895040721969
aF0.028213452322033664
aF-166.8623029642528
aI1406
I640
tp354
a((lp355
F0.01870435816686802
aF0.056161411299277444
aF-0.15128606800140268
a(lp356
F-67.80615830559366
aF0.2516195619209577
aF-171.92143982464657
aI1400
I607
tp357
a((lp358
F0.018543119378561554
aF0.056255830258310026
aF-0.1513192269073861
a(lp359
F-70.84627339179434
aF1.603212716772956
aF-170.4293913495765
aI1398
I607
tp360
a((lp361
F0.023480158674311306
aF0.05152327835469326
aF-0.1542634326456126
a(lp362
F-33.3992439749359
aF7.1197410133274595
aF-166.24169520552962
aI1327
I510
tp363
a((lp364
F0.02502987918268213
aF0.05023970195339411
aF-0.15495708186328797
a(lp365
F-87.79731377272427
aF22.119736517741188
aF-171.94275870848375
aI1314
I488
tp366
a((lp367
F0.025199022459448436
aF0.05000526317544242
aF-0.15507228724627195
a(lp368
F-37.720353448016006
aF7.7617173398473795
aF-161.29425549837936
aI1308
I490
tp369
a((lp370
F0.026296896775116752
aF0.04901317689926458
aF-0.1556433895063868
a(lp371
F-87.61376514642475
aF22.94785114825714
aF-169.99796128604785
aI1299
I470
tp372
a((lp373
F0.026238735191877686
aF0.0487921219081971
aF-0.15562221650114785
a(lp374
F23.538678087680637
aF-6.424391915708039
aF-166.52764834318938
aI1287
I480
tp375
a((lp376
F0.027515869842603125
aF0.04762632732569451
aF-0.15643921435538877
a(lp377
F-87.67325327371968
aF22.46172779049252
aF-169.68467965218935
aI1285
I452
tp378
a((lp379
F0.027904160087316287
aF0.04778704097117133
aF-0.15644305199049593
a(lp380
F26.2624967922327
aF4.348348286518261
aF-161.95963696561515
aI1246
I472
tp381
a((lp382
F0.027143381312780553
aF0.04735132843374058
aF-0.1566130931180085
a(lp383
F37.03624439276131
aF0.4104552535751349
aF-165.7959679232875
aI1261
I474
tp384
a((lp385
F0.027323643816970965
aF0.048240137569757674
aF-0.15642810452464548
a(lp386
F-83.7993126569503
aF19.899015683853683
aF-174.1047961759732
aI1285
I463
tp387
a((lp388
F0.02880424653779115
aF0.04622533011643348
aF-0.15725244359917978
a(lp389
F-87.73659331079573
aF21.950459373295452
aF-171.60863853158324
aI1271
I436
tp390
a((lp391
F0.02853020617024443
aF0.0460486465935676
aF-0.15733726767722453
a(lp392
F-46.74094836104942
aF10.70124653839055
aF-166.23073232745935
aI1266
I435
tp393
a((lp394
F0.028637562007126607
aF0.04616125084357417
aF-0.15730824605398763
a(lp395
F-60.110845583566665
aF11.011736775080406
aF-170.82046169608043
aI1271
I442
tp396
a((lp397
F0.029997358266286404
aF0.044719666331920774
aF-0.1580640725314482
a(lp398
F-87.90910650430888
aF21.02098340738928
aF-171.60397647460752
aI1256
I416
tp399
a((lp400
F0.03022180104474847
aF0.04494145822843158
aF-0.15803057822755162
a(lp401
F29.622391490316353
aF4.184382559323463
aF-166.13417663426435
aI1219
I438
tp402
a((lp403
F0.029191137255265766
aF0.04546981307884104
aF-0.15808397688860457
a(lp404
F-41.81649349245277
aF9.952768374187658
aF-163.49190480854384
aI1256
I427
tp405
a((lp406
F0.031208674669703437
aF0.04386854681497913
aF-0.15865612726645156
a(lp407
F-87.22913945883444
aF24.030347984983738
aF-171.50623849593902
aI1245
I402
tp408
a((lp409
F0.03159612147559354
aF0.044064995457727
aF-0.15864789321382589
a(lp410
F19.41328754731518
aF5.954334610043101
aF-168.02969185932307
aI1202
I422
tp411
a((lp412
F0.030600578112527005
aF0.04437167016736085
aF-0.15876961742302392
a(lp413
F-28.09369642998913
aF3.246590884539615
aF-173.3928295118857
aI1243
I418
tp414
a((lp415
F0.03080187383530021
aF0.044392825800797835
aF-0.15864588667686458
a(lp416
F-81.12986942722804
aF3.0132568434755305
aF-172.30988145148777
aI1249
I443
tp417
a((lp418
F0.03247162418807419
aF0.04139002260488366
aF-0.15982407057847123
a(lp419
F-88.82774110869147
aF16.611922001216275
aF-168.5823592665394
aI1229
I381
tp420
a((lp421
F0.03214465653543747
aF0.04148773524239798
aF-0.15982632293525756
a(lp422
F-64.86609727886484
aF10.48037400442234
aF-163.53203967269727
aI1232
I385
tp423
a((lp424
F0.03234169762053444
aF0.041637949109393786
aF-0.15970024486968448
a(lp425
F52.25371301304238
aF3.1100037057538734
aF-164.99565542904153
aI1206
I416
tp426
a((lp427
F0.031967781676391624
aF0.042250730688670204
aF-0.15984855145278531
a(lp428
F-69.77287968399011
aF6.577382388144271
aF-166.98929096780756
aI1236
I403
tp429
a((lp430
F0.03370888571218186
aF0.03984747078768216
aF-0.16064696632635353
a(lp431
F-89.04517217472545
aF15.62351532458074
aF-167.1790574487448
aI1216
I363
tp432
a((lp433
F0.0339433716862258
aF0.03986877894604834
aF-0.16052234971791365
a(lp434
F4.405034470794572
aF-6.75851824488772
aF-165.52190790617738
aI1206
I365
tp435
a((lp436
F0.03356453260320556
aF0.04018891925227286
aF-0.16055694190855188
a(lp437
F63.63583639744088
aF5.790518107888554
aF-167.57885684963767
aI1197
I407
tp438
a((lp439
F0.03322363475548622
aF0.04034127787807825
aF-0.16069579324787775
a(lp440
F43.62080194637665
aF3.1208588199793357
aF-163.22938508211206
aI1190
I394
tp441
a((lp442
F0.03494025483761142
aF0.03909461567623328
aF-0.16122036019760363
a(lp443
F-88.23652591456482
aF19.276962359086394
aF-167.49076357920222
aI1203
I347
tp444
a((lp445
F0.03479197003774892
aF0.03923430268332493
aF-0.16112339540406695
a(lp446
F40.987768290433934
aF8.158288501230178
aF-164.17820892933062
aI1164
I381
tp447
a((lp448
F0.03408762129724006
aF0.03979137397404459
aF-0.16140274351092404
a(lp449
F-43.17118905885775
aF0.8077438349136803
aF-168.11511907915343
aI1211
I368
tp450
a((lp451
F0.03430346179407288
aF0.03986287923165108
aF-0.161337867243044
a(lp452
F-72.10486824923497
aF9.93581897189749
aF-165.9171376927151
aI1208
I367
tp453
a((lp454
F0.036210826626857436
aF0.03722518799356061
aF-0.16215099446563636
a(lp455
F-88.82822526975008
aF16.701562747688936
aF-167.07075892396955
aI1190
I328
tp456
a((lp457
F0.036322354450918914
aF0.03742657202377578
aF-0.1620982776271286
a(lp458
F17.641607617523647
aF6.687013473861748
aF-159.60048913487648
aI1149
I341
tp459
a((lp460
F0.03600392596741191
aF0.037504715012250035
aF-0.16228664565834117
a(lp461
F-44.6815164616282
aF6.390474581973438
aF-169.39165358710906
aI1184
I330
tp462
a((lp463
F0.036119047985138625
aF0.037192527701689806
aF-0.1621806548637978
a(lp464
F12.915342997878838
aF-2.2526757135431725
aF-171.2557964454663
aI1169
I334
tp465
a((lp466
F0.037440065507766296
aF0.03647417840999724
aF-0.16270795452193038
a(lp467
F-87.90714458147305
aF20.473198744578994
aF-169.72256598317858
aI1177
I312
tp468
a((lp469
F0.03700381588481521
aF0.03621325906377945
aF-0.16259831642792982
a(lp470
F49.644223013419364
aF-0.8296321126789099
aF-176.76785019401427
aI1160
I341
tp471
a((lp472
F0.03676706367261102
aF0.036321499580091135
aF-0.16262472262919828
a(lp473
F44.19684987515408
aF-1.2447242613060236
aF-173.2986602663711
aI1160
I339
tp474
a((lp475
F0.03757522130869342
aF0.037029475513064736
aF-0.1625699234200689
a(lp476
F18.02208094564106
aF1.985759187158581
aF-166.33117097501324
aI1142
I333
tp477
a((lp478
F0.05203389456879343
aF0.06751975799131969
aF-0.15691091308781746
a(lp479
F32.01307825924057
aF-0.6669285546082065
aF-164.27085874843482
aI923
I677
tp480
a((lp481
F0.05010115417589896
aF0.06713750224271088
aF-0.15769030227967482
a(lp482
F-36.94691436197134
aF13.074518043634363
aF-160.87793767420473
aI975
I641
tp483
a((lp484
F0.04906562285656005
aF0.06537111234349709
aF-0.1583827938627992
a(lp485
F-66.92859074388417
aF-0.2897981009719434
aF-170.79460560615303
aI1015
I665
tp486
a((lp487
F0.04919124858926216
aF0.06537227991784049
aF-0.15857432819172468
a(lp488
F-45.637441238062245
aF-0.27687657641696223
aF-169.71011923717637
aI1009
I645
tp489
a((lp490
F0.049214915613973016
aF0.06565296013602763
aF-0.15846469526433737
a(lp491
F32.00435266972145
aF7.871613330528196
aF-162.41139766183053
aI945
I661
tp492
a((lp493
F0.04776787690755598
aF0.06448739232507283
aF-0.1591951399058942
a(lp494
F-25.151216142079033
aF0.5658911815593128
aF-167.48523295869998
aI1014
I625
tp495
a((lp496
F0.04715365280628028
aF0.0640241603948774
aF-0.15914722550043087
a(lp497
F64.70228885800692
aF-2.5005832356884405
aF-170.4562909637633
aI1009
I664
tp498
a((lp499
F0.047108655260298865
aF0.06477304241732273
aF-0.15937207787057406
a(lp500
F-40.17187439405975
aF0.3096453713267711
aF-172.50676389453957
aI1032
I637
tp501
a((lp502
F0.04563953350787511
aF0.06347611670941507
aF-0.15976668475904515
a(lp503
F44.12550785065295
aF0.2893954904809527
aF-165.75554127871493
aI1007
I648
tp504
a((lp505
F0.04548646526268576
aF0.0641104636637312
aF-0.15997633961046193
a(lp506
F-56.51286869619716
aF9.836494323771417
aF-163.53823539643955
aI1049
I630
tp507
a((lp508
F0.04565984716731837
aF0.06309505781387442
aF-0.15981403535460018
a(lp509
F58.192223220289804
aF2.5188485125044884
aF-166.04611465810797
aI1016
I658
tp510
a((lp511
F0.04449870653136696
aF0.062487922291481056
aF-0.16053339379752837
a(lp512
F30.528202836642254
aF-6.11966799097168
aF-168.6694556487795
aI1031
I619
tp513
a((lp514
F0.044183544941192913
aF0.06201950912990202
aF-0.16047070146830683
a(lp515
F78.30666352625359
aF7.680872056923338
aF-170.68399593858055
aI1055
I666
tp516
a((lp517
F0.04442834355587966
aF0.06275049293935143
aF-0.16058966971044242
a(lp518
F25.82346433901536
aF7.879753357014828
aF-167.53873731581896
aI1006
I624
tp519
a((lp520
F0.04317879458156089
aF0.061346845013335476
aF-0.1613351887461261
a(lp521
F-46.77342824004877
aF-3.2800212719997788
aF-165.75161533244247
aI1087
I614
tp522
a((lp523
F0.04306224616131046
aF0.061468653003049885
aF-0.16137730875321393
a(lp524
F-39.41076005014794
aF-3.4945518559457076
aF-163.00920650680746
aI1086
I610
tp525
a((lp526
F0.04103299569357487
aF0.0603019719156845
aF-0.16197295923748148
a(lp527
F50.85152411239402
aF7.92444948718234
aF-169.19189850131215
aI1060
I633
tp528
a((lp529
F0.041326133751343926
aF0.060568672606911685
aF-0.16209747499638877
a(lp530
F34.596437449652775
aF9.62058749137873
aF-162.44232317354084
aI1043
I615
tp531
a((lp532
F0.03979756895130591
aF0.05908567596862097
aF-0.16305734781080558
a(lp533
F-54.79726832142269
aF7.078153358828926
aF-169.35993764616438
aI1117
I581
tp534
a((lp535
F0.03982529219905628
aF0.059269216971701316
aF-0.16294093063945098
a(lp536
F-37.80171934162904
aF8.082983921620196
aF-167.34363165772328
aI1110
I575
tp537
a((lp538
F0.03808261473048426
aF0.05838704768114654
aF-0.16355041507337234
a(lp539
F-81.0191478464093
aF8.30704906386754
aF-170.37251581755072
aI1137
I591
tp540
a((lp541
F0.03817001194336279
aF0.058530871324110195
aF-0.1635366123120802
a(lp542
F-64.6186994507574
aF5.150483956728958
aF-165.50831645304845
aI1139
I587
tp543
a.