ccopy_reg
_reconstructor
p0
(csklearn.linear_model.base
LinearRegression
p1
c__builtin__
object
p2
Ntp3
Rp4
(dp5
S'normalize'
p6
I00
sS'n_jobs'
p7
I1
sS'rank_'
p8
I2
sS'fit_intercept'
p9
I01
sS'_residues'
p10
cnumpy.core.multiarray
_reconstruct
p11
(cnumpy
ndarray
p12
(I0
tp13
S'b'
p14
tp15
Rp16
(I1
(I2
tp17
cnumpy
dtype
p18
(S'f8'
p19
I0
I1
tp20
Rp21
(I3
S'<'
p22
NNNI-1
I-1
I0
tp23
bI00
S';}\xa1B\xbd\xdc\xf0>\xd2u\x9cq9\xed\xe0>'
p24
tp25
bsS'coef_'
p26
g11
(g12
(I0
tp27
g14
tp28
Rp29
(I1
(I2
I2
tp30
g21
I00
S'\x86\xe5\x8c&?\x97\x16\xbf\xd9\x06"uP\xc2\xe6\xbe\xdf\x92d\xf2\xae\x0c\xeb\xbe\xd5\xd6\xd0\xbf@c\x16?'
p31
tp32
bsS'copy_X'
p33
I01
sS'intercept_'
p34
g11
(g12
(I0
tp35
g14
tp36
Rp37
(I1
(I2
tp38
g21
I00
S'\xb7;\x95\xf6*O\xc0?\xe2j\x8b\xa8\x9c\x90\x9a?'
p39
tp40
bsS'singular_'
p41
g11
(g12
(I0
tp42
g14
tp43
Rp44
(I1
(I2
tp45
g21
I00
S'\x84\xe8\xbc\xe6\x0b.\x9e@x\x13\xbel\xbf\x07\x9b@'
p46
tp47
bsb.