(((cnumpy.core.multiarray
_reconstruct
p0
(cnumpy.matrixlib.defmatrix
matrix
p1
(I0
tp2
S'b'
p3
tp4
Rp5
(I1
(I1
I1
tp6
cnumpy
dtype
p7
(S'f8'
p8
I0
I1
tp9
Rp10
(I3
S'<'
p11
NNNI-1
I-1
I0
tp12
bI00
S'\xe4\xa5O\\T$\xb7?'
p13
tp14
bg0
(g1
(I0
tp15
g3
tp16
Rp17
(I1
(I1
I1
tp18
g10
I00
S'\x9a\x89\xe4\xdd\xd8\x10\xa0?'
p19
tp20
bg0
(g1
(I0
tp21
g3
tp22
Rp23
(I1
(I1
I1
tp24
g10
I00
S'\xacu\xa2\x1b\xa5 \xc5\xbf'
p25
tp26
btp27
(F0.9308622635559666
F-25.512189047309487
F-161.34691385995356
tp28
I191
I125
tp29
((g0
(g1
(I0
tp30
g3
tp31
Rp32
(I1
(I1
I1
tp33
g10
I00
S'\x9fd\x15v&\x02\xb9\xbf'
p34
tp35
bg0
(g1
(I0
tp36
g3
tp37
Rp38
(I1
(I1
I1
tp39
g10
I00
S'\xf8_\xe4"lj\xa8?'
p40
tp41
bg0
(g1
(I0
tp42
g3
tp43
Rp44
(I1
(I1
I1
tp45
g10
I00
S')\xfb\x0c\xe3\x15\x00\xc0\xbf'
p46
tp47
btp48
(F-153.77621021839727
F-34.920663587563226
F156.8353096966333
tp49
I191
I125
tp50
tp51
.(((cnumpy.core.multiarray
_reconstruct
p0
(cnumpy.matrixlib.defmatrix
matrix
p1
(I0
tp2
S'b'
p3
tp4
Rp5
(I1
(I1
I1
tp6
cnumpy
dtype
p7
(S'f8'
p8
I0
I1
tp9
Rp10
(I3
S'<'
p11
NNNI-1
I-1
I0
tp12
bI00
S'\xa4\xb6\x91~m{\xb7?'
p13
tp14
bg0
(g1
(I0
tp15
g3
tp16
Rp17
(I1
(I1
I1
tp18
g10
I00
S'=\xe0}o\xa9\xcf\xa0?'
p19
tp20
bg0
(g1
(I0
tp21
g3
tp22
Rp23
(I1
(I1
I1
tp24
g10
I00
S'\x08\x12X\xf3\xdc\x1c\xc5\xbf'
p25
tp26
btp27
(F0.707321343757199
F-25.865330638748613
F-160.7821413218848
tp28
I180
I133
tp29
((g0
(g1
(I0
tp30
g3
tp31
Rp32
(I1
(I1
I1
tp33
g10
I00
S'\xfc\xf5\xc4\xf8\xe4\xe0\xb8\xbf'
p34
tp35
bg0
(g1
(I0
tp36
g3
tp37
Rp38
(I1
(I1
I1
tp39
g10
I00
S'( \x19:C\x1d\xa8?'
p40
tp41
bg0
(g1
(I0
tp42
g3
tp43
Rp44
(I1
(I1
I1
tp45
g10
I00
S'\xfd\x82\xa7\xf8\xbd\xdf\xbf\xbf'
p46
tp47
btp48
(F-145.76182460934862
F-30.563944388478834
F153.42243395637948
tp49
I180
I133
tp50
tp51
.(((cnumpy.core.multiarray
_reconstruct
p0
(cnumpy.matrixlib.defmatrix
matrix
p1
(I0
tp2
S'b'
p3
tp4
Rp5
(I1
(I1
I1
tp6
cnumpy
dtype
p7
(S'f8'
p8
I0
I1
tp9
Rp10
(I3
S'<'
p11
NNNI-1
I-1
I0
tp12
bI00
S'\x1a\xc5\xad"\xceV\xb6?'
p13
tp14
bg0
(g1
(I0
tp15
g3
tp16
Rp17
(I1
(I1
I1
tp18
g10
I00
S',\xf6\xa4\xb0ha\xa0?'
p19
tp20
bg0
(g1
(I0
tp21
g3
tp22
Rp23
(I1
(I1
I1
tp24
g10
I00
S'q\x13N\x9a\x00%\xc5\xbf'
p25
tp26
btp27
(F0.6150788886687669
F-24.60514338258584
F-160.92987918426508
tp28
I239
I135
tp29
((g0
(g1
(I0
tp30
g3
tp31
Rp32
(I1
(I1
I1
tp33
g10
I00
S'9R\x80\xe5\x88\xd7\xb9\xbf'
p34
tp35
bg0
(g1
(I0
tp36
g3
tp37
Rp38
(I1
(I1
I1
tp39
g10
I00
S'\xc8\x13\xa14\xb0v\xa9?'
p40
tp41
bg0
(g1
(I0
tp42
g3
tp43
Rp44
(I1
(I1
I1
tp45
g10
I00
S'\x8d\x18\xe8\x10\x9c\xdc\xbf\xbf'
p46
tp47
btp48
(F-154.14056502062652
F-36.04999713725983
F156.07136855538852
tp49
I239
I135
tp50
tp51
.(((cnumpy.core.multiarray
_reconstruct
p0
(cnumpy.matrixlib.defmatrix
matrix
p1
(I0
tp2
S'b'
p3
tp4
Rp5
(I1
(I1
I1
tp6
cnumpy
dtype
p7
(S'f8'
p8
I0
I1
tp9
Rp10
(I3
S'<'
p11
NNNI-1
I-1
I0
tp12
bI00
S'\x83\xc2\x17\xde\xc0,\xb2?'
p13
tp14
bg0
(g1
(I0
tp15
g3
tp16
Rp17
(I1
(I1
I1
tp18
g10
I00
S'\xf5\x80\xbc\x9c\xc0\xa0\x9e?'
p19
tp20
bg0
(g1
(I0
tp21
g3
tp22
Rp23
(I1
(I1
I1
tp24
g10
I00
S"0\x93\xdeZ\x89'\xc5\xbf"
p25
tp26
btp27
(F0.24068665938692124
F-20.012247221335013
F-161.11526471283528
tp28
I439
I147
tp29
((g0
(g1
(I0
tp30
g3
tp31
Rp32
(I1
(I1
I1
tp33
g10
I00
S't\xd3\xd6\xe6,\x16\xbe\xbf'
p34
tp35
bg0
(g1
(I0
tp36
g3
tp37
Rp38
(I1
(I1
I1
tp39
g10
I00
S'\xbeU\xe2\xe5\x1a[\xab?'
p40
tp41
bg0
(g1
(I0
tp42
g3
tp43
Rp44
(I1
(I1
I1
tp45
g10
I00
S'\x93\x9f\x0c\xa2\xceo\xbf\xbf'
p46
tp47
btp48
(F-153.92049338588797
F-41.01332972484238
F153.9605185035554
tp49
I439
I147
tp50
tp51
.(((cnumpy.core.multiarray
_reconstruct
p0
(cnumpy.matrixlib.defmatrix
matrix
p1
(I0
tp2
S'b'
p3
tp4
Rp5
(I1
(I1
I1
tp6
cnumpy
dtype
p7
(S'f8'
p8
I0
I1
tp9
Rp10
(I3
S'<'
p11
NNNI-1
I-1
I0
tp12
bI00
S')\xd6Jm\x012\xab?'
p13
tp14
bg0
(g1
(I0
tp15
g3
tp16
Rp17
(I1
(I1
I1
tp18
g10
I00
S'\xfe\x87f^i]\x9f?'
p19
tp20
bg0
(g1
(I0
tp21
g3
tp22
Rp23
(I1
(I1
I1
tp24
g10
I00
S'3s\x7f\x9e\x17u\xc4\xbf'
p25
tp26
btp27
(F0.5531126770584672
F-15.165226984269863
F-160.20438168119753
tp28
I671
I181
tp29
((g0
(g1
(I0
tp30
g3
tp31
Rp32
(I1
(I1
I1
tp33
g10
I00
S'+\xc0\x1bm\xc89\xc1\xbf'
p34
tp35
bg0
(g1
(I0
tp36
g3
tp37
Rp38
(I1
(I1
I1
tp39
g10
I00
S'\xf7\xf0\xc0\x9a\xccg\xae?'
p40
tp41
bg0
(g1
(I0
tp42
g3
tp43
Rp44
(I1
(I1
I1
tp45
g10
I00
S'\xec \xfaJ\r+\xbf\xbf'
p46
tp47
btp48
(F-142.86872847603368
F-38.53629061805945
F145.5765763961241
tp49
I671
I181
tp50
tp51
.(((cnumpy.core.multiarray
_reconstruct
p0
(cnumpy.matrixlib.defmatrix
matrix
p1
(I0
tp2
S'b'
p3
tp4
Rp5
(I1
(I1
I1
tp6
cnumpy
dtype
p7
(S'f8'
p8
I0
I1
tp9
Rp10
(I3
S'<'
p11
NNNI-1
I-1
I0
tp12
bI00
S'0\xb0\r\xc3\xc2\x19\xa2?'
p13
tp14
bg0
(g1
(I0
tp15
g3
tp16
Rp17
(I1
(I1
I1
tp18
g10
I00
S"\x97\x0e'?\x05S\x9e?"
p19
tp20
bg0
(g1
(I0
tp21
g3
tp22
Rp23
(I1
(I1
I1
tp24
g10
I00
S'\xff\x8d=\xf2;>\xc4\xbf'
p25
tp26
btp27
(F0.8790699233369562
F-9.449819240717897
F-160.22550024350085
tp28
I897
I190
tp29
((g0
(g1
(I0
tp30
g3
tp31
Rp32
(I1
(I1
I1
tp33
g10
I00
S'\xe4\x0es\xa0\x10s\xc3\xbf'
p34
tp35
bg0
(g1
(I0
tp36
g3
tp37
Rp38
(I1
(I1
I1
tp39
g10
I00
S'\x16\x8f\x93\x86\xa7q\xb0?'
p40
tp41
bg0
(g1
(I0
tp42
g3
tp43
Rp44
(I1
(I1
I1
tp45
g10
I00
S'\xc3G\xd0\xab?\x98\xbe\xbf'
p46
tp47
btp48
(F-149.22292562124446
F-47.26777858978391
F147.13268340480337
tp49
I897
I190
tp50
tp51
.(((cnumpy.core.multiarray
_reconstruct
p0
(cnumpy.matrixlib.defmatrix
matrix
p1
(I0
tp2
S'b'
p3
tp4
Rp5
(I1
(I1
I1
tp6
cnumpy
dtype
p7
(S'f8'
p8
I0
I1
tp9
Rp10
(I3
S'<'
p11
NNNI-1
I-1
I0
tp12
bI00
S'\xa2\x89\x04ZI\xe7\x91?'
p13
tp14
bg0
(g1
(I0
tp15
g3
tp16
Rp17
(I1
(I1
I1
tp18
g10
I00
S'\xe3\xc1#\xfb\x88\x06\x9b?'
p19
tp20
bg0
(g1
(I0
tp21
g3
tp22
Rp23
(I1
(I1
I1
tp24
g10
I00
S'\xeaS\t!\xe6\xb8\xc3\xbf'
p25
tp26
btp27
(F0.610579852259625
F-3.2404686436929566
F-160.82213694122683
tp28
I1118
I198
tp29
((g0
(g1
(I0
tp30
g3
tp31
Rp32
(I1
(I1
I1
tp33
g10
I00
S'\xfa\xaaf@\x94\x1c\xc6\xbf'
p34
tp35
bg0
(g1
(I0
tp36
g3
tp37
Rp38
(I1
(I1
I1
tp39
g10
I00
S'8\x90 \xd5\x1bi\xb1?'
p40
tp41
bg0
(g1
(I0
tp42
g3
tp43
Rp44
(I1
(I1
I1
tp45
g10
I00
S'\x89\\{v\x12\xc7\xbd\xbf'
p46
tp47
btp48
(F-142.96038822963487
F-48.55108281377822
F141.57344882957216
tp49
I1118
I198
tp50
tp51
.(((cnumpy.core.multiarray
_reconstruct
p0
(cnumpy.matrixlib.defmatrix
matrix
p1
(I0
tp2
S'b'
p3
tp4
Rp5
(I1
(I1
I1
tp6
cnumpy
dtype
p7
(S'f8'
p8
I0
I1
tp9
Rp10
(I3
S'<'
p11
NNNI-1
I-1
I0
tp12
bI00
S'yt\xde}\xa6\xfa\xb3?'
p13
tp14
bg0
(g1
(I0
tp15
g3
tp16
Rp17
(I1
(I1
I1
tp18
g10
I00
S'{vP4\x9c\\\xa5?'
p19
tp20
bg0
(g1
(I0
tp21
g3
tp22
Rp23
(I1
(I1
I1
tp24
g10
I00
S'7\x18(\xdbi\xf9\xc4\xbf'
p25
tp26
btp27
(F0.8772201533944848
F-22.320332573028967
F-157.89398439410604
tp28
I354
I250
tp29
((g0
(g1
(I0
tp30
g3
tp31
Rp32
(I1
(I1
I1
tp33
g10
I00
S'\x91)g\xb2E\x8b\xbb\xbf'
p34
tp35
bg0
(g1
(I0
tp36
g3
tp37
Rp38
(I1
(I1
I1
tp39
g10
I00
S'\xa4W\xdfz\xec\x1c\xaf?'
p40
tp41
bg0
(g1
(I0
tp42
g3
tp43
Rp44
(I1
(I1
I1
tp45
g10
I00
S'Z\xeaC\xbf}\xf7\xbf\xbf'
p46
tp47
btp48
(F-138.23087061770565
F-25.598753101711388
F146.16483528442777
tp49
I354
I250
tp50
tp51
.(((cnumpy.core.multiarray
_reconstruct
p0
(cnumpy.matrixlib.defmatrix
matrix
p1
(I0
tp2
S'b'
p3
tp4
Rp5
(I1
(I1
I1
tp6
cnumpy
dtype
p7
(S'f8'
p8
I0
I1
tp9
Rp10
(I3
S'<'
p11
NNNI-1
I-1
I0
tp12
bI00
S'\x8d\xa8\xf4\xec\xc2\xbb\xb8?'
p13
tp14
bg0
(g1
(I0
tp15
g3
tp16
Rp17
(I1
(I1
I1
tp18
g10
I00
S'\xbbq\xe4\xf4\xfa%\xa7?'
p19
tp20
bg0
(g1
(I0
tp21
g3
tp22
Rp23
(I1
(I1
I1
tp24
g10
I00
S'b\xa3!\xd7\x8b\x16\xc5\xbf'
p25
tp26
btp27
(F0.1358309000104912
F-27.072331765310572
F-157.0519485197298
tp28
I119
I272
tp29
((g0
(g1
(I0
tp30
g3
tp31
Rp32
(I1
(I1
I1
tp33
g10
I00
S"\x08\xa7)Z'\xd2\xb6\xbf"
p34
tp35
bg0
(g1
(I0
tp36
g3
tp37
Rp38
(I1
(I1
I1
tp39
g10
I00
S'Q\xf6\x12[v6\xae?'
p40
tp41
bg0
(g1
(I0
tp42
g3
tp43
Rp44
(I1
(I1
I1
tp45
g10
I00
S'\xc1\xdeI\x12\xf0\x1f\xc0\xbf'
p46
tp47
btp48
(F-155.07889742870552
F-31.085118531851847
F154.54060923435028
tp49
I119
I272
tp50
tp51
.(((cnumpy.core.multiarray
_reconstruct
p0
(cnumpy.matrixlib.defmatrix
matrix
p1
(I0
tp2
S'b'
p3
tp4
Rp5
(I1
(I1
I1
tp6
cnumpy
dtype
p7
(S'f8'
p8
I0
I1
tp9
Rp10
(I3
S'<'
p11
NNNI-1
I-1
I0
tp12
bI00
S')\x92\xb2Ypf\xae?'
p13
tp14
bg0
(g1
(I0
tp15
g3
tp16
Rp17
(I1
(I1
I1
tp18
g10
I00
S'P\xb3{\x8d\x96m\xa4?'
p19
tp20
bg0
(g1
(I0
tp21
g3
tp22
Rp23
(I1
(I1
I1
tp24
g10
I00
S'52\x16Z~\xc8\xc4\xbf'
p25
tp26
btp27
(F0.9542230881799115
F-17.001996977658063
F-157.81212934099028
tp28
I556
I290
tp29
((g0
(g1
(I0
tp30
g3
tp31
Rp32
(I1
(I1
I1
tp33
g10
I00
S'\x83\xd4\x14\x07\xc7\xd2\xbf\xbf'
p34
tp35
bg0
(g1
(I0
tp36
g3
tp37
Rp38
(I1
(I1
I1
tp39
g10
I00
S'\xb0\x08\xf0#\x147\xb1?'
p40
tp41
bg0
(g1
(I0
tp42
g3
tp43
Rp44
(I1
(I1
I1
tp45
g10
I00
S'\x9a\xdc\xd3\xcc\xc1\x1a\xbf\xbf'
p46
tp47
btp48
(F-153.93622847524784
F-41.78686339626608
F149.77003554144125
tp49
I556
I290
tp50
tp51
.(((cnumpy.core.multiarray
_reconstruct
p0
(cnumpy.matrixlib.defmatrix
matrix
p1
(I0
tp2
S'b'
p3
tp4
Rp5
(I1
(I1
I1
tp6
cnumpy
dtype
p7
(S'f8'
p8
I0
I1
tp9
Rp10
(I3
S'<'
p11
NNNI-1
I-1
I0
tp12
bI00
S'\xa13o\x07\xd4u\xa5?'
p13
tp14
bg0
(g1
(I0
tp15
g3
tp16
Rp17
(I1
(I1
I1
tp18
g10
I00
S'\x1dP\xb6dT\x01\xa4?'
p19
tp20
bg0
(g1
(I0
tp21
g3
tp22
Rp23
(I1
(I1
I1
tp24
g10
I00
S'S\t\xfa.\xb7D\xc4\xbf'
p25
tp26
btp27
(F0.8198204965033585
F-11.750330280517016
F-157.28201752369728
tp28
I782
I297
tp29
((g0
(g1
(I0
tp30
g3
tp31
Rp32
(I1
(I1
I1
tp33
g10
I00
S'\xa2\x14\xdd\xdc\xa3\x15\xc2\xbf'
p34
tp35
bg0
(g1
(I0
tp36
g3
tp37
Rp38
(I1
(I1
I1
tp39
g10
I00
S'\x12S\x7f:\x1cb\xb2?'
p40
tp41
bg0
(g1
(I0
tp42
g3
tp43
Rp44
(I1
(I1
I1
tp45
g10
I00
S"\x0e'\xcd\x8fN\xdc\xbe\xbf"
p46
tp47
btp48
(F-150.12574120583858
F-43.884520720519845
F146.13858448873842
tp49
I782
I297
tp50
tp51
.(((cnumpy.core.multiarray
_reconstruct
p0
(cnumpy.matrixlib.defmatrix
matrix
p1
(I0
tp2
S'b'
p3
tp4
Rp5
(I1
(I1
I1
tp6
cnumpy
dtype
p7
(S'f8'
p8
I0
I1
tp9
Rp10
(I3
S'<'
p11
NNNI-1
I-1
I0
tp12
bI00
S'05<\xfez\xb7\x98?'
p13
tp14
bg0
(g1
(I0
tp15
g3
tp16
Rp17
(I1
(I1
I1
tp18
g10
I00
S'\x0e\xfe\x15z\xc8^\xa3?'
p19
tp20
bg0
(g1
(I0
tp21
g3
tp22
Rp23
(I1
(I1
I1
tp24
g10
I00
S'\x08\xa5\xaf\x9a\xe9\xe8\xc3\xbf'
p25
tp26
btp27
(F0.6004824168719658
F-5.65853095475604
F-157.16690403556856
tp28
I1006
I304
tp29
((g0
(g1
(I0
tp30
g3
tp31
Rp32
(I1
(I1
I1
tp33
g10
I00
S't\xd5\x00A\xedk\xc4\xbf'
p34
tp35
bg0
(g1
(I0
tp36
g3
tp37
Rp38
(I1
(I1
I1
tp39
g10
I00
S"%\xa7b]'\xee\xb3?"
p40
tp41
bg0
(g1
(I0
tp42
g3
tp43
Rp44
(I1
(I1
I1
tp45
g10
I00
S'\x14\xd2\xb8\xb52\xcb\xbd\xbf'
p46
tp47
btp48
(F-146.16411698120123
F-46.27728841394665
F141.5386697311014
tp49
I1006
I304
tp50
tp51
.(((cnumpy.core.multiarray
_reconstruct
p0
(cnumpy.matrixlib.defmatrix
matrix
p1
(I0
tp2
S'b'
p3
tp4
Rp5
(I1
(I1
I1
tp6
cnumpy
dtype
p7
(S'f8'
p8
I0
I1
tp9
Rp10
(I3
S'<'
p11
NNNI-1
I-1
I0
tp12
bI00
S'\xfe%u\xe9+\xe8|?'
p13
tp14
bg0
(g1
(I0
tp15
g3
tp16
Rp17
(I1
(I1
I1
tp18
g10
I00
S'\x8e\x0f\xa34\x0eQ\xa2?'
p19
tp20
bg0
(g1
(I0
tp21
g3
tp22
Rp23
(I1
(I1
I1
tp24
g10
I00
S'\xf1i\x97=q\xa4\xc3\xbf'
p25
tp26
btp27
(F0.16490628472893853
F0.6232834390878478
F-157.49217801959833
tp28
I1221
I311
tp29
((g0
(g1
(I0
tp30
g3
tp31
Rp32
(I1
(I1
I1
tp33
g10
I00
S'U\x07\t!j\xb8\xc6\xbf'
p34
tp35
bg0
(g1
(I0
tp36
g3
tp37
Rp38
(I1
(I1
I1
tp39
g10
I00
S'|\xe7\x97\xde\xdf\xd2\xb4?'
p40
tp41
bg0
(g1
(I0
tp42
g3
tp43
Rp44
(I1
(I1
I1
tp45
g10
I00
S'`\x15l9>I\xbd\xbf'
p46
tp47
btp48
(F-135.73212505708568
F-41.81145615131769
F134.23095502673925
tp49
I1221
I311
tp50
tp51
.(((cnumpy.core.multiarray
_reconstruct
p0
(cnumpy.matrixlib.defmatrix
matrix
p1
(I0
tp2
S'b'
p3
tp4
Rp5
(I1
(I1
I1
tp6
cnumpy
dtype
p7
(S'f8'
p8
I0
I1
tp9
Rp10
(I3
S'<'
p11
NNNI-1
I-1
I0
tp12
bI00
S'i\xaa\xdf N\x1e\xb7?'
p13
tp14
bg0
(g1
(I0
tp15
g3
tp16
Rp17
(I1
(I1
I1
tp18
g10
I00
S'\xdcG\xbfup9\xab?'
p19
tp20
bg0
(g1
(I0
tp21
g3
tp22
Rp23
(I1
(I1
I1
tp24
g10
I00
S'\x1aT\x82\x07\xc6\xea\xc4\xbf'
p25
tp26
btp27
(F0.2468061476226446
F-25.63747388900967
F-154.65356014586774
tp28
I159
I383
tp29
((g0
(g1
(I0
tp30
g3
tp31
Rp32
(I1
(I1
I1
tp33
g10
I00
S'\x84g\xf2\x87&Z\xb7\xbf'
p34
tp35
bg0
(g1
(I0
tp36
g3
tp37
Rp38
(I1
(I1
I1
tp39
g10
I00
S'\xc2\xd3m\xb1\xca\x00\xb2?'
p40
tp41
bg0
(g1
(I0
tp42
g3
tp43
Rp44
(I1
(I1
I1
tp45
g10
I00
S'\x06U\x92\xa4\xa8\x08\xc0\xbf'
p46
tp47
btp48
(F-157.24225419832646
F-31.75615906172164
F152.02897193822162
tp49
I159
I383
tp50
tp51
.(((cnumpy.core.multiarray
_reconstruct
p0
(cnumpy.matrixlib.defmatrix
matrix
p1
(I0
tp2
S'b'
p3
tp4
Rp5
(I1
(I1
I1
tp6
cnumpy
dtype
p7
(S'f8'
p8
I0
I1
tp9
Rp10
(I3
S'<'
p11
NNNI-1
I-1
I0
tp12
bI00
S'L\xc9\xb2)k\x12\xb6?'
p13
tp14
bg0
(g1
(I0
tp15
g3
tp16
Rp17
(I1
(I1
I1
tp18
g10
I00
S'\xd0\x80k\xbc\x10H\xab?'
p19
tp20
bg0
(g1
(I0
tp21
g3
tp22
Rp23
(I1
(I1
I1
tp24
g10
I00
S'\x93w\xafv\xde\x06\xc5\xbf'
p25
tp26
btp27
(F1.0256380971970387
F-24.565585220610238
F-154.75428936842593
tp28
I213
I388
tp29
((g0
(g1
(I0
tp30
g3
tp31
Rp32
(I1
(I1
I1
tp33
g10
I00
S'\xa6\x87\x17\xbe\xedt\xb8\xbf'
p34
tp35
bg0
(g1
(I0
tp36
g3
tp37
Rp38
(I1
(I1
I1
tp39
g10
I00
S'\x8bmG\xe5\xa9\xed\xb1?'
p40
tp41
bg0
(g1
(I0
tp42
g3
tp43
Rp44
(I1
(I1
I1
tp45
g10
I00
S'aX\x821\xec\xce\xbf\xbf'
p46
tp47
btp48
(F-159.55824625403216
F-34.922061236129196
F152.79916852509726
tp49
I213
I388
tp50
tp51
.(((cnumpy.core.multiarray
_reconstruct
p0
(cnumpy.matrixlib.defmatrix
matrix
p1
(I0
tp2
S'b'
p3
tp4
Rp5
(I1
(I1
I1
tp6
cnumpy
dtype
p7
(S'f8'
p8
I0
I1
tp9
Rp10
(I3
S'<'
p11
NNNI-1
I-1
I0
tp12
bI00
S'\x00\x18\xe2j\xd8\xc4\xb1?'
p13
tp14
bg0
(g1
(I0
tp15
g3
tp16
Rp17
(I1
(I1
I1
tp18
g10
I00
S'k5\x1f\xc7\xb1\x11\xaa?'
p19
tp20
bg0
(g1
(I0
tp21
g3
tp22
Rp23
(I1
(I1
I1
tp24
g10
I00
S'\xc8Q6\xa6\xd2\xb8\xc4\xbf'
p25
tp26
btp27
(F1.0571579369454065
F-20.160447179480887
F-154.5997743964989
tp28
I439
I399
tp29
((g0
(g1
(I0
tp30
g3
tp31
Rp32
(I1
(I1
I1
tp33
g10
I00
S'@v\xb5\xf4+\x01\xbd\xbf'
p34
tp35
bg0
(g1
(I0
tp36
g3
tp37
Rp38
(I1
(I1
I1
tp39
g10
I00
S'\xbdmz\x08 \xfe\xb2?'
p40
tp41
bg0
(g1
(I0
tp42
g3
tp43
Rp44
(I1
(I1
I1
tp45
g10
I00
S'F\r\x94"1\x91\xbf\xbf'
p46
tp47
btp48
(F-140.07453788974382
F-26.169528399344916
F142.85555815927265
tp49
I439
I399
tp50
tp51
.(((cnumpy.core.multiarray
_reconstruct
p0
(cnumpy.matrixlib.defmatrix
matrix
p1
(I0
tp2
S'b'
p3
tp4
Rp5
(I1
(I1
I1
tp6
cnumpy
dtype
p7
(S'f8'
p8
I0
I1
tp9
Rp10
(I3
S'<'
p11
NNNI-1
I-1
I0
tp12
bI00
S'<\x96\xb4\x19T\x06\xaa?'
p13
tp14
bg0
(g1
(I0
tp15
g3
tp16
Rp17
(I1
(I1
I1
tp18
g10
I00
S'\x04T0o\xe6\x13\xa9?'
p19
tp20
bg0
(g1
(I0
tp21
g3
tp22
Rp23
(I1
(I1
I1
tp24
g10
I00
S']\xcf\x97Y\xee\x8a\xc4\xbf'
p25
tp26
btp27
(F1.0212881070655273
F-14.527448920559474
F-154.46951680498591
tp28
I665
I405
tp29
((g0
(g1
(I0
tp30
g3
tp31
Rp32
(I1
(I1
I1
tp33
g10
I00
S'\xd8\xf4\xa4c\xc0\xc4\xc0\xbf'
p34
tp35
bg0
(g1
(I0
tp36
g3
tp37
Rp38
(I1
(I1
I1
tp39
g10
I00
S'\xb5`\xdf\xe9\xa8B\xb4?'
p40
tp41
bg0
(g1
(I0
tp42
g3
tp43
Rp44
(I1
(I1
I1
tp45
g10
I00
S'\xc0\x91\x13\x90=\xff\xbe\xbf'
p46
tp47
btp48
(F-151.47800163625828
F-40.76588553056757
F145.2976885042519
tp49
I665
I405
tp50
tp51
.(((cnumpy.core.multiarray
_reconstruct
p0
(cnumpy.matrixlib.defmatrix
matrix
p1
(I0
tp2
S'b'
p3
tp4
Rp5
(I1
(I1
I1
tp6
cnumpy
dtype
p7
(S'f8'
p8
I0
I1
tp9
Rp10
(I3
S'<'
p11
NNNI-1
I-1
I0
tp12
bI00
S'pJ\xf4e\xdd\xc5\xa0?'
p13
tp14
bg0
(g1
(I0
tp15
g3
tp16
Rp17
(I1
(I1
I1
tp18
g10
I00
S'm\x04l\xb1\x9a\xe7\xa7?'
p19
tp20
bg0
(g1
(I0
tp21
g3
tp22
Rp23
(I1
(I1
I1
tp24
g10
I00
S'\xf6;\xd6\x1av$\xc4\xbf'
p25
tp26
btp27
(F1.0038688172218955
F-8.747138878667332
F-154.47141694038683
tp28
I892
I412
tp29
((g0
(g1
(I0
tp30
g3
tp31
Rp32
(I1
(I1
I1
tp33
g10
I00
S'/\xcb\x1f\xe2(\x15\xc3\xbf'
p34
tp35
bg0
(g1
(I0
tp36
g3
tp37
Rp38
(I1
(I1
I1
tp39
g10
I00
S'\x92u>$\x05!\xb5?'
p40
tp41
bg0
(g1
(I0
tp42
g3
tp43
Rp44
(I1
(I1
I1
tp45
g10
I00
S'\xa1A\xd5\xa9\x99\xac\xbe\xbf'
p46
tp47
btp48
(F-145.9487745743892
F-41.708687949760964
F141.04359271033033
tp49
I892
I412
tp50
tp51
.(((cnumpy.core.multiarray
_reconstruct
p0
(cnumpy.matrixlib.defmatrix
matrix
p1
(I0
tp2
S'b'
p3
tp4
Rp5
(I1
(I1
I1
tp6
cnumpy
dtype
p7
(S'f8'
p8
I0
I1
tp9
Rp10
(I3
S'<'
p11
NNNI-1
I-1
I0
tp12
bI00
S'\x02\x82\xd8\x94\xdeR\x8d?'
p13
tp14
bg0
(g1
(I0
tp15
g3
tp16
Rp17
(I1
(I1
I1
tp18
g10
I00
S'k\x95WN\x0b\xb5\xa6?'
p19
tp20
bg0
(g1
(I0
tp21
g3
tp22
Rp23
(I1
(I1
I1
tp24
g10
I00
S'\x0c\xfe\xff\xda|\xb4\xc3\xbf'
p25
tp26
btp27
(F1.0370822425436532
F-2.291137398836568
F-154.52866893647717
tp28
I1113
I416
tp29
((g0
(g1
(I0
tp30
g3
tp31
Rp32
(I1
(I1
I1
tp33
g10
I00
S'\x03\x05\xde48\x88\xc5\xbf'
p34
tp35
bg0
(g1
(I0
tp36
g3
tp37
Rp38
(I1
(I1
I1
tp39
g10
I00
S'~\xcb\xfe\xd0\x99\xf2\xb5?'
p40
tp41
bg0
(g1
(I0
tp42
g3
tp43
Rp44
(I1
(I1
I1
tp45
g10
I00
S'\xfe\x98E\xd3C\x01\xbe\xbf'
p46
tp47
btp48
(F-149.6318219959829
F-49.634170848442466
F142.21251109073955
tp49
I1113
I416
tp50
tp51
.(((cnumpy.core.multiarray
_reconstruct
p0
(cnumpy.matrixlib.defmatrix
matrix
p1
(I0
tp2
S'b'
p3
tp4
Rp5
(I1
(I1
I1
tp6
cnumpy
dtype
p7
(S'f8'
p8
I0
I1
tp9
Rp10
(I3
S'<'
p11
NNNI-1
I-1
I0
tp12
bI00
S'\x0fo+\x18\xa4\xd3\xae?'
p13
tp14
bg0
(g1
(I0
tp15
g3
tp16
Rp17
(I1
(I1
I1
tp18
g10
I00
S'x\xd0\x9d\xea?K\xad?'
p19
tp20
bg0
(g1
(I0
tp21
g3
tp22
Rp23
(I1
(I1
I1
tp24
g10
I00
S'\x1bo\x00D\x06\xb4\xc4\xbf'
p25
tp26
btp27
(F1.3680756890287695
F-17.491875091915475
F-152.45376885745952
tp28
I520
I485
tp29
((g0
(g1
(I0
tp30
g3
tp31
Rp32
(I1
(I1
I1
tp33
g10
I00
S'P\xb8\xa0f\xc6i\xbe\xbf'
p34
tp35
bg0
(g1
(I0
tp36
g3
tp37
Rp38
(I1
(I1
I1
tp39
g10
I00
S'X\xabp5\xc3\x08\xb5?'
p40
tp41
bg0
(g1
(I0
tp42
g3
tp43
Rp44
(I1
(I1
I1
tp45
g10
I00
S'\xec\x853\xcf\xb2\x98\xbf\xbf'
p46
tp47
btp48
(F-148.63769485141455
F-33.63996435627989
F143.97566783176825
tp49
I520
I485
tp50
tp51
.(((cnumpy.core.multiarray
_reconstruct
p0
(cnumpy.matrixlib.defmatrix
matrix
p1
(I0
tp2
S'b'
p3
tp4
Rp5
(I1
(I1
I1
tp6
cnumpy
dtype
p7
(S'f8'
p8
I0
I1
tp9
Rp10
(I3
S'<'
p11
NNNI-1
I-1
I0
tp12
bI00
S'\xc8p\x16\xb1\xdb\xb5\x98?'
p13
tp14
bg0
(g1
(I0
tp15
g3
tp16
Rp17
(I1
(I1
I1
tp18
g10
I00
S'\xcc\xe5\xec4\x86\xbf\xaa?'
p19
tp20
bg0
(g1
(I0
tp21
g3
tp22
Rp23
(I1
(I1
I1
tp24
g10
I00
S'U\x98\xcc\x13\x0e\xfe\xc3\xbf'
p25
tp26
btp27
(F1.2263416621614138
F-5.856153407274257
F-152.10670998080886
tp28
I975
I492
tp29
((g0
(g1
(I0
tp30
g3
tp31
Rp32
(I1
(I1
I1
tp33
g10
I00
S'\xec/\xba\xd3\x12\xeb\xc3\xbf'
p34
tp35
bg0
(g1
(I0
tp36
g3
tp37
Rp38
(I1
(I1
I1
tp39
g10
I00
S'\xd96\xdf\xfaO4\xb7?'
p40
tp41
bg0
(g1
(I0
tp42
g3
tp43
Rp44
(I1
(I1
I1
tp45
g10
I00
S'=\xc2\xc0\xeb\xd0\r\xbe\xbf'
p46
tp47
btp48
(F-148.58101028642366
F-45.166499985493616
F140.32743840070853
tp49
I975
I492
tp50
tp51
.(((cnumpy.core.multiarray
_reconstruct
p0
(cnumpy.matrixlib.defmatrix
matrix
p1
(I0
tp2
S'b'
p3
tp4
Rp5
(I1
(I1
I1
tp6
cnumpy
dtype
p7
(S'f8'
p8
I0
I1
tp9
Rp10
(I3
S'<'
p11
NNNI-1
I-1
I0
tp12
bI00
S'\xc3z\xb4\x9e\xfa\xef\xb7?'
p13
tp14
bg0
(g1
(I0
tp15
g3
tp16
Rp17
(I1
(I1
I1
tp18
g10
I00
S'\xec\x8f\xb7AO\xab\xaf?'
p19
tp20
bg0
(g1
(I0
tp21
g3
tp22
Rp23
(I1
(I1
I1
tp24
g10
I00
S'\xe3^O\xab}H\xc5\xbf'
p25
tp26
btp27
(F0.9025280119943769
F-26.272085554237837
F-152.67609625942822
tp28
I101
I504
tp29
((g0
(g1
(I0
tp30
g3
tp31
Rp32
(I1
(I1
I1
tp33
g10
I00
S'T\x84fRC\xa4\xb5\xbf'
p34
tp35
bg0
(g1
(I0
tp36
g3
tp37
Rp38
(I1
(I1
I1
tp39
g10
I00
S'\xf6\xf2zv\xfb\xcc\xb3?'
p40
tp41
bg0
(g1
(I0
tp42
g3
tp43
Rp44
(I1
(I1
I1
tp45
g10
I00
S')et\x94\x97G\xc0\xbf'
p46
tp47
btp48
(F-152.33055023503374
F-24.631730664464254
F148.95975792391422
tp49
I101
I504
tp50
tp51
.(((cnumpy.core.multiarray
_reconstruct
p0
(cnumpy.matrixlib.defmatrix
matrix
p1
(I0
tp2
S'b'
p3
tp4
Rp5
(I1
(I1
I1
tp6
cnumpy
dtype
p7
(S'f8'
p8
I0
I1
tp9
Rp10
(I3
S'<'
p11
NNNI-1
I-1
I0
tp12
bI00
S'&\xf5\x156\xf6X\xb4?'
p13
tp14
bg0
(g1
(I0
tp15
g3
tp16
Rp17
(I1
(I1
I1
tp18
g10
I00
S'\xf2f&\xfb\xc6Z\xaf?'
p19
tp20
bg0
(g1
(I0
tp21
g3
tp22
Rp23
(I1
(I1
I1
tp24
g10
I00
S'>\x91\x18\x15\xddJ\xc5\xbf'
p25
tp26
btp27
(F1.6149135220354784
F-22.73070875322744
F-152.38528747752912
tp28
I288
I510
tp29
((g0
(g1
(I0
tp30
g3
tp31
Rp32
(I1
(I1
I1
tp33
g10
I00
S'\xbf\xfa\x9f\x87A3\xb9\xbf'
p34
tp35
bg0
(g1
(I0
tp36
g3
tp37
Rp38
(I1
(I1
I1
tp39
g10
I00
S'\xab\xd1={\xf0J\xb4?'
p40
tp41
bg0
(g1
(I0
tp42
g3
tp43
Rp44
(I1
(I1
I1
tp45
g10
I00
S'\x1f\x16@\x80\x85V\xc0\xbf'
p46
tp47
btp48
(F-152.13193208299182
F-29.39736867428094
F147.63496801539804
tp49
I288
I510
tp50
tp51
.(((cnumpy.core.multiarray
_reconstruct
p0
(cnumpy.matrixlib.defmatrix
matrix
p1
(I0
tp2
S'b'
p3
tp4
Rp5
(I1
(I1
I1
tp6
cnumpy
dtype
p7
(S'f8'
p8
I0
I1
tp9
Rp10
(I3
S'<'
p11
NNNI-1
I-1
I0
tp12
bI00
S'\xaa\xd1%\x0eR.\xb3?'
p13
tp14
bg0
(g1
(I0
tp15
g3
tp16
Rp17
(I1
(I1
I1
tp18
g10
I00
S'\xa4(=\xf1\xb7_\xaf?'
p19
tp20
bg0
(g1
(I0
tp21
g3
tp22
Rp23
(I1
(I1
I1
tp24
g10
I00
S'\xaa\x08\xe2~\xe9\xfe\xc4\xbf'
p25
tp26
btp27
(F1.311861970766139
F-21.644435653661596
F-151.80677706031153
tp28
I354
I513
tp29
((g0
(g1
(I0
tp30
g3
tp31
Rp32
(I1
(I1
I1
tp33
g10
I00
S'C\xe2qr\x8c\x9a\xba\xbf'
p34
tp35
bg0
(g1
(I0
tp36
g3
tp37
Rp38
(I1
(I1
I1
tp39
g10
I00
S'\x0cz\xe5rx\xbf\xb4?'
p40
tp41
bg0
(g1
(I0
tp42
g3
tp43
Rp44
(I1
(I1
I1
tp45
g10
I00
S'.\xa7\x14\xb7!!\xc0\xbf'
p46
tp47
btp48
(F-154.40061521060773
F-33.08818361859551
F147.59451407018742
tp49
I354
I513
tp50
tp51
.(((cnumpy.core.multiarray
_reconstruct
p0
(cnumpy.matrixlib.defmatrix
matrix
p1
(I0
tp2
S'b'
p3
tp4
Rp5
(I1
(I1
I1
tp6
cnumpy
dtype
p7
(S'f8'
p8
I0
I1
tp9
Rp10
(I3
S'<'
p11
NNNI-1
I-1
I0
tp12
bI00
S'AgO\x05\x9c^\xa5?'
p13
tp14
bg0
(g1
(I0
tp15
g3
tp16
Rp17
(I1
(I1
I1
tp18
g10
I00
S'\xb8\xda7\xbf\x1dQ\xad?'
p19
tp20
bg0
(g1
(I0
tp21
g3
tp22
Rp23
(I1
(I1
I1
tp24
g10
I00
S'\x93\xc8\x11\xd3\x00J\xc4\xbf'
p25
tp26
btp27
(F1.3950240428455256
F-11.932520414274663
F-151.25474226902563
tp28
I773
I519
tp29
((g0
(g1
(I0
tp30
g3
tp31
Rp32
(I1
(I1
I1
tp33
g10
I00
S'\x0b\x02\xd9\x06\xc5\x8a\xc1\xbf'
p34
tp35
bg0
(g1
(I0
tp36
g3
tp37
Rp38
(I1
(I1
I1
tp39
g10
I00
S'\xf7t\xdc \xe8\x19\xb7?'
p40
tp41
bg0
(g1
(I0
tp42
g3
tp43
Rp44
(I1
(I1
I1
tp45
g10
I00
S'\xe6\x06\xd7\xacE\xc1\xbe\xbf'
p46
tp47
btp48
(F-162.3858692106161
F-48.69196654911705
F149.005074421524
tp49
I773
I519
tp50
tp51
.(((cnumpy.core.multiarray
_reconstruct
p0
(cnumpy.matrixlib.defmatrix
matrix
p1
(I0
tp2
S'b'
p3
tp4
Rp5
(I1
(I1
I1
tp6
cnumpy
dtype
p7
(S'f8'
p8
I0
I1
tp9
Rp10
(I3
S'<'
p11
NNNI-1
I-1
I0
tp12
bI00
S"\xda}x'\xc0\x04\x96?"
p13
tp14
bg0
(g1
(I0
tp15
g3
tp16
Rp17
(I1
(I1
I1
tp18
g10
I00
S'`U\x00\xc1\xc7\x18\xac?'
p19
tp20
bg0
(g1
(I0
tp21
g3
tp22
Rp23
(I1
(I1
I1
tp24
g10
I00
S'\x85\xb8\x8b\x1e%\xf6\xc3\xbf'
p25
tp26
btp27
(F1.463263115094897
F-5.025449797357549
F-151.13174602638233
tp28
I1001
I523
tp29
((g0
(g1
(I0
tp30
g3
tp31
Rp32
(I1
(I1
I1
tp33
g10
I00
S'\x9a\xc1\xfb\x11 \xe9\xc3\xbf'
p34
tp35
bg0
(g1
(I0
tp36
g3
tp37
Rp38
(I1
(I1
I1
tp39
g10
I00
S'\x84\x11\xf3<"\\\xb8?'
p40
tp41
bg0
(g1
(I0
tp42
g3
tp43
Rp44
(I1
(I1
I1
tp45
g10
I00
S'\xe4>Y6\x1f\xdc\xbd\xbf'
p46
tp47
btp48
(F-164.38317630823076
F-54.571816373260084
F149.84974517500774
tp49
I1001
I523
tp50
tp51
.(((cnumpy.core.multiarray
_reconstruct
p0
(cnumpy.matrixlib.defmatrix
matrix
p1
(I0
tp2
S'b'
p3
tp4
Rp5
(I1
(I1
I1
tp6
cnumpy
dtype
p7
(S'f8'
p8
I0
I1
tp9
Rp10
(I3
S'<'
p11
NNNI-1
I-1
I0
tp12
bI00
S'\xc8\xbb \x07\x01\x83\xad?'
p13
tp14
bg0
(g1
(I0
tp15
g3
tp16
Rp17
(I1
(I1
I1
tp18
g10
I00
S'\x0c\x84-E\xc3\xce\xae?'
p19
tp20
bg0
(g1
(I0
tp21
g3
tp22
Rp23
(I1
(I1
I1
tp24
g10
I00
S'[\x914u@\xa1\xc4\xbf'
p25
tp26
btp27
(F1.627363310931456
F-16.90088676010398
F-151.20677763066072
tp28
I566
I524
tp29
((g0
(g1
(I0
tp30
g3
tp31
Rp32
(I1
(I1
I1
tp33
g10
I00
S'\xa4<\x03k:\xaa\xbe\xbf'
p34
tp35
bg0
(g1
(I0
tp36
g3
tp37
Rp38
(I1
(I1
I1
tp39
g10
I00
S'\xe8\xdc%\xd5\xeeF\xb6?'
p40
tp41
bg0
(g1
(I0
tp42
g3
tp43
Rp44
(I1
(I1
I1
tp45
g10
I00
S'\x1b;\x808\x08`\xbf\xbf'
p46
tp47
btp48
(F-155.5310777793972
F-38.916709652015655
F145.926046215314
tp49
I566
I524
tp50
tp51
.(((cnumpy.core.multiarray
_reconstruct
p0
(cnumpy.matrixlib.defmatrix
matrix
p1
(I0
tp2
S'b'
p3
tp4
Rp5
(I1
(I1
I1
tp6
cnumpy
dtype
p7
(S'f8'
p8
I0
I1
tp9
Rp10
(I3
S'<'
p11
NNNI-1
I-1
I0
tp12
bI00
S"\xa4's\x19\xb4\xd5s?"
p13
tp14
bg0
(g1
(I0
tp15
g3
tp16
Rp17
(I1
(I1
I1
tp18
g10
I00
S'\x81\xdf\x8cWC\xf2\xaa?'
p19
tp20
bg0
(g1
(I0
tp21
g3
tp22
Rp23
(I1
(I1
I1
tp24
g10
I00
S')\x0b\xd2Q\xe2\x96\xc3\xbf'
p25
tp26
btp27
(F1.0954953895947954
F1.1394281976355978
F-151.21610212586336
tp28
I1218
I528
tp29
((g0
(g1
(I0
tp30
g3
tp31
Rp32
(I1
(I1
I1
tp33
g10
I00
S'zf\x1b\x8a\xd0+\xc6\xbf'
p34
tp35
bg0
(g1
(I0
tp36
g3
tp37
Rp38
(I1
(I1
I1
tp39
g10
I00
S'\xb6\x18`I\xd3\xc1\xb8?'
p40
tp41
bg0
(g1
(I0
tp42
g3
tp43
Rp44
(I1
(I1
I1
tp45
g10
I00
S'\x0f\xcb[\x94\x96\x13\xbd\xbf'
p46
tp47
btp48
(F-161.24896081029513
F-57.519938756471085
F147.89123987125905
tp49
I1218
I528
tp50
tp51
.(((cnumpy.core.multiarray
_reconstruct
p0
(cnumpy.matrixlib.defmatrix
matrix
p1
(I0
tp2
S'b'
p3
tp4
Rp5
(I1
(I1
I1
tp6
cnumpy
dtype
p7
(S'f8'
p8
I0
I1
tp9
Rp10
(I3
S'<'
p11
NNNI-1
I-1
I0
tp12
bI00
S'\xc7\xe07\x05\xd9A\xb6?'
p13
tp14
bg0
(g1
(I0
tp15
g3
tp16
Rp17
(I1
(I1
I1
tp18
g10
I00
S'\tX X\x93\xd5\xb1?'
p19
tp20
bg0
(g1
(I0
tp21
g3
tp22
Rp23
(I1
(I1
I1
tp24
g10
I00
S'J\xba\xf8\xf7\xa1[\xc5\xbf'
p25
tp26
btp27
(F1.538337491640771
F-24.692092840880093
F-150.4304594847474
tp28
I185
I591
tp29
((g0
(g1
(I0
tp30
g3
tp31
Rp32
(I1
(I1
I1
tp33
g10
I00
S'Z\x00\xd2\xa2\xdc\t\xb7\xbf'
p34
tp35
bg0
(g1
(I0
tp36
g3
tp37
Rp38
(I1
(I1
I1
tp39
g10
I00
S'.m\x96\x97\x0c\xe3\xb5?'
p40
tp41
bg0
(g1
(I0
tp42
g3
tp43
Rp44
(I1
(I1
I1
tp45
g10
I00
S'\x18"\xfd\xbem\x15\xc0\xbf'
p46
tp47
btp48
(F-170.97867000498576
F-38.11151782192176
F154.18499918751758
tp49
I185
I591
tp50
tp51
.(((cnumpy.core.multiarray
_reconstruct
p0
(cnumpy.matrixlib.defmatrix
matrix
p1
(I0
tp2
S'b'
p3
tp4
Rp5
(I1
(I1
I1
tp6
cnumpy
dtype
p7
(S'f8'
p8
I0
I1
tp9
Rp10
(I3
S'<'
p11
NNNI-1
I-1
I0
tp12
bI00
S'\xf5\x1a\xea\x98\x15b\xb1?'
p13
tp14
bg0
(g1
(I0
tp15
g3
tp16
Rp17
(I1
(I1
I1
tp18
g10
I00
S'@F\xf84#\xd8\xb1?'
p19
tp20
bg0
(g1
(I0
tp21
g3
tp22
Rp23
(I1
(I1
I1
tp24
g10
I00
S'U^\xbf\x8b\xad\xcc\xc4\xbf'
p25
tp26
btp27
(F1.7143848673209159
F-19.941653841383953
F-148.8977581859549
tp28
I436
I623
tp29
((g0
(g1
(I0
tp30
g3
tp31
Rp32
(I1
(I1
I1
tp33
g10
I00
S'ef\x85{\xc7<\xbc\xbf'
p34
tp35
bg0
(g1
(I0
tp36
g3
tp37
Rp38
(I1
(I1
I1
tp39
g10
I00
S'\xc9\xc4P\xf0\x04"\xb8?'
p40
tp41
bg0
(g1
(I0
tp42
g3
tp43
Rp44
(I1
(I1
I1
tp45
g10
I00
S'\x06\xe0\xf5\xcaZ\xd8\xbf\xbf'
p46
tp47
btp48
(F-153.25891512086542
F-32.69262756851745
F143.51265733613067
tp49
I436
I623
tp50
tp51
.(((cnumpy.core.multiarray
_reconstruct
p0
(cnumpy.matrixlib.defmatrix
matrix
p1
(I0
tp2
S'b'
p3
tp4
Rp5
(I1
(I1
I1
tp6
cnumpy
dtype
p7
(S'f8'
p8
I0
I1
tp9
Rp10
(I3
S'<'
p11
NNNI-1
I-1
I0
tp12
bI00
S'\xc5\xe1\xaf?kT\xa9?'
p13
tp14
bg0
(g1
(I0
tp15
g3
tp16
Rp17
(I1
(I1
I1
tp18
g10
I00
S',\xb9\x8c\xb84S\xb1?'
p19
tp20
bg0
(g1
(I0
tp21
g3
tp22
Rp23
(I1
(I1
I1
tp24
g10
I00
S'#-\x8b\xf4\x1fg\xc4\xbf'
p25
tp26
btp27
(F1.6206663153048857
F-14.504304270289607
F-148.1997284929555
tp28
I664
I628
tp29
((g0
(g1
(I0
tp30
g3
tp31
Rp32
(I1
(I1
I1
tp33
g10
I00
S'RaI\xaej\x00\xc0\xbf'
p34
tp35
bg0
(g1
(I0
tp36
g3
tp37
Rp38
(I1
(I1
I1
tp39
g10
I00
S'\x90\x93G\xe1\x8f\x0f\xb9?'
p40
tp41
bg0
(g1
(I0
tp42
g3
tp43
Rp44
(I1
(I1
I1
tp45
g10
I00
S'H\xad\x0b\xa3\xcdN\xbf\xbf'
p46
tp47
btp48
(F-148.1431917265751
F-33.11942325868732
F139.76169159309876
tp49
I664
I628
tp50
tp51
.(((cnumpy.core.multiarray
_reconstruct
p0
(cnumpy.matrixlib.defmatrix
matrix
p1
(I0
tp2
S'b'
p3
tp4
Rp5
(I1
(I1
I1
tp6
cnumpy
dtype
p7
(S'f8'
p8
I0
I1
tp9
Rp10
(I3
S'<'
p11
NNNI-1
I-1
I0
tp12
bI00
S'\x8a\x98`\xdf\x9a\xb0\x9f?'
p13
tp14
bg0
(g1
(I0
tp15
g3
tp16
Rp17
(I1
(I1
I1
tp18
g10
I00
S'\x9a\x06\xbd8\xb4o\xb0?'
p19
tp20
bg0
(g1
(I0
tp21
g3
tp22
Rp23
(I1
(I1
I1
tp24
g10
I00
S'\xd4\xb8\x05\xd1\xe3\x16\xc4\xbf'
p25
tp26
btp27
(F1.5697898116765394
F-8.434276932383536
F-148.03428650173427
tp28
I888
I631
tp29
((g0
(g1
(I0
tp30
g3
tp31
Rp32
(I1
(I1
I1
tp33
g10
I00
S'\xb3\xb6\xb9\x11m\xa9\xc2\xbf'
p34
tp35
bg0
(g1
(I0
tp36
g3
tp37
Rp38
(I1
(I1
I1
tp39
g10
I00
S'\xab+4\xcd\xcb\xde\xb9?'
p40
tp41
bg0
(g1
(I0
tp42
g3
tp43
Rp44
(I1
(I1
I1
tp45
g10
I00
S'\xe7\x0e,\xcaL{\xbe\xbf'
p46
tp47
btp48
(F-149.59937221101566
F-41.39620422314054
F138.9359007156636
tp49
I888
I631
tp50
tp51
.(((cnumpy.core.multiarray
_reconstruct
p0
(cnumpy.matrixlib.defmatrix
matrix
p1
(I0
tp2
S'b'
p3
tp4
Rp5
(I1
(I1
I1
tp6
cnumpy
dtype
p7
(S'f8'
p8
I0
I1
tp9
Rp10
(I3
S'<'
p11
NNNI-1
I-1
I0
tp12
bI00
S'\xbf\x98\xd4\xd2\xd9\xcf\x8a?'
p13
tp14
bg0
(g1
(I0
tp15
g3
tp16
Rp17
(I1
(I1
I1
tp18
g10
I00
S'f\x17\xdb\x88\xada\xb0?'
p19
tp20
bg0
(g1
(I0
tp21
g3
tp22
Rp23
(I1
(I1
I1
tp24
g10
I00
S'\xa5\xf0\x18K\x86\xc5\xc3\xbf'
p25
tp26
btp27
(F1.493480343565039
F-2.1114676078545718
F-147.26967208698673
tp28
I1109
I635
tp29
((g0
(g1
(I0
tp30
g3
tp31
Rp32
(I1
(I1
I1
tp33
g10
I00
S'\xb7\xe3\xb5\x9a\xa4\xdf\xc4\xbf'
p34
tp35
bg0
(g1
(I0
tp36
g3
tp37
Rp38
(I1
(I1
I1
tp39
g10
I00
S'\x11\x0bZ\x06\xf1\xb1\xba?'
p40
tp41
bg0
(g1
(I0
tp42
g3
tp43
Rp44
(I1
(I1
I1
tp45
g10
I00
S'\xf5\xeb\xeb\r\x17\xca\xbd\xbf'
p46
tp47
btp48
(F-161.98992114126148
F-54.6571326971812
F146.50166312694398
tp49
I1109
I635
tp50
tp51
.(((cnumpy.core.multiarray
_reconstruct
p0
(cnumpy.matrixlib.defmatrix
matrix
p1
(I0
tp2
S'b'
p3
tp4
Rp5
(I1
(I1
I1
tp6
cnumpy
dtype
p7
(S'f8'
p8
I0
I1
tp9
Rp10
(I3
S'<'
p11
NNNI-1
I-1
I0
tp12
bI00
S'#\xca\x8fZ8\x12\xb5?'
p13
tp14
bg0
(g1
(I0
tp15
g3
tp16
Rp17
(I1
(I1
I1
tp18
g10
I00
S'\xd6\xd9)\x8e\xb2\xb1\xb2?'
p19
tp20
bg0
(g1
(I0
tp21
g3
tp22
Rp23
(I1
(I1
I1
tp24
g10
I00
S'M|,\xd4\xfb6\xc5\xbf'
p25
tp26
btp27
(F1.8391037083115334
F-23.729770642956602
F-148.5619188932808
tp28
I226
I637
tp29
((g0
(g1
(I0
tp30
g3
tp31
Rp32
(I1
(I1
I1
tp33
g10
I00
S'\xda\x11\xd0\x91\xf5\xb7\xb7\xbf'
p34
tp35
bg0
(g1
(I0
tp36
g3
tp37
Rp38
(I1
(I1
I1
tp39
g10
I00
S'bE\xa7p\x8eT\xb7?'
p40
tp41
bg0
(g1
(I0
tp42
g3
tp43
Rp44
(I1
(I1
I1
tp45
g10
I00
S'\x8d\x11\x10\x17\x11.\xc0\xbf'
p46
tp47
btp48
(F-156.11997744377112
F-28.696616409013767
F146.22289421647446
tp49
I226
I637
tp50
tp51
.(((cnumpy.core.multiarray
_reconstruct
p0
(cnumpy.matrixlib.defmatrix
matrix
p1
(I0
tp2
S'b'
p3
tp4
Rp5
(I1
(I1
I1
tp6
cnumpy
dtype
p7
(S'f8'
p8
I0
I1
tp9
Rp10
(I3
S'<'
p11
NNNI-1
I-1
I0
tp12
bI00
S'\xbc\xf1\xffl\xd2\x80\xb8?'
p13
tp14
bg0
(g1
(I0
tp15
g3
tp16
Rp17
(I1
(I1
I1
tp18
g10
I00
S'\x1a\x01\x9bC\x13\xe3\xb4?'
p19
tp20
bg0
(g1
(I0
tp21
g3
tp22
Rp23
(I1
(I1
I1
tp24
g10
I00
S'\xf7\xd4k8l\x1b\xc5\xbf'
p25
tp26
btp27
(F1.9705291725839365
F-27.439306008193633
F-146.91047698635126
tp28
I103
I692
tp29
((g0
(g1
(I0
tp30
g3
tp31
Rp32
(I1
(I1
I1
tp33
g10
I00
S'\x04\x92|\xdf_\x99\xb4\xbf'
p34
tp35
bg0
(g1
(I0
tp36
g3
tp37
Rp38
(I1
(I1
I1
tp39
g10
I00
S'\xe2\x1a\x02@\xb5r\xb8?'
p40
tp41
bg0
(g1
(I0
tp42
g3
tp43
Rp44
(I1
(I1
I1
tp45
g10
I00
S'\x1eP\xee\xdf\xab\xf5\xbf\xbf'
p46
tp47
btp48
(F-152.60665117232054
F-20.767601828636728
F144.37659145375
tp49
I103
I692
tp50
tp51
.(((cnumpy.core.multiarray
_reconstruct
p0
(cnumpy.matrixlib.defmatrix
matrix
p1
(I0
tp2
S'b'
p3
tp4
Rp5
(I1
(I1
I1
tp6
cnumpy
dtype
p7
(S'f8'
p8
I0
I1
tp9
Rp10
(I3
S'<'
p11
NNNI-1
I-1
I0
tp12
bI00
S'\xc3\x7f\x15o\xa9\xd1\xb7?'
p13
tp14
bg0
(g1
(I0
tp15
g3
tp16
Rp17
(I1
(I1
I1
tp18
g10
I00
S'\xd3\x86h\xb6\x078\xb4?'
p19
tp20
bg0
(g1
(I0
tp21
g3
tp22
Rp23
(I1
(I1
I1
tp24
g10
I00
S'2\xd02^\x081\xc5\xbf'
p25
tp26
btp27
(F1.938985409554109
F-26.65540071781971
F-147.70191629537348
tp28
I122
I700
tp29
((g0
(g1
(I0
tp30
g3
tp31
Rp32
(I1
(I1
I1
tp33
g10
I00
S'H\xc1\xe7#\xb0\xe3\xb4\xbf'
p34
tp35
bg0
(g1
(I0
tp36
g3
tp37
Rp38
(I1
(I1
I1
tp39
g10
I00
S'\xd4<\xd1hn\xd1\xb7?'
p40
tp41
bg0
(g1
(I0
tp42
g3
tp43
Rp44
(I1
(I1
I1
tp45
g10
I00
S'\xa0\xcaK\x82\x13!\xc0\xbf'
p46
tp47
btp48
(F-147.32465159826586
F-16.771757545364647
F144.06000709964582
tp49
I122
I700
tp50
tp51
.(((cnumpy.core.multiarray
_reconstruct
p0
(cnumpy.matrixlib.defmatrix
matrix
p1
(I0
tp2
S'b'
p3
tp4
Rp5
(I1
(I1
I1
tp6
cnumpy
dtype
p7
(S'f8'
p8
I0
I1
tp9
Rp10
(I3
S'<'
p11
NNNI-1
I-1
I0
tp12
bI00
S'\xc3a\x8d\xda~\xf7\x97?'
p13
tp14
bg0
(g1
(I0
tp15
g3
tp16
Rp17
(I1
(I1
I1
tp18
g10
I00
S'\xf7\x0fnEr\x01\xb2?'
p19
tp20
bg0
(g1
(I0
tp21
g3
tp22
Rp23
(I1
(I1
I1
tp24
g10
I00
S'\xa1\x8e<\xa1t\xc1\xc3\xbf'
p25
tp26
btp27
(F1.5868748897411742
F-5.949260416087482
F-145.50846321977713
tp28
I982
I710
tp29
((g0
(g1
(I0
tp30
g3
tp31
Rp32
(I1
(I1
I1
tp33
g10
I00
S'_s\x89\xe4\xa4S\xc3\xbf'
p34
tp35
bg0
(g1
(I0
tp36
g3
tp37
Rp38
(I1
(I1
I1
tp39
g10
I00
S'1\x98]\xd9\x19\xd5\xbb?'
p40
tp41
bg0
(g1
(I0
tp42
g3
tp43
Rp44
(I1
(I1
I1
tp45
g10
I00
S'\xf5\xb0\x1f\xfe\xe9n\xbe\xbf'
p46
tp47
btp48
(F-148.6425649588647
F-41.219432336385886
F136.8513000815281
tp49
I982
I710
tp50
tp51
.(((cnumpy.core.multiarray
_reconstruct
p0
(cnumpy.matrixlib.defmatrix
matrix
p1
(I0
tp2
S'b'
p3
tp4
Rp5
(I1
(I1
I1
tp6
cnumpy
dtype
p7
(S'f8'
p8
I0
I1
tp9
Rp10
(I3
S'<'
p11
NNNI-1
I-1
I0
tp12
bI00
S'\xcbo\xf8s\xcbo\xb3?'
p13
tp14
bg0
(g1
(I0
tp15
g3
tp16
Rp17
(I1
(I1
I1
tp18
g10
I00
S'y\x12+m\xb0C\xb4?'
p19
tp20
bg0
(g1
(I0
tp21
g3
tp22
Rp23
(I1
(I1
I1
tp24
g10
I00
S'>}\xf4\x16\xcd\x02\xc5\xbf'
p25
tp26
btp27
(F1.9500070632867421
F-22.225371900222818
F-146.988796422546
tp28
I320
I733
tp29
((g0
(g1
(I0
tp30
g3
tp31
Rp32
(I1
(I1
I1
tp33
g10
I00
S'\xa8)\x1cZO\xa1\xb8\xbf'
p34
tp35
bg0
(g1
(I0
tp36
g3
tp37
Rp38
(I1
(I1
I1
tp39
g10
I00
S'\xa0\xd9\xc7E\\j\xb9?'
p40
tp41
bg0
(g1
(I0
tp42
g3
tp43
Rp44
(I1
(I1
I1
tp45
g10
I00
S'\x90\xab\xef\x10\r\x18\xc0\xbf'
p46
tp47
btp48
(F-156.4562141142686
F-29.27291761988491
F144.19871896811824
tp49
I320
I733
tp50
tp51
.(((cnumpy.core.multiarray
_reconstruct
p0
(cnumpy.matrixlib.defmatrix
matrix
p1
(I0
tp2
S'b'
p3
tp4
Rp5
(I1
(I1
I1
tp6
cnumpy
dtype
p7
(S'f8'
p8
I0
I1
tp9
Rp10
(I3
S'<'
p11
NNNI-1
I-1
I0
tp12
bI00
S'\x14\x88\xe3\x1dfC\xad?'
p13
tp14
bg0
(g1
(I0
tp15
g3
tp16
Rp17
(I1
(I1
I1
tp18
g10
I00
S'\xach\xd1$\xa9\xaa\xb3?'
p19
tp20
bg0
(g1
(I0
tp21
g3
tp22
Rp23
(I1
(I1
I1
tp24
g10
I00
S'~[\x83+\x92\xa5\xc4\xbf'
p25
tp26
btp27
(F1.9352166761405016
F-16.927493099599737
F-145.7441843730815
tp28
I550
I736
tp29
((g0
(g1
(I0
tp30
g3
tp31
Rp32
(I1
(I1
I1
tp33
g10
I00
S'~,\xd8\x80\x89;\xbd\xbf'
p34
tp35
bg0
(g1
(I0
tp36
g3
tp37
Rp38
(I1
(I1
I1
tp39
g10
I00
S'\xa2\xe5\xb2\xde\xf8{\xba?'
p40
tp41
bg0
(g1
(I0
tp42
g3
tp43
Rp44
(I1
(I1
I1
tp45
g10
I00
S'}\x9aT\x9di5\xbf\xbf'
p46
tp47
btp48
(F-158.58388716862808
F-38.446222526901124
F142.99504027578203
tp49
I550
I736
tp50
tp51
.(((cnumpy.core.multiarray
_reconstruct
p0
(cnumpy.matrixlib.defmatrix
matrix
p1
(I0
tp2
S'b'
p3
tp4
Rp5
(I1
(I1
I1
tp6
cnumpy
dtype
p7
(S'f8'
p8
I0
I1
tp9
Rp10
(I3
S'<'
p11
NNNI-1
I-1
I0
tp12
bI00
S'6\xf44xj\xe8\xa3?'
p13
tp14
bg0
(g1
(I0
tp15
g3
tp16
Rp17
(I1
(I1
I1
tp18
g10
I00
S'C\\\xf5\xe7hK\xb3?'
p19
tp20
bg0
(g1
(I0
tp21
g3
tp22
Rp23
(I1
(I1
I1
tp24
g10
I00
S'\xcc\xb3^\x98\xfe#\xc4\xbf'
p25
tp26
btp27
(F1.760701428640421
F-11.309761609356768
F-144.9018344857048
tp28
I775
I739
tp29
((g0
(g1
(I0
tp30
g3
tp31
Rp32
(I1
(I1
I1
tp33
g10
I00
S'"\x9b\x9e\xa3\xa55\xc1\xbf'
p34
tp35
bg0
(g1
(I0
tp36
g3
tp37
Rp38
(I1
(I1
I1
tp39
g10
I00
S'\xbaB\xa1=\x80{\xbb?'
p40
tp41
bg0
(g1
(I0
tp42
g3
tp43
Rp44
(I1
(I1
I1
tp45
g10
I00
S'R8\xfb\xf1\xd8\xc8\xbe\xbf'
p46
tp47
btp48
(F-152.84566759391464
F-40.08336419109516
F139.22905182658192
tp49
I775
I739
tp50
tp51
.(((cnumpy.core.multiarray
_reconstruct
p0
(cnumpy.matrixlib.defmatrix
matrix
p1
(I0
tp2
S'b'
p3
tp4
Rp5
(I1
(I1
I1
tp6
cnumpy
dtype
p7
(S'f8'
p8
I0
I1
tp9
Rp10
(I3
S'<'
p11
NNNI-1
I-1
I0
tp12
bI00
S'k2\xd8W2\xb7\x95?'
p13
tp14
bg0
(g1
(I0
tp15
g3
tp16
Rp17
(I1
(I1
I1
tp18
g10
I00
S'549\x18\xabQ\xb2?'
p19
tp20
bg0
(g1
(I0
tp21
g3
tp22
Rp23
(I1
(I1
I1
tp24
g10
I00
S'\xaev\xa4\x19\xb5\xc9\xc3\xbf'
p25
tp26
btp27
(F1.7366171118916767
F-5.232702347939162
F-145.32884403414917
tp28
I997
I742
tp29
((g0
(g1
(I0
tp30
g3
tp31
Rp32
(I1
(I1
I1
tp33
g10
I00
S'\x9b\xf9\x90k\x1f\xa1\xc3\xbf'
p34
tp35
bg0
(g1
(I0
tp36
g3
tp37
Rp38
(I1
(I1
I1
tp39
g10
I00
S'\xf0\x92nG\xcc\x9b\xbc?'
p40
tp41
bg0
(g1
(I0
tp42
g3
tp43
Rp44
(I1
(I1
I1
tp45
g10
I00
S'\xf0\x19\x7f\xfd}\x88\xbe\xbf'
p46
tp47
btp48
(F-144.76715846921883
F-37.71285089927088
F134.2562958390891
tp49
I997
I742
tp50
tp51
.(((cnumpy.core.multiarray
_reconstruct
p0
(cnumpy.matrixlib.defmatrix
matrix
p1
(I0
tp2
S'b'
p3
tp4
Rp5
(I1
(I1
I1
tp6
cnumpy
dtype
p7
(S'f8'
p8
I0
I1
tp9
Rp10
(I3
S'<'
p11
NNNI-1
I-1
I0
tp12
bI00
S'j\x0f\xe4!R:\xb7?'
p13
tp14
bg0
(g1
(I0
tp15
g3
tp16
Rp17
(I1
(I1
I1
tp18
g10
I00
S'\xa5\xf0\xddU\x85\xd1\xb5?'
p19
tp20
bg0
(g1
(I0
tp21
g3
tp22
Rp23
(I1
(I1
I1
tp24
g10
I00
S'\xb9\xae\xac\xba\x91>\xc5\xbf'
p25
tp26
btp27
(F2.184452554727324
F-26.1157937297607
F-146.61751984143922
tp28
I115
I754
tp29
((g0
(g1
(I0
tp30
g3
tp31
Rp32
(I1
(I1
I1
tp33
g10
I00
S'v\xe0H\xbf,\xd5\xb4\xbf'
p34
tp35
bg0
(g1
(I0
tp36
g3
tp37
Rp38
(I1
(I1
I1
tp39
g10
I00
S'\xabn\xa6\x14\x0cI\xb9?'
p40
tp41
bg0
(g1
(I0
tp42
g3
tp43
Rp44
(I1
(I1
I1
tp45
g10
I00
S'\xb5\xe6\x8f6\x95@\xc0\xbf'
p46
tp47
btp48
(F-149.4140558337372
F-17.50407069870411
F143.3741574899163
tp49
I115
I754
tp50
tp51
.(((cnumpy.core.multiarray
_reconstruct
p0
(cnumpy.matrixlib.defmatrix
matrix
p1
(I0
tp2
S'b'
p3
tp4
Rp5
(I1
(I1
I1
tp6
cnumpy
dtype
p7
(S'f8'
p8
I0
I1
tp9
Rp10
(I3
S'<'
p11
NNNI-1
I-1
I0
tp12
bI00
S'\xb8\xbc\x89\x03\x18\xc6\x9d?'
p13
tp14
bg0
(g1
(I0
tp15
g3
tp16
Rp17
(I1
(I1
I1
tp18
g10
I00
S'\x04f\x87\xbag\xb2\xb4?'
p19
tp20
bg0
(g1
(I0
tp21
g3
tp22
Rp23
(I1
(I1
I1
tp24
g10
I00
S'p\x10\xa0S\x0e\x0b\xc4\xbf'
p25
tp26
btp27
(F2.097882044933654
F-8.117783998332728
F-143.20355743561709
tp28
I865
I819
tp29
((g0
(g1
(I0
tp30
g3
tp31
Rp32
(I1
(I1
I1
tp33
g10
I00
S'*X\x93E\xa2\x9c\xc1\xbf'
p34
tp35
bg0
(g1
(I0
tp36
g3
tp37
Rp38
(I1
(I1
I1
tp39
g10
I00
S'\xfa=T\xb1\xb0$\xbe?'
p40
tp41
bg0
(g1
(I0
tp42
g3
tp43
Rp44
(I1
(I1
I1
tp45
g10
I00
S'\x92;+\xfb\xd2h\xbe\xbf'
p46
tp47
btp48
(F-148.50906911542737
F-35.641184821054985
F134.95889757814993
tp49
I865
I819
tp50
tp51
.(((cnumpy.core.multiarray
_reconstruct
p0
(cnumpy.matrixlib.defmatrix
matrix
p1
(I0
tp2
S'b'
p3
tp4
Rp5
(I1
(I1
I1
tp6
cnumpy
dtype
p7
(S'f8'
p8
I0
I1
tp9
Rp10
(I3
S'<'
p11
NNNI-1
I-1
I0
tp12
bI00
S'N\x06\x0f\x14\x82\xf1\x9d?'
p13
tp14
bg0
(g1
(I0
tp15
g3
tp16
Rp17
(I1
(I1
I1
tp18
g10
I00
S'\x1fi\xd7\x14A\x8e\xb4?'
p19
tp20
bg0
(g1
(I0
tp21
g3
tp22
Rp23
(I1
(I1
I1
tp24
g10
I00
S'\xb2\xd4\\!\x0e\xfc\xc3\xbf'
p25
tp26
btp27
(F2.046707584420743
F-8.163752594382558
F-143.65026093128785
tp28
I879
I830
tp29
((g0
(g1
(I0
tp30
g3
tp31
Rp32
(I1
(I1
I1
tp33
g10
I00
S'\xc2#\xe3\x11\xc8\xe3\xc1\xbf'
p34
tp35
bg0
(g1
(I0
tp36
g3
tp37
Rp38
(I1
(I1
I1
tp39
g10
I00
S'\xfe\xd0\xd7\x90\x88\x03\xbe?'
p40
tp41
bg0
(g1
(I0
tp42
g3
tp43
Rp44
(I1
(I1
I1
tp45
g10
I00
S'\xfcQ\xfc+K\xfd\xbe\xbf'
p46
tp47
btp48
(F-149.12344466628713
F-36.39354385808189
F135.84113892620258
tp49
I879
I830
tp50
tp51
.(((cnumpy.core.multiarray
_reconstruct
p0
(cnumpy.matrixlib.defmatrix
matrix
p1
(I0
tp2
S'b'
p3
tp4
Rp5
(I1
(I1
I1
tp6
cnumpy
dtype
p7
(S'f8'
p8
I0
I1
tp9
Rp10
(I3
S'<'
p11
NNNI-1
I-1
I0
tp12
bI00
S'nD\xbe\x19\x01u\xb5?'
p13
tp14
bg0
(g1
(I0
tp15
g3
tp16
Rp17
(I1
(I1
I1
tp18
g10
I00
S'HAI\x0c<\xd2\xb6?'
p19
tp20
bg0
(g1
(I0
tp21
g3
tp22
Rp23
(I1
(I1
I1
tp24
g10
I00
S'\x19\xa7\xc4y\xd9%\xc5\xbf'
p25
tp26
btp27
(F2.276465618708619
F-24.44922300787117
F-145.29089486637235
tp28
I215
I836
tp29
((g0
(g1
(I0
tp30
g3
tp31
Rp32
(I1
(I1
I1
tp33
g10
I00
S'ER\x1eK\x9b\xe6\xb5\xbf'
p34
tp35
bg0
(g1
(I0
tp36
g3
tp37
Rp38
(I1
(I1
I1
tp39
g10
I00
S'H\xbf>\x18K\xb6\xbb?'
p40
tp41
bg0
(g1
(I0
tp42
g3
tp43
Rp44
(I1
(I1
I1
tp45
g10
I00
S'\x93\xe4\x02`\xa1\xdf\xbf\xbf'
p46
tp47
btp48
(F-151.0941881677354
F-19.503667035995754
F140.68835954693512
tp49
I215
I836
tp50
tp51
.(((cnumpy.core.multiarray
_reconstruct
p0
(cnumpy.matrixlib.defmatrix
matrix
p1
(I0
tp2
S'b'
p3
tp4
Rp5
(I1
(I1
I1
tp6
cnumpy
dtype
p7
(S'f8'
p8
I0
I1
tp9
Rp10
(I3
S'<'
p11
NNNI-1
I-1
I0
tp12
bI00
S'WH\xdc+\x93\xae\xb0?'
p13
tp14
bg0
(g1
(I0
tp15
g3
tp16
Rp17
(I1
(I1
I1
tp18
g10
I00
S'x\xf21\nyY\xb6?'
p19
tp20
bg0
(g1
(I0
tp21
g3
tp22
Rp23
(I1
(I1
I1
tp24
g10
I00
S'\xd4N\xdd"U\xad\xc4\xbf'
p25
tp26
btp27
(F2.0787481619902692
F-19.47412774768033
F-144.03331683089445
tp28
I435
I846
tp29
((g0
(g1
(I0
tp30
g3
tp31
Rp32
(I1
(I1
I1
tp33
g10
I00
S'\x17\x94\xee\x84\x0c\x9b\xba\xbf'
p34
tp35
bg0
(g1
(I0
tp36
g3
tp37
Rp38
(I1
(I1
I1
tp39
g10
I00
S'\xe9\x95L\xb3\xcf\xde\xbc?'
p40
tp41
bg0
(g1
(I0
tp42
g3
tp43
Rp44
(I1
(I1
I1
tp45
g10
I00
S'\x97\xc72Y\xd5"\xbf\xbf'
p46
tp47
btp48
(F-168.43608828376009
F-41.809434125042635
F145.6018532071135
tp49
I435
I846
tp50
tp51
.(((cnumpy.core.multiarray
_reconstruct
p0
(cnumpy.matrixlib.defmatrix
matrix
p1
(I0
tp2
S'b'
p3
tp4
Rp5
(I1
(I1
I1
tp6
cnumpy
dtype
p7
(S'f8'
p8
I0
I1
tp9
Rp10
(I3
S'<'
p11
NNNI-1
I-1
I0
tp12
bI00
S'\xaf)\t$\x88\xae\xa7?'
p13
tp14
bg0
(g1
(I0
tp15
g3
tp16
Rp17
(I1
(I1
I1
tp18
g10
I00
S'\xc7\xbeD\xe8\xf1\xb1\xb5?'
p19
tp20
bg0
(g1
(I0
tp21
g3
tp22
Rp23
(I1
(I1
I1
tp24
g10
I00
S'pF\xac\xe5\xd9v\xc4\xbf'
p25
tp26
btp27
(F2.064372827293364
F-13.737652574465137
F-143.6373745878906
tp28
I661
I848
tp29
((g0
(g1
(I0
tp30
g3
tp31
Rp32
(I1
(I1
I1
tp33
g10
I00
S'\x1b0\xe5\xf2J\x07\xbf\xbf'
p34
tp35
bg0
(g1
(I0
tp36
g3
tp37
Rp38
(I1
(I1
I1
tp39
g10
I00
S'\x88\x922- \r\xbe?'
p40
tp41
bg0
(g1
(I0
tp42
g3
tp43
Rp44
(I1
(I1
I1
tp45
g10
I00
S'2\x9e\xa2`:\xc9\xbe\xbf'
p46
tp47
btp48
(F-160.67715741705956
F-41.58191584103157
F140.94717139577418
tp49
I661
I848
tp50
tp51
.(((cnumpy.core.multiarray
_reconstruct
p0
(cnumpy.matrixlib.defmatrix
matrix
p1
(I0
tp2
S'b'
p3
tp4
Rp5
(I1
(I1
I1
tp6
cnumpy
dtype
p7
(S'f8'
p8
I0
I1
tp9
Rp10
(I3
S'<'
p11
NNNI-1
I-1
I0
tp12
bI00
S'R\x070\x15\xa4\xbb\x9c?'
p13
tp14
bg0
(g1
(I0
tp15
g3
tp16
Rp17
(I1
(I1
I1
tp18
g10
I00
S'\xe4N\xe2\xa1\xe3J\xb5?'
p19
tp20
bg0
(g1
(I0
tp21
g3
tp22
Rp23
(I1
(I1
I1
tp24
g10
I00
S'~\x93?\xc9\xbd\xf6\xc3\xbf'
p25
tp26
btp27
(F2.034809088970851
F-7.777189834538775
F-142.68999360275402
tp28
I884
I850
tp29
((g0
(g1
(I0
tp30
g3
tp31
Rp32
(I1
(I1
I1
tp33
g10
I00
S'\x7f5\xc7\x9d\x8c\xda\xc1\xbf'
p34
tp35
bg0
(g1
(I0
tp36
g3
tp37
Rp38
(I1
(I1
I1
tp39
g10
I00
S'\xfd\rl\xd4\xe9\xe6\xbe?'
p40
tp41
bg0
(g1
(I0
tp42
g3
tp43
Rp44
(I1
(I1
I1
tp45
g10
I00
S'j\xe8}\xc0\x1a\xb2\xbe\xbf'
p46
tp47
btp48
(F-151.39742923441634
F-38.776470322312065
F135.8900636081184
tp49
I884
I850
tp50
tp51
.(((cnumpy.core.multiarray
_reconstruct
p0
(cnumpy.matrixlib.defmatrix
matrix
p1
(I0
tp2
S'b'
p3
tp4
Rp5
(I1
(I1
I1
tp6
cnumpy
dtype
p7
(S'f8'
p8
I0
I1
tp9
Rp10
(I3
S'<'
p11
NNNI-1
I-1
I0
tp12
bI00
S'A\xf7\x17\xfb_\x15\xb5?'
p13
tp14
bg0
(g1
(I0
tp15
g3
tp16
Rp17
(I1
(I1
I1
tp18
g10
I00
S'l\x10I\xea7\xd3\xb7?'
p19
tp20
bg0
(g1
(I0
tp21
g3
tp22
Rp23
(I1
(I1
I1
tp24
g10
I00
S'\xc8\x01R\x13?(\xc5\xbf'
p25
tp26
btp27
(F2.3419641690786563
F-24.115921708253484
F-144.34740496607782
tp28
I169
I871
tp29
((g0
(g1
(I0
tp30
g3
tp31
Rp32
(I1
(I1
I1
tp33
g10
I00
S"\xf9'\xcdH\x87f\xb5\xbf"
p34
tp35
bg0
(g1
(I0
tp36
g3
tp37
Rp38
(I1
(I1
I1
tp39
g10
I00
S'\x8c/l\x9dj\xad\xbc?'
p40
tp41
bg0
(g1
(I0
tp42
g3
tp43
Rp44
(I1
(I1
I1
tp45
g10
I00
S'\xe6y\x9a\x1c\x12t\xbf\xbf'
p46
tp47
btp48
(F-165.45840128046382
F-32.0880540360258
F143.76237969137358
tp49
I169
I871
tp50
tp51
.(((cnumpy.core.multiarray
_reconstruct
p0
(cnumpy.matrixlib.defmatrix
matrix
p1
(I0
tp2
S'b'
p3
tp4
Rp5
(I1
(I1
I1
tp6
cnumpy
dtype
p7
(S'f8'
p8
I0
I1
tp9
Rp10
(I3
S'<'
p11
NNNI-1
I-1
I0
tp12
bI00
S'\xf3\x17\x8e\xed\xbb\t\xb3?'
p13
tp14
bg0
(g1
(I0
tp15
g3
tp16
Rp17
(I1
(I1
I1
tp18
g10
I00
S'r\xc9@\xd6\x8bk\xb9?'
p19
tp20
bg0
(g1
(I0
tp21
g3
tp22
Rp23
(I1
(I1
I1
tp24
g10
I00
S'Q1\xf9\xd1R\xa4\xc4\xbf'
p25
tp26
btp27
(F2.36751938270941
F-22.440731106190988
F-141.48672704053496
tp28
I322
I953
tp29
((g0
(g1
(I0
tp30
g3
tp31
Rp32
(I1
(I1
I1
tp33
g10
I00
S'\xcd\xa6X\xcd4r\xb7\xbf'
p34
tp35
bg0
(g1
(I0
tp36
g3
tp37
Rp38
(I1
(I1
I1
tp39
g10
I00
S'g\x80O\xe9&\x0f\xbf?'
p40
tp41
bg0
(g1
(I0
tp42
g3
tp43
Rp44
(I1
(I1
I1
tp45
g10
I00
S'm\x8a\xb5\xad\x85\x0f\xbf\xbf'
p46
tp47
btp48
(F-165.73335669369823
F-35.115257631212984
F141.64428781149078
tp49
I322
I953
tp50
tp51
.(((cnumpy.core.multiarray
_reconstruct
p0
(cnumpy.matrixlib.defmatrix
matrix
p1
(I0
tp2
S'b'
p3
tp4
Rp5
(I1
(I1
I1
tp6
cnumpy
dtype
p7
(S'f8'
p8
I0
I1
tp9
Rp10
(I3
S'<'
p11
NNNI-1
I-1
I0
tp12
bI00
S'\x00\x8d\xc2@&\xa9\xb7?'
p13
tp14
bg0
(g1
(I0
tp15
g3
tp16
Rp17
(I1
(I1
I1
tp18
g10
I00
S'B,.s-\x0f\xba?'
p19
tp20
bg0
(g1
(I0
tp21
g3
tp22
Rp23
(I1
(I1
I1
tp24
g10
I00
S'\x81U\xfbHg\x16\xc5\xbf'
p25
tp26
btp27
(F2.3393862386966804
F-26.871924640473438
F-142.689313254464
tp28
I117
I954
tp29
((g0
(g1
(I0
tp30
g3
tp31
Rp32
(I1
(I1
I1
tp33
g10
I00
S'\x84\xa4n\r}\xaf\xb3\xbf'
p34
tp35
bg0
(g1
(I0
tp36
g3
tp37
Rp38
(I1
(I1
I1
tp39
g10
I00
S"Y'@Z\xc4\xde\xbd?"
p40
tp41
bg0
(g1
(I0
tp42
g3
tp43
Rp44
(I1
(I1
I1
tp45
g10
I00
S'z\xe3\xa7\xe1<3\xc0\xbf'
p46
tp47
btp48
(F-161.67318207900757
F-25.203563575883344
F141.9611492810225
tp49
I117
I954
tp50
tp51
.(((cnumpy.core.multiarray
_reconstruct
p0
(cnumpy.matrixlib.defmatrix
matrix
p1
(I0
tp2
S'b'
p3
tp4
Rp5
(I1
(I1
I1
tp6
cnumpy
dtype
p7
(S'f8'
p8
I0
I1
tp9
Rp10
(I3
S'<'
p11
NNNI-1
I-1
I0
tp12
bI00
S'6\xe5\x15;\x04\x15\xad?'
p13
tp14
bg0
(g1
(I0
tp15
g3
tp16
Rp17
(I1
(I1
I1
tp18
g10
I00
S'\x02\xe2\x86\xd76\x86\xb8?'
p19
tp20
bg0
(g1
(I0
tp21
g3
tp22
Rp23
(I1
(I1
I1
tp24
g10
I00
S'\xe0\x85\xc1\xec9_\xc4\xbf'
p25
tp26
btp27
(F2.4107568177022403
F-17.395681694341018
F-141.21246484702834
tp28
I549
I956
tp29
((g0
(g1
(I0
tp30
g3
tp31
Rp32
(I1
(I1
I1
tp33
g10
I00
S'\xd89\x1b\xcd\xd7|\xbc\xbf'
p34
tp35
bg0
(g1
(I0
tp36
g3
tp37
Rp38
(I1
(I1
I1
tp39
g10
I00
S'\x8c\xfc\xaf\xfa\x9d\x88\xbf?'
p40
tp41
bg0
(g1
(I0
tp42
g3
tp43
Rp44
(I1
(I1
I1
tp45
g10
I00
S"\x17r\x1f\x01\xff'\xbf\xbf"
p46
tp47
btp48
(F-163.57168598233608
F-40.912468127513364
F140.4891737367905
tp49
I549
I956
tp50
tp51
.(((cnumpy.core.multiarray
_reconstruct
p0
(cnumpy.matrixlib.defmatrix
matrix
p1
(I0
tp2
S'b'
p3
tp4
Rp5
(I1
(I1
I1
tp6
cnumpy
dtype
p7
(S'f8'
p8
I0
I1
tp9
Rp10
(I3
S'<'
p11
NNNI-1
I-1
I0
tp12
bI00
S'\x04+\x84\n4\xce\xa3?'
p13
tp14
bg0
(g1
(I0
tp15
g3
tp16
Rp17
(I1
(I1
I1
tp18
g10
I00
S'\xe9\x08N\x81\xdf\xf0\xb7?'
p19
tp20
bg0
(g1
(I0
tp21
g3
tp22
Rp23
(I1
(I1
I1
tp24
g10
I00
S'7\xbd\xd6{Z6\xc4\xbf'
p25
tp26
btp27
(F2.343106795963776
F-11.50881257643238
F-140.69159530071747
tp28
I771
I958
tp29
((g0
(g1
(I0
tp30
g3
tp31
Rp32
(I1
(I1
I1
tp33
g10
I00
S'\x81\x87vp\t\x8f\xc0\xbf'
p34
tp35
bg0
(g1
(I0
tp36
g3
tp37
Rp38
(I1
(I1
I1
tp39
g10
I00
S'\x99\x17\x82\xc0\xc5P\xc0?'
p40
tp41
bg0
(g1
(I0
tp42
g3
tp43
Rp44
(I1
(I1
I1
tp45
g10
I00
S'\xd9\x12\xd7z,B\xbe\xbf'
p46
tp47
btp48
(F-144.92730010494518
F-27.840925292115884
F131.58935472228842
tp49
I771
I958
tp50
tp51
.