((cnumpy.core.multiarray
_reconstruct
p0
(cnumpy.matrixlib.defmatrix
matrix
p1
(I0
tp2
S'b'
p3
tp4
Rp5
(I1
(I1
I1
tp6
cnumpy
dtype
p7
(S'f8'
p8
I0
I1
tp9
Rp10
(I3
S'<'
p11
NNNI-1
I-1
I0
tp12
bI00
S'`\xe1z!Tg\xb3?'
p13
tp14
bg0
(g1
(I0
tp15
g3
tp16
Rp17
(I1
(I1
I1
tp18
g10
I00
S"!\x1a'It\xb1\xa3?"
p19
tp20
bg0
(g1
(I0
tp21
g3
tp22
Rp23
(I1
(I1
I1
tp24
g10
I00
S'\x05\x95T\xacC\x1a\xc6\xbf'
p25
tp26
btp27
(F0.5791725760429706
F-21.181916428914317
F-171.79795564286067
tp28
I576
I237
tp29
.((cnumpy.core.multiarray
_reconstruct
p0
(cnumpy.matrixlib.defmatrix
matrix
p1
(I0
tp2
S'b'
p3
tp4
Rp5
(I1
(I1
I1
tp6
cnumpy
dtype
p7
(S'f8'
p8
I0
I1
tp9
Rp10
(I3
S'<'
p11
NNNI-1
I-1
I0
tp12
bI00
S'x\xf3\x86J^Z\xb3?'
p13
tp14
bg0
(g1
(I0
tp15
g3
tp16
Rp17
(I1
(I1
I1
tp18
g10
I00
S'\xe0\x96\xde\x98i\x1e\xa4?'
p19
tp20
bg0
(g1
(I0
tp21
g3
tp22
Rp23
(I1
(I1
I1
tp24
g10
I00
S'\xcbf\x8a{x,\xc6\xbf'
p25
tp26
btp27
(F0.6766011830117455
F-20.910139902146607
F-171.59922434289575
tp28
I576
I237
tp29
.((cnumpy.core.multiarray
_reconstruct
p0
(cnumpy.matrixlib.defmatrix
matrix
p1
(I0
tp2
S'b'
p3
tp4
Rp5
(I1
(I1
I1
tp6
cnumpy
dtype
p7
(S'f8'
p8
I0
I1
tp9
Rp10
(I3
S'<'
p11
NNNI-1
I-1
I0
tp12
bI00
S"\xe2',\x9f\xb1\x9a\xae?"
p13
tp14
bg0
(g1
(I0
tp15
g3
tp16
Rp17
(I1
(I1
I1
tp18
g10
I00
S'\x80\x86>\xa5h\x00\xa3?'
p19
tp20
bg0
(g1
(I0
tp21
g3
tp22
Rp23
(I1
(I1
I1
tp24
g10
I00
S'\xbe\xf3wA\xc2\xce\xc5\xbf'
p25
tp26
btp27
(F0.6510077492554752
F-16.451750257115044
F-171.5796635277974
tp28
I757
I244
tp29
.((cnumpy.core.multiarray
_reconstruct
p0
(cnumpy.matrixlib.defmatrix
matrix
p1
(I0
tp2
S'b'
p3
tp4
Rp5
(I1
(I1
I1
tp6
cnumpy
dtype
p7
(S'f8'
p8
I0
I1
tp9
Rp10
(I3
S'<'
p11
NNNI-1
I-1
I0
tp12
bI00
S'\xc5\xe7\xe0\x9a\xd7\xc6\xae?'
p13
tp14
bg0
(g1
(I0
tp15
g3
tp16
Rp17
(I1
(I1
I1
tp18
g10
I00
S'\xbe\x89\x9e\x9e\x17\x11\xa3?'
p19
tp20
bg0
(g1
(I0
tp21
g3
tp22
Rp23
(I1
(I1
I1
tp24
g10
I00
S'\xa8:^\x1a\xc0\xc6\xc5\xbf'
p25
tp26
btp27
(F0.5412913870817333
F-16.739303358073816
F-171.5687346717702
tp28
I757
I244
tp29
.((cnumpy.core.multiarray
_reconstruct
p0
(cnumpy.matrixlib.defmatrix
matrix
p1
(I0
tp2
S'b'
p3
tp4
Rp5
(I1
(I1
I1
tp6
cnumpy
dtype
p7
(S'f8'
p8
I0
I1
tp9
Rp10
(I3
S'<'
p11
NNNI-1
I-1
I0
tp12
bI00
S'\xe4;\xe1\x16\x8c\xe9\xa6?'
p13
tp14
bg0
(g1
(I0
tp15
g3
tp16
Rp17
(I1
(I1
I1
tp18
g10
I00
S'&\xc7\xb4$W\xf0\xa1?'
p19
tp20
bg0
(g1
(I0
tp21
g3
tp22
Rp23
(I1
(I1
I1
tp24
g10
I00
S'>!\xf6\xff\xda\x82\xc5\xbf'
p25
tp26
btp27
(F0.5949510110059498
F-12.17884422072649
F-171.81051835717813
tp28
I937
I250
tp29
.((cnumpy.core.multiarray
_reconstruct
p0
(cnumpy.matrixlib.defmatrix
matrix
p1
(I0
tp2
S'b'
p3
tp4
Rp5
(I1
(I1
I1
tp6
cnumpy
dtype
p7
(S'f8'
p8
I0
I1
tp9
Rp10
(I3
S'<'
p11
NNNI-1
I-1
I0
tp12
bI00
S'\x01\xb1{\x03w>\xa6?'
p13
tp14
bg0
(g1
(I0
tp15
g3
tp16
Rp17
(I1
(I1
I1
tp18
g10
I00
S'\x16\xeb\x94\r\x00\xd9\xa1?'
p19
tp20
bg0
(g1
(I0
tp21
g3
tp22
Rp23
(I1
(I1
I1
tp24
g10
I00
S'c\xee\xe3\x92\x85\x8b\xc5\xbf'
p25
tp26
btp27
(F0.36137647763174496
F-11.70311892002973
F-171.7024759273225
tp28
I937
I250
tp29
.((cnumpy.core.multiarray
_reconstruct
p0
(cnumpy.matrixlib.defmatrix
matrix
p1
(I0
tp2
S'b'
p3
tp4
Rp5
(I1
(I1
I1
tp6
cnumpy
dtype
p7
(S'f8'
p8
I0
I1
tp9
Rp10
(I3
S'<'
p11
NNNI-1
I-1
I0
tp12
bI00
S'\xb9\xean\x00\xd1i\x9d?'
p13
tp14
bg0
(g1
(I0
tp15
g3
tp16
Rp17
(I1
(I1
I1
tp18
g10
I00
S'\r\x88\xb9\x1a\xdd3\xa1?'
p19
tp20
bg0
(g1
(I0
tp21
g3
tp22
Rp23
(I1
(I1
I1
tp24
g10
I00
S'\xe4\xb1\xf7\xaf\xb2C\xc5\xbf'
p25
tp26
btp27
(F0.6733339850654433
F-7.107276495746836
F-171.8097476003067
tp28
I1115
I257
tp29
.((cnumpy.core.multiarray
_reconstruct
p0
(cnumpy.matrixlib.defmatrix
matrix
p1
(I0
tp2
S'b'
p3
tp4
Rp5
(I1
(I1
I1
tp6
cnumpy
dtype
p7
(S'f8'
p8
I0
I1
tp9
Rp10
(I3
S'<'
p11
NNNI-1
I-1
I0
tp12
bI00
S'h&\xb0\xfa&2\x9d?'
p13
tp14
bg0
(g1
(I0
tp15
g3
tp16
Rp17
(I1
(I1
I1
tp18
g10
I00
S'\x07{gG\xc7\x1f\xa1?'
p19
tp20
bg0
(g1
(I0
tp21
g3
tp22
Rp23
(I1
(I1
I1
tp24
g10
I00
S'\xf3]\x07\xf3/A\xc5\xbf'
p25
tp26
btp27
(F0.8167941193483774
F-6.993024275638376
F-171.7698731273368
tp28
I1115
I257
tp29
.((cnumpy.core.multiarray
_reconstruct
p0
(cnumpy.matrixlib.defmatrix
matrix
p1
(I0
tp2
S'b'
p3
tp4
Rp5
(I1
(I1
I1
tp6
cnumpy
dtype
p7
(S'f8'
p8
I0
I1
tp9
Rp10
(I3
S'<'
p11
NNNI-1
I-1
I0
tp12
bI00
S'\x9a\n\xd2\x1eh$\xb5?'
p13
tp14
bg0
(g1
(I0
tp15
g3
tp16
Rp17
(I1
(I1
I1
tp18
g10
I00
S'\x8b\xe9\xf4a8|\xa8?'
p19
tp20
bg0
(g1
(I0
tp21
g3
tp22
Rp23
(I1
(I1
I1
tp24
g10
I00
S'\xe6d\xb51\xb2>\xc6\xbf'
p25
tp26
btp27
(F0.856279790461712
F-22.725585037546015
F-169.30282637001588
tp28
I482
I325
tp29
.((cnumpy.core.multiarray
_reconstruct
p0
(cnumpy.matrixlib.defmatrix
matrix
p1
(I0
tp2
S'b'
p3
tp4
Rp5
(I1
(I1
I1
tp6
cnumpy
dtype
p7
(S'f8'
p8
I0
I1
tp9
Rp10
(I3
S'<'
p11
NNNI-1
I-1
I0
tp12
bI00
S'l\x93 ;;B\xb5?'
p13
tp14
bg0
(g1
(I0
tp15
g3
tp16
Rp17
(I1
(I1
I1
tp18
g10
I00
S'\x94J\xea\xebA|\xa8?'
p19
tp20
bg0
(g1
(I0
tp21
g3
tp22
Rp23
(I1
(I1
I1
tp24
g10
I00
S'~\xb4qE\xf59\xc6\xbf'
p25
tp26
btp27
(F0.6817715827002149
F-22.819443452366155
F-169.18943854588997
tp28
I482
I325
tp29
.((cnumpy.core.multiarray
_reconstruct
p0
(cnumpy.matrixlib.defmatrix
matrix
p1
(I0
tp2
S'b'
p3
tp4
Rp5
(I1
(I1
I1
tp6
cnumpy
dtype
p7
(S'f8'
p8
I0
I1
tp9
Rp10
(I3
S'<'
p11
NNNI-1
I-1
I0
tp12
bI00
S'b\xc0\xa3\xf8}\x00\xb1?'
p13
tp14
bg0
(g1
(I0
tp15
g3
tp16
Rp17
(I1
(I1
I1
tp18
g10
I00
S'\xd0\x04\x9b\xe6\x9et\xa7?'
p19
tp20
bg0
(g1
(I0
tp21
g3
tp22
Rp23
(I1
(I1
I1
tp24
g10
I00
S'\x9d\xcf\xee\xbb\n\xef\xc5\xbf'
p25
tp26
btp27
(F0.6697241684585922
F-18.531152905785298
F-169.2280330579131
tp28
I665
I331
tp29
.((cnumpy.core.multiarray
_reconstruct
p0
(cnumpy.matrixlib.defmatrix
matrix
p1
(I0
tp2
S'b'
p3
tp4
Rp5
(I1
(I1
I1
tp6
cnumpy
dtype
p7
(S'f8'
p8
I0
I1
tp9
Rp10
(I3
S'<'
p11
NNNI-1
I-1
I0
tp12
bI00
S'\xde\x9c\x18\x82\x81\xde\xb0?'
p13
tp14
bg0
(g1
(I0
tp15
g3
tp16
Rp17
(I1
(I1
I1
tp18
g10
I00
S'~\xc43bEa\xa7?'
p19
tp20
bg0
(g1
(I0
tp21
g3
tp22
Rp23
(I1
(I1
I1
tp24
g10
I00
S'&\xda\x1b<\xd3\xed\xc5\xbf'
p25
tp26
btp27
(F0.7532148227550595
F-18.35807879674768
F-169.25439604990507
tp28
I665
I331
tp29
.((cnumpy.core.multiarray
_reconstruct
p0
(cnumpy.matrixlib.defmatrix
matrix
p1
(I0
tp2
S'b'
p3
tp4
Rp5
(I1
(I1
I1
tp6
cnumpy
dtype
p7
(S'f8'
p8
I0
I1
tp9
Rp10
(I3
S'<'
p11
NNNI-1
I-1
I0
tp12
bI00
S'\xfd6\x8f\xeb\xab\x11\xaa?'
p13
tp14
bg0
(g1
(I0
tp15
g3
tp16
Rp17
(I1
(I1
I1
tp18
g10
I00
S'\xea\x8e1\xe2\\`\xa6?'
p19
tp20
bg0
(g1
(I0
tp21
g3
tp22
Rp23
(I1
(I1
I1
tp24
g10
I00
S'\xde\x1dam0\x9e\xc5\xbf'
p25
tp26
btp27
(F0.7151453452939334
F-14.174062558138122
F-169.2725522741354
tp28
I845
I337
tp29
.((cnumpy.core.multiarray
_reconstruct
p0
(cnumpy.matrixlib.defmatrix
matrix
p1
(I0
tp2
S'b'
p3
tp4
Rp5
(I1
(I1
I1
tp6
cnumpy
dtype
p7
(S'f8'
p8
I0
I1
tp9
Rp10
(I3
S'<'
p11
NNNI-1
I-1
I0
tp12
bI00
S'{N\xee+\x91\xf3\xa9?'
p13
tp14
bg0
(g1
(I0
tp15
g3
tp16
Rp17
(I1
(I1
I1
tp18
g10
I00
S'\x8c\xdd\x85<_g\xa6?'
p19
tp20
bg0
(g1
(I0
tp21
g3
tp22
Rp23
(I1
(I1
I1
tp24
g10
I00
S'O)\xd2]\x91\x9c\xc5\xbf'
p25
tp26
btp27
(F0.6358863445424625
F-14.073246580219676
F-169.3090496014564
tp28
I845
I337
tp29
.((cnumpy.core.multiarray
_reconstruct
p0
(cnumpy.matrixlib.defmatrix
matrix
p1
(I0
tp2
S'b'
p3
tp4
Rp5
(I1
(I1
I1
tp6
cnumpy
dtype
p7
(S'f8'
p8
I0
I1
tp9
Rp10
(I3
S'<'
p11
NNNI-1
I-1
I0
tp12
bI00
S'SY\x90\xa3N\xd7\xa1?'
p13
tp14
bg0
(g1
(I0
tp15
g3
tp16
Rp17
(I1
(I1
I1
tp18
g10
I00
S'_\xf1dXwt\xa5?'
p19
tp20
bg0
(g1
(I0
tp21
g3
tp22
Rp23
(I1
(I1
I1
tp24
g10
I00
S'B&\x1f\xe5\x0eY\xc5\xbf'
p25
tp26
btp27
(F0.6351127850619144
F-9.057938056631821
F-169.1932630638695
tp28
I1024
I343
tp29
.((cnumpy.core.multiarray
_reconstruct
p0
(cnumpy.matrixlib.defmatrix
matrix
p1
(I0
tp2
S'b'
p3
tp4
Rp5
(I1
(I1
I1
tp6
cnumpy
dtype
p7
(S'f8'
p8
I0
I1
tp9
Rp10
(I3
S'<'
p11
NNNI-1
I-1
I0
tp12
bI00
S'B*\x89\xf4\x8c\xdc\xa1?'
p13
tp14
bg0
(g1
(I0
tp15
g3
tp16
Rp17
(I1
(I1
I1
tp18
g10
I00
S'\x05R>s\xb6e\xa5?'
p19
tp20
bg0
(g1
(I0
tp21
g3
tp22
Rp23
(I1
(I1
I1
tp24
g10
I00
S'\x9c\xae[\xd1nP\xc5\xbf'
p25
tp26
btp27
(F0.5288558764826238
F-9.300766953674673
F-169.4024011324491
tp28
I1024
I343
tp29
.((cnumpy.core.multiarray
_reconstruct
p0
(cnumpy.matrixlib.defmatrix
matrix
p1
(I0
tp2
S'b'
p3
tp4
Rp5
(I1
(I1
I1
tp6
cnumpy
dtype
p7
(S'f8'
p8
I0
I1
tp9
Rp10
(I3
S'<'
p11
NNNI-1
I-1
I0
tp12
bI00
S'nZ\xf7\xc8KG\x94?'
p13
tp14
bg0
(g1
(I0
tp15
g3
tp16
Rp17
(I1
(I1
I1
tp18
g10
I00
S'\xe6>\xecy!\xdb\xa4?'
p19
tp20
bg0
(g1
(I0
tp21
g3
tp22
Rp23
(I1
(I1
I1
tp24
g10
I00
S'th\x8b\xbb\xfa\x05\xc5\xbf'
p25
tp26
btp27
(F0.5155510118686678
F-4.1930450224649185
F-169.34913043623402
tp28
I1200
I348
tp29
.((cnumpy.core.multiarray
_reconstruct
p0
(cnumpy.matrixlib.defmatrix
matrix
p1
(I0
tp2
S'b'
p3
tp4
Rp5
(I1
(I1
I1
tp6
cnumpy
dtype
p7
(S'f8'
p8
I0
I1
tp9
Rp10
(I3
S'<'
p11
NNNI-1
I-1
I0
tp12
bI00
S'\xb3\xbbS\xd0\xfa\x17\x95?'
p13
tp14
bg0
(g1
(I0
tp15
g3
tp16
Rp17
(I1
(I1
I1
tp18
g10
I00
S'\x01tT\xb4q\x9a\xa4?'
p19
tp20
bg0
(g1
(I0
tp21
g3
tp22
Rp23
(I1
(I1
I1
tp24
g10
I00
S'O^\x11v\xa4\x13\xc5\xbf'
p25
tp26
btp27
(F0.48540062202105044
F-4.525401310859324
F-169.74244007247785
tp28
I1200
I348
tp29
.((cnumpy.core.multiarray
_reconstruct
p0
(cnumpy.matrixlib.defmatrix
matrix
p1
(I0
tp2
S'b'
p3
tp4
Rp5
(I1
(I1
I1
tp6
cnumpy
dtype
p7
(S'f8'
p8
I0
I1
tp9
Rp10
(I3
S'<'
p11
NNNI-1
I-1
I0
tp12
bI00
S'*\xa3\xfeV\xb6\xe6\xb2?'
p13
tp14
bg0
(g1
(I0
tp15
g3
tp16
Rp17
(I1
(I1
I1
tp18
g10
I00
S'\xf8\xdd-\x96\x8d\xf1\xab?'
p19
tp20
bg0
(g1
(I0
tp21
g3
tp22
Rp23
(I1
(I1
I1
tp24
g10
I00
S'\xed\xdca:\xb7\x15\xc6\xbf'
p25
tp26
btp27
(F1.0867912163004705
F-20.83174135171219
F-167.58225043724798
tp28
I572
I418
tp29
.((cnumpy.core.multiarray
_reconstruct
p0
(cnumpy.matrixlib.defmatrix
matrix
p1
(I0
tp2
S'b'
p3
tp4
Rp5
(I1
(I1
I1
tp6
cnumpy
dtype
p7
(S'f8'
p8
I0
I1
tp9
Rp10
(I3
S'<'
p11
NNNI-1
I-1
I0
tp12
bI00
S'\xcd1k\x1c\x90\xb4\xb2?'
p13
tp14
bg0
(g1
(I0
tp15
g3
tp16
Rp17
(I1
(I1
I1
tp18
g10
I00
S'S\xeb\t#\xd9\xb7\xab?'
p19
tp20
bg0
(g1
(I0
tp21
g3
tp22
Rp23
(I1
(I1
I1
tp24
g10
I00
S'\xc5\xe3c\x96\xc9\n\xc6\xbf'
p25
tp26
btp27
(F0.8106275225246499
F-20.374312821505242
F-167.41651860057252
tp28
I572
I418
tp29
.((cnumpy.core.multiarray
_reconstruct
p0
(cnumpy.matrixlib.defmatrix
matrix
p1
(I0
tp2
S'b'
p3
tp4
Rp5
(I1
(I1
I1
tp6
cnumpy
dtype
p7
(S'f8'
p8
I0
I1
tp9
Rp10
(I3
S'<'
p11
NNNI-1
I-1
I0
tp12
bI00
S'\xee\xa5_\x0eR\xae\xad?'
p13
tp14
bg0
(g1
(I0
tp15
g3
tp16
Rp17
(I1
(I1
I1
tp18
g10
I00
S'\xaf\xbc\x98\x8e\xc3\xa7\xaa?'
p19
tp20
bg0
(g1
(I0
tp21
g3
tp22
Rp23
(I1
(I1
I1
tp24
g10
I00
S'1!\x12\x10\x8c\xb6\xc5\xbf'
p25
tp26
btp27
(F0.8571850292031382
F-16.181236852575537
F-167.19922377611934
tp28
I753
I423
tp29
.((cnumpy.core.multiarray
_reconstruct
p0
(cnumpy.matrixlib.defmatrix
matrix
p1
(I0
tp2
S'b'
p3
tp4
Rp5
(I1
(I1
I1
tp6
cnumpy
dtype
p7
(S'f8'
p8
I0
I1
tp9
Rp10
(I3
S'<'
p11
NNNI-1
I-1
I0
tp12
bI00
S'\x157&\xfd_\xad\xad?'
p13
tp14
bg0
(g1
(I0
tp15
g3
tp16
Rp17
(I1
(I1
I1
tp18
g10
I00
S'\xae\xe6\xbd\xac\xd8\xd0\xaa?'
p19
tp20
bg0
(g1
(I0
tp21
g3
tp22
Rp23
(I1
(I1
I1
tp24
g10
I00
S'>\xaa\xb0\xaa\x92\xba\xc5\xbf'
p25
tp26
btp27
(F0.9806058025638135
F-16.037577319120746
F-167.0017754954571
tp28
I753
I423
tp29
.((cnumpy.core.multiarray
_reconstruct
p0
(cnumpy.matrixlib.defmatrix
matrix
p1
(I0
tp2
S'b'
p3
tp4
Rp5
(I1
(I1
I1
tp6
cnumpy
dtype
p7
(S'f8'
p8
I0
I1
tp9
Rp10
(I3
S'<'
p11
NNNI-1
I-1
I0
tp12
bI00
S'K\xbe\xec\xbd\x15\x9a\xa5?'
p13
tp14
bg0
(g1
(I0
tp15
g3
tp16
Rp17
(I1
(I1
I1
tp18
g10
I00
S'F\x93\x8bc\xb0\xf2\xa9?'
p19
tp20
bg0
(g1
(I0
tp21
g3
tp22
Rp23
(I1
(I1
I1
tp24
g10
I00
S'\xc3\xef\xe5\x9f-o\xc5\xbf'
p25
tp26
btp27
(F0.8157076763021427
F-11.485748273418057
F-167.00413528526195
tp28
I932
I429
tp29
.((cnumpy.core.multiarray
_reconstruct
p0
(cnumpy.matrixlib.defmatrix
matrix
p1
(I0
tp2
S'b'
p3
tp4
Rp5
(I1
(I1
I1
tp6
cnumpy
dtype
p7
(S'f8'
p8
I0
I1
tp9
Rp10
(I3
S'<'
p11
NNNI-1
I-1
I0
tp12
bI00
S'\xff\xe1=X\x07\xa7\xa5?'
p13
tp14
bg0
(g1
(I0
tp15
g3
tp16
Rp17
(I1
(I1
I1
tp18
g10
I00
S'F\x10kR\\\xa5\xa9?'
p19
tp20
bg0
(g1
(I0
tp21
g3
tp22
Rp23
(I1
(I1
I1
tp24
g10
I00
S'\x9bl\x87@\xe9x\xc5\xbf'
p25
tp26
btp27
(F0.8010530654858901
F-11.628280096296463
F-167.22265105283606
tp28
I932
I429
tp29
.((cnumpy.core.multiarray
_reconstruct
p0
(cnumpy.matrixlib.defmatrix
matrix
p1
(I0
tp2
S'b'
p3
tp4
Rp5
(I1
(I1
I1
tp6
cnumpy
dtype
p7
(S'f8'
p8
I0
I1
tp9
Rp10
(I3
S'<'
p11
NNNI-1
I-1
I0
tp12
bI00
S'\x0e@\xa0z\x92\xb0\x9a?'
p13
tp14
bg0
(g1
(I0
tp15
g3
tp16
Rp17
(I1
(I1
I1
tp18
g10
I00
S'\x8fW\xbb\xd2\xa8\xd1\xa8?'
p19
tp20
bg0
(g1
(I0
tp21
g3
tp22
Rp23
(I1
(I1
I1
tp24
g10
I00
S'\xed\xe8\xae\x17\x100\xc5\xbf'
p25
tp26
btp27
(F0.8947948140605044
F-6.169171004665138
F-166.9754468203242
tp28
I1110
I434
tp29
.((cnumpy.core.multiarray
_reconstruct
p0
(cnumpy.matrixlib.defmatrix
matrix
p1
(I0
tp2
S'b'
p3
tp4
Rp5
(I1
(I1
I1
tp6
cnumpy
dtype
p7
(S'f8'
p8
I0
I1
tp9
Rp10
(I3
S'<'
p11
NNNI-1
I-1
I0
tp12
bI00
S'Z\xad\x1c\xaa\xca\xe2\x9b?'
p13
tp14
bg0
(g1
(I0
tp15
g3
tp16
Rp17
(I1
(I1
I1
tp18
g10
I00
S'8\x12\xbc\xce\xd0\xf4\xa8?'
p19
tp20
bg0
(g1
(I0
tp21
g3
tp22
Rp23
(I1
(I1
I1
tp24
g10
I00
S'?\xbah)L3\xc5\xbf'
p25
tp26
btp27
(F0.7903785008643643
F-6.581507934116629
F-166.94605419458588
tp28
I1110
I434
tp29
.((cnumpy.core.multiarray
_reconstruct
p0
(cnumpy.matrixlib.defmatrix
matrix
p1
(I0
tp2
S'b'
p3
tp4
Rp5
(I1
(I1
I1
tp6
cnumpy
dtype
p7
(S'f8'
p8
I0
I1
tp9
Rp10
(I3
S'<'
p11
NNNI-1
I-1
I0
tp12
bI00
S'\\\xcc\xeb(\xd9\xd9\xb4?'
p13
tp14
bg0
(g1
(I0
tp15
g3
tp16
Rp17
(I1
(I1
I1
tp18
g10
I00
S'\xdef\x9b\xf6\xf94\xb0?'
p19
tp20
bg0
(g1
(I0
tp21
g3
tp22
Rp23
(I1
(I1
I1
tp24
g10
I00
S'\x85\x07\x87\x96\xe2%\xc6\xbf'
p25
tp26
btp27
(F1.0073940988015406
F-22.79505897249371
F-165.38307608807037
tp28
I479
I505
tp29
.((cnumpy.core.multiarray
_reconstruct
p0
(cnumpy.matrixlib.defmatrix
matrix
p1
(I0
tp2
S'b'
p3
tp4
Rp5
(I1
(I1
I1
tp6
cnumpy
dtype
p7
(S'f8'
p8
I0
I1
tp9
Rp10
(I3
S'<'
p11
NNNI-1
I-1
I0
tp12
bI00
S'\x0cxW\xddU|\xb0?'
p13
tp14
bg0
(g1
(I0
tp15
g3
tp16
Rp17
(I1
(I1
I1
tp18
g10
I00
S'\x99\xe1E?EM\xaf?'
p19
tp20
bg0
(g1
(I0
tp21
g3
tp22
Rp23
(I1
(I1
I1
tp24
g10
I00
S'\x8de\x9e\xd8\x92\xef\xc5\xbf'
p25
tp26
btp27
(F1.0084823118387543
F-18.088907552747877
F-165.15209097426262
tp28
I660
I510
tp29
.((cnumpy.core.multiarray
_reconstruct
p0
(cnumpy.matrixlib.defmatrix
matrix
p1
(I0
tp2
S'b'
p3
tp4
Rp5
(I1
(I1
I1
tp6
cnumpy
dtype
p7
(S'f8'
p8
I0
I1
tp9
Rp10
(I3
S'<'
p11
NNNI-1
I-1
I0
tp12
bI00
S'\xf53\x0e:I\xca\xb0?'
p13
tp14
bg0
(g1
(I0
tp15
g3
tp16
Rp17
(I1
(I1
I1
tp18
g10
I00
S'\xd2\xae\xb2w2.\xaf?'
p19
tp20
bg0
(g1
(I0
tp21
g3
tp22
Rp23
(I1
(I1
I1
tp24
g10
I00
S'\n\x06\xf9\xe9`\xdf\xc5\xbf'
p25
tp26
btp27
(F0.9063948288376913
F-18.475113882278468
F-165.01988154951613
tp28
I660
I510
tp29
.((cnumpy.core.multiarray
_reconstruct
p0
(cnumpy.matrixlib.defmatrix
matrix
p1
(I0
tp2
S'b'
p3
tp4
Rp5
(I1
(I1
I1
tp6
cnumpy
dtype
p7
(S'f8'
p8
I0
I1
tp9
Rp10
(I3
S'<'
p11
NNNI-1
I-1
I0
tp12
bI00
S'\xb6t\xdbX<\xa1\xa9?'
p13
tp14
bg0
(g1
(I0
tp15
g3
tp16
Rp17
(I1
(I1
I1
tp18
g10
I00
S'\xbe\xde\xd5 \xf7\xf1\xad?'
p19
tp20
bg0
(g1
(I0
tp21
g3
tp22
Rp23
(I1
(I1
I1
tp24
g10
I00
S'\x98?\x19\xfc\x80\xa2\xc5\xbf'
p25
tp26
btp27
(F1.107771937258887
F-14.011876134073372
F-164.87704507114978
tp28
I841
I515
tp29
.((cnumpy.core.multiarray
_reconstruct
p0
(cnumpy.matrixlib.defmatrix
matrix
p1
(I0
tp2
S'b'
p3
tp4
Rp5
(I1
(I1
I1
tp6
cnumpy
dtype
p7
(S'f8'
p8
I0
I1
tp9
Rp10
(I3
S'<'
p11
NNNI-1
I-1
I0
tp12
bI00
S'F\x98\xea0\xf3q\xa9?'
p13
tp14
bg0
(g1
(I0
tp15
g3
tp16
Rp17
(I1
(I1
I1
tp18
g10
I00
S'\xc1\x95\xdajv{\xae?'
p19
tp20
bg0
(g1
(I0
tp21
g3
tp22
Rp23
(I1
(I1
I1
tp24
g10
I00
S'\xeczu\x9d\x88\x8e\xc5\xbf'
p25
tp26
btp27
(F0.8738102826754636
F-13.897270043669765
F-164.31084564306298
tp28
I841
I515
tp29
.((cnumpy.core.multiarray
_reconstruct
p0
(cnumpy.matrixlib.defmatrix
matrix
p1
(I0
tp2
S'b'
p3
tp4
Rp5
(I1
(I1
I1
tp6
cnumpy
dtype
p7
(S'f8'
p8
I0
I1
tp9
Rp10
(I3
S'<'
p11
NNNI-1
I-1
I0
tp12
bI00
S'\xae\xa9_O<\x0b\xa1?'
p13
tp14
bg0
(g1
(I0
tp15
g3
tp16
Rp17
(I1
(I1
I1
tp18
g10
I00
S'\xdb\xb9J*\x9f9\xad?'
p19
tp20
bg0
(g1
(I0
tp21
g3
tp22
Rp23
(I1
(I1
I1
tp24
g10
I00
S"\xa5'\xc9\xf4[W\xc5\xbf"
p25
tp26
btp27
(F1.0638687014747337
F-8.65604443056184
F-164.33594005659785
tp28
I1019
I520
tp29
.((cnumpy.core.multiarray
_reconstruct
p0
(cnumpy.matrixlib.defmatrix
matrix
p1
(I0
tp2
S'b'
p3
tp4
Rp5
(I1
(I1
I1
tp6
cnumpy
dtype
p7
(S'f8'
p8
I0
I1
tp9
Rp10
(I3
S'<'
p11
NNNI-1
I-1
I0
tp12
bI00
S'\x81\xdf\x96\xa3\xa3F\xa1?'
p13
tp14
bg0
(g1
(I0
tp15
g3
tp16
Rp17
(I1
(I1
I1
tp18
g10
I00
S'\x1e\xd8\xeb\x90\x1a=\xad?'
p19
tp20
bg0
(g1
(I0
tp21
g3
tp22
Rp23
(I1
(I1
I1
tp24
g10
I00
S'\x13S2\xbb\xc0X\xc5\xbf'
p25
tp26
btp27
(F1.0350203140162808
F-8.84795865886142
F-164.29928621051644
tp28
I1019
I520
tp29
.((cnumpy.core.multiarray
_reconstruct
p0
(cnumpy.matrixlib.defmatrix
matrix
p1
(I0
tp2
S'b'
p3
tp4
Rp5
(I1
(I1
I1
tp6
cnumpy
dtype
p7
(S'f8'
p8
I0
I1
tp9
Rp10
(I3
S'<'
p11
NNNI-1
I-1
I0
tp12
bI00
S'\x03\xcf\xe6\xda\xb7\xb0\x93?'
p13
tp14
bg0
(g1
(I0
tp15
g3
tp16
Rp17
(I1
(I1
I1
tp18
g10
I00
S'\x14\x1c\xefx&F\xac?'
p19
tp20
bg0
(g1
(I0
tp21
g3
tp22
Rp23
(I1
(I1
I1
tp24
g10
I00
S'|\x83\xab\x93)\n\xc5\xbf'
p25
tp26
btp27
(F0.9076580396042907
F-3.899740679592916
F-164.2174270220234
tp28
I1195
I524
tp29
.((cnumpy.core.multiarray
_reconstruct
p0
(cnumpy.matrixlib.defmatrix
matrix
p1
(I0
tp2
S'b'
p3
tp4
Rp5
(I1
(I1
I1
tp6
cnumpy
dtype
p7
(S'f8'
p8
I0
I1
tp9
Rp10
(I3
S'<'
p11
NNNI-1
I-1
I0
tp12
bI00
S'\x18\x97gu\xad\xeb\x92?'
p13
tp14
bg0
(g1
(I0
tp15
g3
tp16
Rp17
(I1
(I1
I1
tp18
g10
I00
S'\r\x9dT\xf6\x16A\xac?'
p19
tp20
bg0
(g1
(I0
tp21
g3
tp22
Rp23
(I1
(I1
I1
tp24
g10
I00
S'\xc6\xa4\x14\xe5b\x04\xc5\xbf'
p25
tp26
btp27
(F0.8482178454289777
F-3.7459056238019666
F-164.43874352705663
tp28
I1195
I524
tp29
.((cnumpy.core.multiarray
_reconstruct
p0
(cnumpy.matrixlib.defmatrix
matrix
p1
(I0
tp2
S'b'
p3
tp4
Rp5
(I1
(I1
I1
tp6
cnumpy
dtype
p7
(S'f8'
p8
I0
I1
tp9
Rp10
(I3
S'<'
p11
NNNI-1
I-1
I0
tp12
bI00
S'\x9c\x13\x1aa\x8b^\xb2?'
p13
tp14
bg0
(g1
(I0
tp15
g3
tp16
Rp17
(I1
(I1
I1
tp18
g10
I00
S'\xd3\x0b\xab/\xaa\xc9\xb1?'
p19
tp20
bg0
(g1
(I0
tp21
g3
tp22
Rp23
(I1
(I1
I1
tp24
g10
I00
S'O\x8a\xbe\x05\xe1\xfa\xc5\xbf'
p25
tp26
btp27
(F0.8544450190054959
F-20.24861556764699
F-163.00769064671098
tp28
I567
I597
tp29
.((cnumpy.core.multiarray
_reconstruct
p0
(cnumpy.matrixlib.defmatrix
matrix
p1
(I0
tp2
S'b'
p3
tp4
Rp5
(I1
(I1
I1
tp6
cnumpy
dtype
p7
(S'f8'
p8
I0
I1
tp9
Rp10
(I3
S'<'
p11
NNNI-1
I-1
I0
tp12
bI00
S'_&a\x9c\x17_\xb2?'
p13
tp14
bg0
(g1
(I0
tp15
g3
tp16
Rp17
(I1
(I1
I1
tp18
g10
I00
S'\xa5(\xa1Y\xb2\xcd\xb1?'
p19
tp20
bg0
(g1
(I0
tp21
g3
tp22
Rp23
(I1
(I1
I1
tp24
g10
I00
S'\xd7\x16\xa5\x1c\x82\xf3\xc5\xbf'
p25
tp26
btp27
(F0.8866538629772264
F-20.105757029660147
F-162.8383309768937
tp28
I567
I597
tp29
.((cnumpy.core.multiarray
_reconstruct
p0
(cnumpy.matrixlib.defmatrix
matrix
p1
(I0
tp2
S'b'
p3
tp4
Rp5
(I1
(I1
I1
tp6
cnumpy
dtype
p7
(S'f8'
p8
I0
I1
tp9
Rp10
(I3
S'<'
p11
NNNI-1
I-1
I0
tp12
bI00
S'%\x1e;P\xd2\xc8\xac?'
p13
tp14
bg0
(g1
(I0
tp15
g3
tp16
Rp17
(I1
(I1
I1
tp18
g10
I00
S': \xb9\x0c\xcbD\xb1?'
p19
tp20
bg0
(g1
(I0
tp21
g3
tp22
Rp23
(I1
(I1
I1
tp24
g10
I00
S'\xf6\xc3)D\xe7\xb9\xc5\xbf'
p25
tp26
btp27
(F1.2713133270470967
F-15.938315041261012
F-162.70702515673958
tp28
I749
I601
tp29
.((cnumpy.core.multiarray
_reconstruct
p0
(cnumpy.matrixlib.defmatrix
matrix
p1
(I0
tp2
S'b'
p3
tp4
Rp5
(I1
(I1
I1
tp6
cnumpy
dtype
p7
(S'f8'
p8
I0
I1
tp9
Rp10
(I3
S'<'
p11
NNNI-1
I-1
I0
tp12
bI00
S'\xef\xe6\xa3\x17w\xa6\xac?'
p13
tp14
bg0
(g1
(I0
tp15
g3
tp16
Rp17
(I1
(I1
I1
tp18
g10
I00
S'\xe6\x99.\x10\xabG\xb1?'
p19
tp20
bg0
(g1
(I0
tp21
g3
tp22
Rp23
(I1
(I1
I1
tp24
g10
I00
S'\xbc><6o\xb7\xc5\xbf'
p25
tp26
btp27
(F0.9709762512753436
F-15.7513185177529
F-162.69119167394535
tp28
I749
I601
tp29
.((cnumpy.core.multiarray
_reconstruct
p0
(cnumpy.matrixlib.defmatrix
matrix
p1
(I0
tp2
S'b'
p3
tp4
Rp5
(I1
(I1
I1
tp6
cnumpy
dtype
p7
(S'f8'
p8
I0
I1
tp9
Rp10
(I3
S'<'
p11
NNNI-1
I-1
I0
tp12
bI00
S'\x99E\x06\xa9\xd7\xcf\xa4?'
p13
tp14
bg0
(g1
(I0
tp15
g3
tp16
Rp17
(I1
(I1
I1
tp18
g10
I00
S'\xd3\x10\xf2g\x84\xda\xb0?'
p19
tp20
bg0
(g1
(I0
tp21
g3
tp22
Rp23
(I1
(I1
I1
tp24
g10
I00
S'e>\x05z/w\xc5\xbf'
p25
tp26
btp27
(F1.34413526045124
F-11.193298951258752
F-162.57801692038058
tp28
I928
I606
tp29
.((cnumpy.core.multiarray
_reconstruct
p0
(cnumpy.matrixlib.defmatrix
matrix
p1
(I0
tp2
S'b'
p3
tp4
Rp5
(I1
(I1
I1
tp6
cnumpy
dtype
p7
(S'f8'
p8
I0
I1
tp9
Rp10
(I3
S'<'
p11
NNNI-1
I-1
I0
tp12
bI00
S'q.1\x9a\xda\xf8\xa4?'
p13
tp14
bg0
(g1
(I0
tp15
g3
tp16
Rp17
(I1
(I1
I1
tp18
g10
I00
S'j\xdf\x9dB\x01\xc1\xb0?'
p19
tp20
bg0
(g1
(I0
tp21
g3
tp22
Rp23
(I1
(I1
I1
tp24
g10
I00
S'\xf2\x16v\xb6_k\xc5\xbf'
p25
tp26
btp27
(F1.0631193275477273
F-11.226891444582533
F-162.57764163031513
tp28
I928
I606
tp29
.((cnumpy.core.multiarray
_reconstruct
p0
(cnumpy.matrixlib.defmatrix
matrix
p1
(I0
tp2
S'b'
p3
tp4
Rp5
(I1
(I1
I1
tp6
cnumpy
dtype
p7
(S'f8'
p8
I0
I1
tp9
Rp10
(I3
S'<'
p11
NNNI-1
I-1
I0
tp12
bI00
S'jBo\x89#\x0c\x9a?'
p13
tp14
bg0
(g1
(I0
tp15
g3
tp16
Rp17
(I1
(I1
I1
tp18
g10
I00
S'w\xed\xb4,^A\xb0?'
p19
tp20
bg0
(g1
(I0
tp21
g3
tp22
Rp23
(I1
(I1
I1
tp24
g10
I00
S'H\x82$\x11\xc06\xc5\xbf'
p25
tp26
btp27
(F1.3148488323529155
F-6.342222077901848
F-162.73052447654499
tp28
I1105
I610
tp29
.((cnumpy.core.multiarray
_reconstruct
p0
(cnumpy.matrixlib.defmatrix
matrix
p1
(I0
tp2
S'b'
p3
tp4
Rp5
(I1
(I1
I1
tp6
cnumpy
dtype
p7
(S'f8'
p8
I0
I1
tp9
Rp10
(I3
S'<'
p11
NNNI-1
I-1
I0
tp12
bI00
S'p{\xaabZ\xa0\x9a?'
p13
tp14
bg0
(g1
(I0
tp15
g3
tp16
Rp17
(I1
(I1
I1
tp18
g10
I00
S'\x8a\x8br\xa2\x92\x1f\xb0?'
p19
tp20
bg0
(g1
(I0
tp21
g3
tp22
Rp23
(I1
(I1
I1
tp24
g10
I00
S'\xf6\x93\x96y\x1d6\xc5\xbf'
p25
tp26
btp27
(F1.140114652199578
F-6.365142712390458
F-162.77434047469322
tp28
I1105
I610
tp29
.((cnumpy.core.multiarray
_reconstruct
p0
(cnumpy.matrixlib.defmatrix
matrix
p1
(I0
tp2
S'b'
p3
tp4
Rp5
(I1
(I1
I1
tp6
cnumpy
dtype
p7
(S'f8'
p8
I0
I1
tp9
Rp10
(I3
S'<'
p11
NNNI-1
I-1
I0
tp12
bI00
S'\xb5!\x1e\xad\x143\xb4?'
p13
tp14
bg0
(g1
(I0
tp15
g3
tp16
Rp17
(I1
(I1
I1
tp18
g10
I00
S'\x8c\x80\xe8/\xa0\xe9\xb3?'
p19
tp20
bg0
(g1
(I0
tp21
g3
tp22
Rp23
(I1
(I1
I1
tp24
g10
I00
S'Y)NC\xe70\xc6\xbf'
p25
tp26
btp27
(F1.3433164592348883
F-22.15339903007542
F-161.55357647733044
tp28
I473
I684
tp29
.((cnumpy.core.multiarray
_reconstruct
p0
(cnumpy.matrixlib.defmatrix
matrix
p1
(I0
tp2
S'b'
p3
tp4
Rp5
(I1
(I1
I1
tp6
cnumpy
dtype
p7
(S'f8'
p8
I0
I1
tp9
Rp10
(I3
S'<'
p11
NNNI-1
I-1
I0
tp12
bI00
S'\xdfX\xc6m~\x17\xb4?'
p13
tp14
bg0
(g1
(I0
tp15
g3
tp16
Rp17
(I1
(I1
I1
tp18
g10
I00
S'\x01{\x07\x13T\xec\xb3?'
p19
tp20
bg0
(g1
(I0
tp21
g3
tp22
Rp23
(I1
(I1
I1
tp24
g10
I00
S'\x8fX\xb2\xc0\x9d3\xc6\xbf'
p25
tp26
btp27
(F1.259897717217112
F-21.933161681512757
F-161.51751032940734
tp28
I473
I684
tp29
.((cnumpy.core.multiarray
_reconstruct
p0
(cnumpy.matrixlib.defmatrix
matrix
p1
(I0
tp2
S'b'
p3
tp4
Rp5
(I1
(I1
I1
tp6
cnumpy
dtype
p7
(S'f8'
p8
I0
I1
tp9
Rp10
(I3
S'<'
p11
NNNI-1
I-1
I0
tp12
bI00
S'\xb2CJ\xd5S:\xb0?'
p13
tp14
bg0
(g1
(I0
tp15
g3
tp16
Rp17
(I1
(I1
I1
tp18
g10
I00
S'\xfa\xd4^\xcb\xfcU\xb3?'
p19
tp20
bg0
(g1
(I0
tp21
g3
tp22
Rp23
(I1
(I1
I1
tp24
g10
I00
S'q\x9aNz\xec\xd8\xc5\xbf'
p25
tp26
btp27
(F1.4622521793264815
F-18.03534191060494
F-161.2726002282348
tp28
I656
I689
tp29
.((cnumpy.core.multiarray
_reconstruct
p0
(cnumpy.matrixlib.defmatrix
matrix
p1
(I0
tp2
S'b'
p3
tp4
Rp5
(I1
(I1
I1
tp6
cnumpy
dtype
p7
(S'f8'
p8
I0
I1
tp9
Rp10
(I3
S'<'
p11
NNNI-1
I-1
I0
tp12
bI00
S'\xba\x89Gk\xc65\xb0?'
p13
tp14
bg0
(g1
(I0
tp15
g3
tp16
Rp17
(I1
(I1
I1
tp18
g10
I00
S'lzWP\xc5\xb0\xb3?'
p19
tp20
bg0
(g1
(I0
tp21
g3
tp22
Rp23
(I1
(I1
I1
tp24
g10
I00
S'\x08\xc5\xabD\x07\xd2\xc5\xbf'
p25
tp26
btp27
(F1.318279929327686
F-18.040489056196268
F-160.97821914996004
tp28
I656
I689
tp29
.((cnumpy.core.multiarray
_reconstruct
p0
(cnumpy.matrixlib.defmatrix
matrix
p1
(I0
tp2
S'b'
p3
tp4
Rp5
(I1
(I1
I1
tp6
cnumpy
dtype
p7
(S'f8'
p8
I0
I1
tp9
Rp10
(I3
S'<'
p11
NNNI-1
I-1
I0
tp12
bI00
S'\x98H\x1eG\x86\x07\xa9?'
p13
tp14
bg0
(g1
(I0
tp15
g3
tp16
Rp17
(I1
(I1
I1
tp18
g10
I00
S'\x85c\xf3\\\xf5\x0f\xb3?'
p19
tp20
bg0
(g1
(I0
tp21
g3
tp22
Rp23
(I1
(I1
I1
tp24
g10
I00
S'\xdd\xaf\xd1\xfb\xf6\x8b\xc5\xbf'
p25
tp26
btp27
(F1.107361388234414
F-13.86178300175291
F-160.79581690364256
tp28
I836
I692
tp29
.((cnumpy.core.multiarray
_reconstruct
p0
(cnumpy.matrixlib.defmatrix
matrix
p1
(I0
tp2
S'b'
p3
tp4
Rp5
(I1
(I1
I1
tp6
cnumpy
dtype
p7
(S'f8'
p8
I0
I1
tp9
Rp10
(I3
S'<'
p11
NNNI-1
I-1
I0
tp12
bI00
S'|\xbf\xe9\\\xd0\xb2\xa8?'
p13
tp14
bg0
(g1
(I0
tp15
g3
tp16
Rp17
(I1
(I1
I1
tp18
g10
I00
S'\x1a\xe9%\xc3{\xf6\xb2?'
p19
tp20
bg0
(g1
(I0
tp21
g3
tp22
Rp23
(I1
(I1
I1
tp24
g10
I00
S'3\xa7\xd6\\\\\x8a\xc5\xbf'
p25
tp26
btp27
(F1.1723056340405842
F-13.746529281173368
F-160.85322871501765
tp28
I836
I692
tp29
.((cnumpy.core.multiarray
_reconstruct
p0
(cnumpy.matrixlib.defmatrix
matrix
p1
(I0
tp2
S'b'
p3
tp4
Rp5
(I1
(I1
I1
tp6
cnumpy
dtype
p7
(S'f8'
p8
I0
I1
tp9
Rp10
(I3
S'<'
p11
NNNI-1
I-1
I0
tp12
bI00
S'\xcb\x80\xc4\xdc\x05\xcc\xa0?'
p13
tp14
bg0
(g1
(I0
tp15
g3
tp16
Rp17
(I1
(I1
I1
tp18
g10
I00
S'+\xbd\x99=f\xab\xb2?'
p19
tp20
bg0
(g1
(I0
tp21
g3
tp22
Rp23
(I1
(I1
I1
tp24
g10
I00
S'TS!\x93/C\xc5\xbf'
p25
tp26
btp27
(F0.9571438452200571
F-8.814934380872545
F-160.12378849901586
tp28
I1014
I696
tp29
.((cnumpy.core.multiarray
_reconstruct
p0
(cnumpy.matrixlib.defmatrix
matrix
p1
(I0
tp2
S'b'
p3
tp4
Rp5
(I1
(I1
I1
tp6
cnumpy
dtype
p7
(S'f8'
p8
I0
I1
tp9
Rp10
(I3
S'<'
p11
NNNI-1
I-1
I0
tp12
bI00
S'\x10\xcd\x07\x8ci[\xa0?'
p13
tp14
bg0
(g1
(I0
tp15
g3
tp16
Rp17
(I1
(I1
I1
tp18
g10
I00
S'\x11\x10&\xfa\x9f\x80\xb2?'
p19
tp20
bg0
(g1
(I0
tp21
g3
tp22
Rp23
(I1
(I1
I1
tp24
g10
I00
S'x\xf6^\x89mD\xc5\xbf'
p25
tp26
btp27
(F1.010459204336141
F-8.622929596982736
F-160.50448495279326
tp28
I1014
I696
tp29
.((cnumpy.core.multiarray
_reconstruct
p0
(cnumpy.matrixlib.defmatrix
matrix
p1
(I0
tp2
S'b'
p3
tp4
Rp5
(I1
(I1
I1
tp6
cnumpy
dtype
p7
(S'f8'
p8
I0
I1
tp9
Rp10
(I3
S'<'
p11
NNNI-1
I-1
I0
tp12
bI00
S'lD\xb5\x8b\x9e\xdf\x90?'
p13
tp14
bg0
(g1
(I0
tp15
g3
tp16
Rp17
(I1
(I1
I1
tp18
g10
I00
S'\nKF\xaa\x08&\xb2?'
p19
tp20
bg0
(g1
(I0
tp21
g3
tp22
Rp23
(I1
(I1
I1
tp24
g10
I00
S'mIM>\xfb\x02\xc5\xbf'
p25
tp26
btp27
(F1.2770352397356248
F-3.52065712216004
F-160.21047325735023
tp28
I1190
I700
tp29
.((cnumpy.core.multiarray
_reconstruct
p0
(cnumpy.matrixlib.defmatrix
matrix
p1
(I0
tp2
S'b'
p3
tp4
Rp5
(I1
(I1
I1
tp6
cnumpy
dtype
p7
(S'f8'
p8
I0
I1
tp9
Rp10
(I3
S'<'
p11
NNNI-1
I-1
I0
tp12
bI00
S'*\x10\x99\xe7\x15\x9b\x91?'
p13
tp14
bg0
(g1
(I0
tp15
g3
tp16
Rp17
(I1
(I1
I1
tp18
g10
I00
S'\xc0W\xef\x91\r%\xb2?'
p19
tp20
bg0
(g1
(I0
tp21
g3
tp22
Rp23
(I1
(I1
I1
tp24
g10
I00
S'(\xbfed\xdf\x08\xc5\xbf'
p25
tp26
btp27
(F1.1935427742339342
F-3.708864145935793
F-160.33702078319476
tp28
I1190
I700
tp29
.((cnumpy.core.multiarray
_reconstruct
p0
(cnumpy.matrixlib.defmatrix
matrix
p1
(I0
tp2
S'b'
p3
tp4
Rp5
(I1
(I1
I1
tp6
cnumpy
dtype
p7
(S'f8'
p8
I0
I1
tp9
Rp10
(I3
S'<'
p11
NNNI-1
I-1
I0
tp12
bI00
S'v\xed\xf5\xd9=\xfb\xb1?'
p13
tp14
bg0
(g1
(I0
tp15
g3
tp16
Rp17
(I1
(I1
I1
tp18
g10
I00
S'{\xb9\x83}\xfa\xea\xb5?'
p19
tp20
bg0
(g1
(I0
tp21
g3
tp22
Rp23
(I1
(I1
I1
tp24
g10
I00
S'\x9f[\x14<\x9d\n\xc6\xbf'
p25
tp26
btp27
(F1.4620662706570806
F-20.131628239331732
F-159.3366759683617
tp28
I563
I776
tp29
.((cnumpy.core.multiarray
_reconstruct
p0
(cnumpy.matrixlib.defmatrix
matrix
p1
(I0
tp2
S'b'
p3
tp4
Rp5
(I1
(I1
I1
tp6
cnumpy
dtype
p7
(S'f8'
p8
I0
I1
tp9
Rp10
(I3
S'<'
p11
NNNI-1
I-1
I0
tp12
bI00
S'~Y\xf9\x99h\xe9\xb1?'
p13
tp14
bg0
(g1
(I0
tp15
g3
tp16
Rp17
(I1
(I1
I1
tp18
g10
I00
S'\x1cDK\x85\x1e\xcd\xb5?'
p19
tp20
bg0
(g1
(I0
tp21
g3
tp22
Rp23
(I1
(I1
I1
tp24
g10
I00
S'o\x9a\x8d\x84\xd4\x01\xc6\xbf'
p25
tp26
btp27
(F1.3684162734268734
F-19.898100230509982
F-159.34571423386555
tp28
I563
I776
tp29
.((cnumpy.core.multiarray
_reconstruct
p0
(cnumpy.matrixlib.defmatrix
matrix
p1
(I0
tp2
S'b'
p3
tp4
Rp5
(I1
(I1
I1
tp6
cnumpy
dtype
p7
(S'f8'
p8
I0
I1
tp9
Rp10
(I3
S'<'
p11
NNNI-1
I-1
I0
tp12
bI00
S' \xff\xb7\xbe\xfb\r\xac?'
p13
tp14
bg0
(g1
(I0
tp15
g3
tp16
Rp17
(I1
(I1
I1
tp18
g10
I00
S'5\n\xb3B-E\xb5?'
p19
tp20
bg0
(g1
(I0
tp21
g3
tp22
Rp23
(I1
(I1
I1
tp24
g10
I00
S'\xc1,\x16\x9eQ\xa9\xc5\xbf'
p25
tp26
btp27
(F1.320636537321808
F-15.721104424083846
F-158.92460212937115
tp28
I744
I780
tp29
.((cnumpy.core.multiarray
_reconstruct
p0
(cnumpy.matrixlib.defmatrix
matrix
p1
(I0
tp2
S'b'
p3
tp4
Rp5
(I1
(I1
I1
tp6
cnumpy
dtype
p7
(S'f8'
p8
I0
I1
tp9
Rp10
(I3
S'<'
p11
NNNI-1
I-1
I0
tp12
bI00
S'g\x97\xe9\xe5RQ\xac?'
p13
tp14
bg0
(g1
(I0
tp15
g3
tp16
Rp17
(I1
(I1
I1
tp18
g10
I00
S'\xae\x03\xab\xa7\xbe;\xb5?'
p19
tp20
bg0
(g1
(I0
tp21
g3
tp22
Rp23
(I1
(I1
I1
tp24
g10
I00
S'L\xda\x1aBe\xb5\xc5\xbf'
p25
tp26
btp27
(F1.2434395742730375
F-15.847670179609171
F-158.8067533217242
tp28
I744
I780
tp29
.((cnumpy.core.multiarray
_reconstruct
p0
(cnumpy.matrixlib.defmatrix
matrix
p1
(I0
tp2
S'b'
p3
tp4
Rp5
(I1
(I1
I1
tp6
cnumpy
dtype
p7
(S'f8'
p8
I0
I1
tp9
Rp10
(I3
S'<'
p11
NNNI-1
I-1
I0
tp12
bI00
S'\x1f\xe0\x97\xcc\x1b2\xa4?'
p13
tp14
bg0
(g1
(I0
tp15
g3
tp16
Rp17
(I1
(I1
I1
tp18
g10
I00
S'\xe5qp\xb1\xa2\x9f\xb4?'
p19
tp20
bg0
(g1
(I0
tp21
g3
tp22
Rp23
(I1
(I1
I1
tp24
g10
I00
S'-=d\xc9\tw\xc5\xbf'
p25
tp26
btp27
(F1.188539839214619
F-10.96541674212436
F-158.71474124986662
tp28
I923
I783
tp29
.((cnumpy.core.multiarray
_reconstruct
p0
(cnumpy.matrixlib.defmatrix
matrix
p1
(I0
tp2
S'b'
p3
tp4
Rp5
(I1
(I1
I1
tp6
cnumpy
dtype
p7
(S'f8'
p8
I0
I1
tp9
Rp10
(I3
S'<'
p11
NNNI-1
I-1
I0
tp12
bI00
S'XlNN\xc7$\xa4?'
p13
tp14
bg0
(g1
(I0
tp15
g3
tp16
Rp17
(I1
(I1
I1
tp18
g10
I00
S'\xa1\xacq\r\xba\xcf\xb4?'
p19
tp20
bg0
(g1
(I0
tp21
g3
tp22
Rp23
(I1
(I1
I1
tp24
g10
I00
S'\x1b\xf4JM\x9cd\xc5\xbf'
p25
tp26
btp27
(F1.4267091051228438
F-11.019431608339513
F-158.4928212226524
tp28
I923
I783
tp29
.((cnumpy.core.multiarray
_reconstruct
p0
(cnumpy.matrixlib.defmatrix
matrix
p1
(I0
tp2
S'b'
p3
tp4
Rp5
(I1
(I1
I1
tp6
cnumpy
dtype
p7
(S'f8'
p8
I0
I1
tp9
Rp10
(I3
S'<'
p11
NNNI-1
I-1
I0
tp12
bI00
S'\xbeJg\xdf\xe5?\x98?'
p13
tp14
bg0
(g1
(I0
tp15
g3
tp16
Rp17
(I1
(I1
I1
tp18
g10
I00
S'8\xbe\xeb+\xb16\xb4?'
p19
tp20
bg0
(g1
(I0
tp21
g3
tp22
Rp23
(I1
(I1
I1
tp24
g10
I00
S'\x14\xf7\xffk\x93$\xc5\xbf'
p25
tp26
btp27
(F1.54316848921583
F-5.828053990007038
F-158.27617366522665
tp28
I1100
I786
tp29
.((cnumpy.core.multiarray
_reconstruct
p0
(cnumpy.matrixlib.defmatrix
matrix
p1
(I0
tp2
S'b'
p3
tp4
Rp5
(I1
(I1
I1
tp6
cnumpy
dtype
p7
(S'f8'
p8
I0
I1
tp9
Rp10
(I3
S'<'
p11
NNNI-1
I-1
I0
tp12
bI00
S'u_\x15\xb5}O\x98?'
p13
tp14
bg0
(g1
(I0
tp15
g3
tp16
Rp17
(I1
(I1
I1
tp18
g10
I00
S'\xfbB\x9a\xf2\xe6!\xb4?'
p19
tp20
bg0
(g1
(I0
tp21
g3
tp22
Rp23
(I1
(I1
I1
tp24
g10
I00
S'\xea\xc2\xc8\xe1\xd0.\xc5\xbf'
p25
tp26
btp27
(F1.609199110994601
F-5.739330155939578
F-158.34281195329578
tp28
I1100
I786
tp29
.((cnumpy.core.multiarray
_reconstruct
p0
(cnumpy.matrixlib.defmatrix
matrix
p1
(I0
tp2
S'b'
p3
tp4
Rp5
(I1
(I1
I1
tp6
cnumpy
dtype
p7
(S'f8'
p8
I0
I1
tp9
Rp10
(I3
S'<'
p11
NNNI-1
I-1
I0
tp12
bI00
S'\xfe\x1b\x85z;\x9d\xb3?'
p13
tp14
bg0
(g1
(I0
tp15
g3
tp16
Rp17
(I1
(I1
I1
tp18
g10
I00
S'y\x1f\x89f\x8d#\xb8?'
p19
tp20
bg0
(g1
(I0
tp21
g3
tp22
Rp23
(I1
(I1
I1
tp24
g10
I00
S'(\xc5xL=\x1d\xc6\xbf'
p25
tp26
btp27
(F1.4422591053170934
F-21.78168739988734
F-157.49150601614957
tp28
I468
I865
tp29
.((cnumpy.core.multiarray
_reconstruct
p0
(cnumpy.matrixlib.defmatrix
matrix
p1
(I0
tp2
S'b'
p3
tp4
Rp5
(I1
(I1
I1
tp6
cnumpy
dtype
p7
(S'f8'
p8
I0
I1
tp9
Rp10
(I3
S'<'
p11
NNNI-1
I-1
I0
tp12
bI00
S'\x08a\xcd\xeb\x1d\xd8\xb3?'
p13
tp14
bg0
(g1
(I0
tp15
g3
tp16
Rp17
(I1
(I1
I1
tp18
g10
I00
S'\x7f\x10\xa8\xa2\xfa\xeb\xb7?'
p19
tp20
bg0
(g1
(I0
tp21
g3
tp22
Rp23
(I1
(I1
I1
tp24
g10
I00
S':*?Y\x80%\xc6\xbf'
p25
tp26
btp27
(F1.4524945530909683
F-21.876386684609844
F-157.56835050908117
tp28
I468
I865
tp29
.((cnumpy.core.multiarray
_reconstruct
p0
(cnumpy.matrixlib.defmatrix
matrix
p1
(I0
tp2
S'b'
p3
tp4
Rp5
(I1
(I1
I1
tp6
cnumpy
dtype
p7
(S'f8'
p8
I0
I1
tp9
Rp10
(I3
S'<'
p11
NNNI-1
I-1
I0
tp12
bI00
S'\x94\x84c\xe6\xf5\xa2\xaf?'
p13
tp14
bg0
(g1
(I0
tp15
g3
tp16
Rp17
(I1
(I1
I1
tp18
g10
I00
S'\x12\x02\xa98jd\xb7?'
p19
tp20
bg0
(g1
(I0
tp21
g3
tp22
Rp23
(I1
(I1
I1
tp24
g10
I00
S'J\x03X\x17\x04\xe5\xc5\xbf'
p25
tp26
btp27
(F1.6137614996990683
F-17.68124308262806
F-157.00105287036095
tp28
I651
I868
tp29
.((cnumpy.core.multiarray
_reconstruct
p0
(cnumpy.matrixlib.defmatrix
matrix
p1
(I0
tp2
S'b'
p3
tp4
Rp5
(I1
(I1
I1
tp6
cnumpy
dtype
p7
(S'f8'
p8
I0
I1
tp9
Rp10
(I3
S'<'
p11
NNNI-1
I-1
I0
tp12
bI00
S'Z\x00\xdf\xb1\xe5\x00\xb0?'
p13
tp14
bg0
(g1
(I0
tp15
g3
tp16
Rp17
(I1
(I1
I1
tp18
g10
I00
S'8\x8b-a\xe5i\xb7?'
p19
tp20
bg0
(g1
(I0
tp21
g3
tp22
Rp23
(I1
(I1
I1
tp24
g10
I00
S'<\xeb\x03\xc3M\xed\xc5\xbf'
p25
tp26
btp27
(F1.6069389187509437
F-17.696787746144818
F-156.9125631895812
tp28
I651
I868
tp29
.((cnumpy.core.multiarray
_reconstruct
p0
(cnumpy.matrixlib.defmatrix
matrix
p1
(I0
tp2
S'b'
p3
tp4
Rp5
(I1
(I1
I1
tp6
cnumpy
dtype
p7
(S'f8'
p8
I0
I1
tp9
Rp10
(I3
S'<'
p11
NNNI-1
I-1
I0
tp12
bI00
S'\xa1\xcf\xc5\xce!\xf7\xa7?'
p13
tp14
bg0
(g1
(I0
tp15
g3
tp16
Rp17
(I1
(I1
I1
tp18
g10
I00
S'X\xd2V\xd8\xc0\xed\xb6?'
p19
tp20
bg0
(g1
(I0
tp21
g3
tp22
Rp23
(I1
(I1
I1
tp24
g10
I00
S'\xd9X J\x17\x86\xc5\xbf'
p25
tp26
btp27
(F1.7271488980594878
F-13.114395632172608
F-156.16551101945475
tp28
I831
I871
tp29
.((cnumpy.core.multiarray
_reconstruct
p0
(cnumpy.matrixlib.defmatrix
matrix
p1
(I0
tp2
S'b'
p3
tp4
Rp5
(I1
(I1
I1
tp6
cnumpy
dtype
p7
(S'f8'
p8
I0
I1
tp9
Rp10
(I3
S'<'
p11
NNNI-1
I-1
I0
tp12
bI00
S'\x1e$v&\x9d\xc9\xa7?'
p13
tp14
bg0
(g1
(I0
tp15
g3
tp16
Rp17
(I1
(I1
I1
tp18
g10
I00
S'\xc7\xb8\x18\x93~\xcb\xb6?'
p19
tp20
bg0
(g1
(I0
tp21
g3
tp22
Rp23
(I1
(I1
I1
tp24
g10
I00
S'~u\xe1\xd0\x81\x9e\xc5\xbf'
p25
tp26
btp27
(F1.5820680400252898
F-13.101457865095542
F-156.64464530652904
tp28
I831
I871
tp29
.((cnumpy.core.multiarray
_reconstruct
p0
(cnumpy.matrixlib.defmatrix
matrix
p1
(I0
tp2
S'b'
p3
tp4
Rp5
(I1
(I1
I1
tp6
cnumpy
dtype
p7
(S'f8'
p8
I0
I1
tp9
Rp10
(I3
S'<'
p11
NNNI-1
I-1
I0
tp12
bI00
S'\xb6\x12\x95P\xd4\x02\xa0?'
p13
tp14
bg0
(g1
(I0
tp15
g3
tp16
Rp17
(I1
(I1
I1
tp18
g10
I00
S':\xa3\xa7{b{\xb6?'
p19
tp20
bg0
(g1
(I0
tp21
g3
tp22
Rp23
(I1
(I1
I1
tp24
g10
I00
S'^\xe2F/\xd5?\xc5\xbf'
p25
tp26
btp27
(F1.616113782841467
F-8.344986239409877
F-156.07116923808385
tp28
I1010
I874
tp29
.((cnumpy.core.multiarray
_reconstruct
p0
(cnumpy.matrixlib.defmatrix
matrix
p1
(I0
tp2
S'b'
p3
tp4
Rp5
(I1
(I1
I1
tp6
cnumpy
dtype
p7
(S'f8'
p8
I0
I1
tp9
Rp10
(I3
S'<'
p11
NNNI-1
I-1
I0
tp12
bI00
S'~%\xb4\x95\xffc\xa0?'
p13
tp14
bg0
(g1
(I0
tp15
g3
tp16
Rp17
(I1
(I1
I1
tp18
g10
I00
S',\xcc\xfcT\xc3a\xb6?'
p19
tp20
bg0
(g1
(I0
tp21
g3
tp22
Rp23
(I1
(I1
I1
tp24
g10
I00
S'\xeb\xb5\xb7\xfa\x9eS\xc5\xbf'
p25
tp26
btp27
(F1.4531111963745398
F-8.60269621908777
F-156.27980730864863
tp28
I1010
I874
tp29
.((cnumpy.core.multiarray
_reconstruct
p0
(cnumpy.matrixlib.defmatrix
matrix
p1
(I0
tp2
S'b'
p3
tp4
Rp5
(I1
(I1
I1
tp6
cnumpy
dtype
p7
(S'f8'
p8
I0
I1
tp9
Rp10
(I3
S'<'
p11
NNNI-1
I-1
I0
tp12
bI00
S"\xc7'\xf5\x1d\x99\xcc\x90?"
p13
tp14
bg0
(g1
(I0
tp15
g3
tp16
Rp17
(I1
(I1
I1
tp18
g10
I00
S'\xd8~\xf1`F\x15\xb6?'
p19
tp20
bg0
(g1
(I0
tp21
g3
tp22
Rp23
(I1
(I1
I1
tp24
g10
I00
S'Dgp\xc0\xd6\x1c\xc5\xbf'
p25
tp26
btp27
(F1.720954198808236
F-3.2980808210559305
F-155.78769349200124
tp28
I1186
I877
tp29
.((cnumpy.core.multiarray
_reconstruct
p0
(cnumpy.matrixlib.defmatrix
matrix
p1
(I0
tp2
S'b'
p3
tp4
Rp5
(I1
(I1
I1
tp6
cnumpy
dtype
p7
(S'f8'
p8
I0
I1
tp9
Rp10
(I3
S'<'
p11
NNNI-1
I-1
I0
tp12
bI00
S'\xb6\xeceYK8\x90?'
p13
tp14
bg0
(g1
(I0
tp15
g3
tp16
Rp17
(I1
(I1
I1
tp18
g10
I00
S'K\x7f\x94\x8a\x0e\xe7\xb5?'
p19
tp20
bg0
(g1
(I0
tp21
g3
tp22
Rp23
(I1
(I1
I1
tp24
g10
I00
S'\x82\xf8\xa6S\xfe\t\xc5\xbf'
p25
tp26
btp27
(F1.3453046158440605
F-3.046584638879022
F-155.80583816284775
tp28
I1186
I877
tp29
.