(((cnumpy.core.multiarray
_reconstruct
p0
(cnumpy.matrixlib.defmatrix
matrix
p1
(I0
tp2
S'b'
p3
tp4
Rp5
(I1
(I1
I1
tp6
cnumpy
dtype
p7
(S'f8'
p8
I0
I1
tp9
Rp10
(I3
S'<'
p11
NNNI-1
I-1
I0
tp12
bI00
S"7\x8f\x18'-\x98F\xbf"
p13
tp14
bg0
(g1
(I0
tp15
g3
tp16
Rp17
(I1
(I1
I1
tp18
g10
I00
S'@\xe3\xa7\xd7\x94t\xae?'
p19
tp20
bg0
(g1
(I0
tp21
g3
tp22
Rp23
(I1
(I1
I1
tp24
g10
I00
S'\xd9\x80c\x90\xef\xa4\xc0\xbf'
p25
tp26
btp27
(F1.0300925920871795
F2.3798822414498404
F-158.33461170406747
tp28
I970
I1
tp29
((g0
(g1
(I0
tp30
g3
tp31
Rp32
(I1
(I1
I1
tp33
g10
I00
S'oC\x0c\xa4\xff\x87\x8e\xbf'
p34
tp35
bg0
(g1
(I0
tp36
g3
tp37
Rp38
(I1
(I1
I1
tp39
g10
I00
S'"e\xffD\xb4\x8e\xae?'
p40
tp41
bg0
(g1
(I0
tp42
g3
tp43
Rp44
(I1
(I1
I1
tp45
g10
I00
S'\x94\xf8d>i\xad\xb9\xbf'
p46
tp47
btp48
(F178.7771875870764
F-18.243342141371386
F158.84244511968592
tp49
I970
I1
tp50
tp51
.(((cnumpy.core.multiarray
_reconstruct
p0
(cnumpy.matrixlib.defmatrix
matrix
p1
(I0
tp2
S'b'
p3
tp4
Rp5
(I1
(I1
I1
tp6
cnumpy
dtype
p7
(S'f8'
p8
I0
I1
tp9
Rp10
(I3
S'<'
p11
NNNI-1
I-1
I0
tp12
bI00
S'\xe0m\x87\x13:\xbfG\xbf'
p13
tp14
bg0
(g1
(I0
tp15
g3
tp16
Rp17
(I1
(I1
I1
tp18
g10
I00
S'j\xf8\xda\xce\xa6t\xae?'
p19
tp20
bg0
(g1
(I0
tp21
g3
tp22
Rp23
(I1
(I1
I1
tp24
g10
I00
S'4\t\xf9\xcf\xe3\xa4\xc0\xbf'
p25
tp26
btp27
(F1.096501300058917
F2.502073389143886
F-160.19345036251306
tp28
I997
I1
tp29
((g0
(g1
(I0
tp30
g3
tp31
Rp32
(I1
(I1
I1
tp33
g10
I00
S'\xd3$5\x99G\xf4\x8e\xbf'
p34
tp35
bg0
(g1
(I0
tp36
g3
tp37
Rp38
(I1
(I1
I1
tp39
g10
I00
S'\xbe\x19(\x07\xbc\x8f\xae?'
p40
tp41
bg0
(g1
(I0
tp42
g3
tp43
Rp44
(I1
(I1
I1
tp45
g10
I00
S'\x9d\xc5=\x99\xf5\xa8\xb9\xbf'
p46
tp47
btp48
(F179.51516425699432
F-19.397036670603324
F160.21618873961418
tp49
I997
I1
tp50
tp51
.(((cnumpy.core.multiarray
_reconstruct
p0
(cnumpy.matrixlib.defmatrix
matrix
p1
(I0
tp2
S'b'
p3
tp4
Rp5
(I1
(I1
I1
tp6
cnumpy
dtype
p7
(S'f8'
p8
I0
I1
tp9
Rp10
(I3
S'<'
p11
NNNI-1
I-1
I0
tp12
bI00
S'\x0e\xf7/UI\xf1G\xbf'
p13
tp14
bg0
(g1
(I0
tp15
g3
tp16
Rp17
(I1
(I1
I1
tp18
g10
I00
S'\x86cy\x0f-u\xae?'
p19
tp20
bg0
(g1
(I0
tp21
g3
tp22
Rp23
(I1
(I1
I1
tp24
g10
I00
S'\xa8GX6\xd2\xa4\xc0\xbf'
p25
tp26
btp27
(F1.0987052754235043
F2.5359502228818265
F-160.15145261824534
tp28
I1580
I2
tp29
((g0
(g1
(I0
tp30
g3
tp31
Rp32
(I1
(I1
I1
tp33
g10
I00
S'iA3\xaf\xc7\xf7\x8e\xbf'
p34
tp35
bg0
(g1
(I0
tp36
g3
tp37
Rp38
(I1
(I1
I1
tp39
g10
I00
S'\x08\x03J\xd7&\x90\xae?'
p40
tp41
bg0
(g1
(I0
tp42
g3
tp43
Rp44
(I1
(I1
I1
tp45
g10
I00
S'\xfb\xb5\xeb\xfc*\xa9\xb9\xbf'
p46
tp47
btp48
(F179.49360210788512
F-19.412715035928702
F160.21927788803015
tp49
I1580
I2
tp50
tp51
.(((cnumpy.core.multiarray
_reconstruct
p0
(cnumpy.matrixlib.defmatrix
matrix
p1
(I0
tp2
S'b'
p3
tp4
Rp5
(I1
(I1
I1
tp6
cnumpy
dtype
p7
(S'f8'
p8
I0
I1
tp9
Rp10
(I3
S'<'
p11
NNNI-1
I-1
I0
tp12
bI00
S'/\xd7\xc5\x89\xafQG\xbf'
p13
tp14
bg0
(g1
(I0
tp15
g3
tp16
Rp17
(I1
(I1
I1
tp18
g10
I00
S'\xfe\xde\x82\xb9\x85u\xae?'
p19
tp20
bg0
(g1
(I0
tp21
g3
tp22
Rp23
(I1
(I1
I1
tp24
g10
I00
S'\x85\x13^\xe1\xd6\xa4\xc0\xbf'
p25
tp26
btp27
(F1.0856839867646564
F2.5012693335599807
F-160.176793858466
tp28
I1171
I4
tp29
((g0
(g1
(I0
tp30
g3
tp31
Rp32
(I1
(I1
I1
tp33
g10
I00
S'\xa6mzX\xbb\xf7\x8e\xbf'
p34
tp35
bg0
(g1
(I0
tp36
g3
tp37
Rp38
(I1
(I1
I1
tp39
g10
I00
S'\xc3\xdb\xb9s\x07\x90\xae?'
p40
tp41
bg0
(g1
(I0
tp42
g3
tp43
Rp44
(I1
(I1
I1
tp45
g10
I00
S'H\x8d\x86\x0b\x1b\xa9\xb9\xbf'
p46
tp47
btp48
(F179.50437819545968
F-19.40664584548323
F160.2130687115309
tp49
I1171
I4
tp50
tp51
.(((cnumpy.core.multiarray
_reconstruct
p0
(cnumpy.matrixlib.defmatrix
matrix
p1
(I0
tp2
S'b'
p3
tp4
Rp5
(I1
(I1
I1
tp6
cnumpy
dtype
p7
(S'f8'
p8
I0
I1
tp9
Rp10
(I3
S'<'
p11
NNNI-1
I-1
I0
tp12
bI00
S'\xda[\xb0@\xbf\xf7G\xbf'
p13
tp14
bg0
(g1
(I0
tp15
g3
tp16
Rp17
(I1
(I1
I1
tp18
g10
I00
S'v\x8c\x19\x9a#u\xae?'
p19
tp20
bg0
(g1
(I0
tp21
g3
tp22
Rp23
(I1
(I1
I1
tp24
g10
I00
S'\x1e\xdd\xa0\xb5\xdf\xa4\xc0\xbf'
p25
tp26
btp27
(F1.0735796878547
F2.5397213014616873
F-160.15826986798243
tp28
I989
I7
tp29
((g0
(g1
(I0
tp30
g3
tp31
Rp32
(I1
(I1
I1
tp33
g10
I00
S'\xc3\x7f\xec-t\xf5\x8e\xbf'
p34
tp35
bg0
(g1
(I0
tp36
g3
tp37
Rp38
(I1
(I1
I1
tp39
g10
I00
S'\xfb\x08\xad|3\x90\xae?'
p40
tp41
bg0
(g1
(I0
tp42
g3
tp43
Rp44
(I1
(I1
I1
tp45
g10
I00
S'3\xad\xc5\xf8K\xa9\xb9\xbf'
p46
tp47
btp48
(F179.5043862850579
F-19.40399106480871
F160.21304436350914
tp49
I989
I7
tp50
tp51
.(((cnumpy.core.multiarray
_reconstruct
p0
(cnumpy.matrixlib.defmatrix
matrix
p1
(I0
tp2
S'b'
p3
tp4
Rp5
(I1
(I1
I1
tp6
cnumpy
dtype
p7
(S'f8'
p8
I0
I1
tp9
Rp10
(I3
S'<'
p11
NNNI-1
I-1
I0
tp12
bI00
S'\xf8\x18z\xfc\x94\xebF\xbf'
p13
tp14
bg0
(g1
(I0
tp15
g3
tp16
Rp17
(I1
(I1
I1
tp18
g10
I00
S'\\\xd9\x1dJ@y\xae?'
p19
tp20
bg0
(g1
(I0
tp21
g3
tp22
Rp23
(I1
(I1
I1
tp24
g10
I00
S'P\x9d\x8b\x9ce\xa5\xc0\xbf'
p25
tp26
btp27
(F1.0011456030469592
F2.3249258743247614
F-158.2467637986102
tp28
I1580
I2
tp29
((g0
(g1
(I0
tp30
g3
tp31
Rp32
(I1
(I1
I1
tp33
g10
I00
S'\xf8J\x9a\xa3\xe2\x89\x8e\xbf'
p34
tp35
bg0
(g1
(I0
tp36
g3
tp37
Rp38
(I1
(I1
I1
tp39
g10
I00
S'\xcah\xe2j\x8e\x8d\xae?'
p40
tp41
bg0
(g1
(I0
tp42
g3
tp43
Rp44
(I1
(I1
I1
tp45
g10
I00
S'\xdf\xe2\xf1\x01\xbb\xac\xb9\xbf'
p46
tp47
btp48
(F178.86916330472644
F-18.37911568251647
F159.03582078782216
tp49
I1580
I2
tp50
tp51
.(((cnumpy.core.multiarray
_reconstruct
p0
(cnumpy.matrixlib.defmatrix
matrix
p1
(I0
tp2
S'b'
p3
tp4
Rp5
(I1
(I1
I1
tp6
cnumpy
dtype
p7
(S'f8'
p8
I0
I1
tp9
Rp10
(I3
S'<'
p11
NNNI-1
I-1
I0
tp12
bI00
S'*v\xd9\x1f\x85%H\xbf'
p13
tp14
bg0
(g1
(I0
tp15
g3
tp16
Rp17
(I1
(I1
I1
tp18
g10
I00
S'.w\xae\xc3ky\xae?'
p19
tp20
bg0
(g1
(I0
tp21
g3
tp22
Rp23
(I1
(I1
I1
tp24
g10
I00
S'"\x9co\x84b\xa5\xc0\xbf'
p25
tp26
btp27
(F1.0380698829855384
F2.4696642347843363
F-160.19252676262002
tp28
I389
I56
tp29
((g0
(g1
(I0
tp30
g3
tp31
Rp32
(I1
(I1
I1
tp33
g10
I00
S'\xab\x18\x92JC\xea\x8e\xbf'
p34
tp35
bg0
(g1
(I0
tp36
g3
tp37
Rp38
(I1
(I1
I1
tp39
g10
I00
S'x\xfbh\xd5\x90\x8e\xae?'
p40
tp41
bg0
(g1
(I0
tp42
g3
tp43
Rp44
(I1
(I1
I1
tp45
g10
I00
S'\x13\xa9\xe9w$\xa9\xb9\xbf'
p46
tp47
btp48
(F179.50166701067144
F-19.367992473258518
F160.09813891822017
tp49
I389
I56
tp50
tp51
.(((cnumpy.core.multiarray
_reconstruct
p0
(cnumpy.matrixlib.defmatrix
matrix
p1
(I0
tp2
S'b'
p3
tp4
Rp5
(I1
(I1
I1
tp6
cnumpy
dtype
p7
(S'f8'
p8
I0
I1
tp9
Rp10
(I3
S'<'
p11
NNNI-1
I-1
I0
tp12
bI00
S'\x0f\xfd\x1b%\x9f\x9eE\xbf'
p13
tp14
bg0
(g1
(I0
tp15
g3
tp16
Rp17
(I1
(I1
I1
tp18
g10
I00
S' \xc4\xb2\x076\x80\xae?'
p19
tp20
bg0
(g1
(I0
tp21
g3
tp22
Rp23
(I1
(I1
I1
tp24
g10
I00
S'\x9a\x1dl*\n\xa5\xc0\xbf'
p25
tp26
btp27
(F1.0749121244156221
F2.42688540702491
F-160.13795224340532
tp28
I430
I90
tp29
((g0
(g1
(I0
tp30
g3
tp31
Rp32
(I1
(I1
I1
tp33
g10
I00
S'\xba\x89Y\xf4\xa2\xdd\x8e\xbf'
p34
tp35
bg0
(g1
(I0
tp36
g3
tp37
Rp38
(I1
(I1
I1
tp39
g10
I00
S's\xaf\x92\x90\x8f\x91\xae?'
p40
tp41
bg0
(g1
(I0
tp42
g3
tp43
Rp44
(I1
(I1
I1
tp45
g10
I00
S'\x8e\xc8\xfdz\x96\xa8\xb9\xbf'
p46
tp47
btp48
(F179.49359065927695
F-19.361338366201046
F160.0912110943197
tp49
I430
I90
tp50
tp51
.(((cnumpy.core.multiarray
_reconstruct
p0
(cnumpy.matrixlib.defmatrix
matrix
p1
(I0
tp2
S'b'
p3
tp4
Rp5
(I1
(I1
I1
tp6
cnumpy
dtype
p7
(S'f8'
p8
I0
I1
tp9
Rp10
(I3
S'<'
p11
NNNI-1
I-1
I0
tp12
bI00
S'\x0f\xfd\x1b%\x9f\x9eE\xbf'
p13
tp14
bg0
(g1
(I0
tp15
g3
tp16
Rp17
(I1
(I1
I1
tp18
g10
I00
S' \xc4\xb2\x076\x80\xae?'
p19
tp20
bg0
(g1
(I0
tp21
g3
tp22
Rp23
(I1
(I1
I1
tp24
g10
I00
S'\x9a\x1dl*\n\xa5\xc0\xbf'
p25
tp26
btp27
(F1.0749121244156221
F2.42688540702491
F-160.13795224340532
tp28
I1340
I95
tp29
((g0
(g1
(I0
tp30
g3
tp31
Rp32
(I1
(I1
I1
tp33
g10
I00
S'\xba\x89Y\xf4\xa2\xdd\x8e\xbf'
p34
tp35
bg0
(g1
(I0
tp36
g3
tp37
Rp38
(I1
(I1
I1
tp39
g10
I00
S's\xaf\x92\x90\x8f\x91\xae?'
p40
tp41
bg0
(g1
(I0
tp42
g3
tp43
Rp44
(I1
(I1
I1
tp45
g10
I00
S'\x8e\xc8\xfdz\x96\xa8\xb9\xbf'
p46
tp47
btp48
(F179.49359065927695
F-19.361338366201046
F160.0912110943197
tp49
I1340
I95
tp50
tp51
.(((cnumpy.core.multiarray
_reconstruct
p0
(cnumpy.matrixlib.defmatrix
matrix
p1
(I0
tp2
S'b'
p3
tp4
Rp5
(I1
(I1
I1
tp6
cnumpy
dtype
p7
(S'f8'
p8
I0
I1
tp9
Rp10
(I3
S'<'
p11
NNNI-1
I-1
I0
tp12
bI00
S'6\xdc\xd7+q\xe1\xb4?'
p13
tp14
bg0
(g1
(I0
tp15
g3
tp16
Rp17
(I1
(I1
I1
tp18
g10
I00
S'4X!\xf7d\x14\x9d?'
p19
tp20
bg0
(g1
(I0
tp21
g3
tp22
Rp23
(I1
(I1
I1
tp24
g10
I00
S'c\xd5j\x03C\x13\xc5\xbf'
p25
tp26
btp27
(F0.8985331362223703
F-23.14057761708212
F-172.67486870082328
tp28
I422
I86
tp29
((g0
(g1
(I0
tp30
g3
tp31
Rp32
(I1
(I1
I1
tp33
g10
I00
S'k\xa0\x14Rr.\xbb\xbf'
p34
tp35
bg0
(g1
(I0
tp36
g3
tp37
Rp38
(I1
(I1
I1
tp39
g10
I00
S'\xa4H\xcd\x90>\xc0\xa8?'
p40
tp41
bg0
(g1
(I0
tp42
g3
tp43
Rp44
(I1
(I1
I1
tp45
g10
I00
S'L\x9aN\xa3\x92l\xc0\xbf'
p46
tp47
btp48
(F-14.538290858034268
F32.40298581492389
F-162.72528907508
tp49
I422
I86
tp50
tp51
.(((cnumpy.core.multiarray
_reconstruct
p0
(cnumpy.matrixlib.defmatrix
matrix
p1
(I0
tp2
S'b'
p3
tp4
Rp5
(I1
(I1
I1
tp6
cnumpy
dtype
p7
(S'f8'
p8
I0
I1
tp9
Rp10
(I3
S'<'
p11
NNNI-1
I-1
I0
tp12
bI00
S'\xaa\x04\xab\x85\xff\x89>\xbf'
p13
tp14
bg0
(g1
(I0
tp15
g3
tp16
Rp17
(I1
(I1
I1
tp18
g10
I00
S'\xb0\xc0\xa7\x89\xf3\x86\xae?'
p19
tp20
bg0
(g1
(I0
tp21
g3
tp22
Rp23
(I1
(I1
I1
tp24
g10
I00
S'\r\xcfwf\xdf\xad\xc0\xbf'
p25
tp26
btp27
(F0.9780561545461747
F2.1760861399498057
F-159.08046497660564
tp28
I422
I86
tp29
((g0
(g1
(I0
tp30
g3
tp31
Rp32
(I1
(I1
I1
tp33
g10
I00
S'v\x87S7j\x9f\x8e\xbf'
p34
tp35
bg0
(g1
(I0
tp36
g3
tp37
Rp38
(I1
(I1
I1
tp39
g10
I00
S'iC\xfc1w\x92\xae?'
p40
tp41
bg0
(g1
(I0
tp42
g3
tp43
Rp44
(I1
(I1
I1
tp45
g10
I00
S':\xda*\x9b\x7f\xb3\xb9\xbf'
p46
tp47
btp48
(F178.8166104668656
F-18.321514274730745
F158.70419457196599
tp49
I422
I86
tp50
tp51
.(((cnumpy.core.multiarray
_reconstruct
p0
(cnumpy.matrixlib.defmatrix
matrix
p1
(I0
tp2
S'b'
p3
tp4
Rp5
(I1
(I1
I1
tp6
cnumpy
dtype
p7
(S'f8'
p8
I0
I1
tp9
Rp10
(I3
S'<'
p11
NNNI-1
I-1
I0
tp12
bI00
S'\xc60\xfb\xb6\xb6\xc0>\xbf'
p13
tp14
bg0
(g1
(I0
tp15
g3
tp16
Rp17
(I1
(I1
I1
tp18
g10
I00
S'\x96e\xf5\xa1s\x84\xae?'
p19
tp20
bg0
(g1
(I0
tp21
g3
tp22
Rp23
(I1
(I1
I1
tp24
g10
I00
S'Ev\xdd\x0b(\xae\xc0\xbf'
p25
tp26
btp27
(F0.9700815241047337
F2.1892294023147456
F-159.08227680224107
tp28
I653
I96
tp29
((g0
(g1
(I0
tp30
g3
tp31
Rp32
(I1
(I1
I1
tp33
g10
I00
S'\x16\x19\\D\xb2\xa5\x8e\xbf'
p34
tp35
bg0
(g1
(I0
tp36
g3
tp37
Rp38
(I1
(I1
I1
tp39
g10
I00
S'B7K\xc7\x7f\x92\xae?'
p40
tp41
bg0
(g1
(I0
tp42
g3
tp43
Rp44
(I1
(I1
I1
tp45
g10
I00
S'\xb0\x00\xd7\x15,\xb3\xb9\xbf'
p46
tp47
btp48
(F178.81673363699193
F-18.32861055522888
F158.72214437559356
tp49
I653
I96
tp50
tp51
.(((cnumpy.core.multiarray
_reconstruct
p0
(cnumpy.matrixlib.defmatrix
matrix
p1
(I0
tp2
S'b'
p3
tp4
Rp5
(I1
(I1
I1
tp6
cnumpy
dtype
p7
(S'f8'
p8
I0
I1
tp9
Rp10
(I3
S'<'
p11
NNNI-1
I-1
I0
tp12
bI00
S'\x14\x9dI\x90_\xd6\xb4?'
p13
tp14
bg0
(g1
(I0
tp15
g3
tp16
Rp17
(I1
(I1
I1
tp18
g10
I00
S'%(\xb9.\x83\xf1\x9b?'
p19
tp20
bg0
(g1
(I0
tp21
g3
tp22
Rp23
(I1
(I1
I1
tp24
g10
I00
S'-\x1d\xae\xa7\xc5C\xc5\xbf'
p25
tp26
btp27
(F0.5316281678439452
F-22.869133918423724
F-172.16734096615562
tp28
I433
I73
tp29
((g0
(g1
(I0
tp30
g3
tp31
Rp32
(I1
(I1
I1
tp33
g10
I00
S"'T\xa8\xec\xa3\x06\xbb\xbf"
p34
tp35
bg0
(g1
(I0
tp36
g3
tp37
Rp38
(I1
(I1
I1
tp39
g10
I00
S'\xc1\xfe\xe2\xbf\xea]\xa8?'
p40
tp41
bg0
(g1
(I0
tp42
g3
tp43
Rp44
(I1
(I1
I1
tp45
g10
I00
S"\xb2Q\x17'sd\xc0\xbf"
p46
tp47
btp48
(F-14.31373581904703
F33.376720987647786
F-164.50437434294838
tp49
I433
I73
tp50
tp51
.(((cnumpy.core.multiarray
_reconstruct
p0
(cnumpy.matrixlib.defmatrix
matrix
p1
(I0
tp2
S'b'
p3
tp4
Rp5
(I1
(I1
I1
tp6
cnumpy
dtype
p7
(S'f8'
p8
I0
I1
tp9
Rp10
(I3
S'<'
p11
NNNI-1
I-1
I0
tp12
bI00
S'\xaaI\xe4?\x9eQ:\xbf'
p13
tp14
bg0
(g1
(I0
tp15
g3
tp16
Rp17
(I1
(I1
I1
tp18
g10
I00
S'WrsK\xc9\x8d\xae?'
p19
tp20
bg0
(g1
(I0
tp21
g3
tp22
Rp23
(I1
(I1
I1
tp24
g10
I00
S'I\x8a\t\xb8\xe5\xac\xc0\xbf'
p25
tp26
btp27
(F0.8015484842684939
F1.8172920233664287
F-158.55485375512393
tp28
I650
I95
tp29
((g0
(g1
(I0
tp30
g3
tp31
Rp32
(I1
(I1
I1
tp33
g10
I00
S'\xe8\x1aE(\x9f#\xc0\xbf'
p34
tp35
bg0
(g1
(I0
tp36
g3
tp37
Rp38
(I1
(I1
I1
tp39
g10
I00
S'\xd4\x1e\x00H\x13\x17\xab?'
p40
tp41
bg0
(g1
(I0
tp42
g3
tp43
Rp44
(I1
(I1
I1
tp45
g10
I00
S'n\x94\x0b\xac\xe4%\xc0\xbf'
p46
tp47
btp48
(F-15.417073165656626
F38.73596935093636
F-165.88025837352544
tp49
I650
I95
tp50
tp51
.(((cnumpy.core.multiarray
_reconstruct
p0
(cnumpy.matrixlib.defmatrix
matrix
p1
(I0
tp2
S'b'
p3
tp4
Rp5
(I1
(I1
I1
tp6
cnumpy
dtype
p7
(S'f8'
p8
I0
I1
tp9
Rp10
(I3
S'<'
p11
NNNI-1
I-1
I0
tp12
bI00
S'x\x11\x9bk\xec\xbf;\xbf'
p13
tp14
bg0
(g1
(I0
tp15
g3
tp16
Rp17
(I1
(I1
I1
tp18
g10
I00
S'+0\x0c\x94\xdc\x8a\xae?'
p19
tp20
bg0
(g1
(I0
tp21
g3
tp22
Rp23
(I1
(I1
I1
tp24
g10
I00
S'\x0f\x1eH\x8a\xdf\xac\xc0\xbf'
p25
tp26
btp27
(F0.8774789979666469
F1.9534177192570283
F-160.4032999132913
tp28
I1580
I2
tp29
((g0
(g1
(I0
tp30
g3
tp31
Rp32
(I1
(I1
I1
tp33
g10
I00
S'1Z\xcb"\xdb\x1f\x8f\xbf'
p34
tp35
bg0
(g1
(I0
tp36
g3
tp37
Rp38
(I1
(I1
I1
tp39
g10
I00
S'\xde\x80\xa7`\x99\x91\xae?'
p40
tp41
bg0
(g1
(I0
tp42
g3
tp43
Rp44
(I1
(I1
I1
tp45
g10
I00
S'6;\x1f\\L\xac\xb9\xbf'
p46
tp47
btp48
(F179.65942159318016
F-19.668917557249614
F160.25971487824924
tp49
I1580
I2
tp50
tp51
.(((cnumpy.core.multiarray
_reconstruct
p0
(cnumpy.matrixlib.defmatrix
matrix
p1
(I0
tp2
S'b'
p3
tp4
Rp5
(I1
(I1
I1
tp6
cnumpy
dtype
p7
(S'f8'
p8
I0
I1
tp9
Rp10
(I3
S'<'
p11
NNNI-1
I-1
I0
tp12
bI00
S'\xde\x8b\x93y\xe0\xf5\xab?'
p13
tp14
bg0
(g1
(I0
tp15
g3
tp16
Rp17
(I1
(I1
I1
tp18
g10
I00
S'\xb86\xb6[\x0b7\x9e?'
p19
tp20
bg0
(g1
(I0
tp21
g3
tp22
Rp23
(I1
(I1
I1
tp24
g10
I00
S'O\xf31w\xd1\xa5\xc4\xbf'
p25
tp26
btp27
(F0.27932741162136754
F-16.107569288032508
F-173.33944603198464
tp28
I750
I157
tp29
((g0
(g1
(I0
tp30
g3
tp31
Rp32
(I1
(I1
I1
tp33
g10
I00
S'\xb7E\x1c>\xbd\xcb\xc0\xbf'
p34
tp35
bg0
(g1
(I0
tp36
g3
tp37
Rp38
(I1
(I1
I1
tp39
g10
I00
S'\x04\x9d=t\xa6\xa6\xae?'
p40
tp41
bg0
(g1
(I0
tp42
g3
tp43
Rp44
(I1
(I1
I1
tp45
g10
I00
S'\xfd\x8c\x11K\xb6\xab\xbf\xbf'
p46
tp47
btp48
(F-16.327891485032374
F39.42695468647155
F-163.17879337887416
tp49
I750
I157
tp50
tp51
.(((cnumpy.core.multiarray
_reconstruct
p0
(cnumpy.matrixlib.defmatrix
matrix
p1
(I0
tp2
S'b'
p3
tp4
Rp5
(I1
(I1
I1
tp6
cnumpy
dtype
p7
(S'f8'
p8
I0
I1
tp9
Rp10
(I3
S'<'
p11
NNNI-1
I-1
I0
tp12
bI00
S'\xe8\xf0O\xddH\xdf\xb2?'
p13
tp14
bg0
(g1
(I0
tp15
g3
tp16
Rp17
(I1
(I1
I1
tp18
g10
I00
S'D\xfa\xac\xaee`\xa0?'
p19
tp20
bg0
(g1
(I0
tp21
g3
tp22
Rp23
(I1
(I1
I1
tp24
g10
I00
S'\xf3\x13;@\xcc\xe8\xc4\xbf'
p25
tp26
btp27
(F0.6362973572461955
F-21.33390064778383
F-172.19546379386782
tp28
I538
I159
tp29
((g0
(g1
(I0
tp30
g3
tp31
Rp32
(I1
(I1
I1
tp33
g10
I00
S'\xdd3\x11\\\xb3\xb9\xbc\xbf'
p34
tp35
bg0
(g1
(I0
tp36
g3
tp37
Rp38
(I1
(I1
I1
tp39
g10
I00
S'5\xb0\xc7~\x0eR\xac?'
p40
tp41
bg0
(g1
(I0
tp42
g3
tp43
Rp44
(I1
(I1
I1
tp45
g10
I00
S'\xb6\xa4\xbf\x8e\xf34\xc0\xbf'
p46
tp47
btp48
(F-14.993179480867546
F35.73560738627632
F-163.28975067382217
tp49
I538
I159
tp50
tp51
.(((cnumpy.core.multiarray
_reconstruct
p0
(cnumpy.matrixlib.defmatrix
matrix
p1
(I0
tp2
S'b'
p3
tp4
Rp5
(I1
(I1
I1
tp6
cnumpy
dtype
p7
(S'f8'
p8
I0
I1
tp9
Rp10
(I3
S'<'
p11
NNNI-1
I-1
I0
tp12
bI00
S'\xa4\x0b\xe7>\r\x1d\xa2?'
p13
tp14
bg0
(g1
(I0
tp15
g3
tp16
Rp17
(I1
(I1
I1
tp18
g10
I00
S'\xf8\xa9\x93\xfa\x0e\x8c\x9b?'
p19
tp20
bg0
(g1
(I0
tp21
g3
tp22
Rp23
(I1
(I1
I1
tp24
g10
I00
S'e\xd6\xc8\xablg\xc4\xbf'
p25
tp26
btp27
(F0.4892949943331443
F-8.978462123074555
F-171.58190365328431
tp28
I975
I166
tp29
((g0
(g1
(I0
tp30
g3
tp31
Rp32
(I1
(I1
I1
tp33
g10
I00
S"\xfa\x12U'\xf1\x10\xc3\xbf"
p34
tp35
bg0
(g1
(I0
tp36
g3
tp37
Rp38
(I1
(I1
I1
tp39
g10
I00
S'\xbf\xfcFp\xccg\xb0?'
p40
tp41
bg0
(g1
(I0
tp42
g3
tp43
Rp44
(I1
(I1
I1
tp45
g10
I00
S'\xf8\x99H\xf1F.\xbf\xbf'
p46
tp47
btp48
(F-17.18664938317932
F44.53317385147542
F-166.31168912498853
tp49
I975
I166
tp50
tp51
.(((cnumpy.core.multiarray
_reconstruct
p0
(cnumpy.matrixlib.defmatrix
matrix
p1
(I0
tp2
S'b'
p3
tp4
Rp5
(I1
(I1
I1
tp6
cnumpy
dtype
p7
(S'f8'
p8
I0
I1
tp9
Rp10
(I3
S'<'
p11
NNNI-1
I-1
I0
tp12
bI00
S'\x8e\xa0\xdf\xca\xc5\xab\xb6?'
p13
tp14
bg0
(g1
(I0
tp15
g3
tp16
Rp17
(I1
(I1
I1
tp18
g10
I00
S'8\x13"\xaf\x11a\xa0?'
p19
tp20
bg0
(g1
(I0
tp21
g3
tp22
Rp23
(I1
(I1
I1
tp24
g10
I00
S'<\xd6N\x8d\x9b\x16\xc5\xbf'
p25
tp26
btp27
(F0.1321536366182248
F-25.63307602768499
F-173.42881280726763
tp28
I336
I128
tp29
((g0
(g1
(I0
tp30
g3
tp31
Rp32
(I1
(I1
I1
tp33
g10
I00
S'pY_\x19\x83\xf8\xb8\xbf'
p34
tp35
bg0
(g1
(I0
tp36
g3
tp37
Rp38
(I1
(I1
I1
tp39
g10
I00
S'P\xf1\x85\x88p\x8d\xa9?'
p40
tp41
bg0
(g1
(I0
tp42
g3
tp43
Rp44
(I1
(I1
I1
tp45
g10
I00
S'\xa45G\x12\xb59\xc0\xbf'
p46
tp47
btp48
(F-14.466808343784164
F30.537304885574553
F-161.1226493483769
tp49
I336
I128
tp50
tp51
.(((cnumpy.core.multiarray
_reconstruct
p0
(cnumpy.matrixlib.defmatrix
matrix
p1
(I0
tp2
S'b'
p3
tp4
Rp5
(I1
(I1
I1
tp6
cnumpy
dtype
p7
(S'f8'
p8
I0
I1
tp9
Rp10
(I3
S'<'
p11
NNNI-1
I-1
I0
tp12
bI00
S'\x1c\x19\xa6\x08\xbd\x19\xb2?'
p13
tp14
bg0
(g1
(I0
tp15
g3
tp16
Rp17
(I1
(I1
I1
tp18
g10
I00
S'-f\x88\xc0\xe3^\xa0?'
p19
tp20
bg0
(g1
(I0
tp21
g3
tp22
Rp23
(I1
(I1
I1
tp24
g10
I00
S'x\x1bh\xa8\xdf\xef\xc4\xbf'
p25
tp26
btp27
(F0.62474735422543
F-20.346158563966696
F-172.08722789556674
tp28
I534
I163
tp29
((g0
(g1
(I0
tp30
g3
tp31
Rp32
(I1
(I1
I1
tp33
g10
I00
S'\xfb\xa9\xcfzo6\xbd\xbf'
p34
tp35
bg0
(g1
(I0
tp36
g3
tp37
Rp38
(I1
(I1
I1
tp39
g10
I00
S'J\x8fC\x98T~\xac?'
p40
tp41
bg0
(g1
(I0
tp42
g3
tp43
Rp44
(I1
(I1
I1
tp45
g10
I00
S'\xf2\xb9\x9e\xe5&\x17\xc0\xbf'
p46
tp47
btp48
(F-15.14453725140717
F36.32234687630341
F-163.48956841098314
tp49
I534
I163
tp50
tp51
.(((cnumpy.core.multiarray
_reconstruct
p0
(cnumpy.matrixlib.defmatrix
matrix
p1
(I0
tp2
S'b'
p3
tp4
Rp5
(I1
(I1
I1
tp6
cnumpy
dtype
p7
(S'f8'
p8
I0
I1
tp9
Rp10
(I3
S'<'
p11
NNNI-1
I-1
I0
tp12
bI00
S'\xc1\xe5^\xef\xa5\xc5\xab?'
p13
tp14
bg0
(g1
(I0
tp15
g3
tp16
Rp17
(I1
(I1
I1
tp18
g10
I00
S'=.\xe4\x02\xe3\x0c\xa0?'
p19
tp20
bg0
(g1
(I0
tp21
g3
tp22
Rp23
(I1
(I1
I1
tp24
g10
I00
S'Y\xc2\xdbA\xec\x8a\xc4\xbf'
p25
tp26
btp27
(F0.1521344803475004
F-15.240040555366004
F-170.59851695404316
tp28
I761
I171
tp29
((g0
(g1
(I0
tp30
g3
tp31
Rp32
(I1
(I1
I1
tp33
g10
I00
S'r\xca\x1a"\x92\x0c\xc1\xbf'
p34
tp35
bg0
(g1
(I0
tp36
g3
tp37
Rp38
(I1
(I1
I1
tp39
g10
I00
S'n3\xcb\xa5\x8cJ\xaf?'
p40
tp41
bg0
(g1
(I0
tp42
g3
tp43
Rp44
(I1
(I1
I1
tp45
g10
I00
S'P\x15\xde\x9f\xa6\xa6\xbf\xbf'
p46
tp47
btp48
(F-16.26399369349721
F41.14435078762349
F-164.83029366534393
tp49
I761
I171
tp50
tp51
.(((cnumpy.core.multiarray
_reconstruct
p0
(cnumpy.matrixlib.defmatrix
matrix
p1
(I0
tp2
S'b'
p3
tp4
Rp5
(I1
(I1
I1
tp6
cnumpy
dtype
p7
(S'f8'
p8
I0
I1
tp9
Rp10
(I3
S'<'
p11
NNNI-1
I-1
I0
tp12
bI00
S'\xd2\xce\x8az,\xc4\xa1?'
p13
tp14
bg0
(g1
(I0
tp15
g3
tp16
Rp17
(I1
(I1
I1
tp18
g10
I00
S'\xe1\xafv\xd8F\xa2\x9b?'
p19
tp20
bg0
(g1
(I0
tp21
g3
tp22
Rp23
(I1
(I1
I1
tp24
g10
I00
S'\x8cbh}\x7f]\xc4\xbf'
p25
tp26
btp27
(F0.6332503976488885
F-8.739977609847887
F-170.69287304399126
tp28
I984
I180
tp29
((g0
(g1
(I0
tp30
g3
tp31
Rp32
(I1
(I1
I1
tp33
g10
I00
S'\xd8T\xdag\xf8[\xc3\xbf'
p34
tp35
bg0
(g1
(I0
tp36
g3
tp37
Rp38
(I1
(I1
I1
tp39
g10
I00
S'=e\xa5aIw\xb0?'
p40
tp41
bg0
(g1
(I0
tp42
g3
tp43
Rp44
(I1
(I1
I1
tp45
g10
I00
S'\x03#\xfd\x0c\xbc\xe9\xbe\xbf'
p46
tp47
btp48
(F-17.361298916817656
F45.274408186439715
F-166.6931354495309
tp49
I984
I180
tp50
tp51
.(((cnumpy.core.multiarray
_reconstruct
p0
(cnumpy.matrixlib.defmatrix
matrix
p1
(I0
tp2
S'b'
p3
tp4
Rp5
(I1
(I1
I1
tp6
cnumpy
dtype
p7
(S'f8'
p8
I0
I1
tp9
Rp10
(I3
S'<'
p11
NNNI-1
I-1
I0
tp12
bI00
S'a\x18[D\xf5f\x91?'
p13
tp14
bg0
(g1
(I0
tp15
g3
tp16
Rp17
(I1
(I1
I1
tp18
g10
I00
S'\xb3\x11\xd9S\x87\xab\x9a?'
p19
tp20
bg0
(g1
(I0
tp21
g3
tp22
Rp23
(I1
(I1
I1
tp24
g10
I00
S'?b\x84\xf9\r\xe1\xc3\xbf'
p25
tp26
btp27
(F0.577717928841498
F-2.712631245563964
F-169.43541237730668
tp28
I1204
I188
tp29
((g0
(g1
(I0
tp30
g3
tp31
Rp32
(I1
(I1
I1
tp33
g10
I00
S'\x92\x93E\x90\xb8\xcb\xc5\xbf'
p34
tp35
bg0
(g1
(I0
tp36
g3
tp37
Rp38
(I1
(I1
I1
tp39
g10
I00
S'~\xfd;d&p\xb1?'
p40
tp41
bg0
(g1
(I0
tp42
g3
tp43
Rp44
(I1
(I1
I1
tp45
g10
I00
S'\xf5\xbfu\xabaI\xbe\xbf'
p46
tp47
btp48
(F-18.56385814960363
F48.97470636849887
F-168.76780823294095
tp49
I1204
I188
tp50
tp51
.(((cnumpy.core.multiarray
_reconstruct
p0
(cnumpy.matrixlib.defmatrix
matrix
p1
(I0
tp2
S'b'
p3
tp4
Rp5
(I1
(I1
I1
tp6
cnumpy
dtype
p7
(S'f8'
p8
I0
I1
tp9
Rp10
(I3
S'<'
p11
NNNI-1
I-1
I0
tp12
bI00
S'a\x9eP@\x1b\xd5\xb8?'
p13
tp14
bg0
(g1
(I0
tp15
g3
tp16
Rp17
(I1
(I1
I1
tp18
g10
I00
S'|B\xdd\xcf\xe7\xad\xa6?'
p19
tp20
bg0
(g1
(I0
tp21
g3
tp22
Rp23
(I1
(I1
I1
tp24
g10
I00
S'x\xe9n)\x10\x10\xc5\xbf'
p25
tp26
btp27
(F0.8238520932348904
F-27.780997573316217
F-165.89692482674218
tp28
I216
I259
tp29
((g0
(g1
(I0
tp30
g3
tp31
Rp32
(I1
(I1
I1
tp33
g10
I00
S"\xc3\xcf\xec'\x10F\xb6\xbf"
p34
tp35
bg0
(g1
(I0
tp36
g3
tp37
Rp38
(I1
(I1
I1
tp39
g10
I00
S'\x9e@2\x85a|\xae?'
p40
tp41
bg0
(g1
(I0
tp42
g3
tp43
Rp44
(I1
(I1
I1
tp45
g10
I00
S'\xe8/\xbeUQR\xc0\xbf'
p46
tp47
btp48
(F-14.23477306700638
F29.542528256796658
F-158.72523592548117
tp49
I216
I259
tp50
tp51
.(((cnumpy.core.multiarray
_reconstruct
p0
(cnumpy.matrixlib.defmatrix
matrix
p1
(I0
tp2
S'b'
p3
tp4
Rp5
(I1
(I1
I1
tp6
cnumpy
dtype
p7
(S'f8'
p8
I0
I1
tp9
Rp10
(I3
S'<'
p11
NNNI-1
I-1
I0
tp12
bI00
S'\x8d\xb7\r|V}\xb4?'
p13
tp14
bg0
(g1
(I0
tp15
g3
tp16
Rp17
(I1
(I1
I1
tp18
g10
I00
S'\x0c\xf2\xff\x05\x8d\xb3\xa5?'
p19
tp20
bg0
(g1
(I0
tp21
g3
tp22
Rp23
(I1
(I1
I1
tp24
g10
I00
S"\t\x93\xde\xa9'\x08\xc5\xbf"
p25
tp26
btp27
(F1.0147897286829484
F-22.484290107044483
F-164.14775379278055
tp28
I417
I271
tp29
((g0
(g1
(I0
tp30
g3
tp31
Rp32
(I1
(I1
I1
tp33
g10
I00
S'Z\xa3]\x12\xd8;\xba\xbf'
p34
tp35
bg0
(g1
(I0
tp36
g3
tp37
Rp38
(I1
(I1
I1
tp39
g10
I00
S'\xfd\xdedO\xad=\xb0?'
p40
tp41
bg0
(g1
(I0
tp42
g3
tp43
Rp44
(I1
(I1
I1
tp45
g10
I00
S'?\xd6&OH \xc0\xbf'
p46
tp47
btp48
(F-15.016215860980244
F34.183103259860985
F-159.65792348018806
tp49
I417
I271
tp50
tp51
.(((cnumpy.core.multiarray
_reconstruct
p0
(cnumpy.matrixlib.defmatrix
matrix
p1
(I0
tp2
S'b'
p3
tp4
Rp5
(I1
(I1
I1
tp6
cnumpy
dtype
p7
(S'f8'
p8
I0
I1
tp9
Rp10
(I3
S'<'
p11
NNNI-1
I-1
I0
tp12
bI00
S'\xc7\xd4\xeb\xd1\xe5\x99\xb4?'
p13
tp14
bg0
(g1
(I0
tp15
g3
tp16
Rp17
(I1
(I1
I1
tp18
g10
I00
S'\x030AkGZ\xa5?'
p19
tp20
bg0
(g1
(I0
tp21
g3
tp22
Rp23
(I1
(I1
I1
tp24
g10
I00
S'\xa0\xc9\x84\xa6>\xd5\xc4\xbf'
p25
tp26
btp27
(F0.9147246743947262
F-22.772096590788017
F-162.9817340679608
tp28
I417
I271
tp29
((g0
(g1
(I0
tp30
g3
tp31
Rp32
(I1
(I1
I1
tp33
g10
I00
S'\x16\xf4\x849\xa4~\xba\xbf'
p34
tp35
bg0
(g1
(I0
tp36
g3
tp37
Rp38
(I1
(I1
I1
tp39
g10
I00
S'\x0c9\xa6\xa6\x8a~\xb0?'
p40
tp41
bg0
(g1
(I0
tp42
g3
tp43
Rp44
(I1
(I1
I1
tp45
g10
I00
S'\x86\xe4X\x8e\x93\x11\xc0\xbf'
p46
tp47
btp48
(F-15.092198622730514
F34.64160717136691
F-159.8148028803468
tp49
I417
I271
tp50
tp51
.(((cnumpy.core.multiarray
_reconstruct
p0
(cnumpy.matrixlib.defmatrix
matrix
p1
(I0
tp2
S'b'
p3
tp4
Rp5
(I1
(I1
I1
tp6
cnumpy
dtype
p7
(S'f8'
p8
I0
I1
tp9
Rp10
(I3
S'<'
p11
NNNI-1
I-1
I0
tp12
bI00
S'\xd6\x9d\xd84\xaf\xa4\xb9?'
p13
tp14
bg0
(g1
(I0
tp15
g3
tp16
Rp17
(I1
(I1
I1
tp18
g10
I00
S'F\xe5}\xde\x803\xa7?'
p19
tp20
bg0
(g1
(I0
tp21
g3
tp22
Rp23
(I1
(I1
I1
tp24
g10
I00
S'\xa2\x0f\x1bT\x0c-\xc5\xbf'
p25
tp26
btp27
(F1.1419153251820342
F-27.73569150793757
F-161.7833151904296
tp28
I176
I278
tp29
((g0
(g1
(I0
tp30
g3
tp31
Rp32
(I1
(I1
I1
tp33
g10
I00
S'6\x85\xc3\xa9,\x8e\xb5\xbf'
p34
tp35
bg0
(g1
(I0
tp36
g3
tp37
Rp38
(I1
(I1
I1
tp39
g10
I00
S'DB@\xd5\xca8\xaf?'
p40
tp41
bg0
(g1
(I0
tp42
g3
tp43
Rp44
(I1
(I1
I1
tp45
g10
I00
S'B`\x83\xca{j\xc0\xbf'
p46
tp47
btp48
(F-14.190411800645746
F28.588308706320472
F-157.614369627134
tp49
I176
I278
tp50
tp51
.(((cnumpy.core.multiarray
_reconstruct
p0
(cnumpy.matrixlib.defmatrix
matrix
p1
(I0
tp2
S'b'
p3
tp4
Rp5
(I1
(I1
I1
tp6
cnumpy
dtype
p7
(S'f8'
p8
I0
I1
tp9
Rp10
(I3
S'<'
p11
NNNI-1
I-1
I0
tp12
bI00
S'Y\x06\x0fx\x99?\xaf?'
p13
tp14
bg0
(g1
(I0
tp15
g3
tp16
Rp17
(I1
(I1
I1
tp18
g10
I00
S'\xcfE\xd8\x191+\xa4?'
p19
tp20
bg0
(g1
(I0
tp21
g3
tp22
Rp23
(I1
(I1
I1
tp24
g10
I00
S'\xbe\xd9\xed\xbb*\xb8\xc4\xbf'
p25
tp26
btp27
(F0.913534957696534
F-17.18367011066461
F-160.73410797658954
tp28
I646
I278
tp29
((g0
(g1
(I0
tp30
g3
tp31
Rp32
(I1
(I1
I1
tp33
g10
I00
S'\xb8t\xdf\xd3\xc4\x15\xbf\xbf'
p34
tp35
bg0
(g1
(I0
tp36
g3
tp37
Rp38
(I1
(I1
I1
tp39
g10
I00
S'cp=9\x1eY\xb1?'
p40
tp41
bg0
(g1
(I0
tp42
g3
tp43
Rp44
(I1
(I1
I1
tp45
g10
I00
S'\xff\xccE\x93\x91\xaf\xbf\xbf'
p46
tp47
btp48
(F-16.099065189515684
F39.19978348331557
F-161.62363629812947
tp49
I646
I278
tp50
tp51
.(((cnumpy.core.multiarray
_reconstruct
p0
(cnumpy.matrixlib.defmatrix
matrix
p1
(I0
tp2
S'b'
p3
tp4
Rp5
(I1
(I1
I1
tp6
cnumpy
dtype
p7
(S'f8'
p8
I0
I1
tp9
Rp10
(I3
S'<'
p11
NNNI-1
I-1
I0
tp12
bI00
S'G\xee\x86\x8d\xdd\x19\xb0?'
p13
tp14
bg0
(g1
(I0
tp15
g3
tp16
Rp17
(I1
(I1
I1
tp18
g10
I00
S'\xd8\xff\xb0a[\x80\xa4?'
p19
tp20
bg0
(g1
(I0
tp21
g3
tp22
Rp23
(I1
(I1
I1
tp24
g10
I00
S'\xd9}AX\xb8\xa7\xc4\xbf'
p25
tp26
btp27
(F0.8662796465573747
F-17.81539388935584
F-159.84502144323037
tp28
I646
I278
tp29
((g0
(g1
(I0
tp30
g3
tp31
Rp32
(I1
(I1
I1
tp33
g10
I00
S'\x8ez\xcb\x0f\xb8\xea\xbe\xbf'
p34
tp35
bg0
(g1
(I0
tp36
g3
tp37
Rp38
(I1
(I1
I1
tp39
g10
I00
S'\x1a\x87\xd4TC[\xb1?'
p40
tp41
bg0
(g1
(I0
tp42
g3
tp43
Rp44
(I1
(I1
I1
tp45
g10
I00
S'\x11\x0f\x08\xfc\xa7\xed\xbf\xbf'
p46
tp47
btp48
(F-15.996355875454567
F38.90291231587229
F-161.41246254894432
tp49
I646
I278
tp50
tp51
.(((cnumpy.core.multiarray
_reconstruct
p0
(cnumpy.matrixlib.defmatrix
matrix
p1
(I0
tp2
S'b'
p3
tp4
Rp5
(I1
(I1
I1
tp6
cnumpy
dtype
p7
(S'f8'
p8
I0
I1
tp9
Rp10
(I3
S'<'
p11
NNNI-1
I-1
I0
tp12
bI00
S'\x9b\xe4\xf7\xad\x089\xa6?'
p13
tp14
bg0
(g1
(I0
tp15
g3
tp16
Rp17
(I1
(I1
I1
tp18
g10
I00
S'\x9b\x9e\x07I\xd7x\xa3?'
p19
tp20
bg0
(g1
(I0
tp21
g3
tp22
Rp23
(I1
(I1
I1
tp24
g10
I00
S'\xb0\xd71\xcb\x0bJ\xc4\xbf'
p25
tp26
btp27
(F0.8213317584333913
F-11.834205383579526
F-159.28456829751843
tp28
I871
I286
tp29
((g0
(g1
(I0
tp30
g3
tp31
Rp32
(I1
(I1
I1
tp33
g10
I00
S'\x8e\xec\xcdUL\xb3\xc1\xbf'
p34
tp35
bg0
(g1
(I0
tp36
g3
tp37
Rp38
(I1
(I1
I1
tp39
g10
I00
S'\xe6(\xf8\x8d;\xba\xb2?'
p40
tp41
bg0
(g1
(I0
tp42
g3
tp43
Rp44
(I1
(I1
I1
tp45
g10
I00
S'\x05\x93\x053\xd7u\xbf\xbf'
p46
tp47
btp48
(F-17.09371836020606
F42.95057887053321
F-162.8307442899462
tp49
I871
I286
tp50
tp51
.(((cnumpy.core.multiarray
_reconstruct
p0
(cnumpy.matrixlib.defmatrix
matrix
p1
(I0
tp2
S'b'
p3
tp4
Rp5
(I1
(I1
I1
tp6
cnumpy
dtype
p7
(S'f8'
p8
I0
I1
tp9
Rp10
(I3
S'<'
p11
NNNI-1
I-1
I0
tp12
bI00
S'.g\xf9\xee\x1bz\x9a?'
p13
tp14
bg0
(g1
(I0
tp15
g3
tp16
Rp17
(I1
(I1
I1
tp18
g10
I00
S"\x00\x92I \x0b'\xa2?"
p19
tp20
bg0
(g1
(I0
tp21
g3
tp22
Rp23
(I1
(I1
I1
tp24
g10
I00
S'y\x9an\x99J\xf6\xc3\xbf'
p25
tp26
btp27
(F0.826721320915467
F-5.962665201126749
F-159.37598455327563
tp28
I1092
I294
tp29
((g0
(g1
(I0
tp30
g3
tp31
Rp32
(I1
(I1
I1
tp33
g10
I00
S'\xb3\xb5r\x8d\x95?\xc4\xbf'
p34
tp35
bg0
(g1
(I0
tp36
g3
tp37
Rp38
(I1
(I1
I1
tp39
g10
I00
S'd\xb1"j\xdbe\xb3?'
p40
tp41
bg0
(g1
(I0
tp42
g3
tp43
Rp44
(I1
(I1
I1
tp45
g10
I00
S'2Ju\x8e\xb4\x91\xbe\xbf'
p46
tp47
btp48
(F-18.36474861105209
F47.168465706243616
F-165.32823175057
tp49
I1092
I294
tp50
tp51
.(((cnumpy.core.multiarray
_reconstruct
p0
(cnumpy.matrixlib.defmatrix
matrix
p1
(I0
tp2
S'b'
p3
tp4
Rp5
(I1
(I1
I1
tp6
cnumpy
dtype
p7
(S'f8'
p8
I0
I1
tp9
Rp10
(I3
S'<'
p11
NNNI-1
I-1
I0
tp12
bI00
S':\xb2?\xc3$\xc5\x99?'
p13
tp14
bg0
(g1
(I0
tp15
g3
tp16
Rp17
(I1
(I1
I1
tp18
g10
I00
S' \x02\x8d\xe6+\xf8\xa1?'
p19
tp20
bg0
(g1
(I0
tp21
g3
tp22
Rp23
(I1
(I1
I1
tp24
g10
I00
S'?y\xd2\xa1\xce\x05\xc4\xbf'
p25
tp26
btp27
(F0.767856346424569
F-5.682696309563437
F-159.37492714630858
tp28
I1092
I294
tp29
((g0
(g1
(I0
tp30
g3
tp31
Rp32
(I1
(I1
I1
tp33
g10
I00
S'\xeac\xf9\xff\xc6@\xc4\xbf'
p34
tp35
bg0
(g1
(I0
tp36
g3
tp37
Rp38
(I1
(I1
I1
tp39
g10
I00
S'\x0b\x14\x1b\xea\x08\x8e\xb3?'
p40
tp41
bg0
(g1
(I0
tp42
g3
tp43
Rp44
(I1
(I1
I1
tp45
g10
I00
S'W\xa8\xc5e\xbc\x89\xbe\xbf'
p46
tp47
btp48
(F-18.39995413362327
F47.268272532978514
F-165.23110132046412
tp49
I1092
I294
tp50
tp51
.(((cnumpy.core.multiarray
_reconstruct
p0
(cnumpy.matrixlib.defmatrix
matrix
p1
(I0
tp2
S'b'
p3
tp4
Rp5
(I1
(I1
I1
tp6
cnumpy
dtype
p7
(S'f8'
p8
I0
I1
tp9
Rp10
(I3
S'<'
p11
NNNI-1
I-1
I0
tp12
bI00
S'W\x03\xcd\xd1\xf4\x9a\x80?'
p13
tp14
bg0
(g1
(I0
tp15
g3
tp16
Rp17
(I1
(I1
I1
tp18
g10
I00
S'\x08\xc3R\xd0@\xae\xa0?'
p19
tp20
bg0
(g1
(I0
tp21
g3
tp22
Rp23
(I1
(I1
I1
tp24
g10
I00
S'\x7f\n\x8a\x83\xb7\xab\xc3\xbf'
p25
tp26
btp27
(F0.6807424782833293
F0.49231167807144044
F-159.63317974392945
tp28
I1308
I302
tp29
((g0
(g1
(I0
tp30
g3
tp31
Rp32
(I1
(I1
I1
tp33
g10
I00
S'\x99\n\xf3\xd0\xd0\x9a\xc6\xbf'
p34
tp35
bg0
(g1
(I0
tp36
g3
tp37
Rp38
(I1
(I1
I1
tp39
g10
I00
S'T\x909\xc1\x8dH\xb4?'
p40
tp41
bg0
(g1
(I0
tp42
g3
tp43
Rp44
(I1
(I1
I1
tp45
g10
I00
S'\xc9=\x05.O\xbd\xbd\xbf'
p46
tp47
btp48
(F-19.698100180268757
F50.60703407313959
F-167.48478962736797
tp49
I1308
I302
tp50
tp51
.(((cnumpy.core.multiarray
_reconstruct
p0
(cnumpy.matrixlib.defmatrix
matrix
p1
(I0
tp2
S'b'
p3
tp4
Rp5
(I1
(I1
I1
tp6
cnumpy
dtype
p7
(S'f8'
p8
I0
I1
tp9
Rp10
(I3
S'<'
p11
NNNI-1
I-1
I0
tp12
bI00
S'\x8a\xc2\xa0\xa3\xc7\xbb\x7f?'
p13
tp14
bg0
(g1
(I0
tp15
g3
tp16
Rp17
(I1
(I1
I1
tp18
g10
I00
S'\xd8\xd0\xd4\x17s"\xa1?'
p19
tp20
bg0
(g1
(I0
tp21
g3
tp22
Rp23
(I1
(I1
I1
tp24
g10
I00
S'\xc0b\xa2\x9bV\xbb\xc3\xbf'
p25
tp26
btp27
(F0.18345152168065817
F0.6915379880962029
F-159.31874037377085
tp28
I1308
I302
tp29
((g0
(g1
(I0
tp30
g3
tp31
Rp32
(I1
(I1
I1
tp33
g10
I00
S'\x91\xf3\xf1\x98\x88\xb3\xc6\xbf'
p34
tp35
bg0
(g1
(I0
tp36
g3
tp37
Rp38
(I1
(I1
I1
tp39
g10
I00
S'\n\xcb\x91\xfc\x12{\xb4?'
p40
tp41
bg0
(g1
(I0
tp42
g3
tp43
Rp44
(I1
(I1
I1
tp45
g10
I00
S'\x84t\xdc\x0fG}\xbd\xbf'
p46
tp47
btp48
(F-19.799622487195638
F51.08506568899008
F-167.55519827329525
tp49
I1308
I302
tp50
tp51
.(((cnumpy.core.multiarray
_reconstruct
p0
(cnumpy.matrixlib.defmatrix
matrix
p1
(I0
tp2
S'b'
p3
tp4
Rp5
(I1
(I1
I1
tp6
cnumpy
dtype
p7
(S'f8'
p8
I0
I1
tp9
Rp10
(I3
S'<'
p11
NNNI-1
I-1
I0
tp12
bI00
S'~\xdc\x10\x81\x91\xad\xb6?'
p13
tp14
bg0
(g1
(I0
tp15
g3
tp16
Rp17
(I1
(I1
I1
tp18
g10
I00
S'\xb8\xb39\xcbn\x9f\xaa?'
p19
tp20
bg0
(g1
(I0
tp21
g3
tp22
Rp23
(I1
(I1
I1
tp24
g10
I00
S'\xcc|\xc3\x8a\xa7&\xc5\xbf'
p25
tp26
btp27
(F1.2575325250928717
F-24.882295417270743
F-156.32877384112095
tp28
I316
I372
tp29
((g0
(g1
(I0
tp30
g3
tp31
Rp32
(I1
(I1
I1
tp33
g10
I00
S'\xd2\xa1\x96~\xb1\xab\xb7\xbf'
p34
tp35
bg0
(g1
(I0
tp36
g3
tp37
Rp38
(I1
(I1
I1
tp39
g10
I00
S'\xcc\xcc\x94\xcd\xe6z\xb2?'
p40
tp41
bg0
(g1
(I0
tp42
g3
tp43
Rp44
(I1
(I1
I1
tp45
g10
I00
S'\x15\xa4\x1eQ.;\xc0\xbf'
p46
tp47
btp48
(F-14.90208886656114
F32.00902970743208
F-155.92785001263715
tp49
I316
I372
tp50
tp51
.(((cnumpy.core.multiarray
_reconstruct
p0
(cnumpy.matrixlib.defmatrix
matrix
p1
(I0
tp2
S'b'
p3
tp4
Rp5
(I1
(I1
I1
tp6
cnumpy
dtype
p7
(S'f8'
p8
I0
I1
tp9
Rp10
(I3
S'<'
p11
NNNI-1
I-1
I0
tp12
bI00
S'm\xd4[|?Q\xb2?'
p13
tp14
bg0
(g1
(I0
tp15
g3
tp16
Rp17
(I1
(I1
I1
tp18
g10
I00
S'\x94\xba\x8f\xcf1\x0b\xaa?'
p19
tp20
bg0
(g1
(I0
tp21
g3
tp22
Rp23
(I1
(I1
I1
tp24
g10
I00
S'b\x1b\xbfz\xef\xc8\xc4\xbf'
p25
tp26
btp27
(F1.0772563825509234
F-20.442709536882465
F-155.44794209577557
tp28
I498
I387
tp29
((g0
(g1
(I0
tp30
g3
tp31
Rp32
(I1
(I1
I1
tp33
g10
I00
S'\x81\x10U0i)\xbb\xbf'
p34
tp35
bg0
(g1
(I0
tp36
g3
tp37
Rp38
(I1
(I1
I1
tp39
g10
I00
S'\x07B\x92\x8b0\xf5\xb2?'
p40
tp41
bg0
(g1
(I0
tp42
g3
tp43
Rp44
(I1
(I1
I1
tp45
g10
I00
S'\xbc\x0ec\x13\xca\xf6\xbf\xbf'
p46
tp47
btp48
(F-15.655797792673281
F35.88239303429693
F-157.56400570106752
tp49
I498
I387
tp50
tp51
.(((cnumpy.core.multiarray
_reconstruct
p0
(cnumpy.matrixlib.defmatrix
matrix
p1
(I0
tp2
S'b'
p3
tp4
Rp5
(I1
(I1
I1
tp6
cnumpy
dtype
p7
(S'f8'
p8
I0
I1
tp9
Rp10
(I3
S'<'
p11
NNNI-1
I-1
I0
tp12
bI00
S'\x8eZ$\x86 \x95\xaa?'
p13
tp14
bg0
(g1
(I0
tp15
g3
tp16
Rp17
(I1
(I1
I1
tp18
g10
I00
S'\x02\x1bA\x1f\xb5J\xa8?'
p19
tp20
bg0
(g1
(I0
tp21
g3
tp22
Rp23
(I1
(I1
I1
tp24
g10
I00
S'\x0e\xb3\t\xe5\tl\xc4\xbf'
p25
tp26
btp27
(F1.1303953245960616
F-14.707728679864912
F-155.48194160201095
tp28
I757
I394
tp29
((g0
(g1
(I0
tp30
g3
tp31
Rp32
(I1
(I1
I1
tp33
g10
I00
S'|\xdb-\xc4y?\xc0\xbf'
p34
tp35
bg0
(g1
(I0
tp36
g3
tp37
Rp38
(I1
(I1
I1
tp39
g10
I00
S'\xc5\xa8\xc0\xcf\n8\xb4?'
p40
tp41
bg0
(g1
(I0
tp42
g3
tp43
Rp44
(I1
(I1
I1
tp45
g10
I00
S'5\xb2{\xb0\xa7c\xbf\xbf'
p46
tp47
btp48
(F-16.904120848418504
F41.12948175339842
F-159.65580573679608
tp49
I757
I394
tp50
tp51
.(((cnumpy.core.multiarray
_reconstruct
p0
(cnumpy.matrixlib.defmatrix
matrix
p1
(I0
tp2
S'b'
p3
tp4
Rp5
(I1
(I1
I1
tp6
cnumpy
dtype
p7
(S'f8'
p8
I0
I1
tp9
Rp10
(I3
S'<'
p11
NNNI-1
I-1
I0
tp12
bI00
S'\xc0m9\xaa!\x97\xa0?'
p13
tp14
bg0
(g1
(I0
tp15
g3
tp16
Rp17
(I1
(I1
I1
tp18
g10
I00
S'E\xaeCm\xd0\xa6\xa7?'
p19
tp20
bg0
(g1
(I0
tp21
g3
tp22
Rp23
(I1
(I1
I1
tp24
g10
I00
S'$\xc2\xb5x\xc9\x17\xc4\xbf'
p25
tp26
btp27
(F0.8060218882181613
F-8.279603252950137
F-155.05426390870386
tp28
I979
I400
tp29
((g0
(g1
(I0
tp30
g3
tp31
Rp32
(I1
(I1
I1
tp33
g10
I00
S'\xc1M\x80lF\xd3\xc2\xbf'
p34
tp35
bg0
(g1
(I0
tp36
g3
tp37
Rp38
(I1
(I1
I1
tp39
g10
I00
S'\xd8\xb7\x11\xb6\x966\xb5?'
p40
tp41
bg0
(g1
(I0
tp42
g3
tp43
Rp44
(I1
(I1
I1
tp45
g10
I00
S'?!P;\xbb\xd4\xbe\xbf'
p46
tp47
btp48
(F-18.10328552563145
F45.597994028737965
F-162.20466578028135
tp49
I979
I400
tp50
tp51
.(((cnumpy.core.multiarray
_reconstruct
p0
(cnumpy.matrixlib.defmatrix
matrix
p1
(I0
tp2
S'b'
p3
tp4
Rp5
(I1
(I1
I1
tp6
cnumpy
dtype
p7
(S'f8'
p8
I0
I1
tp9
Rp10
(I3
S'<'
p11
NNNI-1
I-1
I0
tp12
bI00
S'\x8f\x94\xbev\xf3\xf1\x8f?'
p13
tp14
bg0
(g1
(I0
tp15
g3
tp16
Rp17
(I1
(I1
I1
tp18
g10
I00
S'J\x9bc\xa8W?\xa6?'
p19
tp20
bg0
(g1
(I0
tp21
g3
tp22
Rp23
(I1
(I1
I1
tp24
g10
I00
S'\x0b\xaf\xbb0\xc5\xd4\xc3\xbf'
p25
tp26
btp27
(F0.9896733096569966
F-2.4194999023060637
F-155.5178038666931
tp28
I1199
I406
tp29
((g0
(g1
(I0
tp30
g3
tp31
Rp32
(I1
(I1
I1
tp33
g10
I00
S'\xdf\x88\xecI\x088\xc5\xbf'
p34
tp35
bg0
(g1
(I0
tp36
g3
tp37
Rp38
(I1
(I1
I1
tp39
g10
I00
S'*\xa5\x17_x:\xb6?'
p40
tp41
bg0
(g1
(I0
tp42
g3
tp43
Rp44
(I1
(I1
I1
tp45
g10
I00
S'\x9b<{Uu\x1e\xbe\xbf'
p46
tp47
btp48
(F-19.413274291462944
F49.16333199299063
F-164.37468861986284
tp49
I1199
I406
tp50
tp51
.(((cnumpy.core.multiarray
_reconstruct
p0
(cnumpy.matrixlib.defmatrix
matrix
p1
(I0
tp2
S'b'
p3
tp4
Rp5
(I1
(I1
I1
tp6
cnumpy
dtype
p7
(S'f8'
p8
I0
I1
tp9
Rp10
(I3
S'<'
p11
NNNI-1
I-1
I0
tp12
bI00
S'\xa8K\x91 \xcap\xb8?'
p13
tp14
bg0
(g1
(I0
tp15
g3
tp16
Rp17
(I1
(I1
I1
tp18
g10
I00
S'p\xc2\x12\xdd\t\x93\xaf?'
p19
tp20
bg0
(g1
(I0
tp21
g3
tp22
Rp23
(I1
(I1
I1
tp24
g10
I00
S'\xffm=\xbfn\x1c\xc5\xbf'
p25
tp26
btp27
(F0.5767149973559824
F-26.578125095172187
F-153.25784707523323
tp28
I209
I461
tp29
((g0
(g1
(I0
tp30
g3
tp31
Rp32
(I1
(I1
I1
tp33
g10
I00
S'7\x14\x1d\x88e|\xb5\xbf'
p34
tp35
bg0
(g1
(I0
tp36
g3
tp37
Rp38
(I1
(I1
I1
tp39
g10
I00
S'\x98>ka\xf4\xa6\xb3?'
p40
tp41
bg0
(g1
(I0
tp42
g3
tp43
Rp44
(I1
(I1
I1
tp45
g10
I00
S'\x91\x95e<el\xc0\xbf'
p46
tp47
btp48
(F-14.685972808171881
F29.571732653113486
F-153.31760716396542
tp49
I209
I461
tp50
tp51
.(((cnumpy.core.multiarray
_reconstruct
p0
(cnumpy.matrixlib.defmatrix
matrix
p1
(I0
tp2
S'b'
p3
tp4
Rp5
(I1
(I1
I1
tp6
cnumpy
dtype
p7
(S'f8'
p8
I0
I1
tp9
Rp10
(I3
S'<'
p11
NNNI-1
I-1
I0
tp12
bI00
S'\xa5>\xcaQa\xbe\xb3?'
p13
tp14
bg0
(g1
(I0
tp15
g3
tp16
Rp17
(I1
(I1
I1
tp18
g10
I00
S'\xe4\xc4\x03MB\xff\xae?'
p19
tp20
bg0
(g1
(I0
tp21
g3
tp22
Rp23
(I1
(I1
I1
tp24
g10
I00
S'\x0e\xdf\xc2]\n\x06\xc5\xbf'
p25
tp26
btp27
(F0.6274534257930071
F-21.691187380732348
F-152.74822336297956
tp28
I412
I496
tp29
((g0
(g1
(I0
tp30
g3
tp31
Rp32
(I1
(I1
I1
tp33
g10
I00
S'\x86\x84\x14\xba\x1c\x11\xb9\xbf'
p34
tp35
bg0
(g1
(I0
tp36
g3
tp37
Rp38
(I1
(I1
I1
tp39
g10
I00
S'\xaeT[\x98\x91>\xb5?'
p40
tp41
bg0
(g1
(I0
tp42
g3
tp43
Rp44
(I1
(I1
I1
tp45
g10
I00
S'Y`zF\xf3"\xc0\xbf'
p46
tp47
btp48
(F-15.537083381535595
F34.19426452064772
F-153.91022190484233
tp49
I412
I496
tp50
tp51
.(((cnumpy.core.multiarray
_reconstruct
p0
(cnumpy.matrixlib.defmatrix
matrix
p1
(I0
tp2
S'b'
p3
tp4
Rp5
(I1
(I1
I1
tp6
cnumpy
dtype
p7
(S'f8'
p8
I0
I1
tp9
Rp10
(I3
S'<'
p11
NNNI-1
I-1
I0
tp12
bI00
S'u\xae\x8aZ\xd4\x0b\xae?'
p13
tp14
bg0
(g1
(I0
tp15
g3
tp16
Rp17
(I1
(I1
I1
tp18
g10
I00
S'}\xd2\xc2u\xc5\xb9\xad?'
p19
tp20
bg0
(g1
(I0
tp21
g3
tp22
Rp23
(I1
(I1
I1
tp24
g10
I00
S'p@\xcd\x10:z\xc4\xbf'
p25
tp26
btp27
(F0.6657530625744408
F-16.71670538669592
F-152.3022338354982
tp28
I642
I501
tp29
((g0
(g1
(I0
tp30
g3
tp31
Rp32
(I1
(I1
I1
tp33
g10
I00
S'`\xcbxI\x14\xe8\xbd\xbf'
p34
tp35
bg0
(g1
(I0
tp36
g3
tp37
Rp38
(I1
(I1
I1
tp39
g10
I00
S'0]\xf2E\xa5Q\xb6?'
p40
tp41
bg0
(g1
(I0
tp42
g3
tp43
Rp44
(I1
(I1
I1
tp45
g10
I00
S'\x01\xd6L\x12\xb4\xb1\xbf\xbf'
p46
tp47
btp48
(F-16.60557173742359
F39.44234645293014
F-156.17892411849886
tp49
I642
I501
tp50
tp51
.(((cnumpy.core.multiarray
_reconstruct
p0
(cnumpy.matrixlib.defmatrix
matrix
p1
(I0
tp2
S'b'
p3
tp4
Rp5
(I1
(I1
I1
tp6
cnumpy
dtype
p7
(S'f8'
p8
I0
I1
tp9
Rp10
(I3
S'<'
p11
NNNI-1
I-1
I0
tp12
bI00
S'h\x0f\xf6v\x91\x0f\xa5?'
p13
tp14
bg0
(g1
(I0
tp15
g3
tp16
Rp17
(I1
(I1
I1
tp18
g10
I00
S'B\xf1\x8f\x9a`\x08\xad?'
p19
tp20
bg0
(g1
(I0
tp21
g3
tp22
Rp23
(I1
(I1
I1
tp24
g10
I00
S'\xfc3\x0c\x8f\xcb\x12\xc4\xbf'
p25
tp26
btp27
(F0.809691376590015
F-11.32176104281946
F-151.7339727202046
tp28
I866
I507
tp29
((g0
(g1
(I0
tp30
g3
tp31
Rp32
(I1
(I1
I1
tp33
g10
I00
S'\x8e\r\xaa\x0czC\xc1\xbf'
p34
tp35
bg0
(g1
(I0
tp36
g3
tp37
Rp38
(I1
(I1
I1
tp39
g10
I00
S';\xd5*\xba\x1f\x02\xb7?'
p40
tp41
bg0
(g1
(I0
tp42
g3
tp43
Rp44
(I1
(I1
I1
tp45
g10
I00
S'$OU^0I\xbf\xbf'
p46
tp47
btp48
(F-17.68997050234575
F43.47016787020932
F-158.67993701912422
tp49
I866
I507
tp50
tp51
.(((cnumpy.core.multiarray
_reconstruct
p0
(cnumpy.matrixlib.defmatrix
matrix
p1
(I0
tp2
S'b'
p3
tp4
Rp5
(I1
(I1
I1
tp6
cnumpy
dtype
p7
(S'f8'
p8
I0
I1
tp9
Rp10
(I3
S'<'
p11
NNNI-1
I-1
I0
tp12
bI00
S'\xae\xf7Z6\x15{\x97?'
p13
tp14
bg0
(g1
(I0
tp15
g3
tp16
Rp17
(I1
(I1
I1
tp18
g10
I00
S'Wm\xe5\x84\x05\xa1\xab?'
p19
tp20
bg0
(g1
(I0
tp21
g3
tp22
Rp23
(I1
(I1
I1
tp24
g10
I00
S'_\x92l)\xb4\xc5\xc3\xbf'
p25
tp26
btp27
(F0.41680263368327103
F-4.955372501138569
F-151.80508939329758
tp28
I1087
I512
tp29
((g0
(g1
(I0
tp30
g3
tp31
Rp32
(I1
(I1
I1
tp33
g10
I00
S'\xa9\xe6\x1cN`\xc3\xc3\xbf'
p34
tp35
bg0
(g1
(I0
tp36
g3
tp37
Rp38
(I1
(I1
I1
tp39
g10
I00
S"Q\x91\xa7',*\xb8?"
p40
tp41
bg0
(g1
(I0
tp42
g3
tp43
Rp44
(I1
(I1
I1
tp45
g10
I00
S'\xc2^\xbc\xbf\xaa\xcd\xbe\xbf'
p46
tp47
btp48
(F-18.93355891190333
F47.37464111852392
F-160.99579669768195
tp49
I1087
I512
tp50
tp51
.(((cnumpy.core.multiarray
_reconstruct
p0
(cnumpy.matrixlib.defmatrix
matrix
p1
(I0
tp2
S'b'
p3
tp4
Rp5
(I1
(I1
I1
tp6
cnumpy
dtype
p7
(S'f8'
p8
I0
I1
tp9
Rp10
(I3
S'<'
p11
NNNI-1
I-1
I0
tp12
bI00
S'\xd4\xd2\x13\x9f\xf5\xe7z?'
p13
tp14
bg0
(g1
(I0
tp15
g3
tp16
Rp17
(I1
(I1
I1
tp18
g10
I00
S'\xba}\xe2q7\x05\xaa?'
p19
tp20
bg0
(g1
(I0
tp21
g3
tp22
Rp23
(I1
(I1
I1
tp24
g10
I00
S'\xd36\x95\x9bs\xb4\xc3\xbf'
p25
tp26
btp27
(F1.094539050964562
F0.8139130128504297
F-152.6817286156389
tp28
I1304
I517
tp29
((g0
(g1
(I0
tp30
g3
tp31
Rp32
(I1
(I1
I1
tp33
g10
I00
S'\x96\xf1\xf8A\xd5\xe4\xc5\xbf'
p34
tp35
bg0
(g1
(I0
tp36
g3
tp37
Rp38
(I1
(I1
I1
tp39
g10
I00
S'\xaf\x13\xcc\xa6\xb8\x16\xb9?'
p40
tp41
bg0
(g1
(I0
tp42
g3
tp43
Rp44
(I1
(I1
I1
tp45
g10
I00
S'\xc2_"\xa1\x85\x84\xbd\xbf'
p46
tp47
btp48
(F-20.406953877197665
F50.922755754083795
F-163.27984311384083
tp49
I1304
I517
tp50
tp51
.(((cnumpy.core.multiarray
_reconstruct
p0
(cnumpy.matrixlib.defmatrix
matrix
p1
(I0
tp2
S'b'
p3
tp4
Rp5
(I1
(I1
I1
tp6
cnumpy
dtype
p7
(S'f8'
p8
I0
I1
tp9
Rp10
(I3
S'<'
p11
NNNI-1
I-1
I0
tp12
bI00
S'\x17{1\xc8\x964\xb1?'
p13
tp14
bg0
(g1
(I0
tp15
g3
tp16
Rp17
(I1
(I1
I1
tp18
g10
I00
S'\x809\xc0]/\x92\xb1?'
p19
tp20
bg0
(g1
(I0
tp21
g3
tp22
Rp23
(I1
(I1
I1
tp24
g10
I00
S'|\x87\xba\xf1\x8a\xcc\xc4\xbf'
p25
tp26
btp27
(F0.7037090860887543
F-19.640459102953272
F-150.24584863327948
tp28
I526
I610
tp29
((g0
(g1
(I0
tp30
g3
tp31
Rp32
(I1
(I1
I1
tp33
g10
I00
S'\x88j\xa3\x98<\x05\xbb\xbf'
p34
tp35
bg0
(g1
(I0
tp36
g3
tp37
Rp38
(I1
(I1
I1
tp39
g10
I00
S'\x81\xd7\x9a\x89\xb8R\xb8?'
p40
tp41
bg0
(g1
(I0
tp42
g3
tp43
Rp44
(I1
(I1
I1
tp45
g10
I00
S'\xb7rR0\x9a\x15\xc0\xbf'
p46
tp47
btp48
(F-16.16361285815458
F36.95351685603931
F-152.36696363566028
tp49
I526
I610
tp50
tp51
.(((cnumpy.core.multiarray
_reconstruct
p0
(cnumpy.matrixlib.defmatrix
matrix
p1
(I0
tp2
S'b'
p3
tp4
Rp5
(I1
(I1
I1
tp6
cnumpy
dtype
p7
(S'f8'
p8
I0
I1
tp9
Rp10
(I3
S'<'
p11
NNNI-1
I-1
I0
tp12
bI00
S'\xf9.v\x1f/\x15\xb6?'
p13
tp14
bg0
(g1
(I0
tp15
g3
tp16
Rp17
(I1
(I1
I1
tp18
g10
I00
S'\xe8wf\xbb\x9d\xd3\xb1?'
p19
tp20
bg0
(g1
(I0
tp21
g3
tp22
Rp23
(I1
(I1
I1
tp24
g10
I00
S'\x829<\xad7\xee\xc4\xbf'
p25
tp26
btp27
(F0.8859117469589673
F-24.482847693125223
F-150.4929479264685
tp28
I306
I615
tp29
((g0
(g1
(I0
tp30
g3
tp31
Rp32
(I1
(I1
I1
tp33
g10
I00
S'\xd1\xab\x87O%~\xb6\xbf'
p34
tp35
bg0
(g1
(I0
tp36
g3
tp37
Rp38
(I1
(I1
I1
tp39
g10
I00
S')|9T\xe6\xf3\xb6?'
p40
tp41
bg0
(g1
(I0
tp42
g3
tp43
Rp44
(I1
(I1
I1
tp45
g10
I00
S'&\xc6V\x8aCd\xc0\xbf'
p46
tp47
btp48
(F-15.112013214466582
F31.70733223726874
F-150.46063172942453
tp49
I306
I615
tp50
tp51
.(((cnumpy.core.multiarray
_reconstruct
p0
(cnumpy.matrixlib.defmatrix
matrix
p1
(I0
tp2
S'b'
p3
tp4
Rp5
(I1
(I1
I1
tp6
cnumpy
dtype
p7
(S'f8'
p8
I0
I1
tp9
Rp10
(I3
S'<'
p11
NNNI-1
I-1
I0
tp12
bI00
S'\xd1\xcd\x0e\xbfa3\xa9?'
p13
tp14
bg0
(g1
(I0
tp15
g3
tp16
Rp17
(I1
(I1
I1
tp18
g10
I00
S'\x98\xbf\xd1qu\xcb\xb0?'
p19
tp20
bg0
(g1
(I0
tp21
g3
tp22
Rp23
(I1
(I1
I1
tp24
g10
I00
S'opI\x05\x19]\xc4\xbf'
p25
tp26
btp27
(F0.7120985194673047
F-13.828733635305372
F-149.2661410397198
tp28
I752
I615
tp29
((g0
(g1
(I0
tp30
g3
tp31
Rp32
(I1
(I1
I1
tp33
g10
I00
S'\xf0\xad\xceW\xfb\xf2\xbf\xbf'
p34
tp35
bg0
(g1
(I0
tp36
g3
tp37
Rp38
(I1
(I1
I1
tp39
g10
I00
S'\xb9\xaf\x83\xec\xfa`\xb9?'
p40
tp41
bg0
(g1
(I0
tp42
g3
tp43
Rp44
(I1
(I1
I1
tp45
g10
I00
S'\xdd$\xe7\x99\xba\xb4\xbf\xbf'
p46
tp47
btp48
(F-17.264410831081737
F41.82420867139828
F-154.92232205917347
tp49
I752
I615
tp50
tp51
.(((cnumpy.core.multiarray
_reconstruct
p0
(cnumpy.matrixlib.defmatrix
matrix
p1
(I0
tp2
S'b'
p3
tp4
Rp5
(I1
(I1
I1
tp6
cnumpy
dtype
p7
(S'f8'
p8
I0
I1
tp9
Rp10
(I3
S'<'
p11
NNNI-1
I-1
I0
tp12
bI00
S'\xeb\x11k\x9e.8\xa0?'
p13
tp14
bg0
(g1
(I0
tp15
g3
tp16
Rp17
(I1
(I1
I1
tp18
g10
I00
S'4YB\x9dU2\xb0?'
p19
tp20
bg0
(g1
(I0
tp21
g3
tp22
Rp23
(I1
(I1
I1
tp24
g10
I00
S'\xddM\xcf\xb2\xb1\xf9\xc3\xbf'
p25
tp26
btp27
(F0.6525663466235405
F-8.10157409171149
F-148.81244618828458
tp28
I975
I619
tp29
((g0
(g1
(I0
tp30
g3
tp31
Rp32
(I1
(I1
I1
tp33
g10
I00
S'\xfaA%(\xfc\x1c\xc2\xbf'
p34
tp35
bg0
(g1
(I0
tp36
g3
tp37
Rp38
(I1
(I1
I1
tp39
g10
I00
S'6\xa2\x98}{\xd1\xb9?'
p40
tp41
bg0
(g1
(I0
tp42
g3
tp43
Rp44
(I1
(I1
I1
tp45
g10
I00
S'\x1b\x18\\eW&\xbf\xbf'
p46
tp47
btp48
(F-18.348821713178417
F45.45014920922754
F-157.33349507974611
tp49
I975
I619
tp50
tp51
.(((cnumpy.core.multiarray
_reconstruct
p0
(cnumpy.matrixlib.defmatrix
matrix
p1
(I0
tp2
S'b'
p3
tp4
Rp5
(I1
(I1
I1
tp6
cnumpy
dtype
p7
(S'f8'
p8
I0
I1
tp9
Rp10
(I3
S'<'
p11
NNNI-1
I-1
I0
tp12
bI00
S'.\xc2^\xb8\xed\xc4\x8d?'
p13
tp14
bg0
(g1
(I0
tp15
g3
tp16
Rp17
(I1
(I1
I1
tp18
g10
I00
S'\xbd\xcbR\x0f6q\xaf?'
p19
tp20
bg0
(g1
(I0
tp21
g3
tp22
Rp23
(I1
(I1
I1
tp24
g10
I00
S'q\xc5k\xd2]\xb9\xc3\xbf'
p25
tp26
btp27
(F1.1635126632657673
F-2.242648986764259
F-149.04136674384995
tp28
I1195
I623
tp29
((g0
(g1
(I0
tp30
g3
tp31
Rp32
(I1
(I1
I1
tp33
g10
I00
S't\xf4\x97\x05\xc8\xa1\xc4\xbf'
p34
tp35
bg0
(g1
(I0
tp36
g3
tp37
Rp38
(I1
(I1
I1
tp39
g10
I00
S'\x85U\x90\x03XR\xbb?'
p40
tp41
bg0
(g1
(I0
tp42
g3
tp43
Rp44
(I1
(I1
I1
tp45
g10
I00
S'c"\xda\n\xf8\xf2\xbd\xbf'
p46
tp47
btp48
(F-20.08514325220898
F49.68382776840256
F-159.93322668198007
tp49
I1195
I623
tp50
tp51
.(((cnumpy.core.multiarray
_reconstruct
p0
(cnumpy.matrixlib.defmatrix
matrix
p1
(I0
tp2
S'b'
p3
tp4
Rp5
(I1
(I1
I1
tp6
cnumpy
dtype
p7
(S'f8'
p8
I0
I1
tp9
Rp10
(I3
S'<'
p11
NNNI-1
I-1
I0
tp12
bI00
S'\x0b\xde\x81\xad2\x0e\xb8?'
p13
tp14
bg0
(g1
(I0
tp15
g3
tp16
Rp17
(I1
(I1
I1
tp18
g10
I00
S'\x82*`\x05\xccp\xb4?'
p19
tp20
bg0
(g1
(I0
tp21
g3
tp22
Rp23
(I1
(I1
I1
tp24
g10
I00
S'5\xf19xR\r\xc5\xbf'
p25
tp26
btp27
(F0.999599643542645
F-26.484930193882647
F-148.08832484276573
tp28
I203
I689
tp29
((g0
(g1
(I0
tp30
g3
tp31
Rp32
(I1
(I1
I1
tp33
g10
I00
S'\x9fk\xd5\x195[\xb4\xbf'
p34
tp35
bg0
(g1
(I0
tp36
g3
tp37
Rp38
(I1
(I1
I1
tp39
g10
I00
S'\x96\xdc8\xdeI\xd1\xb8?'
p40
tp41
bg0
(g1
(I0
tp42
g3
tp43
Rp44
(I1
(I1
I1
tp45
g10
I00
S'\xed,\x8c)56\xc0\xbf'
p46
tp47
btp48
(F-15.079952018855003
F29.87381476708007
F-146.91194901519734
tp49
I203
I689
tp50
tp51
.(((cnumpy.core.multiarray
_reconstruct
p0
(cnumpy.matrixlib.defmatrix
matrix
p1
(I0
tp2
S'b'
p3
tp4
Rp5
(I1
(I1
I1
tp6
cnumpy
dtype
p7
(S'f8'
p8
I0
I1
tp9
Rp10
(I3
S'<'
p11
NNNI-1
I-1
I0
tp12
bI00
S'\xf3m\x82P\tr\xb3?'
p13
tp14
bg0
(g1
(I0
tp15
g3
tp16
Rp17
(I1
(I1
I1
tp18
g10
I00
S'l\xf9L^\xae\x8c\xb4?'
p19
tp20
bg0
(g1
(I0
tp21
g3
tp22
Rp23
(I1
(I1
I1
tp24
g10
I00
S'\xd0+\xd0/G\xbe\xc4\xbf'
p25
tp26
btp27
(F0.8853611341717825
F-21.814070690766602
F-146.32678694291454
tp28
I410
I720
tp29
((g0
(g1
(I0
tp30
g3
tp31
Rp32
(I1
(I1
I1
tp33
g10
I00
S'\xd3q\xc3\xf2"1\xb8\xbf'
p34
tp35
bg0
(g1
(I0
tp36
g3
tp37
Rp38
(I1
(I1
I1
tp39
g10
I00
S'S\x1c\x7fl\xa5\xf5\xb9?'
p40
tp41
bg0
(g1
(I0
tp42
g3
tp43
Rp44
(I1
(I1
I1
tp45
g10
I00
S'\x92\rmGD\x1f\xc0\xbf'
p46
tp47
btp48
(F-15.878401002958947
F34.36268670869335
F-148.60430707736435
tp49
I410
I720
tp50
tp51
.(((cnumpy.core.multiarray
_reconstruct
p0
(cnumpy.matrixlib.defmatrix
matrix
p1
(I0
tp2
S'b'
p3
tp4
Rp5
(I1
(I1
I1
tp6
cnumpy
dtype
p7
(S'f8'
p8
I0
I1
tp9
Rp10
(I3
S'<'
p11
NNNI-1
I-1
I0
tp12
bI00
S'[\x12\xff\x14\xf5,\xad?'
p13
tp14
bg0
(g1
(I0
tp15
g3
tp16
Rp17
(I1
(I1
I1
tp18
g10
I00
S'\x08\x10\xe9\xfa\x8at\xb3?'
p19
tp20
bg0
(g1
(I0
tp21
g3
tp22
Rp23
(I1
(I1
I1
tp24
g10
I00
S'\xf5~\x01\x90\x83k\xc4\xbf'
p25
tp26
btp27
(F0.9258734938744718
F-16.340276383712556
F-146.41293786718805
tp28
I638
I723
tp29
((g0
(g1
(I0
tp30
g3
tp31
Rp32
(I1
(I1
I1
tp33
g10
I00
S'}\x8f\xd6>\x8b\xee\xbc\xbf'
p34
tp35
bg0
(g1
(I0
tp36
g3
tp37
Rp38
(I1
(I1
I1
tp39
g10
I00
S'\xa4\x9a\xc5\xfb\x1f\xa1\xba?'
p40
tp41
bg0
(g1
(I0
tp42
g3
tp43
Rp44
(I1
(I1
I1
tp45
g10
I00
S'\xfe\xf0\xda8k5\xc0\xbf'
p46
tp47
btp48
(F-16.72684648777643
F38.76927132916019
F-151.58816180388436
tp49
I638
I723
tp50
tp51
.(((cnumpy.core.multiarray
_reconstruct
p0
(cnumpy.matrixlib.defmatrix
matrix
p1
(I0
tp2
S'b'
p3
tp4
Rp5
(I1
(I1
I1
tp6
cnumpy
dtype
p7
(S'f8'
p8
I0
I1
tp9
Rp10
(I3
S'<'
p11
NNNI-1
I-1
I0
tp12
bI00
S'\x89\x0c\x01=\xd0b\xa4?'
p13
tp14
bg0
(g1
(I0
tp15
g3
tp16
Rp17
(I1
(I1
I1
tp18
g10
I00
S'\xaa\xd2\x93%\xc8\xe0\xb2?'
p19
tp20
bg0
(g1
(I0
tp21
g3
tp22
Rp23
(I1
(I1
I1
tp24
g10
I00
S'@\x82\xb6\xab\xcc,\xc4\xbf'
p25
tp26
btp27
(F1.0787417764706484
F-10.935486196434246
F-146.23010560455688
tp28
I861
I727
tp29
((g0
(g1
(I0
tp30
g3
tp31
Rp32
(I1
(I1
I1
tp33
g10
I00
S'B$\x88j\xe9\xe3\xc0\xbf'
p34
tp35
bg0
(g1
(I0
tp36
g3
tp37
Rp38
(I1
(I1
I1
tp39
g10
I00
S'\x04\x1e\xa6\xbf\x00\xb2\xbb?'
p40
tp41
bg0
(g1
(I0
tp42
g3
tp43
Rp44
(I1
(I1
I1
tp45
g10
I00
S"B\x99'\xbf\xf0\xab\xbf\xbf"
p46
tp47
btp48
(F-18.002321131643107
F43.387989594219626
F-154.10256112305436
tp49
I861
I727
tp50
tp51
.(((cnumpy.core.multiarray
_reconstruct
p0
(cnumpy.matrixlib.defmatrix
matrix
p1
(I0
tp2
S'b'
p3
tp4
Rp5
(I1
(I1
I1
tp6
cnumpy
dtype
p7
(S'f8'
p8
I0
I1
tp9
Rp10
(I3
S'<'
p11
NNNI-1
I-1
I0
tp12
bI00
S'\x99\x17\x1e!\xa4\x13\x96?'
p13
tp14
bg0
(g1
(I0
tp15
g3
tp16
Rp17
(I1
(I1
I1
tp18
g10
I00
S'\xc4\x0b\x8a,V;\xb2?'
p19
tp20
bg0
(g1
(I0
tp21
g3
tp22
Rp23
(I1
(I1
I1
tp24
g10
I00
S'\xc6r\xe1J`\xd5\xc3\xbf'
p25
tp26
btp27
(F1.589842170503036
F-4.9903371819056535
F-146.17983120434937
tp28
I1083
I730
tp29
((g0
(g1
(I0
tp30
g3
tp31
Rp32
(I1
(I1
I1
tp33
g10
I00
S'\x83\xa9\xbc\x95;1\xc3\xbf'
p34
tp35
bg0
(g1
(I0
tp36
g3
tp37
Rp38
(I1
(I1
I1
tp39
g10
I00
S'\t\xa1\x0b\xc3,\x19\xbd?'
p40
tp41
bg0
(g1
(I0
tp42
g3
tp43
Rp44
(I1
(I1
I1
tp45
g10
I00
S'\x87\xc0\x95\xbf3\xa5\xbe\xbf'
p46
tp47
btp48
(F-19.42790298592579
F47.800286317173516
F-156.48876556289102
tp49
I1083
I730
tp50
tp51
.(((cnumpy.core.multiarray
_reconstruct
p0
(cnumpy.matrixlib.defmatrix
matrix
p1
(I0
tp2
S'b'
p3
tp4
Rp5
(I1
(I1
I1
tp6
cnumpy
dtype
p7
(S'f8'
p8
I0
I1
tp9
Rp10
(I3
S'<'
p11
NNNI-1
I-1
I0
tp12
bI00
S'\xad[\x15x\x14k\xb5?'
p13
tp14
bg0
(g1
(I0
tp15
g3
tp16
Rp17
(I1
(I1
I1
tp18
g10
I00
S'\xd4\xb4\x14\xfd\x04\xde\xb6?'
p19
tp20
bg0
(g1
(I0
tp21
g3
tp22
Rp23
(I1
(I1
I1
tp24
g10
I00
S'\xd0\xd7\x11\xbcE\x1c\xc5\xbf'
p25
tp26
btp27
(F1.694970888693614
F-24.28638862044961
F-145.78659610155756
tp28
I291
I829
tp29
((g0
(g1
(I0
tp30
g3
tp31
Rp32
(I1
(I1
I1
tp33
g10
I00
S'!\x86]@\xdd.\xb6\xbf'
p34
tp35
bg0
(g1
(I0
tp36
g3
tp37
Rp38
(I1
(I1
I1
tp39
g10
I00
S'\x8d\xc6\xa6\xb2\x7f#\xbb?'
p40
tp41
bg0
(g1
(I0
tp42
g3
tp43
Rp44
(I1
(I1
I1
tp45
g10
I00
S'8\xf7wM\xbe\x0f\xc0\xbf'
p46
tp47
btp48
(F-149.69897625965575
F-16.48887956996659
F141.41555619545346
tp49
I291
I829
tp50
tp51
.(((cnumpy.core.multiarray
_reconstruct
p0
(cnumpy.matrixlib.defmatrix
matrix
p1
(I0
tp2
S'b'
p3
tp4
Rp5
(I1
(I1
I1
tp6
cnumpy
dtype
p7
(S'f8'
p8
I0
I1
tp9
Rp10
(I3
S'<'
p11
NNNI-1
I-1
I0
tp12
bI00
S'\xf8\xd5IA\xee\xef\xb0?'
p13
tp14
bg0
(g1
(I0
tp15
g3
tp16
Rp17
(I1
(I1
I1
tp18
g10
I00
S'\r\xe4\x86\x9a\xd8?\xb6?'
p19
tp20
bg0
(g1
(I0
tp21
g3
tp22
Rp23
(I1
(I1
I1
tp24
g10
I00
S'\xca\xc5\xe9\xfe\xcb\x93\xc4\xbf'
p25
tp26
btp27
(F1.6525493772893707
F-19.478306842680116
F-144.53598248763282
tp28
I522
I833
tp29
((g0
(g1
(I0
tp30
g3
tp31
Rp32
(I1
(I1
I1
tp33
g10
I00
S'\xfb\xb0\x99d\x17\xc7\xba\xbf'
p34
tp35
bg0
(g1
(I0
tp36
g3
tp37
Rp38
(I1
(I1
I1
tp39
g10
I00
S'\xa4\xe3\xf0\x87\x88\x97\xbc?'
p40
tp41
bg0
(g1
(I0
tp42
g3
tp43
Rp44
(I1
(I1
I1
tp45
g10
I00
S'v\x8aR\xc3\xe7=\xbf\xbf'
p46
tp47
btp48
(F-159.4959261651727
F-33.403820713056376
F142.0862983865227
tp49
I522
I833
tp50
tp51
.(((cnumpy.core.multiarray
_reconstruct
p0
(cnumpy.matrixlib.defmatrix
matrix
p1
(I0
tp2
S'b'
p3
tp4
Rp5
(I1
(I1
I1
tp6
cnumpy
dtype
p7
(S'f8'
p8
I0
I1
tp9
Rp10
(I3
S'<'
p11
NNNI-1
I-1
I0
tp12
bI00
S'HPK\xbd\xef\xdf\xa7?'
p13
tp14
bg0
(g1
(I0
tp15
g3
tp16
Rp17
(I1
(I1
I1
tp18
g10
I00
S"\xd2\x8ee'Pj\xb5?"
p19
tp20
bg0
(g1
(I0
tp21
g3
tp22
Rp23
(I1
(I1
I1
tp24
g10
I00
S'M\x1f\x9b\x10\xd1a\xc4\xbf'
p25
tp26
btp27
(F1.7301894882327893
F-13.487008370994001
F-144.1226417351821
tp28
I748
I835
tp29
((g0
(g1
(I0
tp30
g3
tp31
Rp32
(I1
(I1
I1
tp33
g10
I00
S'`R\xd7<\x97\xdb\xbf\xbf'
p34
tp35
bg0
(g1
(I0
tp36
g3
tp37
Rp38
(I1
(I1
I1
tp39
g10
I00
S'SK\xa9r:\x89\xbd?'
p40
tp41
bg0
(g1
(I0
tp42
g3
tp43
Rp44
(I1
(I1
I1
tp45
g10
I00
S'\x1b\x1b\x82d`\x04\xbf\xbf'
p46
tp47
btp48
(F-154.3553459815533
F-35.52113129435465
F139.03985259669344
tp49
I748
I835
tp50
tp51
.(((cnumpy.core.multiarray
_reconstruct
p0
(cnumpy.matrixlib.defmatrix
matrix
p1
(I0
tp2
S'b'
p3
tp4
Rp5
(I1
(I1
I1
tp6
cnumpy
dtype
p7
(S'f8'
p8
I0
I1
tp9
Rp10
(I3
S'<'
p11
NNNI-1
I-1
I0
tp12
bI00
S'\x08/\x13\\\x8f2\x9f?'
p13
tp14
bg0
(g1
(I0
tp15
g3
tp16
Rp17
(I1
(I1
I1
tp18
g10
I00
S'\x96\xf4<t\x8al\xb5?'
p19
tp20
bg0
(g1
(I0
tp21
g3
tp22
Rp23
(I1
(I1
I1
tp24
g10
I00
S'z\xac\xf0p\xf4\x16\xc4\xbf'
p25
tp26
btp27
(F1.7856092875040461
F-8.188974010607273
F-143.02458709225286
tp28
I970
I838
tp29
((g0
(g1
(I0
tp30
g3
tp31
Rp32
(I1
(I1
I1
tp33
g10
I00
S'|\x94p\xae\x858\xc2\xbf'
p34
tp35
bg0
(g1
(I0
tp36
g3
tp37
Rp38
(I1
(I1
I1
tp39
g10
I00
S'>{\n\xee\xb0q\xbe?'
p40
tp41
bg0
(g1
(I0
tp42
g3
tp43
Rp44
(I1
(I1
I1
tp45
g10
I00
S'J\xf7\x91\xcf\x9a]\xbe\xbf'
p46
tp47
btp48
(F-153.84234994679332
F-41.33606558847836
F137.73249787807907
tp49
I970
I838
tp50
tp51
.(((cnumpy.core.multiarray
_reconstruct
p0
(cnumpy.matrixlib.defmatrix
matrix
p1
(I0
tp2
S'b'
p3
tp4
Rp5
(I1
(I1
I1
tp6
cnumpy
dtype
p7
(S'f8'
p8
I0
I1
tp9
Rp10
(I3
S'<'
p11
NNNI-1
I-1
I0
tp12
bI00
S'K\xca\xf3\x14y\xd7\x86?'
p13
tp14
bg0
(g1
(I0
tp15
g3
tp16
Rp17
(I1
(I1
I1
tp18
g10
I00
S'F&j\xe9\xd6|\xb4?'
p19
tp20
bg0
(g1
(I0
tp21
g3
tp22
Rp23
(I1
(I1
I1
tp24
g10
I00
S'1\x88)\xcf\x0c\xb4\xc3\xbf'
p25
tp26
btp27
(F1.6781586964132733
F-1.3193634596904458
F-143.05974788979822
tp28
I1190
I839
tp29
((g0
(g1
(I0
tp30
g3
tp31
Rp32
(I1
(I1
I1
tp33
g10
I00
S',\xed\xe3XE\xfa\xc3\xbf'
p34
tp35
bg0
(g1
(I0
tp36
g3
tp37
Rp38
(I1
(I1
I1
tp39
g10
I00
S'\xec\xebt42\xaf\xbf?'
p40
tp41
bg0
(g1
(I0
tp42
g3
tp43
Rp44
(I1
(I1
I1
tp45
g10
I00
S'$V}K!\xaa\xbc\xbf'
p46
tp47
btp48
(F-150.6299015295678
F-43.50216490618036
F134.21335507623076
tp49
I1190
I839
tp50
tp51
.(((cnumpy.core.multiarray
_reconstruct
p0
(cnumpy.matrixlib.defmatrix
matrix
p1
(I0
tp2
S'b'
p3
tp4
Rp5
(I1
(I1
I1
tp6
cnumpy
dtype
p7
(S'f8'
p8
I0
I1
tp9
Rp10
(I3
S'<'
p11
NNNI-1
I-1
I0
tp12
bI00
S'\xfc\x8d\xba\xa4YL\xb7?'
p13
tp14
bg0
(g1
(I0
tp15
g3
tp16
Rp17
(I1
(I1
I1
tp18
g10
I00
S'\xf9:\x8b\x18\n\xdf\xb8?'
p19
tp20
bg0
(g1
(I0
tp21
g3
tp22
Rp23
(I1
(I1
I1
tp24
g10
I00
S'\xaf\xa1AM\xf3\x0b\xc5\xbf'
p25
tp26
btp27
(F1.9353401641581465
F-26.09617183682615
F-143.89581658740673
tp28
I202
I907
tp29
((g0
(g1
(I0
tp30
g3
tp31
Rp32
(I1
(I1
I1
tp33
g10
I00
S'\xd3=(\xfd&%\xb4\xbf'
p34
tp35
bg0
(g1
(I0
tp36
g3
tp37
Rp38
(I1
(I1
I1
tp39
g10
I00
S'\x1ey\x85\x17i\x8a\xbc?'
p40
tp41
bg0
(g1
(I0
tp42
g3
tp43
Rp44
(I1
(I1
I1
tp45
g10
I00
S'\xb5\x0e\x0c3\n\n\xc0\xbf'
p46
tp47
btp48
(F-146.51104460631035
F-10.213033297303873
F140.7267476250865
tp49
I202
I907
tp50
tp51
.(((cnumpy.core.multiarray
_reconstruct
p0
(cnumpy.matrixlib.defmatrix
matrix
p1
(I0
tp2
S'b'
p3
tp4
Rp5
(I1
(I1
I1
tp6
cnumpy
dtype
p7
(S'f8'
p8
I0
I1
tp9
Rp10
(I3
S'<'
p11
NNNI-1
I-1
I0
tp12
bI00
S'_b\x070\x95]\xb3?'
p13
tp14
bg0
(g1
(I0
tp15
g3
tp16
Rp17
(I1
(I1
I1
tp18
g10
I00
S'\n\x96C\x1e:\x8c\xb8?'
p19
tp20
bg0
(g1
(I0
tp21
g3
tp22
Rp23
(I1
(I1
I1
tp24
g10
I00
S'so\xf7|5\xfe\xc4\xbf'
p25
tp26
btp27
(F2.05083678930282
F-22.03051568815461
F-143.2109010706692
tp28
I373
I914
tp29
((g0
(g1
(I0
tp30
g3
tp31
Rp32
(I1
(I1
I1
tp33
g10
I00
S'\x94\x89\xfd\x172\\\xb7\xbf'
p34
tp35
bg0
(g1
(I0
tp36
g3
tp37
Rp38
(I1
(I1
I1
tp39
g10
I00
S'\x93\xd3\x1b\xe7\x06\xb9\xbd?'
p40
tp41
bg0
(g1
(I0
tp42
g3
tp43
Rp44
(I1
(I1
I1
tp45
g10
I00
S'\xfc\xafP\x89\x1a\x16\xc0\xbf'
p46
tp47
btp48
(F-154.83062935225348
F-23.200263991632045
F140.2056130180159
tp49
I373
I914
tp50
tp51
.(((cnumpy.core.multiarray
_reconstruct
p0
(cnumpy.matrixlib.defmatrix
matrix
p1
(I0
tp2
S'b'
p3
tp4
Rp5
(I1
(I1
I1
tp6
cnumpy
dtype
p7
(S'f8'
p8
I0
I1
tp9
Rp10
(I3
S'<'
p11
NNNI-1
I-1
I0
tp12
bI00
S'\xe6F\x0c\xd3)\x0e\xac?'
p13
tp14
bg0
(g1
(I0
tp15
g3
tp16
Rp17
(I1
(I1
I1
tp18
g10
I00
S'P>]4\xdb\x10\xb8?'
p19
tp20
bg0
(g1
(I0
tp21
g3
tp22
Rp23
(I1
(I1
I1
tp24
g10
I00
S'\xe0x\xac<\xd2\x93\xc4\xbf'
p25
tp26
btp27
(F2.068732732637717
F-16.124496687156178
F-142.0353855425215
tp28
I633
I945
tp29
((g0
(g1
(I0
tp30
g3
tp31
Rp32
(I1
(I1
I1
tp33
g10
I00
S'\xe9\xa5p\xdc\x1cf\xbc\xbf'
p34
tp35
bg0
(g1
(I0
tp36
g3
tp37
Rp38
(I1
(I1
I1
tp39
g10
I00
S'\x921\x13\x00\x16\x88\xbf?'
p40
tp41
bg0
(g1
(I0
tp42
g3
tp43
Rp44
(I1
(I1
I1
tp45
g10
I00
S'\xb08*\xfc\xc2J\xbf\xbf'
p46
tp47
btp48
(F-152.31645447328722
F-27.848833958788266
F136.6956335333565
tp49
I633
I945
tp50
tp51
.(((cnumpy.core.multiarray
_reconstruct
p0
(cnumpy.matrixlib.defmatrix
matrix
p1
(I0
tp2
S'b'
p3
tp4
Rp5
(I1
(I1
I1
tp6
cnumpy
dtype
p7
(S'f8'
p8
I0
I1
tp9
Rp10
(I3
S'<'
p11
NNNI-1
I-1
I0
tp12
bI00
S'\xb4\x17\xf7\x92<\x83\xa3?'
p13
tp14
bg0
(g1
(I0
tp15
g3
tp16
Rp17
(I1
(I1
I1
tp18
g10
I00
S'@\x1cpq\xe7f\xb7?'
p19
tp20
bg0
(g1
(I0
tp21
g3
tp22
Rp23
(I1
(I1
I1
tp24
g10
I00
S'\xa0\xce#\xd8\xaeU\xc4\xbf'
p25
tp26
btp27
(F1.9931101203561057
F-10.814558534847412
F-141.63396783289988
tp28
I857
I947
tp29
((g0
(g1
(I0
tp30
g3
tp31
Rp32
(I1
(I1
I1
tp33
g10
I00
S',\x0f\x85\x1f\xa8s\xc0\xbf'
p34
tp35
bg0
(g1
(I0
tp36
g3
tp37
Rp38
(I1
(I1
I1
tp39
g10
I00
S'\xb1d\xd6\xd4\x977\xc0?'
p40
tp41
bg0
(g1
(I0
tp42
g3
tp43
Rp44
(I1
(I1
I1
tp45
g10
I00
S'((\xa0\xa8\x9c\xf5\xbe\xbf'
p46
tp47
btp48
(F-150.84866333036334
F-32.46906259589063
F134.95524283648462
tp49
I857
I947
tp50
tp51
.(((cnumpy.core.multiarray
_reconstruct
p0
(cnumpy.matrixlib.defmatrix
matrix
p1
(I0
tp2
S'b'
p3
tp4
Rp5
(I1
(I1
I1
tp6
cnumpy
dtype
p7
(S'f8'
p8
I0
I1
tp9
Rp10
(I3
S'<'
p11
NNNI-1
I-1
I0
tp12
bI00
S'\x83\xba\xbf\xa5\xc0\xdc\xb2?'
p13
tp14
bg0
(g1
(I0
tp15
g3
tp16
Rp17
(I1
(I1
I1
tp18
g10
I00
S'R1\xd3[Z\x8e\xb8?'
p19
tp20
bg0
(g1
(I0
tp21
g3
tp22
Rp23
(I1
(I1
I1
tp24
g10
I00
S'#G\n}\x10\xf5\xc4\xbf'
p25
tp26
btp27
(F2.1966604750570022
F-21.55721576110614
F-143.14957383764738
tp28
I418
I952
tp29
((g0
(g1
(I0
tp30
g3
tp31
Rp32
(I1
(I1
I1
tp33
g10
I00
S'\xc1r~\xa8>\xf0\xb7\xbf'
p34
tp35
bg0
(g1
(I0
tp36
g3
tp37
Rp38
(I1
(I1
I1
tp39
g10
I00
S'3F\xaa\x1c\x13?\xbe?'
p40
tp41
bg0
(g1
(I0
tp42
g3
tp43
Rp44
(I1
(I1
I1
tp45
g10
I00
S'b9\xd5\xe1|\x86\xbf\xbf'
p46
tp47
btp48
(F-153.0814283090618
F-22.788098567636112
F138.4933360781067
tp49
I418
I952
tp50
tp51
.