(((cnumpy.core.multiarray
_reconstruct
p0
(cnumpy.matrixlib.defmatrix
matrix
p1
(I0
tp2
S'b'
p3
tp4
Rp5
(I1
(I1
I1
tp6
cnumpy
dtype
p7
(S'f8'
p8
I0
I1
tp9
Rp10
(I3
S'<'
p11
NNNI-1
I-1
I0
tp12
bI00
S'\x80\x81\xc7\x7f\x9d\x9c\x98?'
p13
tp14
bg0
(g1
(I0
tp15
g3
tp16
Rp17
(I1
(I1
I1
tp18
g10
I00
S'r\x1a\xfcqL\xe5\x97?'
p19
tp20
bg0
(g1
(I0
tp21
g3
tp22
Rp23
(I1
(I1
I1
tp24
g10
I00
S'D[\xba\xf6H\xfe\xc3\xbf'
p25
tp26
btp27
(F0.4208939469090191
F-6.548265458430584
F-174.56268661813073
tp28
I1121
I144
tp29
((g0
(g1
(I0
tp30
g3
tp31
Rp32
(I1
(I1
I1
tp33
g10
I00
S'\x93\xbfr\xf32\x9e\xc4\xbf'
p34
tp35
bg0
(g1
(I0
tp36
g3
tp37
Rp38
(I1
(I1
I1
tp39
g10
I00
S'7yA\xf9[\xd6\xb0?'
p40
tp41
bg0
(g1
(I0
tp42
g3
tp43
Rp44
(I1
(I1
I1
tp45
g10
I00
S'\x80I~a\xd8B\xbf\xbf'
p46
tp47
btp48
(F179.71711403788524
F-64.27238871543992
F171.14258970242022
tp49
I1121
I144
tp50
tp51
.(((cnumpy.core.multiarray
_reconstruct
p0
(cnumpy.matrixlib.defmatrix
matrix
p1
(I0
tp2
S'b'
p3
tp4
Rp5
(I1
(I1
I1
tp6
cnumpy
dtype
p7
(S'f8'
p8
I0
I1
tp9
Rp10
(I3
S'<'
p11
NNNI-1
I-1
I0
tp12
bI00
S'4\x8e\x8a\xad\xb24\xa4?'
p13
tp14
bg0
(g1
(I0
tp15
g3
tp16
Rp17
(I1
(I1
I1
tp18
g10
I00
S'a\x17\x96\xfa\x14O\x9b?'
p19
tp20
bg0
(g1
(I0
tp21
g3
tp22
Rp23
(I1
(I1
I1
tp24
g10
I00
S'\xd7kR\x1b\x94b\xc4\xbf'
p25
tp26
btp27
(F0.7595250444779017
F-11.578554553269166
F-173.61779032589897
tp28
I928
I151
tp29
((g0
(g1
(I0
tp30
g3
tp31
Rp32
(I1
(I1
I1
tp33
g10
I00
S'\xdb8\xbe\rN\x9b\xc2\xbf'
p34
tp35
bg0
(g1
(I0
tp36
g3
tp37
Rp38
(I1
(I1
I1
tp39
g10
I00
S'\xbd\xab\xbc\x98\t\n\xb0?'
p40
tp41
bg0
(g1
(I0
tp42
g3
tp43
Rp44
(I1
(I1
I1
tp45
g10
I00
S'pf`\xb5t\xa8\xbf\xbf'
p46
tp47
btp48
(F-176.3750319693144
F-58.8773359234145
F168.86396248940773
tp49
I928
I151
tp50
tp51
.(((cnumpy.core.multiarray
_reconstruct
p0
(cnumpy.matrixlib.defmatrix
matrix
p1
(I0
tp2
S'b'
p3
tp4
Rp5
(I1
(I1
I1
tp6
cnumpy
dtype
p7
(S'f8'
p8
I0
I1
tp9
Rp10
(I3
S'<'
p11
NNNI-1
I-1
I0
tp12
bI00
S'U\t\x19{+\x1b\xa4?'
p13
tp14
bg0
(g1
(I0
tp15
g3
tp16
Rp17
(I1
(I1
I1
tp18
g10
I00
S'~\xcc\xa4\x8c\xf7\x84\x9b?'
p19
tp20
bg0
(g1
(I0
tp21
g3
tp22
Rp23
(I1
(I1
I1
tp24
g10
I00
S'\x1c\xfe\xa4\x86IK\xc4\xbf'
p25
tp26
btp27
(F0.5569657266057464
F-11.481433461265178
F-173.49949277732566
tp28
I928
I151
tp29
((g0
(g1
(I0
tp30
g3
tp31
Rp32
(I1
(I1
I1
tp33
g10
I00
S'\r\xed\x01\x0bU\x88\xc2\xbf'
p34
tp35
bg0
(g1
(I0
tp36
g3
tp37
Rp38
(I1
(I1
I1
tp39
g10
I00
S'\xc7<\xd0\xacM:\xb0?'
p40
tp41
bg0
(g1
(I0
tp42
g3
tp43
Rp44
(I1
(I1
I1
tp45
g10
I00
S'\xf6{J\xc4\x91\x8a\xbf\xbf'
p46
tp47
btp48
(F-168.88883866552857
F-56.859800774274376
F163.06624422478177
tp49
I928
I151
tp50
tp51
.(((cnumpy.core.multiarray
_reconstruct
p0
(cnumpy.matrixlib.defmatrix
matrix
p1
(I0
tp2
S'b'
p3
tp4
Rp5
(I1
(I1
I1
tp6
cnumpy
dtype
p7
(S'f8'
p8
I0
I1
tp9
Rp10
(I3
S'<'
p11
NNNI-1
I-1
I0
tp12
bI00
S'\x8cB\xa2\x03\xba\x00\xae?'
p13
tp14
bg0
(g1
(I0
tp15
g3
tp16
Rp17
(I1
(I1
I1
tp18
g10
I00
S'\xdd\xb0m4\x7fB\x9e?'
p19
tp20
bg0
(g1
(I0
tp21
g3
tp22
Rp23
(I1
(I1
I1
tp24
g10
I00
S'-J\x051\x15\xdf\xc4\xbf'
p25
tp26
btp27
(F1.785938381671703
F-17.481227386068475
F-173.6199315357557
tp28
I673
I157
tp29
((g0
(g1
(I0
tp30
g3
tp31
Rp32
(I1
(I1
I1
tp33
g10
I00
S'S\xec\xefi\xa5\xeb\xbf\xbf'
p34
tp35
bg0
(g1
(I0
tp36
g3
tp37
Rp38
(I1
(I1
I1
tp39
g10
I00
S'DAw\xdcA\x05\xaf?'
p40
tp41
bg0
(g1
(I0
tp42
g3
tp43
Rp44
(I1
(I1
I1
tp45
g10
I00
S'{\x85\xea\x0fJP\xc0\xbf'
p46
tp47
btp48
(F-168.9760720142708
F-51.27667216230405
F163.52059544060685
tp49
I673
I157
tp50
tp51
.(((cnumpy.core.multiarray
_reconstruct
p0
(cnumpy.matrixlib.defmatrix
matrix
p1
(I0
tp2
S'b'
p3
tp4
Rp5
(I1
(I1
I1
tp6
cnumpy
dtype
p7
(S'f8'
p8
I0
I1
tp9
Rp10
(I3
S'<'
p11
NNNI-1
I-1
I0
tp12
bI00
S'\x1dJ\xac\xea,\xf4\xad?'
p13
tp14
bg0
(g1
(I0
tp15
g3
tp16
Rp17
(I1
(I1
I1
tp18
g10
I00
S'\x95/>\x08\xbf\xd0\x9c?'
p19
tp20
bg0
(g1
(I0
tp21
g3
tp22
Rp23
(I1
(I1
I1
tp24
g10
I00
S'Y q\xad\xbc\xc4\xc4\xbf'
p25
tp26
btp27
(F1.2018681098191635
F-17.559574110187622
F-174.0473668121996
tp28
I696
I157
tp29
((g0
(g1
(I0
tp30
g3
tp31
Rp32
(I1
(I1
I1
tp33
g10
I00
S'ni\xbe\xd4\x1f\n\xc0\xbf'
p34
tp35
bg0
(g1
(I0
tp36
g3
tp37
Rp38
(I1
(I1
I1
tp39
g10
I00
S',\xc9uTS\x1a\xaf?'
p40
tp41
bg0
(g1
(I0
tp42
g3
tp43
Rp44
(I1
(I1
I1
tp45
g10
I00
S'}\x1ee\x8f\xd3?\xc0\xbf'
p46
tp47
btp48
(F-160.50800538197691
F-48.614890084746264
F157.93503268350145
tp49
I696
I157
tp50
tp51
.(((cnumpy.core.multiarray
_reconstruct
p0
(cnumpy.matrixlib.defmatrix
matrix
p1
(I0
tp2
S'b'
p3
tp4
Rp5
(I1
(I1
I1
tp6
cnumpy
dtype
p7
(S'f8'
p8
I0
I1
tp9
Rp10
(I3
S'<'
p11
NNNI-1
I-1
I0
tp12
bI00
S'97\xa1\xf25>\xb8?'
p13
tp14
bg0
(g1
(I0
tp15
g3
tp16
Rp17
(I1
(I1
I1
tp18
g10
I00
S'n\xaa^!\xe65\xa2?'
p19
tp20
bg0
(g1
(I0
tp21
g3
tp22
Rp23
(I1
(I1
I1
tp24
g10
I00
S'\xfd\xea\x06qIF\xc5\xbf'
p25
tp26
btp27
(F1.3084092520676949
F-27.483960636535443
F-173.1218154017279
tp28
I270
I167
tp29
((g0
(g1
(I0
tp30
g3
tp31
Rp32
(I1
(I1
I1
tp33
g10
I00
S'\xeab\xdc\x11D\xdd\xb6\xbf'
p34
tp35
bg0
(g1
(I0
tp36
g3
tp37
Rp38
(I1
(I1
I1
tp39
g10
I00
S'%J\xbd\xf2\x03\xcb\xab?'
p40
tp41
bg0
(g1
(I0
tp42
g3
tp43
Rp44
(I1
(I1
I1
tp45
g10
I00
S'\xad\x00E?6\x82\xc0\xbf'
p46
tp47
btp48
(F-159.60254100900926
F-36.58672120354595
F160.72497962878603
tp49
I270
I167
tp50
tp51
.(((cnumpy.core.multiarray
_reconstruct
p0
(cnumpy.matrixlib.defmatrix
matrix
p1
(I0
tp2
S'b'
p3
tp4
Rp5
(I1
(I1
I1
tp6
cnumpy
dtype
p7
(S'f8'
p8
I0
I1
tp9
Rp10
(I3
S'<'
p11
NNNI-1
I-1
I0
tp12
bI00
S'\x9b&F\xa0\xd3\x9a\xb3?'
p13
tp14
bg0
(g1
(I0
tp15
g3
tp16
Rp17
(I1
(I1
I1
tp18
g10
I00
S'FS\xf54\xe2(\xa0?'
p19
tp20
bg0
(g1
(I0
tp21
g3
tp22
Rp23
(I1
(I1
I1
tp24
g10
I00
S'\xf2FC\xba\xad\x1b\xc5\xbf'
p25
tp26
btp27
(F1.739675102749008
F-22.806166271321906
F-173.76678490185495
tp28
I478
I167
tp29
((g0
(g1
(I0
tp30
g3
tp31
Rp32
(I1
(I1
I1
tp33
g10
I00
S'\x9b\xf2\x10/p\xe7\xbb\xbf'
p34
tp35
bg0
(g1
(I0
tp36
g3
tp37
Rp38
(I1
(I1
I1
tp39
g10
I00
S'6\x9e\xf1\xc26\xf5\xac?'
p40
tp41
bg0
(g1
(I0
tp42
g3
tp43
Rp44
(I1
(I1
I1
tp45
g10
I00
S'+\xf1\xe8\rG/\xc0\xbf'
p46
tp47
btp48
(F-178.4258252770223
F-50.26178048516743
F169.97951831855138
tp49
I478
I167
tp50
tp51
.(((cnumpy.core.multiarray
_reconstruct
p0
(cnumpy.matrixlib.defmatrix
matrix
p1
(I0
tp2
S'b'
p3
tp4
Rp5
(I1
(I1
I1
tp6
cnumpy
dtype
p7
(S'f8'
p8
I0
I1
tp9
Rp10
(I3
S'<'
p11
NNNI-1
I-1
I0
tp12
bI00
S'\xa6\x1b\xde@\xc7\xd7\xb8?'
p13
tp14
bg0
(g1
(I0
tp15
g3
tp16
Rp17
(I1
(I1
I1
tp18
g10
I00
S',3\xe9\x8a\x1f\x86\xa2?'
p19
tp20
bg0
(g1
(I0
tp21
g3
tp22
Rp23
(I1
(I1
I1
tp24
g10
I00
S'\x9a\x98\xea;&<\xc5\xbf'
p25
tp26
btp27
(F0.8233139312042532
F-28.074972935165142
F-172.69366374684265
tp28
I216
I195
tp29
((g0
(g1
(I0
tp30
g3
tp31
Rp32
(I1
(I1
I1
tp33
g10
I00
S'\x7f}\xec\x89?+\xb6\xbf'
p34
tp35
bg0
(g1
(I0
tp36
g3
tp37
Rp38
(I1
(I1
I1
tp39
g10
I00
S'\xee/\xe4\xd6\x17N\xab?'
p40
tp41
bg0
(g1
(I0
tp42
g3
tp43
Rp44
(I1
(I1
I1
tp45
g10
I00
S'\xa6\x93}n>^\xc0\xbf'
p46
tp47
btp48
(F-175.07210535886395
F-42.924368798514315
F167.9245801636647
tp49
I216
I195
tp50
tp51
.(((cnumpy.core.multiarray
_reconstruct
p0
(cnumpy.matrixlib.defmatrix
matrix
p1
(I0
tp2
S'b'
p3
tp4
Rp5
(I1
(I1
I1
tp6
cnumpy
dtype
p7
(S'f8'
p8
I0
I1
tp9
Rp10
(I3
S'<'
p11
NNNI-1
I-1
I0
tp12
bI00
S'}A\xc4\xbd\x99S\x9e?'
p13
tp14
bg0
(g1
(I0
tp15
g3
tp16
Rp17
(I1
(I1
I1
tp18
g10
I00
S'v\xcb@\xc5\xa2\xc0\x9f?'
p19
tp20
bg0
(g1
(I0
tp21
g3
tp22
Rp23
(I1
(I1
I1
tp24
g10
I00
S'2{\x9d\xd0m3\xc4\xbf'
p25
tp26
btp27
(F5.074403675953089
F-8.844509195827959
F-172.89467437441235
tp28
I1039
I230
tp29
((g0
(g1
(I0
tp30
g3
tp31
Rp32
(I1
(I1
I1
tp33
g10
I00
S'\xd9\xec\xf3"\x86\x8a\xc3\xbf'
p34
tp35
bg0
(g1
(I0
tp36
g3
tp37
Rp38
(I1
(I1
I1
tp39
g10
I00
S'\x15a\xf2\xcf\xa3r\xb2?'
p40
tp41
bg0
(g1
(I0
tp42
g3
tp43
Rp44
(I1
(I1
I1
tp45
g10
I00
S'\x0b\x85\xe6\x0e\x05R\xbf\xbf'
p46
tp47
btp48
(F-170.25515075077524
F-56.58558364474803
F164.3362144252068
tp49
I1039
I230
tp50
tp51
.(((cnumpy.core.multiarray
_reconstruct
p0
(cnumpy.matrixlib.defmatrix
matrix
p1
(I0
tp2
S'b'
p3
tp4
Rp5
(I1
(I1
I1
tp6
cnumpy
dtype
p7
(S'f8'
p8
I0
I1
tp9
Rp10
(I3
S'<'
p11
NNNI-1
I-1
I0
tp12
bI00
S'\x0eGD\xd7{\x92\xa7?'
p13
tp14
bg0
(g1
(I0
tp15
g3
tp16
Rp17
(I1
(I1
I1
tp18
g10
I00
S' \xc8px]^\xa1?'
p19
tp20
bg0
(g1
(I0
tp21
g3
tp22
Rp23
(I1
(I1
I1
tp24
g10
I00
S'\x9e\xde\xa2\xe8X\x96\xc4\xbf'
p25
tp26
btp27
(F4.503301942250618
F-14.051896808858105
F-172.27305964071533
tp28
I841
I233
tp29
((g0
(g1
(I0
tp30
g3
tp31
Rp32
(I1
(I1
I1
tp33
g10
I00
S'pY\x97\xfc\xa6B\xc1\xbf'
p34
tp35
bg0
(g1
(I0
tp36
g3
tp37
Rp38
(I1
(I1
I1
tp39
g10
I00
S'\x07X\xb7;7\xcd\xb1?'
p40
tp41
bg0
(g1
(I0
tp42
g3
tp43
Rp44
(I1
(I1
I1
tp45
g10
I00
S'\xde\xf4\xb7B5\xe6\xbf\xbf'
p46
tp47
btp48
(F-173.26479482742508
F-54.687881078809
F164.39670618562644
tp49
I841
I233
tp50
tp51
.(((cnumpy.core.multiarray
_reconstruct
p0
(cnumpy.matrixlib.defmatrix
matrix
p1
(I0
tp2
S'b'
p3
tp4
Rp5
(I1
(I1
I1
tp6
cnumpy
dtype
p7
(S'f8'
p8
I0
I1
tp9
Rp10
(I3
S'<'
p11
NNNI-1
I-1
I0
tp12
bI00
S'\x1e\xa7\xa7$\x1a\xdd\xa7?'
p13
tp14
bg0
(g1
(I0
tp15
g3
tp16
Rp17
(I1
(I1
I1
tp18
g10
I00
S'\x18\xbe\xf0\xf2\xee\xe8\xa1?'
p19
tp20
bg0
(g1
(I0
tp21
g3
tp22
Rp23
(I1
(I1
I1
tp24
g10
I00
S'\xe0\x1cf~\xcfx\xc4\xbf'
p25
tp26
btp27
(F1.8887794020875015
F-14.200582904961193
F-171.74267844067944
tp28
I825
I249
tp29
((g0
(g1
(I0
tp30
g3
tp31
Rp32
(I1
(I1
I1
tp33
g10
I00
S'hR\xbfFZ\x0e\xc1\xbf'
p34
tp35
bg0
(g1
(I0
tp36
g3
tp37
Rp38
(I1
(I1
I1
tp39
g10
I00
S'\n\x0eJ&]\x02\xb2?'
p40
tp41
bg0
(g1
(I0
tp42
g3
tp43
Rp44
(I1
(I1
I1
tp45
g10
I00
S'D\xfaX\xec\xd3\x17\xc0\xbf'
p46
tp47
btp48
(F-179.27765841953087
F-55.916916694449654
F168.48154122235113
tp49
I825
I249
tp50
tp51
.(((cnumpy.core.multiarray
_reconstruct
p0
(cnumpy.matrixlib.defmatrix
matrix
p1
(I0
tp2
S'b'
p3
tp4
Rp5
(I1
(I1
I1
tp6
cnumpy
dtype
p7
(S'f8'
p8
I0
I1
tp9
Rp10
(I3
S'<'
p11
NNNI-1
I-1
I0
tp12
bI00
S'K\xe6UbIZ\x9e?'
p13
tp14
bg0
(g1
(I0
tp15
g3
tp16
Rp17
(I1
(I1
I1
tp18
g10
I00
S'\xde\xdf\x0ea\xea\xda\xa0?'
p19
tp20
bg0
(g1
(I0
tp21
g3
tp22
Rp23
(I1
(I1
I1
tp24
g10
I00
S'\xf6\xe6+1\x9ea\xc4\xbf'
p25
tp26
btp27
(F5.207246321635824
F-8.792480267508498
F-172.16951700892932
tp28
I1045
I256
tp29
((g0
(g1
(I0
tp30
g3
tp31
Rp32
(I1
(I1
I1
tp33
g10
I00
S'\xc2H\x94\x1e\xd1\x8a\xc3\xbf'
p34
tp35
bg0
(g1
(I0
tp36
g3
tp37
Rp38
(I1
(I1
I1
tp39
g10
I00
S'\x8f\x10\x99\x94\xa49\xb3?'
p40
tp41
bg0
(g1
(I0
tp42
g3
tp43
Rp44
(I1
(I1
I1
tp45
g10
I00
S'J,\xb4U\x8d[\xbf\xbf'
p46
tp47
btp48
(F-153.33562541512347
F-51.403817725592944
F149.5188771095971
tp49
I1045
I256
tp50
tp51
.(((cnumpy.core.multiarray
_reconstruct
p0
(cnumpy.matrixlib.defmatrix
matrix
p1
(I0
tp2
S'b'
p3
tp4
Rp5
(I1
(I1
I1
tp6
cnumpy
dtype
p7
(S'f8'
p8
I0
I1
tp9
Rp10
(I3
S'<'
p11
NNNI-1
I-1
I0
tp12
bI00
S"\x95'\xf9\x01\x8f\x12\xa8?"
p13
tp14
bg0
(g1
(I0
tp15
g3
tp16
Rp17
(I1
(I1
I1
tp18
g10
I00
S'\xe1\x8fj\x19\xe9\x94\xa2?'
p19
tp20
bg0
(g1
(I0
tp21
g3
tp22
Rp23
(I1
(I1
I1
tp24
g10
I00
S'>\xad\xe1\xd2\xd3\x9e\xc4\xbf'
p25
tp26
btp27
(F5.023983461510522
F-14.734689315865063
F-172.1647629500164
tp28
I823
I268
tp29
((g0
(g1
(I0
tp30
g3
tp31
Rp32
(I1
(I1
I1
tp33
g10
I00
S'\xf1{.\x89\x17\x0c\xc1\xbf'
p34
tp35
bg0
(g1
(I0
tp36
g3
tp37
Rp38
(I1
(I1
I1
tp39
g10
I00
S'\x81\xd7\xfeO\xa1<\xb2?'
p40
tp41
bg0
(g1
(I0
tp42
g3
tp43
Rp44
(I1
(I1
I1
tp45
g10
I00
S'\\\xf7\xab\x03F\x15\xc0\xbf'
p46
tp47
btp48
(F-172.59154104603957
F-53.436044963262574
F164.05391102703726
tp49
I823
I268
tp50
tp51
.(((cnumpy.core.multiarray
_reconstruct
p0
(cnumpy.matrixlib.defmatrix
matrix
p1
(I0
tp2
S'b'
p3
tp4
Rp5
(I1
(I1
I1
tp6
cnumpy
dtype
p7
(S'f8'
p8
I0
I1
tp9
Rp10
(I3
S'<'
p11
NNNI-1
I-1
I0
tp12
bI00
S'hV(\xa8;\xcc\xb0?'
p13
tp14
bg0
(g1
(I0
tp15
g3
tp16
Rp17
(I1
(I1
I1
tp18
g10
I00
S'\xb1f\xde\x91\x99q\xa3?'
p19
tp20
bg0
(g1
(I0
tp21
g3
tp22
Rp23
(I1
(I1
I1
tp24
g10
I00
S'L\xf3I\xf5\x1b\x08\xc5\xbf'
p25
tp26
btp27
(F5.377071293332706
F-20.29159161439639
F-172.70677275296558
tp28
I599
I274
tp29
((g0
(g1
(I0
tp30
g3
tp31
Rp32
(I1
(I1
I1
tp33
g10
I00
S'\xe0K\xbb\x1fy\x7f\xbd\xbf'
p34
tp35
bg0
(g1
(I0
tp36
g3
tp37
Rp38
(I1
(I1
I1
tp39
g10
I00
S'\xdb[\xb4\xf3\xd8\\\xb1?'
p40
tp41
bg0
(g1
(I0
tp42
g3
tp43
Rp44
(I1
(I1
I1
tp45
g10
I00
S'T\xd4V<$r\xc0\xbf'
p46
tp47
btp48
(F-177.29687226497074
F-50.558360763785736
F166.67988058542073
tp49
I599
I274
tp50
tp51
.(((cnumpy.core.multiarray
_reconstruct
p0
(cnumpy.matrixlib.defmatrix
matrix
p1
(I0
tp2
S'b'
p3
tp4
Rp5
(I1
(I1
I1
tp6
cnumpy
dtype
p7
(S'f8'
p8
I0
I1
tp9
Rp10
(I3
S'<'
p11
NNNI-1
I-1
I0
tp12
bI00
S'\xc4\xc0\xf9B\x93\x84\xb5?'
p13
tp14
bg0
(g1
(I0
tp15
g3
tp16
Rp17
(I1
(I1
I1
tp18
g10
I00
S'~\xf1\xcd\x9d\x86\xf7\xa5?'
p19
tp20
bg0
(g1
(I0
tp21
g3
tp22
Rp23
(I1
(I1
I1
tp24
g10
I00
S's\xb6z\xb4\x0c?\xc5\xbf'
p25
tp26
btp27
(F2.2770030201507496
F-24.62317227354954
F-170.7707445616155
tp28
I370
I283
tp29
((g0
(g1
(I0
tp30
g3
tp31
Rp32
(I1
(I1
I1
tp33
g10
I00
S'\x9cQ\x07No\xa0\xb8\xbf'
p34
tp35
bg0
(g1
(I0
tp36
g3
tp37
Rp38
(I1
(I1
I1
tp39
g10
I00
S'/\x13\xa7\xb9\xfa\x04\xb1?'
p40
tp41
bg0
(g1
(I0
tp42
g3
tp43
Rp44
(I1
(I1
I1
tp45
g10
I00
S'\x81\xc8@/*s\xc0\xbf'
p46
tp47
btp48
(F-177.7613461778001
F-46.064386383548076
F165.99635704147266
tp49
I370
I283
tp50
tp51
.(((cnumpy.core.multiarray
_reconstruct
p0
(cnumpy.matrixlib.defmatrix
matrix
p1
(I0
tp2
S'b'
p3
tp4
Rp5
(I1
(I1
I1
tp6
cnumpy
dtype
p7
(S'f8'
p8
I0
I1
tp9
Rp10
(I3
S'<'
p11
NNNI-1
I-1
I0
tp12
bI00
S'y\xb1\xa1 s\xa8\xba?'
p13
tp14
bg0
(g1
(I0
tp15
g3
tp16
Rp17
(I1
(I1
I1
tp18
g10
I00
S'\xb8`\xbf\x1f\x94\x89\xa8?'
p19
tp20
bg0
(g1
(I0
tp21
g3
tp22
Rp23
(I1
(I1
I1
tp24
g10
I00
S'Q\x9ae\x15k]\xc5\xbf'
p25
tp26
btp27
(F0.75990582441875
F-29.81653840803288
F-169.4776016207618
tp28
I127
I303
tp29
((g0
(g1
(I0
tp30
g3
tp31
Rp32
(I1
(I1
I1
tp33
g10
I00
S'\xc1\x9c\x81E\xf2\xcf\xb3\xbf'
p34
tp35
bg0
(g1
(I0
tp36
g3
tp37
Rp38
(I1
(I1
I1
tp39
g10
I00
S'=V\xc78\xb9d\xb0?'
p40
tp41
bg0
(g1
(I0
tp42
g3
tp43
Rp44
(I1
(I1
I1
tp45
g10
I00
S'9g\xbc\x93\tI\xc0\xbf'
p46
tp47
btp48
(F-168.6576125489085
F-37.25471069777716
F160.92282208668885
tp49
I127
I303
tp50
tp51
.(((cnumpy.core.multiarray
_reconstruct
p0
(cnumpy.matrixlib.defmatrix
matrix
p1
(I0
tp2
S'b'
p3
tp4
Rp5
(I1
(I1
I1
tp6
cnumpy
dtype
p7
(S'f8'
p8
I0
I1
tp9
Rp10
(I3
S'<'
p11
NNNI-1
I-1
I0
tp12
bI00
S'\xd3\xaf\xb5\x05\xa5\x81\xa3?'
p13
tp14
bg0
(g1
(I0
tp15
g3
tp16
Rp17
(I1
(I1
I1
tp18
g10
I00
S'\x9d\xcf\xe2[\xc4\xbe\xa6?'
p19
tp20
bg0
(g1
(I0
tp21
g3
tp22
Rp23
(I1
(I1
I1
tp24
g10
I00
S'\x84/\x15\xbe?h\xc4\xbf'
p25
tp26
btp27
(F2.034079166576233
F-11.094165664682016
F-168.01228014645852
tp28
I907
I359
tp29
((g0
(g1
(I0
tp30
g3
tp31
Rp32
(I1
(I1
I1
tp33
g10
I00
S'\xf3\x95\xad\xf8\x1c\xd5\xc1\xbf'
p34
tp35
bg0
(g1
(I0
tp36
g3
tp37
Rp38
(I1
(I1
I1
tp39
g10
I00
S'h\xff\x1e\xee\xcc\xf6\xb4?'
p40
tp41
bg0
(g1
(I0
tp42
g3
tp43
Rp44
(I1
(I1
I1
tp45
g10
I00
S')\xd6j\xeb\x1c\xdf\xbf\xbf'
p46
tp47
btp48
(F-171.9828569866379
F-56.71086177744244
F159.92787684252525
tp49
I907
I359
tp50
tp51
.(((cnumpy.core.multiarray
_reconstruct
p0
(cnumpy.matrixlib.defmatrix
matrix
p1
(I0
tp2
S'b'
p3
tp4
Rp5
(I1
(I1
I1
tp6
cnumpy
dtype
p7
(S'f8'
p8
I0
I1
tp9
Rp10
(I3
S'<'
p11
NNNI-1
I-1
I0
tp12
bI00
S')o\x9a\x03\x92e\x93?'
p13
tp14
bg0
(g1
(I0
tp15
g3
tp16
Rp17
(I1
(I1
I1
tp18
g10
I00
S'"Tx\xb7\x1a\xf2\xa4?'
p19
tp20
bg0
(g1
(I0
tp21
g3
tp22
Rp23
(I1
(I1
I1
tp24
g10
I00
S'\x96nt\xd1\x9f/\xc4\xbf'
p25
tp26
btp27
(F4.073501269542266
F-4.8232744125309885
F-168.71033208413215
tp28
I1148
I361
tp29
((g0
(g1
(I0
tp30
g3
tp31
Rp32
(I1
(I1
I1
tp33
g10
I00
S'\xba\xb8\xd3\xf3\x0eP\xc4\xbf'
p34
tp35
bg0
(g1
(I0
tp36
g3
tp37
Rp38
(I1
(I1
I1
tp39
g10
I00
S'&\xed%\xd1+\xb6\xb5?'
p40
tp41
bg0
(g1
(I0
tp42
g3
tp43
Rp44
(I1
(I1
I1
tp45
g10
I00
S'+\x8e\x97\x84\x0f\xc6\xbf\xbf'
p46
tp47
btp48
(F-173.75831301811283
F-62.904721678975356
F160.13087431597575
tp49
I1148
I361
tp50
tp51
.(((cnumpy.core.multiarray
_reconstruct
p0
(cnumpy.matrixlib.defmatrix
matrix
p1
(I0
tp2
S'b'
p3
tp4
Rp5
(I1
(I1
I1
tp6
cnumpy
dtype
p7
(S'f8'
p8
I0
I1
tp9
Rp10
(I3
S'<'
p11
NNNI-1
I-1
I0
tp12
bI00
S'\xb2\xeb\xaf\xae\x13\x13\x94?'
p13
tp14
bg0
(g1
(I0
tp15
g3
tp16
Rp17
(I1
(I1
I1
tp18
g10
I00
S'\x86\x96\xde\x10\xf5\xe2\xa4?'
p19
tp20
bg0
(g1
(I0
tp21
g3
tp22
Rp23
(I1
(I1
I1
tp24
g10
I00
S'\xc4\xf3\xf4\x04L\x10\xc4\xbf'
p25
tp26
btp27
(F1.6460430112933326
F-4.503975008479097
F-168.34437033823346
tp28
I1148
I361
tp29
((g0
(g1
(I0
tp30
g3
tp31
Rp32
(I1
(I1
I1
tp33
g10
I00
S' \xcbN\x1c\xec<\xc4\xbf'
p34
tp35
bg0
(g1
(I0
tp36
g3
tp37
Rp38
(I1
(I1
I1
tp39
g10
I00
S'e\x10\x07S\xff\x9c\xb5?'
p40
tp41
bg0
(g1
(I0
tp42
g3
tp43
Rp44
(I1
(I1
I1
tp45
g10
I00
S'\xbaz2\xdd\xeb\xc5\xbf\xbf'
p46
tp47
btp48
(F176.33475084784538
F-63.59597547700583
F169.18706293348882
tp49
I1148
I361
tp50
tp51
.(((cnumpy.core.multiarray
_reconstruct
p0
(cnumpy.matrixlib.defmatrix
matrix
p1
(I0
tp2
S'b'
p3
tp4
Rp5
(I1
(I1
I1
tp6
cnumpy
dtype
p7
(S'f8'
p8
I0
I1
tp9
Rp10
(I3
S'<'
p11
NNNI-1
I-1
I0
tp12
bI00
S'\xef\xf1\xfe\xfb\x9dX\xa2?'
p13
tp14
bg0
(g1
(I0
tp15
g3
tp16
Rp17
(I1
(I1
I1
tp18
g10
I00
S"\xfd'\x1c\xfd\xd7j\xa6?"
p19
tp20
bg0
(g1
(I0
tp21
g3
tp22
Rp23
(I1
(I1
I1
tp24
g10
I00
S'Z\xa9K\xf7PX\xc4\xbf'
p25
tp26
btp27
(F2.1800903865536467
F-10.20475930346185
F-167.99476756299043
tp28
I941
I370
tp29
((g0
(g1
(I0
tp30
g3
tp31
Rp32
(I1
(I1
I1
tp33
g10
I00
S'<\xf9\xbfq--\xc2\xbf'
p34
tp35
bg0
(g1
(I0
tp36
g3
tp37
Rp38
(I1
(I1
I1
tp39
g10
I00
S'4\xe6\xcf\xf4\x9cG\xb5?'
p40
tp41
bg0
(g1
(I0
tp42
g3
tp43
Rp44
(I1
(I1
I1
tp45
g10
I00
S'\x96O{W{\xda\xbf\xbf'
p46
tp47
btp48
(F-155.5273264756059
F-49.86622594435725
F148.58827091969857
tp49
I941
I370
tp50
tp51
.(((cnumpy.core.multiarray
_reconstruct
p0
(cnumpy.matrixlib.defmatrix
matrix
p1
(I0
tp2
S'b'
p3
tp4
Rp5
(I1
(I1
I1
tp6
cnumpy
dtype
p7
(S'f8'
p8
I0
I1
tp9
Rp10
(I3
S'<'
p11
NNNI-1
I-1
I0
tp12
bI00
S'l\x85\x0c\xe4\xa6\xfe\xab?'
p13
tp14
bg0
(g1
(I0
tp15
g3
tp16
Rp17
(I1
(I1
I1
tp18
g10
I00
S'\x8a\x00\x9c\xb1\xc0\x10\xa8?'
p19
tp20
bg0
(g1
(I0
tp21
g3
tp22
Rp23
(I1
(I1
I1
tp24
g10
I00
S'=OuGU\xc1\xc4\xbf'
p25
tp26
btp27
(F5.5941824402981855
F-17.007441941201037
F-168.9253087314619
tp28
I719
I379
tp29
((g0
(g1
(I0
tp30
g3
tp31
Rp32
(I1
(I1
I1
tp33
g10
I00
S'J\x8aY\xec\\\x8a\xbf\xbf'
p34
tp35
bg0
(g1
(I0
tp36
g3
tp37
Rp38
(I1
(I1
I1
tp39
g10
I00
S'\xec\x8b\xd0\x89\xc7[\xb4?'
p40
tp41
bg0
(g1
(I0
tp42
g3
tp43
Rp44
(I1
(I1
I1
tp45
g10
I00
S'-\xbfe\xeaR#\xc0\xbf'
p46
tp47
btp48
(F-173.8627006276883
F-52.09803351799685
F161.7423283183646
tp49
I719
I379
tp50
tp51
.(((cnumpy.core.multiarray
_reconstruct
p0
(cnumpy.matrixlib.defmatrix
matrix
p1
(I0
tp2
S'b'
p3
tp4
Rp5
(I1
(I1
I1
tp6
cnumpy
dtype
p7
(S'f8'
p8
I0
I1
tp9
Rp10
(I3
S'<'
p11
NNNI-1
I-1
I0
tp12
bI00
S'J\xbf\t\x83\x05d\xb2?'
p13
tp14
bg0
(g1
(I0
tp15
g3
tp16
Rp17
(I1
(I1
I1
tp18
g10
I00
S'\xa7\xfcI\x90~f\xa9?'
p19
tp20
bg0
(g1
(I0
tp21
g3
tp22
Rp23
(I1
(I1
I1
tp24
g10
I00
S'\xec\x9e\xf4]\xfe\xf6\xc4\xbf'
p25
tp26
btp27
(F2.0626295229070086
F-21.65143175242797
F-167.9116832896441
tp28
I494
I389
tp29
((g0
(g1
(I0
tp30
g3
tp31
Rp32
(I1
(I1
I1
tp33
g10
I00
S'\xaft\xa63H\xb9\xba\xbf'
p34
tp35
bg0
(g1
(I0
tp36
g3
tp37
Rp38
(I1
(I1
I1
tp39
g10
I00
S'\x18\xe3\xd8\x04\xc2\x03\xb4?'
p40
tp41
bg0
(g1
(I0
tp42
g3
tp43
Rp44
(I1
(I1
I1
tp45
g10
I00
S'\x17\xe05\xb9SL\xc0\xbf'
p46
tp47
btp48
(F-175.0453534605039
F-47.87937531567012
F161.26869536163997
tp49
I494
I389
tp50
tp51
.(((cnumpy.core.multiarray
_reconstruct
p0
(cnumpy.matrixlib.defmatrix
matrix
p1
(I0
tp2
S'b'
p3
tp4
Rp5
(I1
(I1
I1
tp6
cnumpy
dtype
p7
(S'f8'
p8
I0
I1
tp9
Rp10
(I3
S'<'
p11
NNNI-1
I-1
I0
tp12
bI00
S'\x05\xd5\xfe\x94H\x19\xb7?'
p13
tp14
bg0
(g1
(I0
tp15
g3
tp16
Rp17
(I1
(I1
I1
tp18
g10
I00
S'e\x0f\x06\xfa\xd6\x94\xab?'
p19
tp20
bg0
(g1
(I0
tp21
g3
tp22
Rp23
(I1
(I1
I1
tp24
g10
I00
S'\xab\x9d\xba\x87\\M\xc5\xbf'
p25
tp26
btp27
(F2.218957403739019
F-26.50478219550675
F-168.0395252552982
tp28
I262
I399
tp29
((g0
(g1
(I0
tp30
g3
tp31
Rp32
(I1
(I1
I1
tp33
g10
I00
S'\xf2R\r\xed\x15\x13\xb6\xbf'
p34
tp35
bg0
(g1
(I0
tp36
g3
tp37
Rp38
(I1
(I1
I1
tp39
g10
I00
S"#\xd7\x1a\xeb'\x92\xb2?"
p40
tp41
bg0
(g1
(I0
tp42
g3
tp43
Rp44
(I1
(I1
I1
tp45
g10
I00
S"U\xb4\xc3\\'\x89\xc0\xbf"
p46
tp47
btp48
(F178.2677837955947
F-42.128641150855614
F167.62389733266403
tp49
I262
I399
tp50
tp51
.(((cnumpy.core.multiarray
_reconstruct
p0
(cnumpy.matrixlib.defmatrix
matrix
p1
(I0
tp2
S'b'
p3
tp4
Rp5
(I1
(I1
I1
tp6
cnumpy
dtype
p7
(S'f8'
p8
I0
I1
tp9
Rp10
(I3
S'<'
p11
NNNI-1
I-1
I0
tp12
bI00
S'\xef\xc0\x9e\x8b\xac\x07\x9a?'
p13
tp14
bg0
(g1
(I0
tp15
g3
tp16
Rp17
(I1
(I1
I1
tp18
g10
I00
S"\xc2\x94\xe1*'|\xa8?"
p19
tp20
bg0
(g1
(I0
tp21
g3
tp22
Rp23
(I1
(I1
I1
tp24
g10
I00
S'\x15<\xa8\x1a\x07`\xc4\xbf'
p25
tp26
btp27
(F5.166599588313162
F-7.981389337059719
F-167.2279992968806
tp28
I1080
I446
tp29
((g0
(g1
(I0
tp30
g3
tp31
Rp32
(I1
(I1
I1
tp33
g10
I00
S'\xe2\xda\x1aI\xd5#\xc3\xbf'
p34
tp35
bg0
(g1
(I0
tp36
g3
tp37
Rp38
(I1
(I1
I1
tp39
g10
I00
S'C\x9d\xdb\x8d\x84\xfc\xb6?'
p40
tp41
bg0
(g1
(I0
tp42
g3
tp43
Rp44
(I1
(I1
I1
tp45
g10
I00
S'\xfe\x1a?\x0eJ\x12\xc0\xbf'
p46
tp47
btp48
(F177.8964822842105
F-60.26663879068463
F166.79054183257898
tp49
I1080
I446
tp50
tp51
.(((cnumpy.core.multiarray
_reconstruct
p0
(cnumpy.matrixlib.defmatrix
matrix
p1
(I0
tp2
S'b'
p3
tp4
Rp5
(I1
(I1
I1
tp6
cnumpy
dtype
p7
(S'f8'
p8
I0
I1
tp9
Rp10
(I3
S'<'
p11
NNNI-1
I-1
I0
tp12
bI00
S'\x88\x01\x9f\xb7#\xfe\xa5?'
p13
tp14
bg0
(g1
(I0
tp15
g3
tp16
Rp17
(I1
(I1
I1
tp18
g10
I00
S'\xa1\xb7\xb4\xfe\xa0\xcf\xaa?'
p19
tp20
bg0
(g1
(I0
tp21
g3
tp22
Rp23
(I1
(I1
I1
tp24
g10
I00
S'\xc8\x0c\xe8\tEg\xc4\xbf'
p25
tp26
btp27
(F1.967540395992031
F-13.377116529622384
F-165.91531430696307
tp28
I867
I460
tp29
((g0
(g1
(I0
tp30
g3
tp31
Rp32
(I1
(I1
I1
tp33
g10
I00
S'\x0f\xa59\xd5\x81T\xc1\xbf'
p34
tp35
bg0
(g1
(I0
tp36
g3
tp37
Rp38
(I1
(I1
I1
tp39
g10
I00
S'u\x8b\xd7\xa9"\xac\xb6?'
p40
tp41
bg0
(g1
(I0
tp42
g3
tp43
Rp44
(I1
(I1
I1
tp45
g10
I00
S'y\xad\xf0\xeaqs\xbf\xbf'
p46
tp47
btp48
(F-176.1053226585624
F-56.434591816070544
F161.33313249064122
tp49
I867
I460
tp50
tp51
.(((cnumpy.core.multiarray
_reconstruct
p0
(cnumpy.matrixlib.defmatrix
matrix
p1
(I0
tp2
S'b'
p3
tp4
Rp5
(I1
(I1
I1
tp6
cnumpy
dtype
p7
(S'f8'
p8
I0
I1
tp9
Rp10
(I3
S'<'
p11
NNNI-1
I-1
I0
tp12
bI00
S'V\x07\x08\x0c;;\x9a?'
p13
tp14
bg0
(g1
(I0
tp15
g3
tp16
Rp17
(I1
(I1
I1
tp18
g10
I00
S'm\xb0\x98\xc8E\x89\xa9?'
p19
tp20
bg0
(g1
(I0
tp21
g3
tp22
Rp23
(I1
(I1
I1
tp24
g10
I00
S'W/\x016\xf1U\xc4\xbf'
p25
tp26
btp27
(F5.139694828329375
F-8.387244201727992
F-166.76365676219856
tp28
I1057
I471
tp29
((g0
(g1
(I0
tp30
g3
tp31
Rp32
(I1
(I1
I1
tp33
g10
I00
S'1hO\xb0\x98\x18\xc3\xbf'
p34
tp35
bg0
(g1
(I0
tp36
g3
tp37
Rp38
(I1
(I1
I1
tp39
g10
I00
S'1\x8c\x98\x7f\x9c\xf5\xb7?'
p40
tp41
bg0
(g1
(I0
tp42
g3
tp43
Rp44
(I1
(I1
I1
tp45
g10
I00
S'\xa6\xc8\x80\xc5\xb6 \xc0\xbf'
p46
tp47
btp48
(F-172.5096589692985
F-57.61533370561142
F158.64288576162116
tp49
I1057
I471
tp50
tp51
.(((cnumpy.core.multiarray
_reconstruct
p0
(cnumpy.matrixlib.defmatrix
matrix
p1
(I0
tp2
S'b'
p3
tp4
Rp5
(I1
(I1
I1
tp6
cnumpy
dtype
p7
(S'f8'
p8
I0
I1
tp9
Rp10
(I3
S'<'
p11
NNNI-1
I-1
I0
tp12
bI00
S'\xd4N\x07lq\x05\xa6?'
p13
tp14
bg0
(g1
(I0
tp15
g3
tp16
Rp17
(I1
(I1
I1
tp18
g10
I00
S'\x81l\xe7\xb2\\u\xab?'
p19
tp20
bg0
(g1
(I0
tp21
g3
tp22
Rp23
(I1
(I1
I1
tp24
g10
I00
S'\xe7W\x90\xf2u\x92\xc4\xbf'
p25
tp26
btp27
(F5.306480878687634
F-14.082800786536437
F-166.30221707980866
tp28
I835
I486
tp29
((g0
(g1
(I0
tp30
g3
tp31
Rp32
(I1
(I1
I1
tp33
g10
I00
S'\xb0\xfe\xc8+\xdb\xae\xc0\xbf'
p34
tp35
bg0
(g1
(I0
tp36
g3
tp37
Rp38
(I1
(I1
I1
tp39
g10
I00
S'\x19\xe7\xc3\x9f\x9c\x00\xb7?'
p40
tp41
bg0
(g1
(I0
tp42
g3
tp43
Rp44
(I1
(I1
I1
tp45
g10
I00
S'\xbb\xa8s\xd3\x81\x19\xc0\xbf'
p46
tp47
btp48
(F178.37309171233164
F-56.647872188531636
F164.67696281695547
tp49
I835
I486
tp50
tp51
.(((cnumpy.core.multiarray
_reconstruct
p0
(cnumpy.matrixlib.defmatrix
matrix
p1
(I0
tp2
S'b'
p3
tp4
Rp5
(I1
(I1
I1
tp6
cnumpy
dtype
p7
(S'f8'
p8
I0
I1
tp9
Rp10
(I3
S'<'
p11
NNNI-1
I-1
I0
tp12
bI00
S'\x0ckwh\xa7\x82\xaf?'
p13
tp14
bg0
(g1
(I0
tp15
g3
tp16
Rp17
(I1
(I1
I1
tp18
g10
I00
S'm\xc9p\xc0\xcd\xd9\xac?'
p19
tp20
bg0
(g1
(I0
tp21
g3
tp22
Rp23
(I1
(I1
I1
tp24
g10
I00
S'\x1ep \xa2\xf1\xd6\xc4\xbf'
p25
tp26
btp27
(F5.4631800971182125
F-19.850577927099465
F-166.89832790820364
tp28
I611
I497
tp29
((g0
(g1
(I0
tp30
g3
tp31
Rp32
(I1
(I1
I1
tp33
g10
I00
S'G\xcfS\x97\x9dg\xbd\xbf'
p34
tp35
bg0
(g1
(I0
tp36
g3
tp37
Rp38
(I1
(I1
I1
tp39
g10
I00
S'\xca\x96\xc9\xeaG\x0b\xb6?'
p40
tp41
bg0
(g1
(I0
tp42
g3
tp43
Rp44
(I1
(I1
I1
tp45
g10
I00
S'\xbe\xb9K\x19\xaa\x1c\xc0\xbf'
p46
tp47
btp48
(F-176.37290176243766
F-54.38575153132169
F157.62349252836353
tp49
I611
I497
tp50
tp51
.(((cnumpy.core.multiarray
_reconstruct
p0
(cnumpy.matrixlib.defmatrix
matrix
p1
(I0
tp2
S'b'
p3
tp4
Rp5
(I1
(I1
I1
tp6
cnumpy
dtype
p7
(S'f8'
p8
I0
I1
tp9
Rp10
(I3
S'<'
p11
NNNI-1
I-1
I0
tp12
bI00
S'\xbbs\xaa\xdb\x95\xfd\xb3?'
p13
tp14
bg0
(g1
(I0
tp15
g3
tp16
Rp17
(I1
(I1
I1
tp18
g10
I00
S'q\xe4\xba\x01\xddm\xae?'
p19
tp20
bg0
(g1
(I0
tp21
g3
tp22
Rp23
(I1
(I1
I1
tp24
g10
I00
S'z\x7f\xd2\x06\xc1\x10\xc5\xbf'
p25
tp26
btp27
(F2.4824994678326577
F-23.587426355020845
F-165.7594865867558
tp28
I417
I507
tp29
((g0
(g1
(I0
tp30
g3
tp31
Rp32
(I1
(I1
I1
tp33
g10
I00
S'\x179f\xf0?\x99\xb8\xbf'
p34
tp35
bg0
(g1
(I0
tp36
g3
tp37
Rp38
(I1
(I1
I1
tp39
g10
I00
S'\xc0Z\xb3,\xdfv\xb5?'
p40
tp41
bg0
(g1
(I0
tp42
g3
tp43
Rp44
(I1
(I1
I1
tp45
g10
I00
S'N\xb9R\x86\xa26\xc0\xbf'
p46
tp47
btp48
(F-178.9036247044034
F-46.67982350221312
F162.0239060721207
tp49
I417
I507
tp50
tp51
.(((cnumpy.core.multiarray
_reconstruct
p0
(cnumpy.matrixlib.defmatrix
matrix
p1
(I0
tp2
S'b'
p3
tp4
Rp5
(I1
(I1
I1
tp6
cnumpy
dtype
p7
(S'f8'
p8
I0
I1
tp9
Rp10
(I3
S'<'
p11
NNNI-1
I-1
I0
tp12
bI00
S'\x1e\x83\x10n\x7f\xf5\xb4?'
p13
tp14
bg0
(g1
(I0
tp15
g3
tp16
Rp17
(I1
(I1
I1
tp18
g10
I00
S'\x0f\x8a\xc9\x8a\xd7`\xaf?'
p19
tp20
bg0
(g1
(I0
tp21
g3
tp22
Rp23
(I1
(I1
I1
tp24
g10
I00
S'\xf1K\t\xa5~:\xc5\xbf'
p25
tp26
btp27
(F4.96678350108788
F-25.113253107184278
F-166.69563083959403
tp28
I352
I509
tp29
((g0
(g1
(I0
tp30
g3
tp31
Rp32
(I1
(I1
I1
tp33
g10
I00
S'\x9bm\xfdj\x92~\xb7\xbf'
p34
tp35
bg0
(g1
(I0
tp36
g3
tp37
Rp38
(I1
(I1
I1
tp39
g10
I00
S'\x13v.\xd2j~\xb5?'
p40
tp41
bg0
(g1
(I0
tp42
g3
tp43
Rp44
(I1
(I1
I1
tp45
g10
I00
S'X\xc3TN\x85z\xc0\xbf'
p46
tp47
btp48
(F-178.5083066023505
F-47.27861172766989
F159.62567900351866
tp49
I352
I509
tp50
tp51
.(((cnumpy.core.multiarray
_reconstruct
p0
(cnumpy.matrixlib.defmatrix
matrix
p1
(I0
tp2
S'b'
p3
tp4
Rp5
(I1
(I1
I1
tp6
cnumpy
dtype
p7
(S'f8'
p8
I0
I1
tp9
Rp10
(I3
S'<'
p11
NNNI-1
I-1
I0
tp12
bI00
S'A\xaf\xe5*@k\xb9?'
p13
tp14
bg0
(g1
(I0
tp15
g3
tp16
Rp17
(I1
(I1
I1
tp18
g10
I00
S'>\xf4\xe8\xe4\x83k\xb0?'
p19
tp20
bg0
(g1
(I0
tp21
g3
tp22
Rp23
(I1
(I1
I1
tp24
g10
I00
S'\xa0\xdeH\xd4\xca\x8e\xc5\xbf'
p25
tp26
btp27
(F6.373189355730257
F-29.85299028354856
F-168.0744911361829
tp28
I151
I516
tp29
((g0
(g1
(I0
tp30
g3
tp31
Rp32
(I1
(I1
I1
tp33
g10
I00
S'\xe4\xe5\xd1>\x90\x9d\xb3\xbf'
p34
tp35
bg0
(g1
(I0
tp36
g3
tp37
Rp38
(I1
(I1
I1
tp39
g10
I00
S'\xb4M\xbb\xca\x08\xf0\xb4?'
p40
tp41
bg0
(g1
(I0
tp42
g3
tp43
Rp44
(I1
(I1
I1
tp45
g10
I00
S'\xc3\x84\x953\xb8\x9b\xc0\xbf'
p46
tp47
btp48
(F-178.30449110037122
F-40.40168452060157
F160.60444140123852
tp49
I151
I516
tp50
tp51
.(((cnumpy.core.multiarray
_reconstruct
p0
(cnumpy.matrixlib.defmatrix
matrix
p1
(I0
tp2
S'b'
p3
tp4
Rp5
(I1
(I1
I1
tp6
cnumpy
dtype
p7
(S'f8'
p8
I0
I1
tp9
Rp10
(I3
S'<'
p11
NNNI-1
I-1
I0
tp12
bI00
S'\xaf6\x86IlW\x90?'
p13
tp14
bg0
(g1
(I0
tp15
g3
tp16
Rp17
(I1
(I1
I1
tp18
g10
I00
S'U\xab[\xc7\x06\x04\xae?'
p19
tp20
bg0
(g1
(I0
tp21
g3
tp22
Rp23
(I1
(I1
I1
tp24
g10
I00
S'\t\x0eF\x8diF\xc4\xbf'
p25
tp26
btp27
(F1.7072336037078746
F-3.7413620154996425
F-162.946416574629
tp28
I1160
I577
tp29
((g0
(g1
(I0
tp30
g3
tp31
Rp32
(I1
(I1
I1
tp33
g10
I00
S'R\xc5\xe5>\xe5\xf2\xc3\xbf'
p34
tp35
bg0
(g1
(I0
tp36
g3
tp37
Rp38
(I1
(I1
I1
tp39
g10
I00
S'\x8cq[Z\xe2\xf7\xba?'
p40
tp41
bg0
(g1
(I0
tp42
g3
tp43
Rp44
(I1
(I1
I1
tp45
g10
I00
S'\x0f\x08\x9eA\x9e\x0b\xbf\xbf'
p46
tp47
btp48
(F177.74051031832548
F-60.52334654763306
F165.91043512005717
tp49
I1160
I577
tp50
tp51
.(((cnumpy.core.multiarray
_reconstruct
p0
(cnumpy.matrixlib.defmatrix
matrix
p1
(I0
tp2
S'b'
p3
tp4
Rp5
(I1
(I1
I1
tp6
cnumpy
dtype
p7
(S'f8'
p8
I0
I1
tp9
Rp10
(I3
S'<'
p11
NNNI-1
I-1
I0
tp12
bI00
S'\x8b;\xd8N\xdd\xe5\x8e?'
p13
tp14
bg0
(g1
(I0
tp15
g3
tp16
Rp17
(I1
(I1
I1
tp18
g10
I00
S'\xae\xc0\x84\xeeI\x94\xad?'
p19
tp20
bg0
(g1
(I0
tp21
g3
tp22
Rp23
(I1
(I1
I1
tp24
g10
I00
S'\xaf\xa7\xe4\xd4\x8c(\xc4\xbf'
p25
tp26
btp27
(F5.3174672117733035
F-4.740789231778942
F-163.32374317838872
tp28
I1160
I577
tp29
((g0
(g1
(I0
tp30
g3
tp31
Rp32
(I1
(I1
I1
tp33
g10
I00
S'\xaa\xb1\x82\t\xd4\x14\xc4\xbf'
p34
tp35
bg0
(g1
(I0
tp36
g3
tp37
Rp38
(I1
(I1
I1
tp39
g10
I00
S'v[\xa92\x06&\xbb?'
p40
tp41
bg0
(g1
(I0
tp42
g3
tp43
Rp44
(I1
(I1
I1
tp45
g10
I00
S'\x88{\xe6?\x7f~\xbf\xbf'
p46
tp47
btp48
(F-172.58018181622873
F-58.71787395779977
F156.57660885107632
tp49
I1160
I577
tp50
tp51
.(((cnumpy.core.multiarray
_reconstruct
p0
(cnumpy.matrixlib.defmatrix
matrix
p1
(I0
tp2
S'b'
p3
tp4
Rp5
(I1
(I1
I1
tp6
cnumpy
dtype
p7
(S'f8'
p8
I0
I1
tp9
Rp10
(I3
S'<'
p11
NNNI-1
I-1
I0
tp12
bI00
S'w$\x85\xbdIh\xa0?'
p13
tp14
bg0
(g1
(I0
tp15
g3
tp16
Rp17
(I1
(I1
I1
tp18
g10
I00
S'\x9c\xb8\x97\xf4\xa7\x06\xaf?'
p19
tp20
bg0
(g1
(I0
tp21
g3
tp22
Rp23
(I1
(I1
I1
tp24
g10
I00
S'\x15"\xf5\xe0\xbbg\xc4\xbf'
p25
tp26
btp27
(F2.435553436874833
F-9.465199291779715
F-162.43299784503077
tp28
I968
I580
tp29
((g0
(g1
(I0
tp30
g3
tp31
Rp32
(I1
(I1
I1
tp33
g10
I00
S':t\xd5\x07/\xba\xc1\xbf'
p34
tp35
bg0
(g1
(I0
tp36
g3
tp37
Rp38
(I1
(I1
I1
tp39
g10
I00
S'\xbaf\r}b\xdf\xb9?'
p40
tp41
bg0
(g1
(I0
tp42
g3
tp43
Rp44
(I1
(I1
I1
tp45
g10
I00
S'\xc7\xc3\xf8-\x11\xf9\xbf\xbf'
p46
tp47
btp48
(F-170.02739551151197
F-52.79567029325505
F155.12922304247886
tp49
I968
I580
tp50
tp51
.(((cnumpy.core.multiarray
_reconstruct
p0
(cnumpy.matrixlib.defmatrix
matrix
p1
(I0
tp2
S'b'
p3
tp4
Rp5
(I1
(I1
I1
tp6
cnumpy
dtype
p7
(S'f8'
p8
I0
I1
tp9
Rp10
(I3
S'<'
p11
NNNI-1
I-1
I0
tp12
bI00
S'x\xb5\x94F\x87\xe7\xa0?'
p13
tp14
bg0
(g1
(I0
tp15
g3
tp16
Rp17
(I1
(I1
I1
tp18
g10
I00
S'V\xfc%\xa8FQ\xaf?'
p19
tp20
bg0
(g1
(I0
tp21
g3
tp22
Rp23
(I1
(I1
I1
tp24
g10
I00
S'\xe8\xf9\\@\xd7u\xc4\xbf'
p25
tp26
btp27
(F2.4239868027632507
F-10.082662186294536
F-162.86049751531115
tp28
I951
I590
tp29
((g0
(g1
(I0
tp30
g3
tp31
Rp32
(I1
(I1
I1
tp33
g10
I00
S'k\xf5M\xdf\xec\xe1\xc1\xbf'
p34
tp35
bg0
(g1
(I0
tp36
g3
tp37
Rp38
(I1
(I1
I1
tp39
g10
I00
S'\xf3\xc8\xc7\xae,\xf9\xb9?'
p40
tp41
bg0
(g1
(I0
tp42
g3
tp43
Rp44
(I1
(I1
I1
tp45
g10
I00
S'\x89y\x08\x8e\xee\xfa\xbf\xbf'
p46
tp47
btp48
(F-168.31714479379116
F-53.59162278474228
F153.1520521184368
tp49
I951
I590
tp50
tp51
.(((cnumpy.core.multiarray
_reconstruct
p0
(cnumpy.matrixlib.defmatrix
matrix
p1
(I0
tp2
S'b'
p3
tp4
Rp5
(I1
(I1
I1
tp6
cnumpy
dtype
p7
(S'f8'
p8
I0
I1
tp9
Rp10
(I3
S'<'
p11
NNNI-1
I-1
I0
tp12
bI00
S'\x0fn\xfa\x02\x10\xed\xa9?'
p13
tp14
bg0
(g1
(I0
tp15
g3
tp16
Rp17
(I1
(I1
I1
tp18
g10
I00
S'R\x9d\xa1\xfb\xc5\xa8\xb0?'
p19
tp20
bg0
(g1
(I0
tp21
g3
tp22
Rp23
(I1
(I1
I1
tp24
g10
I00
S'\x96\x0b\x01\xd5\xd9\x9c\xc4\xbf'
p25
tp26
btp27
(F2.2759656355728315
F-15.832576000001401
F-162.41169060039974
tp28
I729
I597
tp29
((g0
(g1
(I0
tp30
g3
tp31
Rp32
(I1
(I1
I1
tp33
g10
I00
S'WZ\xe3\x83]\xf5\xbe\xbf'
p34
tp35
bg0
(g1
(I0
tp36
g3
tp37
Rp38
(I1
(I1
I1
tp39
g10
I00
S'R\xcb"Hr\n\xb9?'
p40
tp41
bg0
(g1
(I0
tp42
g3
tp43
Rp44
(I1
(I1
I1
tp45
g10
I00
S'K7\xd06\xef\n\xc0\xbf'
p46
tp47
btp48
(F-178.21674859351413
F-53.757390600927074
F159.1552878023592
tp49
I729
I597
tp50
tp51
.(((cnumpy.core.multiarray
_reconstruct
p0
(cnumpy.matrixlib.defmatrix
matrix
p1
(I0
tp2
S'b'
p3
tp4
Rp5
(I1
(I1
I1
tp6
cnumpy
dtype
p7
(S'f8'
p8
I0
I1
tp9
Rp10
(I3
S'<'
p11
NNNI-1
I-1
I0
tp12
bI00
S'\x82*\x131\xc7\xde\xa9?'
p13
tp14
bg0
(g1
(I0
tp15
g3
tp16
Rp17
(I1
(I1
I1
tp18
g10
I00
S'\xcd\xdcHtU\xa8\xb0?'
p19
tp20
bg0
(g1
(I0
tp21
g3
tp22
Rp23
(I1
(I1
I1
tp24
g10
I00
S'\xb2\xd8;e\xc9\x93\xc4\xbf'
p25
tp26
btp27
(F2.4633682370990826
F-15.830147223651377
F-162.55498591851412
tp28
I731
I600
tp29
((g0
(g1
(I0
tp30
g3
tp31
Rp32
(I1
(I1
I1
tp33
g10
I00
S'.\xe9k\xcb\x885\xbf\xbf'
p34
tp35
bg0
(g1
(I0
tp36
g3
tp37
Rp38
(I1
(I1
I1
tp39
g10
I00
S'\xff\xf4\xa4E\xf22\xb9?'
p40
tp41
bg0
(g1
(I0
tp42
g3
tp43
Rp44
(I1
(I1
I1
tp45
g10
I00
S'\xcb\x1a\x8f\xda\xf0\xa9\xbf\xbf'
p46
tp47
btp48
(F-177.5344511336687
F-53.64922867562688
F158.97893810714748
tp49
I731
I600
tp50
tp51
.(((cnumpy.core.multiarray
_reconstruct
p0
(cnumpy.matrixlib.defmatrix
matrix
p1
(I0
tp2
S'b'
p3
tp4
Rp5
(I1
(I1
I1
tp6
cnumpy
dtype
p7
(S'f8'
p8
I0
I1
tp9
Rp10
(I3
S'<'
p11
NNNI-1
I-1
I0
tp12
bI00
S'[\xbc\xed\xc2\xce\xbb\xb1?'
p13
tp14
bg0
(g1
(I0
tp15
g3
tp16
Rp17
(I1
(I1
I1
tp18
g10
I00
S"\xbe\x10'\x89\xdb\x9c\xb1?"
p19
tp20
bg0
(g1
(I0
tp21
g3
tp22
Rp23
(I1
(I1
I1
tp24
g10
I00
S'\x8a\xc2\x1c\xb6\xda\xe1\xc4\xbf'
p25
tp26
btp27
(F4.940619726696092
F-22.398473141389214
F-163.69459821010742
tp28
I506
I613
tp29
((g0
(g1
(I0
tp30
g3
tp31
Rp32
(I1
(I1
I1
tp33
g10
I00
S'\xd5\xceG\xbb\xe6\xc1\xba\xbf'
p34
tp35
bg0
(g1
(I0
tp36
g3
tp37
Rp38
(I1
(I1
I1
tp39
g10
I00
S'|\x89\xad(\x05M\xb8?'
p40
tp41
bg0
(g1
(I0
tp42
g3
tp43
Rp44
(I1
(I1
I1
tp45
g10
I00
S':*\xebs\xb4\xce\xbf\xbf'
p46
tp47
btp48
(F-172.42473963115728
F-47.50673706023791
F154.44070330353415
tp49
I506
I613
tp50
tp51
.(((cnumpy.core.multiarray
_reconstruct
p0
(cnumpy.matrixlib.defmatrix
matrix
p1
(I0
tp2
S'b'
p3
tp4
Rp5
(I1
(I1
I1
tp6
cnumpy
dtype
p7
(S'f8'
p8
I0
I1
tp9
Rp10
(I3
S'<'
p11
NNNI-1
I-1
I0
tp12
bI00
S'\xe07\xed\xba\xd9\x15\xb2?'
p13
tp14
bg0
(g1
(I0
tp15
g3
tp16
Rp17
(I1
(I1
I1
tp18
g10
I00
S';\xec\x1f\xd5Z\xb5\xb1?'
p19
tp20
bg0
(g1
(I0
tp21
g3
tp22
Rp23
(I1
(I1
I1
tp24
g10
I00
S'\xf9\x10\xb0C(\xa8\xc4\xbf'
p25
tp26
btp27
(F2.051949372534036
F-21.830441459400262
F-162.1497391311725
tp28
I511
I613
tp29
((g0
(g1
(I0
tp30
g3
tp31
Rp32
(I1
(I1
I1
tp33
g10
I00
S'\xe2\x0c\x86\x8b\x98\x05\xba\xbf'
p34
tp35
bg0
(g1
(I0
tp36
g3
tp37
Rp38
(I1
(I1
I1
tp39
g10
I00
S'\xa8\xe8\xe2\xfb$S\xb8?'
p40
tp41
bg0
(g1
(I0
tp42
g3
tp43
Rp44
(I1
(I1
I1
tp45
g10
I00
S'\xaf\xd8^\x85\xf2=\xc0\xbf'
p46
tp47
btp48
(F-175.94226463267378
F-52.3084094894955
F153.13460337945503
tp49
I511
I613
tp50
tp51
.(((cnumpy.core.multiarray
_reconstruct
p0
(cnumpy.matrixlib.defmatrix
matrix
p1
(I0
tp2
S'b'
p3
tp4
Rp5
(I1
(I1
I1
tp6
cnumpy
dtype
p7
(S'f8'
p8
I0
I1
tp9
Rp10
(I3
S'<'
p11
NNNI-1
I-1
I0
tp12
bI00
S'\xcc\xb8\xec\x94\x94\xba\xb6?'
p13
tp14
bg0
(g1
(I0
tp15
g3
tp16
Rp17
(I1
(I1
I1
tp18
g10
I00
S'\x16`b)Ex\xb2?'
p19
tp20
bg0
(g1
(I0
tp21
g3
tp22
Rp23
(I1
(I1
I1
tp24
g10
I00
S'N\xc6\xbf\n\xc6*\xc5\xbf'
p25
tp26
btp27
(F2.7186035112671694
F-26.552342353343917
F-162.9855397379163
tp28
I278
I627
tp29
((g0
(g1
(I0
tp30
g3
tp31
Rp32
(I1
(I1
I1
tp33
g10
I00
S'w\xe6\x9a\x7f+\xa6\xb5\xbf'
p34
tp35
bg0
(g1
(I0
tp36
g3
tp37
Rp38
(I1
(I1
I1
tp39
g10
I00
S'\xd8\xf1\x95\xd4&\xdc\xb7?'
p40
tp41
bg0
(g1
(I0
tp42
g3
tp43
Rp44
(I1
(I1
I1
tp45
g10
I00
S'\x17\x92j\xbe\xca3\xc0\xbf'
p46
tp47
btp48
(F-178.06685293216557
F-43.23391320304071
F157.9605326203302
tp49
I278
I627
tp50
tp51
.(((cnumpy.core.multiarray
_reconstruct
p0
(cnumpy.matrixlib.defmatrix
matrix
p1
(I0
tp2
S'b'
p3
tp4
Rp5
(I1
(I1
I1
tp6
cnumpy
dtype
p7
(S'f8'
p8
I0
I1
tp9
Rp10
(I3
S'<'
p11
NNNI-1
I-1
I0
tp12
bI00
S'\x1c\x8c\x87\xbe&\x89\x97?'
p13
tp14
bg0
(g1
(I0
tp15
g3
tp16
Rp17
(I1
(I1
I1
tp18
g10
I00
S'\xd8\x84\x02P\xf8\xf0\xb1?'
p19
tp20
bg0
(g1
(I0
tp21
g3
tp22
Rp23
(I1
(I1
I1
tp24
g10
I00
S'\xb3\xe9t~\xd3,\xc4\xbf'
p25
tp26
btp27
(F1.7861974480281666
F-6.31822381227142
F-159.01521789799335
tp28
I1083
I684
tp29
((g0
(g1
(I0
tp30
g3
tp31
Rp32
(I1
(I1
I1
tp33
g10
I00
S'\xfd,\xf7x\xc5\xd6\xc2\xbf'
p34
tp35
bg0
(g1
(I0
tp36
g3
tp37
Rp38
(I1
(I1
I1
tp39
g10
I00
S'\xae\xcd\x13\xed\x97\xd3\xbc?'
p40
tp41
bg0
(g1
(I0
tp42
g3
tp43
Rp44
(I1
(I1
I1
tp45
g10
I00
S'\xba\xa5]\x7fB\xb9\xbf\xbf'
p46
tp47
btp48
(F-178.88172859628398
F-60.82829553502325
F158.3241303615264
tp49
I1083
I684
tp50
tp51
.(((cnumpy.core.multiarray
_reconstruct
p0
(cnumpy.matrixlib.defmatrix
matrix
p1
(I0
tp2
S'b'
p3
tp4
Rp5
(I1
(I1
I1
tp6
cnumpy
dtype
p7
(S'f8'
p8
I0
I1
tp9
Rp10
(I3
S'<'
p11
NNNI-1
I-1
I0
tp12
bI00
S'\x87bs\x9b\xde%\x98?'
p13
tp14
bg0
(g1
(I0
tp15
g3
tp16
Rp17
(I1
(I1
I1
tp18
g10
I00
S'\xbc\x16\xc1v\xbb\x81\xb1?'
p19
tp20
bg0
(g1
(I0
tp21
g3
tp22
Rp23
(I1
(I1
I1
tp24
g10
I00
S'\xfe\xeb>\xea\x9e]\xc4\xbf'
p25
tp26
btp27
(F5.127711304540767
F-7.9820035259672615
F-160.7582961690738
tp28
I1063
I685
tp29
((g0
(g1
(I0
tp30
g3
tp31
Rp32
(I1
(I1
I1
tp33
g10
I00
S'\xa1\xa7\x90Y\xc8\x0f\xc3\xbf'
p34
tp35
bg0
(g1
(I0
tp36
g3
tp37
Rp38
(I1
(I1
I1
tp39
g10
I00
S'\xe1\x93\xb4O\x14\x7f\xbc?'
p40
tp41
bg0
(g1
(I0
tp42
g3
tp43
Rp44
(I1
(I1
I1
tp45
g10
I00
S'\\Y\xcd\xcdy\x8c\xbf\xbf'
p46
tp47
btp48
(F-177.95453649012597
F-61.97857443953089
F157.0148567495787
tp49
I1063
I685
tp50
tp51
.(((cnumpy.core.multiarray
_reconstruct
p0
(cnumpy.matrixlib.defmatrix
matrix
p1
(I0
tp2
S'b'
p3
tp4
Rp5
(I1
(I1
I1
tp6
cnumpy
dtype
p7
(S'f8'
p8
I0
I1
tp9
Rp10
(I3
S'<'
p11
NNNI-1
I-1
I0
tp12
bI00
S'\xab\xa6\xff\x82|-\x99?'
p13
tp14
bg0
(g1
(I0
tp15
g3
tp16
Rp17
(I1
(I1
I1
tp18
g10
I00
S'\x08&\xf4\x87W\xdb\xb1?'
p19
tp20
bg0
(g1
(I0
tp21
g3
tp22
Rp23
(I1
(I1
I1
tp24
g10
I00
S'\xd4\xe1\xbbG\xd8c\xc4\xbf'
p25
tp26
btp27
(F5.4911093068831445
F-8.630587953898084
F-160.64274701775688
tp28
I1045
I694
tp29
((g0
(g1
(I0
tp30
g3
tp31
Rp32
(I1
(I1
I1
tp33
g10
I00
S'\x0c\x07\x85\xda&\x87\xc2\xbf'
p34
tp35
bg0
(g1
(I0
tp36
g3
tp37
Rp38
(I1
(I1
I1
tp39
g10
I00
S'\x87:\x97(\xf5\xef\xbc?'
p40
tp41
bg0
(g1
(I0
tp42
g3
tp43
Rp44
(I1
(I1
I1
tp45
g10
I00
S'\xfc\x07\xd0\x8b\xac\x8a\xbf\xbf'
p46
tp47
btp48
(F-174.19634054504363
F-57.62166288829802
F155.23342667878813
tp49
I1045
I694
tp50
tp51
.(((cnumpy.core.multiarray
_reconstruct
p0
(cnumpy.matrixlib.defmatrix
matrix
p1
(I0
tp2
S'b'
p3
tp4
Rp5
(I1
(I1
I1
tp6
cnumpy
dtype
p7
(S'f8'
p8
I0
I1
tp9
Rp10
(I3
S'<'
p11
NNNI-1
I-1
I0
tp12
bI00
S"\xa4/\xbb'\xc5\x8b\xa4?"
p13
tp14
bg0
(g1
(I0
tp15
g3
tp16
Rp17
(I1
(I1
I1
tp18
g10
I00
S'\x95\xac\x96\xd7\xdc\xba\xb2?'
p19
tp20
bg0
(g1
(I0
tp21
g3
tp22
Rp23
(I1
(I1
I1
tp24
g10
I00
S']Zy\x14\x15_\xc4\xbf'
p25
tp26
btp27
(F0.8969241916423378
F-11.937638025062352
F-159.00842463133247
tp28
I850
I701
tp29
((g0
(g1
(I0
tp30
g3
tp31
Rp32
(I1
(I1
I1
tp33
g10
I00
S'\xad\x1e%\xcf\x1c\x9f\xc0\xbf'
p34
tp35
bg0
(g1
(I0
tp36
g3
tp37
Rp38
(I1
(I1
I1
tp39
g10
I00
S'\xa0\xdfRt\tP\xbc?'
p40
tp41
bg0
(g1
(I0
tp42
g3
tp43
Rp44
(I1
(I1
I1
tp45
g10
I00
S'&\xe5pv\x9c?\xbf\xbf'
p46
tp47
btp48
(F-168.2498994522505
F-52.231664812737215
F149.60359022039955
tp49
I850
I701
tp50
tp51
.(((cnumpy.core.multiarray
_reconstruct
p0
(cnumpy.matrixlib.defmatrix
matrix
p1
(I0
tp2
S'b'
p3
tp4
Rp5
(I1
(I1
I1
tp6
cnumpy
dtype
p7
(S'f8'
p8
I0
I1
tp9
Rp10
(I3
S'<'
p11
NNNI-1
I-1
I0
tp12
bI00
S'\xb5O!B\xb8\xd6\xb8?'
p13
tp14
bg0
(g1
(I0
tp15
g3
tp16
Rp17
(I1
(I1
I1
tp18
g10
I00
S'z\xdaAf\xbe\xa1\xb4?'
p19
tp20
bg0
(g1
(I0
tp21
g3
tp22
Rp23
(I1
(I1
I1
tp24
g10
I00
S'\x92\x02\xb2\x05\xa8\x86\xc5\xbf'
p25
tp26
btp27
(F6.348777824098661
F-29.6909128152618
F-163.4265549017368
tp28
I174
I717
tp29
((g0
(g1
(I0
tp30
g3
tp31
Rp32
(I1
(I1
I1
tp33
g10
I00
S'\xce\x88\xaf\xe1\xa5\x1c\xb3\xbf'
p34
tp35
bg0
(g1
(I0
tp36
g3
tp37
Rp38
(I1
(I1
I1
tp39
g10
I00
S'MNL^,y\xb9?'
p40
tp41
bg0
(g1
(I0
tp42
g3
tp43
Rp44
(I1
(I1
I1
tp45
g10
I00
S'\x19\x89l\x07\x8dh\xc0\xbf'
p46
tp47
btp48
(F179.74258921530236
F-40.19901492516863
F156.55423294039105
tp49
I174
I717
tp50
tp51
.(((cnumpy.core.multiarray
_reconstruct
p0
(cnumpy.matrixlib.defmatrix
matrix
p1
(I0
tp2
S'b'
p3
tp4
Rp5
(I1
(I1
I1
tp6
cnumpy
dtype
p7
(S'f8'
p8
I0
I1
tp9
Rp10
(I3
S'<'
p11
NNNI-1
I-1
I0
tp12
bI00
S'\x91\xf8^\xcb\x00\xea\xad?'
p13
tp14
bg0
(g1
(I0
tp15
g3
tp16
Rp17
(I1
(I1
I1
tp18
g10
I00
S'\xf6W\x02W#\x97\xb3?'
p19
tp20
bg0
(g1
(I0
tp21
g3
tp22
Rp23
(I1
(I1
I1
tp24
g10
I00
S'J\xa4\xf7\x1b\x81\xc4\xc4\xbf'
p25
tp26
btp27
(F2.334333143625031
F-18.237959968954765
F-159.58178617562456
tp28
I626
I717
tp29
((g0
(g1
(I0
tp30
g3
tp31
Rp32
(I1
(I1
I1
tp33
g10
I00
S'M\x0bK\xbbd#\xbc\xbf'
p34
tp35
bg0
(g1
(I0
tp36
g3
tp37
Rp38
(I1
(I1
I1
tp39
g10
I00
S'\x8e\xdaPX\xceE\xbb?'
p40
tp41
bg0
(g1
(I0
tp42
g3
tp43
Rp44
(I1
(I1
I1
tp45
g10
I00
S'\x0f\x9d~\xb6Y\x14\xc0\xbf'
p46
tp47
btp48
(F-178.28658193847036
F-46.08569954715659
F159.7439249962627
tp49
I626
I717
tp50
tp51
.(((cnumpy.core.multiarray
_reconstruct
p0
(cnumpy.matrixlib.defmatrix
matrix
p1
(I0
tp2
S'b'
p3
tp4
Rp5
(I1
(I1
I1
tp6
cnumpy
dtype
p7
(S'f8'
p8
I0
I1
tp9
Rp10
(I3
S'<'
p11
NNNI-1
I-1
I0
tp12
bI00
S'\xaaP\x9b\x9c\x8f\x98\xad?'
p13
tp14
bg0
(g1
(I0
tp15
g3
tp16
Rp17
(I1
(I1
I1
tp18
g10
I00
S'c\xc7^\xbf\xae/\xb3?'
p19
tp20
bg0
(g1
(I0
tp21
g3
tp22
Rp23
(I1
(I1
I1
tp24
g10
I00
S'\xe2\xa9M\xfaH\xc2\xc4\xbf'
p25
tp26
btp27
(F5.785503743946085
F-19.362831417719242
F-161.5382145050538
tp28
I626
I717
tp29
((g0
(g1
(I0
tp30
g3
tp31
Rp32
(I1
(I1
I1
tp33
g10
I00
S'R\xfeh\xf2\xc9\x97\xbc\xbf'
p34
tp35
bg0
(g1
(I0
tp36
g3
tp37
Rp38
(I1
(I1
I1
tp39
g10
I00
S'\xdf\xb7\xc12\xcd\xc8\xba?'
p40
tp41
bg0
(g1
(I0
tp42
g3
tp43
Rp44
(I1
(I1
I1
tp45
g10
I00
S'\x81\\ieq\x13\xc0\xbf'
p46
tp47
btp48
(F-178.74665671607664
F-50.334659247008354
F157.73039630566078
tp49
I626
I717
tp50
tp51
.(((cnumpy.core.multiarray
_reconstruct
p0
(cnumpy.matrixlib.defmatrix
matrix
p1
(I0
tp2
S'b'
p3
tp4
Rp5
(I1
(I1
I1
tp6
cnumpy
dtype
p7
(S'f8'
p8
I0
I1
tp9
Rp10
(I3
S'<'
p11
NNNI-1
I-1
I0
tp12
bI00
S'\x8d\xfe\xba]\xc1\xcd\xb3?'
p13
tp14
bg0
(g1
(I0
tp15
g3
tp16
Rp17
(I1
(I1
I1
tp18
g10
I00
S'\xd2Las\xfaq\xb4?'
p19
tp20
bg0
(g1
(I0
tp21
g3
tp22
Rp23
(I1
(I1
I1
tp24
g10
I00
S'\xc9\xe0\xff\x9b\\\x07\xc5\xbf'
p25
tp26
btp27
(F5.046500466988562
F-24.542597504427857
F-161.25011481553324
tp28
I399
I730
tp29
((g0
(g1
(I0
tp30
g3
tp31
Rp32
(I1
(I1
I1
tp33
g10
I00
S'\xccht@iq\xb7\xbf'
p34
tp35
bg0
(g1
(I0
tp36
g3
tp37
Rp38
(I1
(I1
I1
tp39
g10
I00
S'\xaaq\x06i\xd9E\xba?'
p40
tp41
bg0
(g1
(I0
tp42
g3
tp43
Rp44
(I1
(I1
I1
tp45
g10
I00
S'9$\xfb\xd5\xa3L\xc0\xbf'
p46
tp47
btp48
(F-179.17657595823258
F-46.63643690145948
F155.27187770022724
tp49
I399
I730
tp50
tp51
.(((cnumpy.core.multiarray
_reconstruct
p0
(cnumpy.matrixlib.defmatrix
matrix
p1
(I0
tp2
S'b'
p3
tp4
Rp5
(I1
(I1
I1
tp6
cnumpy
dtype
p7
(S'f8'
p8
I0
I1
tp9
Rp10
(I3
S'<'
p11
NNNI-1
I-1
I0
tp12
bI00
S'K\x03\xd6\xb8\x86\xf3\xb3?'
p13
tp14
bg0
(g1
(I0
tp15
g3
tp16
Rp17
(I1
(I1
I1
tp18
g10
I00
S'\x9f\xae\x97\xc4\xc5L\xb4?'
p19
tp20
bg0
(g1
(I0
tp21
g3
tp22
Rp23
(I1
(I1
I1
tp24
g10
I00
S'9\x92Y\x94\xe8\x0b\xc5\xbf'
p25
tp26
btp27
(F2.5331105508971246
F-23.959761808921492
F-160.55988846217036
tp28
I399
I730
tp29
((g0
(g1
(I0
tp30
g3
tp31
Rp32
(I1
(I1
I1
tp33
g10
I00
S':f\xb3WZ\xf2\xb7\xbf'
p34
tp35
bg0
(g1
(I0
tp36
g3
tp37
Rp38
(I1
(I1
I1
tp39
g10
I00
S'\x7f\x98\xe2\x8f:#\xba?'
p40
tp41
bg0
(g1
(I0
tp42
g3
tp43
Rp44
(I1
(I1
I1
tp45
g10
I00
S'O\x13\x10A\x1d\x13\xc0\xbf'
p46
tp47
btp48
(F179.44717795274994
F-48.83001528968548
F156.4588810707661
tp49
I399
I730
tp50
tp51
.(((cnumpy.core.multiarray
_reconstruct
p0
(cnumpy.matrixlib.defmatrix
matrix
p1
(I0
tp2
S'b'
p3
tp4
Rp5
(I1
(I1
I1
tp6
cnumpy
dtype
p7
(S'f8'
p8
I0
I1
tp9
Rp10
(I3
S'<'
p11
NNNI-1
I-1
I0
tp12
bI00
S'MM$\x9a\xdb]\x9e?'
p13
tp14
bg0
(g1
(I0
tp15
g3
tp16
Rp17
(I1
(I1
I1
tp18
g10
I00
S'TK\tG\xeeW\xb4?'
p19
tp20
bg0
(g1
(I0
tp21
g3
tp22
Rp23
(I1
(I1
I1
tp24
g10
I00
S'\xba\xc3=+9{\xc4\xbf'
p25
tp26
btp27
(F5.851700235253765
F-10.250659509426136
F-157.9545379022011
tp28
I960
I805
tp29
((g0
(g1
(I0
tp30
g3
tp31
Rp32
(I1
(I1
I1
tp33
g10
I00
S'\xf9\x9bmJ\xe9\xc7\xc1\xbf'
p34
tp35
bg0
(g1
(I0
tp36
g3
tp37
Rp38
(I1
(I1
I1
tp39
g10
I00
S'QH\x1b\xe6d\xdb\xbe?'
p40
tp41
bg0
(g1
(I0
tp42
g3
tp43
Rp44
(I1
(I1
I1
tp45
g10
I00
S'\x9f\xb1Qp\x96R\xbf\xbf'
p46
tp47
btp48
(F175.26587340387093
F-61.642514883086186
F159.65377484794735
tp49
I960
I805
tp50
tp51
.(((cnumpy.core.multiarray
_reconstruct
p0
(cnumpy.matrixlib.defmatrix
matrix
p1
(I0
tp2
S'b'
p3
tp4
Rp5
(I1
(I1
I1
tp6
cnumpy
dtype
p7
(S'f8'
p8
I0
I1
tp9
Rp10
(I3
S'<'
p11
NNNI-1
I-1
I0
tp12
bI00
S'\x84\xeez\x8b\xf0z\x9f?'
p13
tp14
bg0
(g1
(I0
tp15
g3
tp16
Rp17
(I1
(I1
I1
tp18
g10
I00
S'7\x13\x07\xb4\xcf/\xb4?'
p19
tp20
bg0
(g1
(I0
tp21
g3
tp22
Rp23
(I1
(I1
I1
tp24
g10
I00
S'\xdfh\xad\xb7iz\xc4\xbf'
p25
tp26
btp27
(F5.809388383765176
F-10.511138637862704
F-158.08826664198253
tp28
I965
I806
tp29
((g0
(g1
(I0
tp30
g3
tp31
Rp32
(I1
(I1
I1
tp33
g10
I00
S'\xf2<\xc2\x07\xadx\xc1\xbf'
p34
tp35
bg0
(g1
(I0
tp36
g3
tp37
Rp38
(I1
(I1
I1
tp39
g10
I00
S'\xceN&\xdf\xc2\xb9\xbe?'
p40
tp41
bg0
(g1
(I0
tp42
g3
tp43
Rp44
(I1
(I1
I1
tp45
g10
I00
S'\x0e\x81\x91}\x8cg\xbf\xbf'
p46
tp47
btp48
(F173.2972057756398
F-61.052079652389466
F161.62125468220623
tp49
I965
I806
tp50
tp51
.(((cnumpy.core.multiarray
_reconstruct
p0
(cnumpy.matrixlib.defmatrix
matrix
p1
(I0
tp2
S'b'
p3
tp4
Rp5
(I1
(I1
I1
tp6
cnumpy
dtype
p7
(S'f8'
p8
I0
I1
tp9
Rp10
(I3
S'<'
p11
NNNI-1
I-1
I0
tp12
bI00
S'\x9a\xd9H\x066\x1f\x9f?'
p13
tp14
bg0
(g1
(I0
tp15
g3
tp16
Rp17
(I1
(I1
I1
tp18
g10
I00
S'\xa2R\xbe\x14\xc0g\xb4?'
p19
tp20
bg0
(g1
(I0
tp21
g3
tp22
Rp23
(I1
(I1
I1
tp24
g10
I00
S'\xfe\xbc%\xb6\x1c~\xc4\xbf'
p25
tp26
btp27
(F2.7305442187718025
F-8.886686691646279
F-157.12026494791098
tp28
I965
I806
tp29
((g0
(g1
(I0
tp30
g3
tp31
Rp32
(I1
(I1
I1
tp33
g10
I00
S'6TC\xcf\xea\xfb\xc1\xbf'
p34
tp35
bg0
(g1
(I0
tp36
g3
tp37
Rp38
(I1
(I1
I1
tp39
g10
I00
S'\xbcL\xf9"\xf5\xb9\xbe?'
p40
tp41
bg0
(g1
(I0
tp42
g3
tp43
Rp44
(I1
(I1
I1
tp45
g10
I00
S'\xa8\xae\x11\xe7Xu\xbf\xbf'
p46
tp47
btp48
(F167.70214611761003
F-63.54888681182967
F166.00356126988888
tp49
I965
I806
tp50
tp51
.(((cnumpy.core.multiarray
_reconstruct
p0
(cnumpy.matrixlib.defmatrix
matrix
p1
(I0
tp2
S'b'
p3
tp4
Rp5
(I1
(I1
I1
tp6
cnumpy
dtype
p7
(S'f8'
p8
I0
I1
tp9
Rp10
(I3
S'<'
p11
NNNI-1
I-1
I0
tp12
bI00
S'\xa4Nr_\xda%\xa9?'
p13
tp14
bg0
(g1
(I0
tp15
g3
tp16
Rp17
(I1
(I1
I1
tp18
g10
I00
S'\xd8\xe6\xf3\x17l\xff\xb4?'
p19
tp20
bg0
(g1
(I0
tp21
g3
tp22
Rp23
(I1
(I1
I1
tp24
g10
I00
S'\xf6\x96N3\x11\xd0\xc4\xbf'
p25
tp26
btp27
(F6.066666130416349
F-16.479507312489815
F-158.72584008814684
tp28
I744
I820
tp29
((g0
(g1
(I0
tp30
g3
tp31
Rp32
(I1
(I1
I1
tp33
g10
I00
S'\xe7\x15\x0f\x90\x88\xe7\xbd\xbf'
p34
tp35
bg0
(g1
(I0
tp36
g3
tp37
Rp38
(I1
(I1
I1
tp39
g10
I00
S'\xe3Q\x18\xf1\xc8\xcb\xbd?'
p40
tp41
bg0
(g1
(I0
tp42
g3
tp43
Rp44
(I1
(I1
I1
tp45
g10
I00
S'\xc28|\xdf\x0b\t\xc0\xbf'
p46
tp47
btp48
(F-172.0760204805877
F-48.7990528275533
F150.9748667762964
tp49
I744
I820
tp50
tp51
.(((cnumpy.core.multiarray
_reconstruct
p0
(cnumpy.matrixlib.defmatrix
matrix
p1
(I0
tp2
S'b'
p3
tp4
Rp5
(I1
(I1
I1
tp6
cnumpy
dtype
p7
(S'f8'
p8
I0
I1
tp9
Rp10
(I3
S'<'
p11
NNNI-1
I-1
I0
tp12
bI00
S'\x10\xd7Y\xdb\x1a\xb9\xa8?'
p13
tp14
bg0
(g1
(I0
tp15
g3
tp16
Rp17
(I1
(I1
I1
tp18
g10
I00
S'\xdc\xde\xff\xfa\x92/\xb5?'
p19
tp20
bg0
(g1
(I0
tp21
g3
tp22
Rp23
(I1
(I1
I1
tp24
g10
I00
S'\r\x0c\xa3\xcb\xa8\xd5\xc4\xbf'
p25
tp26
btp27
(F5.98292010425684
F-16.511297525324625
F-158.68895342909065
tp28
I744
I820
tp29
((g0
(g1
(I0
tp30
g3
tp31
Rp32
(I1
(I1
I1
tp33
g10
I00
S'\xa1\x9e21\xd0\xf8\xbd\xbf'
p34
tp35
bg0
(g1
(I0
tp36
g3
tp37
Rp38
(I1
(I1
I1
tp39
g10
I00
S'\x07\xe3\xf6\x8ea\x13\xbe?'
p40
tp41
bg0
(g1
(I0
tp42
g3
tp43
Rp44
(I1
(I1
I1
tp45
g10
I00
S'3g\x0cm\xc1\x11\xc0\xbf'
p46
tp47
btp48
(F-172.18920725721793
F-48.46339001791635
F151.2018452913988
tp49
I744
I820
tp50
tp51
.(((cnumpy.core.multiarray
_reconstruct
p0
(cnumpy.matrixlib.defmatrix
matrix
p1
(I0
tp2
S'b'
p3
tp4
Rp5
(I1
(I1
I1
tp6
cnumpy
dtype
p7
(S'f8'
p8
I0
I1
tp9
Rp10
(I3
S'<'
p11
NNNI-1
I-1
I0
tp12
bI00
S'j/\xc6\x85Y$\xb1?'
p13
tp14
bg0
(g1
(I0
tp15
g3
tp16
Rp17
(I1
(I1
I1
tp18
g10
I00
S'\xc8\xc5\xc9v\x19\x13\xb6?'
p19
tp20
bg0
(g1
(I0
tp21
g3
tp22
Rp23
(I1
(I1
I1
tp24
g10
I00
S'\xd34_GK\xf1\xc4\xbf'
p25
tp26
btp27
(F6.135776125549607
F-21.87488279629708
F-158.9508176462953
tp28
I519
I834
tp29
((g0
(g1
(I0
tp30
g3
tp31
Rp32
(I1
(I1
I1
tp33
g10
I00
S'\x85\xfa\xe2\x9d\xd5~\xb9\xbf'
p34
tp35
bg0
(g1
(I0
tp36
g3
tp37
Rp38
(I1
(I1
I1
tp39
g10
I00
S'X\xdboo%\x9b\xbd?'
p40
tp41
bg0
(g1
(I0
tp42
g3
tp43
Rp44
(I1
(I1
I1
tp45
g10
I00
S'\xa2\xe4\xccU\xd4\xd8\xbf\xbf'
p46
tp47
btp48
(F177.01427651900852
F-44.97488077956067
F159.88551494209324
tp49
I519
I834
tp50
tp51
.(((cnumpy.core.multiarray
_reconstruct
p0
(cnumpy.matrixlib.defmatrix
matrix
p1
(I0
tp2
S'b'
p3
tp4
Rp5
(I1
(I1
I1
tp6
cnumpy
dtype
p7
(S'f8'
p8
I0
I1
tp9
Rp10
(I3
S'<'
p11
NNNI-1
I-1
I0
tp12
bI00
S'\xd1\xcb\xcdiW\x05\xb1?'
p13
tp14
bg0
(g1
(I0
tp15
g3
tp16
Rp17
(I1
(I1
I1
tp18
g10
I00
S'\xaa\x15W\xbd\xb3\xe7\xb5?'
p19
tp20
bg0
(g1
(I0
tp21
g3
tp22
Rp23
(I1
(I1
I1
tp24
g10
I00
S'\x14\xb5K\x1b\xd5\x02\xc5\xbf'
p25
tp26
btp27
(F6.555528886006073
F-21.66554175945944
F-159.3775552051924
tp28
I519
I835
tp29
((g0
(g1
(I0
tp30
g3
tp31
Rp32
(I1
(I1
I1
tp33
g10
I00
S'&\xcel\xa3.I\xb9\xbf'
p34
tp35
bg0
(g1
(I0
tp36
g3
tp37
Rp38
(I1
(I1
I1
tp39
g10
I00
S'\xb3 1\xe1\xfb\xdc\xbc?'
p40
tp41
bg0
(g1
(I0
tp42
g3
tp43
Rp44
(I1
(I1
I1
tp45
g10
I00
S'Ky\xbc\xd7sM\xc0\xbf'
p46
tp47
btp48
(F176.4466008183301
F-49.51696138064857
F157.0169961046587
tp49
I519
I835
tp50
tp51
.(((cnumpy.core.multiarray
_reconstruct
p0
(cnumpy.matrixlib.defmatrix
matrix
p1
(I0
tp2
S'b'
p3
tp4
Rp5
(I1
(I1
I1
tp6
cnumpy
dtype
p7
(S'f8'
p8
I0
I1
tp9
Rp10
(I3
S'<'
p11
NNNI-1
I-1
I0
tp12
bI00
S')\x9cn\x8c\xb4\xb7\xb5?'
p13
tp14
bg0
(g1
(I0
tp15
g3
tp16
Rp17
(I1
(I1
I1
tp18
g10
I00
S'I\x1a\xce:g\x9c\xb6?'
p19
tp20
bg0
(g1
(I0
tp21
g3
tp22
Rp23
(I1
(I1
I1
tp24
g10
I00
S'#\xf4X\xe0Bn\xc5\xbf'
p25
tp26
btp27
(F6.510662086574499
F-27.248857157317023
F-160.8136278353193
tp28
I311
I840
tp29
((g0
(g1
(I0
tp30
g3
tp31
Rp32
(I1
(I1
I1
tp33
g10
I00
S'\xfc\xdd\xfb\xb1\xfb\xec\xb4\xbf'
p34
tp35
bg0
(g1
(I0
tp36
g3
tp37
Rp38
(I1
(I1
I1
tp39
g10
I00
S'P6\xfe\xe1RT\xbc?'
p40
tp41
bg0
(g1
(I0
tp42
g3
tp43
Rp44
(I1
(I1
I1
tp45
g10
I00
S'X\xb7Yjaw\xc0\xbf'
p46
tp47
btp48
(F-170.28697109927577
F-36.617641417086446
F149.2598282318237
tp49
I311
I840
tp50
tp51
.(((cnumpy.core.multiarray
_reconstruct
p0
(cnumpy.matrixlib.defmatrix
matrix
p1
(I0
tp2
S'b'
p3
tp4
Rp5
(I1
(I1
I1
tp6
cnumpy
dtype
p7
(S'f8'
p8
I0
I1
tp9
Rp10
(I3
S'<'
p11
NNNI-1
I-1
I0
tp12
bI00
S'\x83;\x02\xa1m\x03\xa4?'
p13
tp14
bg0
(g1
(I0
tp15
g3
tp16
Rp17
(I1
(I1
I1
tp18
g10
I00
S'\xa6\x15<k\xb5\x86\xb6?'
p19
tp20
bg0
(g1
(I0
tp21
g3
tp22
Rp23
(I1
(I1
I1
tp24
g10
I00
S'\x0e\xd5\xb2\x8b\xcd\xdd\xc4\xbf'
p25
tp26
btp27
(F6.025060660148231
F-14.233895939103995
F-156.52333099716782
tp28
I864
I897
tp29
((g0
(g1
(I0
tp30
g3
tp31
Rp32
(I1
(I1
I1
tp33
g10
I00
S'\xc7\xdb\x84*My\xc0\xbf'
p34
tp35
bg0
(g1
(I0
tp36
g3
tp37
Rp38
(I1
(I1
I1
tp39
g10
I00
S'\xa9\xba\x99\xa6\xab\xff\xbf?'
p40
tp41
bg0
(g1
(I0
tp42
g3
tp43
Rp44
(I1
(I1
I1
tp45
g10
I00
S'\xe8\x10\xa8\x9e\xfb@\xc0\xbf'
p46
tp47
btp48
(F157.411062679637
F-62.30580826244415
F172.3266899062226
tp49
I864
I897
tp50
tp51
.(((cnumpy.core.multiarray
_reconstruct
p0
(cnumpy.matrixlib.defmatrix
matrix
p1
(I0
tp2
S'b'
p3
tp4
Rp5
(I1
(I1
I1
tp6
cnumpy
dtype
p7
(S'f8'
p8
I0
I1
tp9
Rp10
(I3
S'<'
p11
NNNI-1
I-1
I0
tp12
bI00
S'\x13\x80f\x8b\xef=\xa3?'
p13
tp14
bg0
(g1
(I0
tp15
g3
tp16
Rp17
(I1
(I1
I1
tp18
g10
I00
S'\x9d\xe5\xf1.\xf7F\xb7?'
p19
tp20
bg0
(g1
(I0
tp21
g3
tp22
Rp23
(I1
(I1
I1
tp24
g10
I00
S'\xe9V\xdd\x84\xff\x92\xc4\xbf'
p25
tp26
btp27
(F2.483172689044903
F-12.14622648634901
F-154.0604446441825
tp28
I861
I923
tp29
((g0
(g1
(I0
tp30
g3
tp31
Rp32
(I1
(I1
I1
tp33
g10
I00
S'\xf3\xc9\x8b\x91\x982\xc0\xbf'
p34
tp35
bg0
(g1
(I0
tp36
g3
tp37
Rp38
(I1
(I1
I1
tp39
g10
I00
S'\xf2Zd\x1ahx\xc0?'
p40
tp41
bg0
(g1
(I0
tp42
g3
tp43
Rp44
(I1
(I1
I1
tp45
g10
I00
S'\x10\x9a\x121\xb5\xda\xbf\xbf'
p46
tp47
btp48
(F-178.54541708841376
F-54.737695407858126
F153.47672808175523
tp49
I861
I923
tp50
tp51
.(((cnumpy.core.multiarray
_reconstruct
p0
(cnumpy.matrixlib.defmatrix
matrix
p1
(I0
tp2
S'b'
p3
tp4
Rp5
(I1
(I1
I1
tp6
cnumpy
dtype
p7
(S'f8'
p8
I0
I1
tp9
Rp10
(I3
S'<'
p11
NNNI-1
I-1
I0
tp12
bI00
S'\x1dt9V\xc0c\xa3?'
p13
tp14
bg0
(g1
(I0
tp15
g3
tp16
Rp17
(I1
(I1
I1
tp18
g10
I00
S'+\xc0\x96\xee\x91\xa8\xb6?'
p19
tp20
bg0
(g1
(I0
tp21
g3
tp22
Rp23
(I1
(I1
I1
tp24
g10
I00
S'\x10\xb7\xccc2\xbb\xc4\xbf'
p25
tp26
btp27
(F4.252598670154285
F-13.04995977551691
F-155.30103740665297
tp28
I861
I923
tp29
((g0
(g1
(I0
tp30
g3
tp31
Rp32
(I1
(I1
I1
tp33
g10
I00
S'\x91M\xcc\x933"\xc0\xbf'
p34
tp35
bg0
(g1
(I0
tp36
g3
tp37
Rp38
(I1
(I1
I1
tp39
g10
I00
S'\xe4|\xda\xf1\xc0\x1f\xc0?'
p40
tp41
bg0
(g1
(I0
tp42
g3
tp43
Rp44
(I1
(I1
I1
tp45
g10
I00
S'kN\x0b0\x8f\x1c\xc0\xbf'
p46
tp47
btp48
(F172.9047393167474
F-56.3747475875363
F161.04686538546133
tp49
I861
I923
tp50
tp51
.(((cnumpy.core.multiarray
_reconstruct
p0
(cnumpy.matrixlib.defmatrix
matrix
p1
(I0
tp2
S'b'
p3
tp4
Rp5
(I1
(I1
I1
tp6
cnumpy
dtype
p7
(S'f8'
p8
I0
I1
tp9
Rp10
(I3
S'<'
p11
NNNI-1
I-1
I0
tp12
bI00
S'}-iq\xe6\x02\xad?'
p13
tp14
bg0
(g1
(I0
tp15
g3
tp16
Rp17
(I1
(I1
I1
tp18
g10
I00
S'\x10\x82\x82\xa1T)\xb7?'
p19
tp20
bg0
(g1
(I0
tp21
g3
tp22
Rp23
(I1
(I1
I1
tp24
g10
I00
S'r\x13\x84\x0cu\r\xc5\xbf'
p25
tp26
btp27
(F5.900203258692161
F-20.457698362681917
F-157.879360864283
tp28
I638
I932
tp29
((g0
(g1
(I0
tp30
g3
tp31
Rp32
(I1
(I1
I1
tp33
g10
I00
S'\xdc\xf49;\xfb&\xbb\xbf'
p34
tp35
bg0
(g1
(I0
tp36
g3
tp37
Rp38
(I1
(I1
I1
tp39
g10
I00
S'\xd8\xf4\xb0\xbd\xfc\r\xbf?'
p40
tp41
bg0
(g1
(I0
tp42
g3
tp43
Rp44
(I1
(I1
I1
tp45
g10
I00
S'\xfc8\xd85\xa9d\xc0\xbf'
p46
tp47
btp48
(F170.05895165899824
F-55.62379043669922
F159.05915432524745
tp49
I638
I932
tp50
tp51
.(((cnumpy.core.multiarray
_reconstruct
p0
(cnumpy.matrixlib.defmatrix
matrix
p1
(I0
tp2
S'b'
p3
tp4
Rp5
(I1
(I1
I1
tp6
cnumpy
dtype
p7
(S'f8'
p8
I0
I1
tp9
Rp10
(I3
S'<'
p11
NNNI-1
I-1
I0
tp12
bI00
S'+_\xcf\x8c3\x0b\xac?'
p13
tp14
bg0
(g1
(I0
tp15
g3
tp16
Rp17
(I1
(I1
I1
tp18
g10
I00
S'\xa1\x99\xf6\x95!\x91\xb7?'
p19
tp20
bg0
(g1
(I0
tp21
g3
tp22
Rp23
(I1
(I1
I1
tp24
g10
I00
S'\xc64`i\x037\xc5\xbf'
p25
tp26
btp27
(F5.9848818545886875
F-19.8670014990767
F-157.22869711294385
tp28
I636
I938
tp29
((g0
(g1
(I0
tp30
g3
tp31
Rp32
(I1
(I1
I1
tp33
g10
I00
S'\xa1\x93\xe7\xe6\x9ed\xbb\xbf'
p34
tp35
bg0
(g1
(I0
tp36
g3
tp37
Rp38
(I1
(I1
I1
tp39
g10
I00
S'\xaa`\xacY\xc2\x0e\xc0?'
p40
tp41
bg0
(g1
(I0
tp42
g3
tp43
Rp44
(I1
(I1
I1
tp45
g10
I00
S'n\xe5\xe2Ni4\xc0\xbf'
p46
tp47
btp48
(F178.78672675266014
F-51.38813556705858
F153.89029509883846
tp49
I636
I938
tp50
tp51
.(((cnumpy.core.multiarray
_reconstruct
p0
(cnumpy.matrixlib.defmatrix
matrix
p1
(I0
tp2
S'b'
p3
tp4
Rp5
(I1
(I1
I1
tp6
cnumpy
dtype
p7
(S'f8'
p8
I0
I1
tp9
Rp10
(I3
S'<'
p11
NNNI-1
I-1
I0
tp12
bI00
S'X^\xa6\x93\x16\x0b\xb3?'
p13
tp14
bg0
(g1
(I0
tp15
g3
tp16
Rp17
(I1
(I1
I1
tp18
g10
I00
S'Os\x16(\xd8\xbf\xb8?'
p19
tp20
bg0
(g1
(I0
tp21
g3
tp22
Rp23
(I1
(I1
I1
tp24
g10
I00
S'\xcdi\xdb4im\xc5\xbf'
p25
tp26
btp27
(F5.744871627426678
F-26.413678050031617
F-158.19385800452386
tp28
I409
I954
tp29
((g0
(g1
(I0
tp30
g3
tp31
Rp32
(I1
(I1
I1
tp33
g10
I00
S'\x87\x0e.\x192>\xb7\xbf'
p34
tp35
bg0
(g1
(I0
tp36
g3
tp37
Rp38
(I1
(I1
I1
tp39
g10
I00
S'\x80\x04V\xd8\xb0\xe1\xbe?'
p40
tp41
bg0
(g1
(I0
tp42
g3
tp43
Rp44
(I1
(I1
I1
tp45
g10
I00
S'\xac\xde\xce\x14\xc9:\xc0\xbf'
p46
tp47
btp48
(F174.1581082708643
F-48.644940051392226
F155.9202021663428
tp49
I409
I954
tp50
tp51
.(((cnumpy.core.multiarray
_reconstruct
p0
(cnumpy.matrixlib.defmatrix
matrix
p1
(I0
tp2
S'b'
p3
tp4
Rp5
(I1
(I1
I1
tp6
cnumpy
dtype
p7
(S'f8'
p8
I0
I1
tp9
Rp10
(I3
S'<'
p11
NNNI-1
I-1
I0
tp12
bI00
S"\xdc\xd1\xe8\x8b\xc1'\xb8?"
p13
tp14
bg0
(g1
(I0
tp15
g3
tp16
Rp17
(I1
(I1
I1
tp18
g10
I00
S'nM\x0b..\x99\xb9?'
p19
tp20
bg0
(g1
(I0
tp21
g3
tp22
Rp23
(I1
(I1
I1
tp24
g10
I00
S'\x04\xd8\x08A\xe2\xca\xc5\xbf'
p25
tp26
btp27
(F5.4559017352126835
F-31.02516336680666
F-159.0270767944984
tp28
I183
I970
tp29
((g0
(g1
(I0
tp30
g3
tp31
Rp32
(I1
(I1
I1
tp33
g10
I00
S'\xc0\xa5\xcc\x0e7C\xb2\xbf'
p34
tp35
bg0
(g1
(I0
tp36
g3
tp37
Rp38
(I1
(I1
I1
tp39
g10
I00
S'\xdbB\x0e\xb4\x85,\xbe?'
p40
tp41
bg0
(g1
(I0
tp42
g3
tp43
Rp44
(I1
(I1
I1
tp45
g10
I00
S'\xe2\x8f\xf6x\x0fT\xc0\xbf'
p46
tp47
btp48
(F-177.9765614640654
F-39.386815803056216
F149.67319684250197
tp49
I183
I970
tp50
tp51
.