(cnumpy.core.multiarray
_reconstruct
p0
(cnumpy
ndarray
p1
(I0
tp2
S'b'
p3
tp4
Rp5
(I1
(I2
tp6
cnumpy
dtype
p7
(S'f8'
p8
I0
I1
tp9
Rp10
(I3
S'<'
p11
NNNI-1
I-1
I0
tp12
bI00
S'\xb8K=\x19\xbfU\x8a@\xdc\xa5\x9e\x8c\xdf\xa6\x81@'
p13
tp14
bg0
(g1
(I0
tp15
g3
tp16
Rp17
(I1
(I2
tp18
g10
I00
S'\x11\x9e.*K\xa7l@6\xe1\xb3\xac\xcb\xa9i@'
p19
tp20
btp21
.