((cnumpy.core.multiarray
_reconstruct
p0
(cnumpy.matrixlib.defmatrix
matrix
p1
(I0
tp2
S'b'
p3
tp4
Rp5
(I1
(I1
I1
tp6
cnumpy
dtype
p7
(S'f8'
p8
I0
I1
tp9
Rp10
(I3
S'<'
p11
NNNI-1
I-1
I0
tp12
bI00
S'F\xb8WJ\xda\t\xb0?'
p13
tp14
bg0
(g1
(I0
tp15
g3
tp16
Rp17
(I1
(I1
I1
tp18
g10
I00
S'2-k\x8e1.\x91?'
p19
tp20
bg0
(g1
(I0
tp21
g3
tp22
Rp23
(I1
(I1
I1
tp24
g10
I00
S'\xbe\xcc\xdb\x18\x0eb\xc5\xbf'
p25
tp26
btp27
(F-0.5842524547694257
F-19.422589222485804
F-177.82028548834228
tp28
I809
I106
tp29
.((cnumpy.core.multiarray
_reconstruct
p0
(cnumpy.matrixlib.defmatrix
matrix
p1
(I0
tp2
S'b'
p3
tp4
Rp5
(I1
(I1
I1
tp6
cnumpy
dtype
p7
(S'f8'
p8
I0
I1
tp9
Rp10
(I3
S'<'
p11
NNNI-1
I-1
I0
tp12
bI00
S'\x8aa<{Zl\xa8?'
p13
tp14
bg0
(g1
(I0
tp15
g3
tp16
Rp17
(I1
(I1
I1
tp18
g10
I00
S'IR\x89\xf0\x89\xc8\x8f?'
p19
tp20
bg0
(g1
(I0
tp21
g3
tp22
Rp23
(I1
(I1
I1
tp24
g10
I00
S'\x08\xfa\x1e\x83\x9b8\xc5\xbf'
p25
tp26
btp27
(F-0.36325585893537676
F-14.426249967915513
F-177.7291330783441
tp28
I987
I119
tp29
.((cnumpy.core.multiarray
_reconstruct
p0
(cnumpy.matrixlib.defmatrix
matrix
p1
(I0
tp2
S'b'
p3
tp4
Rp5
(I1
(I1
I1
tp6
cnumpy
dtype
p7
(S'f8'
p8
I0
I1
tp9
Rp10
(I3
S'<'
p11
NNNI-1
I-1
I0
tp12
bI00
S'\xfb\xb9|\xd1\x15\x8c\xa0?'
p13
tp14
bg0
(g1
(I0
tp15
g3
tp16
Rp17
(I1
(I1
I1
tp18
g10
I00
S'\xd5\x9a\xfeV4\x10\x8e?'
p19
tp20
bg0
(g1
(I0
tp21
g3
tp22
Rp23
(I1
(I1
I1
tp24
g10
I00
S'\x0c\xafZ\x9f\xfc\xe8\xc4\xbf'
p25
tp26
btp27
(F-0.4316832811836269
F-9.934411351924737
F-178.19673933067074
tp28
I1163
I130
tp29
.((cnumpy.core.multiarray
_reconstruct
p0
(cnumpy.matrixlib.defmatrix
matrix
p1
(I0
tp2
S'b'
p3
tp4
Rp5
(I1
(I1
I1
tp6
cnumpy
dtype
p7
(S'f8'
p8
I0
I1
tp9
Rp10
(I3
S'<'
p11
NNNI-1
I-1
I0
tp12
bI00
S'#\xe9\x15\xc4\xba\xd5\xb1?'
p13
tp14
bg0
(g1
(I0
tp15
g3
tp16
Rp17
(I1
(I1
I1
tp18
g10
I00
S'\xc6\xd0\x01qI7\x99?'
p19
tp20
bg0
(g1
(I0
tp21
g3
tp22
Rp23
(I1
(I1
I1
tp24
g10
I00
S'\xba\x96\x84\x98>\x91\xc5\xbf'
p25
tp26
btp27
(F-0.5195818925375939
F-21.181032282874895
F-175.4121493395722
tp28
I713
I188
tp29
.((cnumpy.core.multiarray
_reconstruct
p0
(cnumpy.matrixlib.defmatrix
matrix
p1
(I0
tp2
S'b'
p3
tp4
Rp5
(I1
(I1
I1
tp6
cnumpy
dtype
p7
(S'f8'
p8
I0
I1
tp9
Rp10
(I3
S'<'
p11
NNNI-1
I-1
I0
tp12
bI00
S'[\x9bA9\xf8\xbe\xab?'
p13
tp14
bg0
(g1
(I0
tp15
g3
tp16
Rp17
(I1
(I1
I1
tp18
g10
I00
S'e\xdd=\xfc\xd8\xc1\x97?'
p19
tp20
bg0
(g1
(I0
tp21
g3
tp22
Rp23
(I1
(I1
I1
tp24
g10
I00
S' k\xf9\x92\xd7V\xc5\xbf'
p25
tp26
btp27
(F-0.5045589543089676
F-16.609390536979355
F-175.5235105613382
tp28
I892
I201
tp29
.((cnumpy.core.multiarray
_reconstruct
p0
(cnumpy.matrixlib.defmatrix
matrix
p1
(I0
tp2
S'b'
p3
tp4
Rp5
(I1
(I1
I1
tp6
cnumpy
dtype
p7
(S'f8'
p8
I0
I1
tp9
Rp10
(I3
S'<'
p11
NNNI-1
I-1
I0
tp12
bI00
S'P\xda\x0e\xb5\xa0\xad\xa3?'
p13
tp14
bg0
(g1
(I0
tp15
g3
tp16
Rp17
(I1
(I1
I1
tp18
g10
I00
S'\xac\x88chn\xaa\x97?'
p19
tp20
bg0
(g1
(I0
tp21
g3
tp22
Rp23
(I1
(I1
I1
tp24
g10
I00
S'\xb4\x9b.t2\x19\xc5\xbf'
p25
tp26
btp27
(F-0.5671184175201056
F-11.762349041310747
F-175.36686309252224
tp28
I1069
I213
tp29
.((cnumpy.core.multiarray
_reconstruct
p0
(cnumpy.matrixlib.defmatrix
matrix
p1
(I0
tp2
S'b'
p3
tp4
Rp5
(I1
(I1
I1
tp6
cnumpy
dtype
p7
(S'f8'
p8
I0
I1
tp9
Rp10
(I3
S'<'
p11
NNNI-1
I-1
I0
tp12
bI00
S'\x83\x92\xe7\xf9\x8eI\x98?'
p13
tp14
bg0
(g1
(I0
tp15
g3
tp16
Rp17
(I1
(I1
I1
tp18
g10
I00
S'\x90\xc2]4\x06\xa9\x95?'
p19
tp20
bg0
(g1
(I0
tp21
g3
tp22
Rp23
(I1
(I1
I1
tp24
g10
I00
S'\x18<\x11\x96\xfc\xd8\xc4\xbf'
p25
tp26
btp27
(F-0.6699389544482733
F-7.02832291056626
F-175.82591986472013
tp28
I1246
I224
tp29
.((cnumpy.core.multiarray
_reconstruct
p0
(cnumpy.matrixlib.defmatrix
matrix
p1
(I0
tp2
S'b'
p3
tp4
Rp5
(I1
(I1
I1
tp6
cnumpy
dtype
p7
(S'f8'
p8
I0
I1
tp9
Rp10
(I3
S'<'
p11
NNNI-1
I-1
I0
tp12
bI00
S'\xfb\xe3\xaa$\x80\x10\x82?'
p13
tp14
bg0
(g1
(I0
tp15
g3
tp16
Rp17
(I1
(I1
I1
tp18
g10
I00
S'\xe7\x11\xf5\xd3\xbc\xce\x94?'
p19
tp20
bg0
(g1
(I0
tp21
g3
tp22
Rp23
(I1
(I1
I1
tp24
g10
I00
S'\xfe,\\o\x91\x9c\xc4\xbf'
p25
tp26
btp27
(F-0.7271755131587043
F-1.8667525727236518
F-176.0323930347752
tp28
I1421
I236
tp29
.((cnumpy.core.multiarray
_reconstruct
p0
(cnumpy.matrixlib.defmatrix
matrix
p1
(I0
tp2
S'b'
p3
tp4
Rp5
(I1
(I1
I1
tp6
cnumpy
dtype
p7
(S'f8'
p8
I0
I1
tp9
Rp10
(I3
S'<'
p11
NNNI-1
I-1
I0
tp12
bI00
S'\x16\xf5m\x81:\xfd\xae?'
p13
tp14
bg0
(g1
(I0
tp15
g3
tp16
Rp17
(I1
(I1
I1
tp18
g10
I00
S'\x9e\xfcy\x13\xb2I\xa0?'
p19
tp20
bg0
(g1
(I0
tp21
g3
tp22
Rp23
(I1
(I1
I1
tp24
g10
I00
S'A\xa6\xf6`\x1e\x80\xc5\xbf'
p25
tp26
btp27
(F-0.40388055009392343
F-18.5387049038807
F-173.00011290389708
tp28
I798
I283
tp29
.((cnumpy.core.multiarray
_reconstruct
p0
(cnumpy.matrixlib.defmatrix
matrix
p1
(I0
tp2
S'b'
p3
tp4
Rp5
(I1
(I1
I1
tp6
cnumpy
dtype
p7
(S'f8'
p8
I0
I1
tp9
Rp10
(I3
S'<'
p11
NNNI-1
I-1
I0
tp12
bI00
S'\xac*\x91|\xd4\x8a\xa7?'
p13
tp14
bg0
(g1
(I0
tp15
g3
tp16
Rp17
(I1
(I1
I1
tp18
g10
I00
S'~\xd6\x98\xe3P1\x9f?'
p19
tp20
bg0
(g1
(I0
tp21
g3
tp22
Rp23
(I1
(I1
I1
tp24
g10
I00
S'\xffw\xb8\t\xf4*\xc5\xbf'
p25
tp26
btp27
(F-0.6686765336416048
F-14.111073002713614
F-172.8892111730158
tp28
I976
I295
tp29
.((cnumpy.core.multiarray
_reconstruct
p0
(cnumpy.matrixlib.defmatrix
matrix
p1
(I0
tp2
S'b'
p3
tp4
Rp5
(I1
(I1
I1
tp6
cnumpy
dtype
p7
(S'f8'
p8
I0
I1
tp9
Rp10
(I3
S'<'
p11
NNNI-1
I-1
I0
tp12
bI00
S'\xcdLZ\xa9\xdc\x02\xa0?'
p13
tp14
bg0
(g1
(I0
tp15
g3
tp16
Rp17
(I1
(I1
I1
tp18
g10
I00
S'M\x16!\xf4\x1b\xc7\x9d?'
p19
tp20
bg0
(g1
(I0
tp21
g3
tp22
Rp23
(I1
(I1
I1
tp24
g10
I00
S'x\xa6\x84_S\xf4\xc4\xbf'
p25
tp26
btp27
(F-0.30130784171192965
F-9.582222403810224
F-173.28169913444563
tp28
I1153
I306
tp29
.((cnumpy.core.multiarray
_reconstruct
p0
(cnumpy.matrixlib.defmatrix
matrix
p1
(I0
tp2
S'b'
p3
tp4
Rp5
(I1
(I1
I1
tp6
cnumpy
dtype
p7
(S'f8'
p8
I0
I1
tp9
Rp10
(I3
S'<'
p11
NNNI-1
I-1
I0
tp12
bI00
S'M\x85\xc5\x81\xc3\x81\x90?'
p13
tp14
bg0
(g1
(I0
tp15
g3
tp16
Rp17
(I1
(I1
I1
tp18
g10
I00
S'\xae\x92\xe1\x15T\xe3\x9c?'
p19
tp20
bg0
(g1
(I0
tp21
g3
tp22
Rp23
(I1
(I1
I1
tp24
g10
I00
S'n\x13\x15\xbd\x19\xaa\xc4\xbf'
p25
tp26
btp27
(F-0.5097022183272639
F-4.420089357464948
F-173.29902922493744
tp28
I1329
I317
tp29
.((cnumpy.core.multiarray
_reconstruct
p0
(cnumpy.matrixlib.defmatrix
matrix
p1
(I0
tp2
S'b'
p3
tp4
Rp5
(I1
(I1
I1
tp6
cnumpy
dtype
p7
(S'f8'
p8
I0
I1
tp9
Rp10
(I3
S'<'
p11
NNNI-1
I-1
I0
tp12
bI00
S'\x06\x7f7\xf2\xdf\xb5\xb1?'
p13
tp14
bg0
(g1
(I0
tp15
g3
tp16
Rp17
(I1
(I1
I1
tp18
g10
I00
S'E\xc4%THc\xa4?'
p19
tp20
bg0
(g1
(I0
tp21
g3
tp22
Rp23
(I1
(I1
I1
tp24
g10
I00
S'\xfbh\x87y\x7f\x87\xc5\xbf'
p25
tp26
btp27
(F-0.35226614100042924
F-21.218646344651624
F-170.8227515736213
tp28
I703
I366
tp29
.((cnumpy.core.multiarray
_reconstruct
p0
(cnumpy.matrixlib.defmatrix
matrix
p1
(I0
tp2
S'b'
p3
tp4
Rp5
(I1
(I1
I1
tp6
cnumpy
dtype
p7
(S'f8'
p8
I0
I1
tp9
Rp10
(I3
S'<'
p11
NNNI-1
I-1
I0
tp12
bI00
S'j\x99\x12\x82,k\xab?'
p13
tp14
bg0
(g1
(I0
tp15
g3
tp16
Rp17
(I1
(I1
I1
tp18
g10
I00
S'\x89\xf3\x03j\xf1\x1f\xa4?'
p19
tp20
bg0
(g1
(I0
tp21
g3
tp22
Rp23
(I1
(I1
I1
tp24
g10
I00
S'\xa3\x1a{\xea\xa47\xc5\xbf'
p25
tp26
btp27
(F-0.29241809781248534
F-16.698295624136342
F-170.43707681398845
tp28
I882
I377
tp29
.((cnumpy.core.multiarray
_reconstruct
p0
(cnumpy.matrixlib.defmatrix
matrix
p1
(I0
tp2
S'b'
p3
tp4
Rp5
(I1
(I1
I1
tp6
cnumpy
dtype
p7
(S'f8'
p8
I0
I1
tp9
Rp10
(I3
S'<'
p11
NNNI-1
I-1
I0
tp12
bI00
S'\x96\xcf\xbb\xc1\x10\xac\xa3?'
p13
tp14
bg0
(g1
(I0
tp15
g3
tp16
Rp17
(I1
(I1
I1
tp18
g10
I00
S'\xae|\xd9o\xcf\x17\xa3?'
p19
tp20
bg0
(g1
(I0
tp21
g3
tp22
Rp23
(I1
(I1
I1
tp24
g10
I00
S'\xef\xa7\xe0\xfd\xb9\x10\xc5\xbf'
p25
tp26
btp27
(F-0.3264944037695678
F-11.87059561139518
F-170.66418056334803
tp28
I1059
I388
tp29
.((cnumpy.core.multiarray
_reconstruct
p0
(cnumpy.matrixlib.defmatrix
matrix
p1
(I0
tp2
S'b'
p3
tp4
Rp5
(I1
(I1
I1
tp6
cnumpy
dtype
p7
(S'f8'
p8
I0
I1
tp9
Rp10
(I3
S'<'
p11
NNNI-1
I-1
I0
tp12
bI00
S'\xe3\x96\x1e\xfd[\x9f\x97?'
p13
tp14
bg0
(g1
(I0
tp15
g3
tp16
Rp17
(I1
(I1
I1
tp18
g10
I00
S'\x18:\xc7k\x9e\x8d\xa2?'
p19
tp20
bg0
(g1
(I0
tp21
g3
tp22
Rp23
(I1
(I1
I1
tp24
g10
I00
S'M\xb4\x0e\x9e\xe9\xcd\xc4\xbf'
p25
tp26
btp27
(F-0.5089277680969364
F-6.760744399714777
F-170.67994605905542
tp28
I1236
I399
tp29
.((cnumpy.core.multiarray
_reconstruct
p0
(cnumpy.matrixlib.defmatrix
matrix
p1
(I0
tp2
S'b'
p3
tp4
Rp5
(I1
(I1
I1
tp6
cnumpy
dtype
p7
(S'f8'
p8
I0
I1
tp9
Rp10
(I3
S'<'
p11
NNNI-1
I-1
I0
tp12
bI00
S'|\xdf\xdd.\xf7\x82\x81?'
p13
tp14
bg0
(g1
(I0
tp15
g3
tp16
Rp17
(I1
(I1
I1
tp18
g10
I00
S'\xea\xe7c\x81\xc5G\xa2?'
p19
tp20
bg0
(g1
(I0
tp21
g3
tp22
Rp23
(I1
(I1
I1
tp24
g10
I00
S'w\x11\xa6\xbf\x83\x8c\xc4\xbf'
p25
tp26
btp27
(F-0.5148343309607181
F-1.517768234029735
F-170.41912968005045
tp28
I1412
I409
tp29
.((cnumpy.core.multiarray
_reconstruct
p0
(cnumpy.matrixlib.defmatrix
matrix
p1
(I0
tp2
S'b'
p3
tp4
Rp5
(I1
(I1
I1
tp6
cnumpy
dtype
p7
(S'f8'
p8
I0
I1
tp9
Rp10
(I3
S'<'
p11
NNNI-1
I-1
I0
tp12
bI00
S'\x9e\x1b\x08k\xee\xe3\xae?'
p13
tp14
bg0
(g1
(I0
tp15
g3
tp16
Rp17
(I1
(I1
I1
tp18
g10
I00
S'\x82\xbf<\x13C>\xa8?'
p19
tp20
bg0
(g1
(I0
tp21
g3
tp22
Rp23
(I1
(I1
I1
tp24
g10
I00
S'\xf6A\x19r}a\xc5\xbf'
p25
tp26
btp27
(F-0.2636991403221976
F-18.444937881235013
F-167.997761740468
tp28
I787
I460
tp29
.((cnumpy.core.multiarray
_reconstruct
p0
(cnumpy.matrixlib.defmatrix
matrix
p1
(I0
tp2
S'b'
p3
tp4
Rp5
(I1
(I1
I1
tp6
cnumpy
dtype
p7
(S'f8'
p8
I0
I1
tp9
Rp10
(I3
S'<'
p11
NNNI-1
I-1
I0
tp12
bI00
S'\xdfn\xf9o\xee\x03\xa7?'
p13
tp14
bg0
(g1
(I0
tp15
g3
tp16
Rp17
(I1
(I1
I1
tp18
g10
I00
S'\xd4{\xaaQ\x95\x9a\xa7?'
p19
tp20
bg0
(g1
(I0
tp21
g3
tp22
Rp23
(I1
(I1
I1
tp24
g10
I00
S'\x9c\xa6\x91\x93\x9c\x1d\xc5\xbf'
p25
tp26
btp27
(F-0.36425107728046646
F-13.770218594296928
F-167.82343879178813
tp28
I966
I471
tp29
.((cnumpy.core.multiarray
_reconstruct
p0
(cnumpy.matrixlib.defmatrix
matrix
p1
(I0
tp2
S'b'
p3
tp4
Rp5
(I1
(I1
I1
tp6
cnumpy
dtype
p7
(S'f8'
p8
I0
I1
tp9
Rp10
(I3
S'<'
p11
NNNI-1
I-1
I0
tp12
bI00
S'\xb1S\x91\x8c\xe2\x84\x9e?'
p13
tp14
bg0
(g1
(I0
tp15
g3
tp16
Rp17
(I1
(I1
I1
tp18
g10
I00
S'ffW0\x03\xed\xa6?'
p19
tp20
bg0
(g1
(I0
tp21
g3
tp22
Rp23
(I1
(I1
I1
tp24
g10
I00
S'\xff\xaf0i\xff\xf1\xc4\xbf'
p25
tp26
btp27
(F-0.4649465368744407
F-8.739515164399625
F-167.8063863808525
tp28
I1142
I481
tp29
.((cnumpy.core.multiarray
_reconstruct
p0
(cnumpy.matrixlib.defmatrix
matrix
p1
(I0
tp2
S'b'
p3
tp4
Rp5
(I1
(I1
I1
tp6
cnumpy
dtype
p7
(S'f8'
p8
I0
I1
tp9
Rp10
(I3
S'<'
p11
NNNI-1
I-1
I0
tp12
bI00
S'j\xf4\x95\xcfzu\x8e?'
p13
tp14
bg0
(g1
(I0
tp15
g3
tp16
Rp17
(I1
(I1
I1
tp18
g10
I00
S'r\xa5;\x9d\x03:\xa6?'
p19
tp20
bg0
(g1
(I0
tp21
g3
tp22
Rp23
(I1
(I1
I1
tp24
g10
I00
S'\xbd\x00\x012\xd4\xa2\xc4\xbf'
p25
tp26
btp27
(F-0.34043662283256554
F-3.7462188996932664
F-167.9258821428207
tp28
I1319
I491
tp29
.((cnumpy.core.multiarray
_reconstruct
p0
(cnumpy.matrixlib.defmatrix
matrix
p1
(I0
tp2
S'b'
p3
tp4
Rp5
(I1
(I1
I1
tp6
cnumpy
dtype
p7
(S'f8'
p8
I0
I1
tp9
Rp10
(I3
S'<'
p11
NNNI-1
I-1
I0
tp12
bI00
S"&^\xb5'\xacj\xb1?"
p13
tp14
bg0
(g1
(I0
tp15
g3
tp16
Rp17
(I1
(I1
I1
tp18
g10
I00
S'\x05_yZ\x17:\xac?'
p19
tp20
bg0
(g1
(I0
tp21
g3
tp22
Rp23
(I1
(I1
I1
tp24
g10
I00
S'\xc0\xdc\xba\xc2uv\xc5\xbf'
p25
tp26
btp27
(F-0.10333863008264366
F-20.699680280283225
F-166.03377532066187
tp28
I692
I544
tp29
.((cnumpy.core.multiarray
_reconstruct
p0
(cnumpy.matrixlib.defmatrix
matrix
p1
(I0
tp2
S'b'
p3
tp4
Rp5
(I1
(I1
I1
tp6
cnumpy
dtype
p7
(S'f8'
p8
I0
I1
tp9
Rp10
(I3
S'<'
p11
NNNI-1
I-1
I0
tp12
bI00
S'\xfb7\xa4"\xea\x96\xaa?'
p13
tp14
bg0
(g1
(I0
tp15
g3
tp16
Rp17
(I1
(I1
I1
tp18
g10
I00
S'\x03\xce\xd5I\x06\xab\xab?'
p19
tp20
bg0
(g1
(I0
tp21
g3
tp22
Rp23
(I1
(I1
I1
tp24
g10
I00
S'zJ.W\xa5J\xc5\xbf'
p25
tp26
btp27
(F-0.18236348072437422
F-16.178663189093506
F-165.97662840508366
tp28
I871
I554
tp29
.((cnumpy.core.multiarray
_reconstruct
p0
(cnumpy.matrixlib.defmatrix
matrix
p1
(I0
tp2
S'b'
p3
tp4
Rp5
(I1
(I1
I1
tp6
cnumpy
dtype
p7
(S'f8'
p8
I0
I1
tp9
Rp10
(I3
S'<'
p11
NNNI-1
I-1
I0
tp12
bI00
S'\xb3\x9e\x07k%-\xa3?'
p13
tp14
bg0
(g1
(I0
tp15
g3
tp16
Rp17
(I1
(I1
I1
tp18
g10
I00
S'\x8a\xda\x0f\x1f\xda\xf6\xaa?'
p19
tp20
bg0
(g1
(I0
tp21
g3
tp22
Rp23
(I1
(I1
I1
tp24
g10
I00
S'W[z\xa8\xf7\n\xc5\xbf'
p25
tp26
btp27
(F-0.14526310686003321
F-11.584284433375592
F-165.8075856572106
tp28
I1049
I564
tp29
.((cnumpy.core.multiarray
_reconstruct
p0
(cnumpy.matrixlib.defmatrix
matrix
p1
(I0
tp2
S'b'
p3
tp4
Rp5
(I1
(I1
I1
tp6
cnumpy
dtype
p7
(S'f8'
p8
I0
I1
tp9
Rp10
(I3
S'<'
p11
NNNI-1
I-1
I0
tp12
bI00
S'\x02\x0fL\x12\x01u\x96?'
p13
tp14
bg0
(g1
(I0
tp15
g3
tp16
Rp17
(I1
(I1
I1
tp18
g10
I00
S'\x95\xda\x8b\xcbJQ\xaa?'
p19
tp20
bg0
(g1
(I0
tp21
g3
tp22
Rp23
(I1
(I1
I1
tp24
g10
I00
S'\xb5\xf4A\xda/\xc4\xc4\xbf'
p25
tp26
btp27
(F-0.029825608529632217
F-6.383865383858069
F-165.63918612227474
tp28
I1226
I574
tp29
.((cnumpy.core.multiarray
_reconstruct
p0
(cnumpy.matrixlib.defmatrix
matrix
p1
(I0
tp2
S'b'
p3
tp4
Rp5
(I1
(I1
I1
tp6
cnumpy
dtype
p7
(S'f8'
p8
I0
I1
tp9
Rp10
(I3
S'<'
p11
NNNI-1
I-1
I0
tp12
bI00
S'5|\x9cS\xf1/z?'
p13
tp14
bg0
(g1
(I0
tp15
g3
tp16
Rp17
(I1
(I1
I1
tp18
g10
I00
S'\xb4\xcb|\xf7\xc0\xc3\xa9?'
p19
tp20
bg0
(g1
(I0
tp21
g3
tp22
Rp23
(I1
(I1
I1
tp24
g10
I00
S']\x18}\xc4a\x91\xc4\xbf'
p25
tp26
btp27
(F-0.20738956924052812
F-0.8867792673531828
F-165.71293683652456
tp28
I1402
I583
tp29
.((cnumpy.core.multiarray
_reconstruct
p0
(cnumpy.matrixlib.defmatrix
matrix
p1
(I0
tp2
S'b'
p3
tp4
Rp5
(I1
(I1
I1
tp6
cnumpy
dtype
p7
(S'f8'
p8
I0
I1
tp9
Rp10
(I3
S'<'
p11
NNNI-1
I-1
I0
tp12
bI00
S'\x9ew\r_\x14=\xae?'
p13
tp14
bg0
(g1
(I0
tp15
g3
tp16
Rp17
(I1
(I1
I1
tp18
g10
I00
S'\x99]2PX\xde\xaf?'
p19
tp20
bg0
(g1
(I0
tp21
g3
tp22
Rp23
(I1
(I1
I1
tp24
g10
I00
S'<8H!\xc3j\xc5\xbf'
p25
tp26
btp27
(F-0.2596683502879682
F-18.036605840260293
F-163.6493874463944
tp28
I777
I638
tp29
.((cnumpy.core.multiarray
_reconstruct
p0
(cnumpy.matrixlib.defmatrix
matrix
p1
(I0
tp2
S'b'
p3
tp4
Rp5
(I1
(I1
I1
tp6
cnumpy
dtype
p7
(S'f8'
p8
I0
I1
tp9
Rp10
(I3
S'<'
p11
NNNI-1
I-1
I0
tp12
bI00
S'\x9f1\xe4\xe4\xd8>\xa6?'
p13
tp14
bg0
(g1
(I0
tp15
g3
tp16
Rp17
(I1
(I1
I1
tp18
g10
I00
S'{";\xae\x94Y\xaf?'
p19
tp20
bg0
(g1
(I0
tp21
g3
tp22
Rp23
(I1
(I1
I1
tp24
g10
I00
S'\x92\x8a\x03#U#\xc5\xbf'
p25
tp26
btp27
(F-0.010899941631668625
F-13.417525457368727
F-163.3272206827083
tp28
I955
I647
tp29
.((cnumpy.core.multiarray
_reconstruct
p0
(cnumpy.matrixlib.defmatrix
matrix
p1
(I0
tp2
S'b'
p3
tp4
Rp5
(I1
(I1
I1
tp6
cnumpy
dtype
p7
(S'f8'
p8
I0
I1
tp9
Rp10
(I3
S'<'
p11
NNNI-1
I-1
I0
tp12
bI00
S'\xf8>\xdc\x85\xe4\xc4\x9d?'
p13
tp14
bg0
(g1
(I0
tp15
g3
tp16
Rp17
(I1
(I1
I1
tp18
g10
I00
S'\x96ts,\xc3m\xae?'
p19
tp20
bg0
(g1
(I0
tp21
g3
tp22
Rp23
(I1
(I1
I1
tp24
g10
I00
S'\xe8\x8c\xe4\xe1.\xec\xc4\xbf'
p25
tp26
btp27
(F0.09227693365537118
F-8.832159137116147
F-163.4119943406762
tp28
I1132
I657
tp29
.((cnumpy.core.multiarray
_reconstruct
p0
(cnumpy.matrixlib.defmatrix
matrix
p1
(I0
tp2
S'b'
p3
tp4
Rp5
(I1
(I1
I1
tp6
cnumpy
dtype
p7
(S'f8'
p8
I0
I1
tp9
Rp10
(I3
S'<'
p11
NNNI-1
I-1
I0
tp12
bI00
S'8\x7fO\\\x8b\xee\x8b?'
p13
tp14
bg0
(g1
(I0
tp15
g3
tp16
Rp17
(I1
(I1
I1
tp18
g10
I00
S'\xe6\x01\xef\x15\xd5\xd8\xad?'
p19
tp20
bg0
(g1
(I0
tp21
g3
tp22
Rp23
(I1
(I1
I1
tp24
g10
I00
S'\xd5\x17\x1bn\x14\xb3\xc4\xbf'
p25
tp26
btp27
(F-0.08911748469671502
F-3.4731075842423795
F-163.34671716906107
tp28
I1309
I666
tp29
.((cnumpy.core.multiarray
_reconstruct
p0
(cnumpy.matrixlib.defmatrix
matrix
p1
(I0
tp2
S'b'
p3
tp4
Rp5
(I1
(I1
I1
tp6
cnumpy
dtype
p7
(S'f8'
p8
I0
I1
tp9
Rp10
(I3
S'<'
p11
NNNI-1
I-1
I0
tp12
bI00
S'|x\xcb\xd9^K\xb1?'
p13
tp14
bg0
(g1
(I0
tp15
g3
tp16
Rp17
(I1
(I1
I1
tp18
g10
I00
S'>\x1e\x96g|?\xb2?'
p19
tp20
bg0
(g1
(I0
tp21
g3
tp22
Rp23
(I1
(I1
I1
tp24
g10
I00
S'\x08=P\xe9\xefx\xc5\xbf'
p25
tp26
btp27
(F-0.11553852738304261
F-20.946421006777488
F-161.8723205704259
tp28
I682
I722
tp29
.((cnumpy.core.multiarray
_reconstruct
p0
(cnumpy.matrixlib.defmatrix
matrix
p1
(I0
tp2
S'b'
p3
tp4
Rp5
(I1
(I1
I1
tp6
cnumpy
dtype
p7
(S'f8'
p8
I0
I1
tp9
Rp10
(I3
S'<'
p11
NNNI-1
I-1
I0
tp12
bI00
S'|u`\x0f\xd4\xac\xaa?'
p13
tp14
bg0
(g1
(I0
tp15
g3
tp16
Rp17
(I1
(I1
I1
tp18
g10
I00
S'h\xb7\x88\xf6\xf0\xce\xb1?'
p19
tp20
bg0
(g1
(I0
tp21
g3
tp22
Rp23
(I1
(I1
I1
tp24
g10
I00
S'B\x16\xc2i:C\xc5\xbf'
p25
tp26
btp27
(F-0.2785793712083694
F-16.16748777972159
F-161.44683622363192
tp28
I861
I731
tp29
.((cnumpy.core.multiarray
_reconstruct
p0
(cnumpy.matrixlib.defmatrix
matrix
p1
(I0
tp2
S'b'
p3
tp4
Rp5
(I1
(I1
I1
tp6
cnumpy
dtype
p7
(S'f8'
p8
I0
I1
tp9
Rp10
(I3
S'<'
p11
NNNI-1
I-1
I0
tp12
bI00
S'X\xc2\xa5\x0e\xbbv\xa2?'
p13
tp14
bg0
(g1
(I0
tp15
g3
tp16
Rp17
(I1
(I1
I1
tp18
g10
I00
S'}\xa9\xeaI\xf9Q\xb1?'
p19
tp20
bg0
(g1
(I0
tp21
g3
tp22
Rp23
(I1
(I1
I1
tp24
g10
I00
S'T?_\x1d\x88\x18\xc5\xbf'
p25
tp26
btp27
(F-0.16766910807297974
F-11.411182285684637
F-161.5760220441281
tp28
I1039
I741
tp29
.((cnumpy.core.multiarray
_reconstruct
p0
(cnumpy.matrixlib.defmatrix
matrix
p1
(I0
tp2
S'b'
p3
tp4
Rp5
(I1
(I1
I1
tp6
cnumpy
dtype
p7
(S'f8'
p8
I0
I1
tp9
Rp10
(I3
S'<'
p11
NNNI-1
I-1
I0
tp12
bI00
S'\xfb\x9f<\x7fqx\x95?'
p13
tp14
bg0
(g1
(I0
tp15
g3
tp16
Rp17
(I1
(I1
I1
tp18
g10
I00
S's\xee$\xbb[\x0c\xb1?'
p19
tp20
bg0
(g1
(I0
tp21
g3
tp22
Rp23
(I1
(I1
I1
tp24
g10
I00
S'a\xf7\xb6\xdd\xc7\xcd\xc4\xbf'
p25
tp26
btp27
(F-0.08897649724987047
F-6.224984840339513
F-161.1896720220346
tp28
I1216
I750
tp29
.((cnumpy.core.multiarray
_reconstruct
p0
(cnumpy.matrixlib.defmatrix
matrix
p1
(I0
tp2
S'b'
p3
tp4
Rp5
(I1
(I1
I1
tp6
cnumpy
dtype
p7
(S'f8'
p8
I0
I1
tp9
Rp10
(I3
S'<'
p11
NNNI-1
I-1
I0
tp12
bI00
S'(NI\x00~\x1f{?'
p13
tp14
bg0
(g1
(I0
tp15
g3
tp16
Rp17
(I1
(I1
I1
tp18
g10
I00
S'%\xa2\xfb\x8f!\xd3\xb0?'
p19
tp20
bg0
(g1
(I0
tp21
g3
tp22
Rp23
(I1
(I1
I1
tp24
g10
I00
S'\xce\xe3\xc8\x1b\xe9\x97\xc4\xbf'
p25
tp26
btp27
(F-0.1888343483881873
F-1.4065731513332425
F-161.29354021303735
tp28
I1392
I758
tp29
.