(lp0
((cnumpy.core.multiarray
_reconstruct
p1
(cnumpy.matrixlib.defmatrix
matrix
p2
(I0
tp3
S'b'
p4
tp5
Rp6
(I1
(I1
I1
tp7
cnumpy
dtype
p8
(S'f8'
p9
I0
I1
tp10
Rp11
(I3
S'<'
p12
NNNI-1
I-1
I0
tp13
bI00
S'\xd5&@\xa0\x1e\xff\xaf?'
p14
tp15
bg1
(g2
(I0
tp16
g4
tp17
Rp18
(I1
(I1
I1
tp19
g11
I00
S'X\x9c\xb5\xeco\xe4\x8f?'
p20
tp21
bg1
(g2
(I0
tp22
g4
tp23
Rp24
(I1
(I1
I1
tp25
g11
I00
S'\x00W\xc4\xb6\xf2a\xc5\xbf'
p26
tp27
btp28
(F0.318223388467345
F-19.216493146234722
F-174.92627731094726
tp29
I736
I111
tp30
a((g1
(g2
(I0
tp31
g4
tp32
Rp33
(I1
(I1
I1
tp34
g8
(S'f8'
p35
I0
I1
tp36
Rp37
(I3
S'<'
p38
NNNI-1
I-1
I0
tp39
bI00
S'5D\xb2\xef\xc5-\xa8?'
p40
tp41
bg1
(g2
(I0
tp42
g4
tp43
Rp44
(I1
(I1
I1
tp45
g37
I00
S'\x0e\x9a\x9a\xff\xc5A\x8f?'
p46
tp47
bg1
(g2
(I0
tp48
g4
tp49
Rp50
(I1
(I1
I1
tp51
g37
I00
S'\x1f\x8ai\xf5k\x1e\xc5\xbf'
p52
tp53
btp54
(F0.15069006286966868
F-14.682673646071441
F-174.91712153938417
tp55
I915
I122
tp56
a((g1
(g2
(I0
tp57
g4
tp58
Rp59
(I1
(I1
I1
tp60
g8
(S'f8'
p61
I0
I1
tp62
Rp63
(I3
S'<'
p64
NNNI-1
I-1
I0
tp65
bI00
S'\x19*\xa7\xc8\xf1Q\xa0?'
p66
tp67
bg1
(g2
(I0
tp68
g4
tp69
Rp70
(I1
(I1
I1
tp71
g63
I00
S'\xac7u\xf8\x19"\x8b?'
p72
tp73
bg1
(g2
(I0
tp74
g4
tp75
Rp76
(I1
(I1
I1
tp77
g63
I00
S'\xd4B#\xea{\xe8\xc4\xbf'
p78
tp79
btp80
(F0.13236237165388653
F-9.641687538924359
F-175.41993324504392
tp81
I1094
I135
tp82
a((g1
(g2
(I0
tp83
g4
tp84
Rp85
(I1
(I1
I1
tp86
g8
(S'f8'
p87
I0
I1
tp88
Rp89
(I3
S'<'
p90
NNNI-1
I-1
I0
tp91
bI00
S'uc52W\xf5\xb1?'
p92
tp93
bg1
(g2
(I0
tp94
g4
tp95
Rp96
(I1
(I1
I1
tp97
g89
I00
S']\xdc\x89\xe3`f\x99?'
p98
tp99
bg1
(g2
(I0
tp100
g4
tp101
Rp102
(I1
(I1
I1
tp103
g89
I00
S'K&}\xfd\xee\x90\xc5\xbf'
p104
tp105
btp106
(F0.06925997540504034
F-21.479549825710514
F-175.59863225932457
tp107
I640
I194
tp108
a((g1
(g2
(I0
tp109
g4
tp110
Rp111
(I1
(I1
I1
tp112
g8
(S'f8'
p113
I0
I1
tp114
Rp115
(I3
S'<'
p116
NNNI-1
I-1
I0
tp117
bI00
S'J\xe2\r;+\xd7\xab?'
p118
tp119
bg1
(g2
(I0
tp120
g4
tp121
Rp122
(I1
(I1
I1
tp123
g115
I00
S'\xb0\xf5*\xeaT\n\x98?'
p124
tp125
bg1
(g2
(I0
tp126
g4
tp127
Rp128
(I1
(I1
I1
tp129
g115
I00
S"\xb8\xd6'\xbd\xddA\xc5\xbf"
p130
tp131
btp132
(F-0.23572349211850688
F-16.646008876308617
F-175.3440138783971
tp133
I820
I206
tp134
a((g1
(g2
(I0
tp135
g4
tp136
Rp137
(I1
(I1
I1
tp138
g8
(S'f8'
p139
I0
I1
tp140
Rp141
(I3
S'<'
p142
NNNI-1
I-1
I0
tp143
bI00
S'H\xc3k9\x9c\x06\xa4?'
p144
tp145
bg1
(g2
(I0
tp146
g4
tp147
Rp148
(I1
(I1
I1
tp149
g141
I00
S'\xea\r\x80\x13BU\x97?'
p150
tp151
bg1
(g2
(I0
tp152
g4
tp153
Rp154
(I1
(I1
I1
tp155
g141
I00
S'\r\x9d\x988|\x03\xc5\xbf'
p156
tp157
btp158
(F-0.08917315106341712
F-12.230172763275586
F-175.63684077558926
tp159
I999
I217
tp160
a((g1
(g2
(I0
tp161
g4
tp162
Rp163
(I1
(I1
I1
tp164
g8
(S'f8'
p165
I0
I1
tp166
Rp167
(I3
S'<'
p168
NNNI-1
I-1
I0
tp169
bI00
S'\x9a\xa2\xc0\xe5\xfe&\x98?'
p170
tp171
bg1
(g2
(I0
tp172
g4
tp173
Rp174
(I1
(I1
I1
tp175
g167
I00
S'k\xa8,\xf5\xba\xc7\x95?'
p176
tp177
bg1
(g2
(I0
tp178
g4
tp179
Rp180
(I1
(I1
I1
tp181
g167
I00
S'\xe3\x00\x11\xcf\xf3\xda\xc4\xbf'
p182
tp183
btp184
(F-0.07960679331290187
F-6.869061475284648
F-175.8010542166693
tp185
I1176
I228
tp186
a((g1
(g2
(I0
tp187
g4
tp188
Rp189
(I1
(I1
I1
tp190
g8
(S'f8'
p191
I0
I1
tp192
Rp193
(I3
S'<'
p194
NNNI-1
I-1
I0
tp195
bI00
S'\xdd\xb0\xaaP,g\x81?'
p196
tp197
bg1
(g2
(I0
tp198
g4
tp199
Rp200
(I1
(I1
I1
tp201
g193
I00
S'\x00\x13\xc8[\x93\x00\x95?'
p202
tp203
bg1
(g2
(I0
tp204
g4
tp205
Rp206
(I1
(I1
I1
tp207
g193
I00
S'\xdb\xce\x81\x87\xda\x9e\xc4\xbf'
p208
tp209
btp210
(F0.05109553250525354
F-1.6552971496052358
F-176.04951632975678
tp211
I1347
I237
tp212
a((g1
(g2
(I0
tp213
g4
tp214
Rp215
(I1
(I1
I1
tp216
g8
(S'f8'
p217
I0
I1
tp218
Rp219
(I3
S'<'
p220
NNNI-1
I-1
I0
tp221
bI00
S'\x89\xba\x17u\x86\x98\xaf?'
p222
tp223
bg1
(g2
(I0
tp224
g4
tp225
Rp226
(I1
(I1
I1
tp227
g219
I00
S'\xf1-\xfay\x97E\xa0?'
p228
tp229
bg1
(g2
(I0
tp230
g4
tp231
Rp232
(I1
(I1
I1
tp233
g219
I00
S'\xf9\x95^\x98=^\xc5\xbf'
p234
tp235
btp236
(F0.0925946202816848
F-18.981520769789608
F-173.12600218889642
tp237
I725
I289
tp238
a((g1
(g2
(I0
tp239
g4
tp240
Rp241
(I1
(I1
I1
tp242
g8
(S'f8'
p243
I0
I1
tp244
Rp245
(I3
S'<'
p246
NNNI-1
I-1
I0
tp247
bI00
S'\x14\xd2\xc4\xf1Dd\xa7?'
p248
tp249
bg1
(g2
(I0
tp250
g4
tp251
Rp252
(I1
(I1
I1
tp253
g245
I00
S'\xb8\xb1h[\x83\x96\x9f?'
p254
tp255
bg1
(g2
(I0
tp256
g4
tp257
Rp258
(I1
(I1
I1
tp259
g245
I00
S"E\xf9\rd3'\xc5\xbf"
p260
tp261
btp262
(F0.04909855622610525
F-14.11309966501966
F-173.02984810661135
tp263
I905
I300
tp264
a((g1
(g2
(I0
tp265
g4
tp266
Rp267
(I1
(I1
I1
tp268
g8
(S'f8'
p269
I0
I1
tp270
Rp271
(I3
S'<'
p272
NNNI-1
I-1
I0
tp273
bI00
S'\x10\xce\x93\xacD\x03\xa0?'
p274
tp275
bg1
(g2
(I0
tp276
g4
tp277
Rp278
(I1
(I1
I1
tp279
g271
I00
S'DNK\xc3\xf0\xf6\x9d?'
p280
tp281
bg1
(g2
(I0
tp282
g4
tp283
Rp284
(I1
(I1
I1
tp285
g271
I00
S'\xdb\x97\x8en\x08\xf3\xc4\xbf'
p286
tp287
btp288
(F-0.03716209408455391
F-9.375424124767886
F-173.13890027437722
tp289
I1082
I310
tp290
a((g1
(g2
(I0
tp291
g4
tp292
Rp293
(I1
(I1
I1
tp294
g8
(S'f8'
p295
I0
I1
tp296
Rp297
(I3
S'<'
p298
NNNI-1
I-1
I0
tp299
bI00
S'\x80\xd4\xb7\xe7\x88\xad\x8f?'
p300
tp301
bg1
(g2
(I0
tp302
g4
tp303
Rp304
(I1
(I1
I1
tp305
g297
I00
S"t\xd63'\xe5\xc6\x9c?"
p306
tp307
bg1
(g2
(I0
tp308
g4
tp309
Rp310
(I1
(I1
I1
tp311
g297
I00
S'\x7f\r\xba\xa0\x9a\xa8\xc4\xbf'
p312
tp313
btp314
(F0.11446310289045197
F-3.9255710960531873
F-173.17319486215519
tp315
I1259
I321
tp316
a((g1
(g2
(I0
tp317
g4
tp318
Rp319
(I1
(I1
I1
tp320
g8
(S'f8'
p321
I0
I1
tp322
Rp323
(I3
S'<'
p324
NNNI-1
I-1
I0
tp325
bI00
S'\x04\x06X\x8d\xb6\xb9\xb1?'
p326
tp327
bg1
(g2
(I0
tp328
g4
tp329
Rp330
(I1
(I1
I1
tp331
g323
I00
S'\xc9gP-P\xa5\xa4?'
p332
tp333
bg1
(g2
(I0
tp334
g4
tp335
Rp336
(I1
(I1
I1
tp337
g323
I00
S'\x04\xa5\x82kHx\xc5\xbf'
p338
tp339
btp340
(F0.08400240620955297
F-21.04497121413969
F-170.67275514047017
tp341
I629
I374
tp342
a((g1
(g2
(I0
tp343
g4
tp344
Rp345
(I1
(I1
I1
tp346
g8
(S'f8'
p347
I0
I1
tp348
Rp349
(I3
S'<'
p350
NNNI-1
I-1
I0
tp351
bI00
S'\x12\xcfN%\x03p\xab?'
p352
tp353
bg1
(g2
(I0
tp354
g4
tp355
Rp356
(I1
(I1
I1
tp357
g349
I00
S'hy)\xa7s\xd5\xa3?'
p358
tp359
bg1
(g2
(I0
tp360
g4
tp361
Rp362
(I1
(I1
I1
tp363
g349
I00
S'S\xba\xab\xeeJ5\xc5\xbf'
p364
tp365
btp366
(F-0.02794167181372161
F-16.516640999434973
F-170.59571198510284
tp367
I810
I383
tp368
a((g1
(g2
(I0
tp369
g4
tp370
Rp371
(I1
(I1
I1
tp372
g8
(S'f8'
p373
I0
I1
tp374
Rp375
(I3
S'<'
p376
NNNI-1
I-1
I0
tp377
bI00
S'm\xdd\xd2\xcfYA\xa3?'
p378
tp379
bg1
(g2
(I0
tp380
g4
tp381
Rp382
(I1
(I1
I1
tp383
g375
I00
S'\x9e\xafN\xd2XN\xa3?'
p384
tp385
bg1
(g2
(I0
tp386
g4
tp387
Rp388
(I1
(I1
I1
tp389
g375
I00
S'@\x8f\x89\xfe\x00\xfc\xc4\xbf'
p390
tp391
btp392
(F-0.08815098438134612
F-11.517814720326937
F-170.53118454582267
tp393
I988
I393
tp394
a((g1
(g2
(I0
tp395
g4
tp396
Rp397
(I1
(I1
I1
tp398
g8
(S'f8'
p399
I0
I1
tp400
Rp401
(I3
S'<'
p402
NNNI-1
I-1
I0
tp403
bI00
S'\xc5\xebS\xfe\x82;\x97?'
p404
tp405
bg1
(g2
(I0
tp406
g4
tp407
Rp408
(I1
(I1
I1
tp409
g401
I00
S'\xd8.b\xfe\x13\xbc\xa2?'
p410
tp411
bg1
(g2
(I0
tp412
g4
tp413
Rp414
(I1
(I1
I1
tp415
g401
I00
S'\xe6\xad\x8c(M\xb8\xc4\xbf'
p416
tp417
btp418
(F0.19750168040033264
F-6.6341956257308095
F-170.598965859249
tp419
I1165
I403
tp420
a((g1
(g2
(I0
tp421
g4
tp422
Rp423
(I1
(I1
I1
tp424
g8
(S'f8'
p425
I0
I1
tp426
Rp427
(I3
S'<'
p428
NNNI-1
I-1
I0
tp429
bI00
S'\xc0\xd6K\x1d\xdf(~?'
p430
tp431
bg1
(g2
(I0
tp432
g4
tp433
Rp434
(I1
(I1
I1
tp435
g427
I00
S'L\x93\x9d\xc6\xf05\xa2?'
p436
tp437
bg1
(g2
(I0
tp438
g4
tp439
Rp440
(I1
(I1
I1
tp441
g427
I00
S'\xa2P\x1e\x07M\x92\xc4\xbf'
p442
tp443
btp444
(F0.23112173200941108
F-1.220071380938219
F-170.690230335829
tp445
I1342
I413
tp446
a((g1
(g2
(I0
tp447
g4
tp448
Rp449
(I1
(I1
I1
tp450
g8
(S'f8'
p451
I0
I1
tp452
Rp453
(I3
S'<'
p454
NNNI-1
I-1
I0
tp455
bI00
S'\\~[\xdcG\xaa\xae?'
p456
tp457
bg1
(g2
(I0
tp458
g4
tp459
Rp460
(I1
(I1
I1
tp461
g453
I00
S'\x89.+\xf9\xcfU\xa8?'
p462
tp463
bg1
(g2
(I0
tp464
g4
tp465
Rp466
(I1
(I1
I1
tp467
g453
I00
S'+\x0c\xe9\xea\xb0`\xc5\xbf'
p468
tp469
btp470
(F0.3060130226692277
F-18.350270698798102
F-168.24800580744346
tp471
I715
I467
tp472
a((g1
(g2
(I0
tp473
g4
tp474
Rp475
(I1
(I1
I1
tp476
g8
(S'f8'
p477
I0
I1
tp478
Rp479
(I3
S'<'
p480
NNNI-1
I-1
I0
tp481
bI00
S'\x0e\xab\xce\x15`\x12\xa7?'
p482
tp483
bg1
(g2
(I0
tp484
g4
tp485
Rp486
(I1
(I1
I1
tp487
g479
I00
S'\xf7!\xc6\rSJ\xa7?'
p488
tp489
bg1
(g2
(I0
tp490
g4
tp491
Rp492
(I1
(I1
I1
tp493
g479
I00
S'\x81\xd5\xc1\xd6\xae!\xc5\xbf'
p494
tp495
btp496
(F-0.08628388329331099
F-13.792766932970245
F-168.23705101218314
tp497
I894
I477
tp498
a((g1
(g2
(I0
tp499
g4
tp500
Rp501
(I1
(I1
I1
tp502
g8
(S'f8'
p503
I0
I1
tp504
Rp505
(I3
S'<'
p506
NNNI-1
I-1
I0
tp507
bI00
S'\x91\xd7\x17B\xd9\xb3\x9e?'
p508
tp509
bg1
(g2
(I0
tp510
g4
tp511
Rp512
(I1
(I1
I1
tp513
g505
I00
S'?\x05\xc2u\xb7\xc7\xa6?'
p514
tp515
bg1
(g2
(I0
tp516
g4
tp517
Rp518
(I1
(I1
I1
tp519
g505
I00
S'\xec\xd5\x1c\xeet\xe8\xc4\xbf'
p520
tp521
btp522
(F-0.04127533321994606
F-8.832317862625812
F-168.06893727294883
tp523
I1072
I486
tp524
a((g1
(g2
(I0
tp525
g4
tp526
Rp527
(I1
(I1
I1
tp528
g8
(S'f8'
p529
I0
I1
tp530
Rp531
(I3
S'<'
p532
NNNI-1
I-1
I0
tp533
bI00
S'9nPr\x19&\x8f?'
p534
tp535
bg1
(g2
(I0
tp536
g4
tp537
Rp538
(I1
(I1
I1
tp539
g531
I00
S'\x03]\xa6FZ@\xa6?'
p540
tp541
bg1
(g2
(I0
tp542
g4
tp543
Rp544
(I1
(I1
I1
tp545
g531
I00
S'\xc0\xc2%\xdbw\xab\xc4\xbf'
p546
tp547
btp548
(F-0.0600123301306415
F-3.793250899189333
F-168.00460123533819
tp549
I1249
I495
tp550
a((g1
(g2
(I0
tp551
g4
tp552
Rp553
(I1
(I1
I1
tp554
g8
(S'f8'
p555
I0
I1
tp556
Rp557
(I3
S'<'
p558
NNNI-1
I-1
I0
tp559
bI00
S'\xc2\xf8*\x02?J\xb1?'
p560
tp561
bg1
(g2
(I0
tp562
g4
tp563
Rp564
(I1
(I1
I1
tp565
g557
I00
S'\x8dj\x0ba\xc7\x94\xac?'
p566
tp567
bg1
(g2
(I0
tp568
g4
tp569
Rp570
(I1
(I1
I1
tp571
g557
I00
S'\xab\x16\xd42\x97u\xc5\xbf'
p572
tp573
btp574
(F0.0059253335039207156
F-20.454523710263583
F-165.94754080276218
tp575
I620
I550
tp576
a((g1
(g2
(I0
tp577
g4
tp578
Rp579
(I1
(I1
I1
tp580
g8
(S'f8'
p581
I0
I1
tp582
Rp583
(I3
S'<'
p584
NNNI-1
I-1
I0
tp585
bI00
S'\x81\x80\xc0\xf8\xbb\xf7\xaa?'
p586
tp587
bg1
(g2
(I0
tp588
g4
tp589
Rp590
(I1
(I1
I1
tp591
g583
I00
S'\xe5\xdb.\xeca\xd4\xab?'
p592
tp593
bg1
(g2
(I0
tp594
g4
tp595
Rp596
(I1
(I1
I1
tp597
g583
I00
S'\xa6\xb2v\xddx2\xc5\xbf'
p598
tp599
btp600
(F-0.4335617108027081
F-15.923207029132481
F-165.55300141356284
tp601
I800
I560
tp602
a((g1
(g2
(I0
tp603
g4
tp604
Rp605
(I1
(I1
I1
tp606
g8
(S'f8'
p607
I0
I1
tp608
Rp609
(I3
S'<'
p610
NNNI-1
I-1
I0
tp611
bI00
S'\xdf\xd6\xf2\xef\r\x8f\xa2?'
p612
tp613
bg1
(g2
(I0
tp614
g4
tp615
Rp616
(I1
(I1
I1
tp617
g609
I00
S'c\xe8\x13\xb3\xa6\xf0\xaa?'
p618
tp619
bg1
(g2
(I0
tp620
g4
tp621
Rp622
(I1
(I1
I1
tp623
g609
I00
S'7\x8dU\xd7\xb5\x0c\xc5\xbf'
p624
tp625
btp626
(F-0.012239527701332792
F-10.901969874521724
F-165.78737463458543
tp627
I978
I570
tp628
a((g1
(g2
(I0
tp629
g4
tp630
Rp631
(I1
(I1
I1
tp632
g8
(S'f8'
p633
I0
I1
tp634
Rp635
(I3
S'<'
p636
NNNI-1
I-1
I0
tp637
bI00
S'\xa1;\xf9y\x02W\x96?'
p638
tp639
bg1
(g2
(I0
tp640
g4
tp641
Rp642
(I1
(I1
I1
tp643
g635
I00
S'\x9aCi\xcd\xca]\xaa?'
p644
tp645
bg1
(g2
(I0
tp646
g4
tp647
Rp648
(I1
(I1
I1
tp649
g635
I00
S't\xc5\x9a0\xa6\xc2\xc4\xbf'
p650
tp651
btp652
(F-0.14532857316642767
F-6.162251276178874
F-165.70832054744128
tp653
I1155
I579
tp654
a((g1
(g2
(I0
tp655
g4
tp656
Rp657
(I1
(I1
I1
tp658
g8
(S'f8'
p659
I0
I1
tp660
Rp661
(I3
S'<'
p662
NNNI-1
I-1
I0
tp663
bI00
S'\xbc\xd8\xee~Q\xd1y?'
p664
tp665
bg1
(g2
(I0
tp666
g4
tp667
Rp668
(I1
(I1
I1
tp669
g661
I00
S'qt\xcd?&\xca\xa9?'
p670
tp671
bg1
(g2
(I0
tp672
g4
tp673
Rp674
(I1
(I1
I1
tp675
g661
I00
S'R\x94A\x8d\xcd\x93\xc4\xbf'
p676
tp677
btp678
(F-0.16382246673823278
F-0.5334002031339518
F-165.57879206392172
tp679
I1331
I588
tp680
a((g1
(g2
(I0
tp681
g4
tp682
Rp683
(I1
(I1
I1
tp684
g8
(S'f8'
p685
I0
I1
tp686
Rp687
(I3
S'<'
p688
NNNI-1
I-1
I0
tp689
bI00
S'V;\xe6\xd1\x0b\xa8\xae?'
p690
tp691
bg1
(g2
(I0
tp692
g4
tp693
Rp694
(I1
(I1
I1
tp695
g687
I00
S'\xb9\x9b\x81\xc2@\x04\xb0?'
p696
tp697
bg1
(g2
(I0
tp698
g4
tp699
Rp700
(I1
(I1
I1
tp701
g687
I00
S'>\t$\xe2\xb8R\xc5\xbf'
p702
tp703
btp704
(F-0.03809781491340651
F-18.358758185833775
F-163.77624181745307
tp705
I705
I644
tp706
a((g1
(g2
(I0
tp707
g4
tp708
Rp709
(I1
(I1
I1
tp710
g8
(S'f8'
p711
I0
I1
tp712
Rp713
(I3
S'<'
p714
NNNI-1
I-1
I0
tp715
bI00
S'\x9dxp4\xf2\x80\xa6?'
p716
tp717
bg1
(g2
(I0
tp718
g4
tp719
Rp720
(I1
(I1
I1
tp721
g713
I00
S'p\xf2\xd5U\x04t\xaf?'
p722
tp723
bg1
(g2
(I0
tp724
g4
tp725
Rp726
(I1
(I1
I1
tp727
g713
I00
S'\xad\xaf\x9e\xd6C\x19\xc5\xbf'
p728
tp729
btp730
(F0.035409614137496125
F-13.52832890421036
F-163.38979052852775
tp731
I884
I654
tp732
a((g1
(g2
(I0
tp733
g4
tp734
Rp735
(I1
(I1
I1
tp736
g8
(S'f8'
p737
I0
I1
tp738
Rp739
(I3
S'<'
p740
NNNI-1
I-1
I0
tp741
bI00
S'\x92\x11\x80\x89#\x18\x9d?'
p742
tp743
bg1
(g2
(I0
tp744
g4
tp745
Rp746
(I1
(I1
I1
tp747
g739
I00
S'\xa0\x8f\xbb\xbc\x10\xab\xae?'
p748
tp749
bg1
(g2
(I0
tp750
g4
tp751
Rp752
(I1
(I1
I1
tp753
g739
I00
S'aKt\xf2\xb6\xe9\xc4\xbf'
p754
tp755
btp756
(F-0.0886468355718636
F-8.317952146110047
F-163.20779394587302
tp757
I1061
I662
tp758
a((g1
(g2
(I0
tp759
g4
tp760
Rp761
(I1
(I1
I1
tp762
g8
(S'f8'
p763
I0
I1
tp764
Rp765
(I3
S'<'
p766
NNNI-1
I-1
I0
tp767
bI00
S'\xcb\xcf\xfb\xd1\xb2\xbe\x8c?'
p768
tp769
bg1
(g2
(I0
tp770
g4
tp771
Rp772
(I1
(I1
I1
tp773
g765
I00
S'CMe\x9b\xac7\xae?'
p774
tp775
bg1
(g2
(I0
tp776
g4
tp777
Rp778
(I1
(I1
I1
tp779
g765
I00
S'1x\x11R\xaa\x9a\xc4\xbf'
p780
tp781
btp782
(F-0.11921667339222375
F-3.7322310794167586
F-163.2537196812318
tp783
I1238
I671
tp784
a((g1
(g2
(I0
tp785
g4
tp786
Rp787
(I1
(I1
I1
tp788
g8
(S'f8'
p789
I0
I1
tp790
Rp791
(I3
S'<'
p792
NNNI-1
I-1
I0
tp793
bI00
S'\xfa\x14\x84\xd4o\xdf\xb0?'
p794
tp795
bg1
(g2
(I0
tp796
g4
tp797
Rp798
(I1
(I1
I1
tp799
g791
I00
S'\x1e\x7f\xad\xaf46\xb2?'
p800
tp801
bg1
(g2
(I0
tp802
g4
tp803
Rp804
(I1
(I1
I1
tp805
g791
I00
S'\x03\xcc\x8e\x9a\x82\x8f\xc5\xbf'
p806
tp807
btp808
(F-0.014705213765263191
F-20.121700652214702
F-161.8313170919547
tp809
I610
I729
tp810
a((g1
(g2
(I0
tp811
g4
tp812
Rp813
(I1
(I1
I1
tp814
g8
(S'f8'
p815
I0
I1
tp816
Rp817
(I3
S'<'
p818
NNNI-1
I-1
I0
tp819
bI00
S'\x17\x00\xde \xe2\x10\xaa?'
p820
tp821
bg1
(g2
(I0
tp822
g4
tp823
Rp824
(I1
(I1
I1
tp825
g817
I00
S'\x83\x1a\xdb\xf7\xe5\xe4\xb1?'
p826
tp827
bg1
(g2
(I0
tp828
g4
tp829
Rp830
(I1
(I1
I1
tp831
g817
I00
S'\xc5T\xad\xdf1;\xc5\xbf'
p832
tp833
btp834
(F-0.022158620929839806
F-15.584969291741345
F-161.19540294525842
tp835
I790
I738
tp836
a((g1
(g2
(I0
tp837
g4
tp838
Rp839
(I1
(I1
I1
tp840
g8
(S'f8'
p841
I0
I1
tp842
Rp843
(I3
S'<'
p844
NNNI-1
I-1
I0
tp845
bI00
S'\xf5\xa9\xfe\x82\x81\xc3\xa2?'
p846
tp847
bg1
(g2
(I0
tp848
g4
tp849
Rp850
(I1
(I1
I1
tp851
g843
I00
S'YM\xf4l\x98u\xb1?'
p852
tp853
bg1
(g2
(I0
tp854
g4
tp855
Rp856
(I1
(I1
I1
tp857
g843
I00
S'\x9c\xb5\xc9>\x11\xee\xc4\xbf'
p858
tp859
btp860
(F0.11694443141716139
F-11.21857911836816
F-161.0305668685115
tp861
I968
I746
tp862
a((g1
(g2
(I0
tp863
g4
tp864
Rp865
(I1
(I1
I1
tp866
g8
(S'f8'
p867
I0
I1
tp868
Rp869
(I3
S'<'
p870
NNNI-1
I-1
I0
tp871
bI00
S'3\xdfOnD9\x95?'
p872
tp873
bg1
(g2
(I0
tp874
g4
tp875
Rp876
(I1
(I1
I1
tp877
g869
I00
S'8\x9a\x9dZ\xa9E\xb1?'
p878
tp879
bg1
(g2
(I0
tp880
g4
tp881
Rp882
(I1
(I1
I1
tp883
g869
I00
S':\xd0\xaf\xf7I\xbc\xc4\xbf'
p884
tp885
btp886
(F-0.09451741161138223
F-6.103445826279673
F-160.9813684848014
tp887
I1145
I755
tp888
a((g1
(g2
(I0
tp889
g4
tp890
Rp891
(I1
(I1
I1
tp892
g8
(S'f8'
p893
I0
I1
tp894
Rp895
(I3
S'<'
p896
NNNI-1
I-1
I0
tp897
bI00
S'\xc8e\x8b\xdde\xa5w?'
p898
tp899
bg1
(g2
(I0
tp900
g4
tp901
Rp902
(I1
(I1
I1
tp903
g895
I00
S'\xc3N\xc19\xf8\xe7\xb0?'
p904
tp905
bg1
(g2
(I0
tp906
g4
tp907
Rp908
(I1
(I1
I1
tp909
g895
I00
S'\xbdt@\xefn\x89\xc4\xbf'
p910
tp911
btp912
(F-0.07963338901056789
F-0.8971049832535865
F-161.11398814909927
tp913
I1321
I763
tp914
a.