(lp0
((cnumpy.core.multiarray
_reconstruct
p1
(cnumpy.matrixlib.defmatrix
matrix
p2
(I0
tp3
S'b'
p4
tp5
Rp6
(I1
(I1
I1
tp7
cnumpy
dtype
p8
(S'f8'
p9
I0
I1
tp10
Rp11
(I3
S'<'
p12
NNNI-1
I-1
I0
tp13
bI00
S':\x80j\x1d\x04\x8a\xb0?'
p14
tp15
bg1
(g2
(I0
tp16
g4
tp17
Rp18
(I1
(I1
I1
tp19
g11
I00
S'\x1d=W^Z\xdd\x91?'
p20
tp21
bg1
(g2
(I0
tp22
g4
tp23
Rp24
(I1
(I1
I1
tp25
g11
I00
S's\x0b\xd7\x1d\xae\xc5\xc5\xbf'
p26
tp27
btp28
(F81.5685497637671
F16.015890150503353
F173.0497264992891
tp29
I800
I99
tp30
a((g1
(g2
(I0
tp31
g4
tp32
Rp33
(I1
(I1
I1
tp34
g8
(S'f8'
p35
I0
I1
tp36
Rp37
(I3
S'<'
p38
NNNI-1
I-1
I0
tp39
bI00
S'\xb4t\xe9i\xc4\x95\xa9?'
p40
tp41
bg1
(g2
(I0
tp42
g4
tp43
Rp44
(I1
(I1
I1
tp45
g37
I00
S'\xe3[\xf6jY\r\x90?'
p46
tp47
bg1
(g2
(I0
tp48
g4
tp49
Rp50
(I1
(I1
I1
tp51
g37
I00
S'\x85\xad\xec\x94\xd3v\xc5\xbf'
p52
tp53
btp54
(F82.49766496320554
F16.83424990146391
F177.51625405563402
tp55
I978
I109
tp56
a((g1
(g2
(I0
tp57
g4
tp58
Rp59
(I1
(I1
I1
tp60
g8
(S'f8'
p61
I0
I1
tp62
Rp63
(I3
S'<'
p64
NNNI-1
I-1
I0
tp65
bI00
S'\xa0\x92M\xbdes\xa1?'
p66
tp67
bg1
(g2
(I0
tp68
g4
tp69
Rp70
(I1
(I1
I1
tp71
g63
I00
S'vqP\xc5\xe0M\x8d?'
p72
tp73
bg1
(g2
(I0
tp74
g4
tp75
Rp76
(I1
(I1
I1
tp77
g63
I00
S"f'\x96\xce\x9dH\xc5\xbf"
p78
tp79
btp80
(F84.02831516360467
F17.681467769255068
F-177.3476192183545
tp81
I1154
I118
tp82
a((g1
(g2
(I0
tp83
g4
tp84
Rp85
(I1
(I1
I1
tp86
g8
(S'f8'
p87
I0
I1
tp88
Rp89
(I3
S'<'
p90
NNNI-1
I-1
I0
tp91
bI00
S'\x7f\xb2\xfd6\x85\x8f\xb2?'
p92
tp93
bg1
(g2
(I0
tp94
g4
tp95
Rp96
(I1
(I1
I1
tp97
g89
I00
S'rmmy#\x8e\x9a?'
p98
tp99
bg1
(g2
(I0
tp100
g4
tp101
Rp102
(I1
(I1
I1
tp103
g89
I00
S'\xea\x0eIdw\xcc\xc5\xbf'
p104
tp105
btp106
(F80.10948996293092
F12.652544469495028
F171.63265684700298
tp107
I705
I183
tp108
a((g1
(g2
(I0
tp109
g4
tp110
Rp111
(I1
(I1
I1
tp112
g8
(S'f8'
p113
I0
I1
tp114
Rp115
(I3
S'<'
p116
NNNI-1
I-1
I0
tp117
bI00
S'\x91\xc8\x8eC\x98\xd0\xac?'
p118
tp119
bg1
(g2
(I0
tp120
g4
tp121
Rp122
(I1
(I1
I1
tp123
g115
I00
S'\xad\x12r\x88\xa3\xf6\x98?'
p124
tp125
bg1
(g2
(I0
tp126
g4
tp127
Rp128
(I1
(I1
I1
tp129
g115
I00
S'\xcb:\xd2B\xc1\x9b\xc5\xbf'
p130
tp131
btp132
(F82.01888267428544
F13.823299910450885
F176.11181047801466
tp133
I885
I194
tp134
a((g1
(g2
(I0
tp135
g4
tp136
Rp137
(I1
(I1
I1
tp138
g8
(S'f8'
p139
I0
I1
tp140
Rp141
(I3
S'<'
p142
NNNI-1
I-1
I0
tp143
bI00
S'\xecn&pX\xcd\xa4?'
p144
tp145
bg1
(g2
(I0
tp146
g4
tp147
Rp148
(I1
(I1
I1
tp149
g141
I00
S'd\xc9\x12\x0fL*\x97?'
p150
tp151
bg1
(g2
(I0
tp152
g4
tp153
Rp154
(I1
(I1
I1
tp155
g141
I00
S'\xfc=m\xff\xeec\xc5\xbf'
p156
tp157
btp158
(F84.03256496733529
F14.910574998365622
F-179.20161043434612
tp159
I1062
I203
tp160
a((g1
(g2
(I0
tp161
g4
tp162
Rp163
(I1
(I1
I1
tp164
g8
(S'f8'
p165
I0
I1
tp166
Rp167
(I3
S'<'
p168
NNNI-1
I-1
I0
tp169
bI00
S'!\xdd\x14\xf6\xd4\xa8\x9a?'
p170
tp171
bg1
(g2
(I0
tp172
g4
tp173
Rp174
(I1
(I1
I1
tp175
g167
I00
S'o[\\\xb7\t1\x96?'
p176
tp177
bg1
(g2
(I0
tp178
g4
tp179
Rp180
(I1
(I1
I1
tp181
g167
I00
S'\r.u\xeb\x88%\xc5\xbf'
p182
tp183
btp184
(F82.97602179448491
F15.092046457826854
F-174.00700465196888
tp185
I1240
I212
tp186
a((g1
(g2
(I0
tp187
g4
tp188
Rp189
(I1
(I1
I1
tp190
g8
(S'f8'
p191
I0
I1
tp192
Rp193
(I3
S'<'
p194
NNNI-1
I-1
I0
tp195
bI00
S'F\x0e5\x94\x9f\xe8\x84?'
p196
tp197
bg1
(g2
(I0
tp198
g4
tp199
Rp200
(I1
(I1
I1
tp201
g193
I00
S'\x80\x8eH)\x1e\x97\x94?'
p202
tp203
bg1
(g2
(I0
tp204
g4
tp205
Rp206
(I1
(I1
I1
tp207
g193
I00
S'M;8\xc9\xfb\x01\xc5\xbf'
p208
tp209
btp210
(F85.74259947988385
F16.147235254285757
F-168.67526742775624
tp211
I1415
I220
tp212
a((g1
(g2
(I0
tp213
g4
tp214
Rp215
(I1
(I1
I1
tp216
g8
(S'f8'
p217
I0
I1
tp218
Rp219
(I3
S'<'
p220
NNNI-1
I-1
I0
tp221
bI00
S'z\xe0\xac9bE\xb0?'
p222
tp223
bg1
(g2
(I0
tp224
g4
tp225
Rp226
(I1
(I1
I1
tp227
g219
I00
S'4xk\xa0\x1c\xf3\xa0?'
p228
tp229
bg1
(g2
(I0
tp230
g4
tp231
Rp232
(I1
(I1
I1
tp233
g219
I00
S'\xa0\xba9ID\xab\xc5\xbf'
p234
tp235
btp236
(F81.76327277949203
F10.923603210998502
F174.43178516671946
tp237
I792
I277
tp238
a((g1
(g2
(I0
tp239
g4
tp240
Rp241
(I1
(I1
I1
tp242
g8
(S'f8'
p243
I0
I1
tp244
Rp245
(I3
S'<'
p246
NNNI-1
I-1
I0
tp247
bI00
S'\x86\x7f9\x0eY7\xa8?'
p248
tp249
bg1
(g2
(I0
tp250
g4
tp251
Rp252
(I1
(I1
I1
tp253
g245
I00
S'X\x18\x9c\xac\xa64\xa0?'
p254
tp255
bg1
(g2
(I0
tp256
g4
tp257
Rp258
(I1
(I1
I1
tp259
g245
I00
S'Bbj[]\x8b\xc5\xbf'
p260
tp261
btp262
(F80.96292012343797
F11.192449019736756
F179.71757936578229
tp263
I970
I286
tp264
a((g1
(g2
(I0
tp265
g4
tp266
Rp267
(I1
(I1
I1
tp268
g8
(S'f8'
p269
I0
I1
tp270
Rp271
(I3
S'<'
p272
NNNI-1
I-1
I0
tp273
bI00
S'\x18\xa0\xca\xc2Z\x90\xa0?'
p274
tp275
bg1
(g2
(I0
tp276
g4
tp277
Rp278
(I1
(I1
I1
tp279
g271
I00
S'5vk\x07\x9e\x83\x9e?'
p280
tp281
bg1
(g2
(I0
tp282
g4
tp283
Rp284
(I1
(I1
I1
tp285
g271
I00
S'\xc7a\xa0\xb6\x05F\xc5\xbf'
p286
tp287
btp288
(F83.36501238419572
F12.413089205977249
F-175.93556814824953
tp289
I1147
I296
tp290
a((g1
(g2
(I0
tp291
g4
tp292
Rp293
(I1
(I1
I1
tp294
g8
(S'f8'
p295
I0
I1
tp296
Rp297
(I3
S'<'
p298
NNNI-1
I-1
I0
tp299
bI00
S'\xe4f\xccC\xebk\x91?'
p300
tp301
bg1
(g2
(I0
tp302
g4
tp303
Rp304
(I1
(I1
I1
tp305
g297
I00
S'n\x85\xf5\x8f/\xfb\x9c?'
p306
tp307
bg1
(g2
(I0
tp308
g4
tp309
Rp310
(I1
(I1
I1
tp311
g297
I00
S'xZ\xa4\xccT\x08\xc5\xbf'
p312
tp313
btp314
(F85.3441757233217
F13.24914867550154
F-170.8711551270603
tp315
I1323
I304
tp316
a((g1
(g2
(I0
tp317
g4
tp318
Rp319
(I1
(I1
I1
tp320
g8
(S'f8'
p321
I0
I1
tp322
Rp323
(I3
S'<'
p324
NNNI-1
I-1
I0
tp325
bI00
S'`\x88%\xc7\n7\xb2?'
p326
tp327
bg1
(g2
(I0
tp328
g4
tp329
Rp330
(I1
(I1
I1
tp331
g323
I00
S'\xf3iI\xd6\xb4#\xa5?'
p332
tp333
bg1
(g2
(I0
tp334
g4
tp335
Rp336
(I1
(I1
I1
tp337
g323
I00
S'J~V>\xc0\xbb\xc5\xbf'
p338
tp339
btp340
(F82.9263946344744
F8.845655222662328
F172.37826017260235
tp341
I697
I361
tp342
a((g1
(g2
(I0
tp343
g4
tp344
Rp345
(I1
(I1
I1
tp346
g8
(S'f8'
p347
I0
I1
tp348
Rp349
(I3
S'<'
p350
NNNI-1
I-1
I0
tp351
bI00
S'sn\xbe\xc3\x1e\xcf\xab?'
p352
tp353
bg1
(g2
(I0
tp354
g4
tp355
Rp356
(I1
(I1
I1
tp357
g349
I00
S'\xdfl\x97\xc2\x84B\xa4?'
p358
tp359
bg1
(g2
(I0
tp360
g4
tp361
Rp362
(I1
(I1
I1
tp363
g349
I00
S'4P\xc2^\r\x98\xc5\xbf'
p364
tp365
btp366
(F84.70935224488832
F9.744312241694956
F176.97795060141533
tp367
I877
I370
tp368
a((g1
(g2
(I0
tp369
g4
tp370
Rp371
(I1
(I1
I1
tp372
g8
(S'f8'
p373
I0
I1
tp374
Rp375
(I3
S'<'
p376
NNNI-1
I-1
I0
tp377
bI00
S'\x0c\xa8\xff\xcc\x8c9\xa4?'
p378
tp379
bg1
(g2
(I0
tp380
g4
tp381
Rp382
(I1
(I1
I1
tp383
g375
I00
S'#\xcd\x93\x17\xff\x97\xa3?'
p384
tp385
bg1
(g2
(I0
tp386
g4
tp387
Rp388
(I1
(I1
I1
tp389
g375
I00
S'\xe1\xe5!\x06\x01Z\xc5\xbf'
p390
tp391
btp392
(F84.41405032720972
F9.837736672486312
F-178.17006373066215
tp393
I1054
I379
tp394
a((g1
(g2
(I0
tp395
g4
tp396
Rp397
(I1
(I1
I1
tp398
g8
(S'f8'
p399
I0
I1
tp400
Rp401
(I3
S'<'
p402
NNNI-1
I-1
I0
tp403
bI00
S'\xb0\xcd\xdb\x8am\x98\x98?'
p404
tp405
bg1
(g2
(I0
tp406
g4
tp407
Rp408
(I1
(I1
I1
tp409
g401
I00
S'\xd4\xc0\xab+\xb8\xb7\xa2?'
p410
tp411
bg1
(g2
(I0
tp412
g4
tp413
Rp414
(I1
(I1
I1
tp415
g401
I00
S'\x81}!-\x99\x1f\xc5\xbf'
p416
tp417
btp418
(F84.93111443466714
F10.440893203321593
F-172.9949356635148
tp419
I1231
I387
tp420
a((g1
(g2
(I0
tp421
g4
tp422
Rp423
(I1
(I1
I1
tp424
g8
(S'f8'
p425
I0
I1
tp426
Rp427
(I3
S'<'
p428
NNNI-1
I-1
I0
tp429
bI00
S'y\xe1V\xeb.j\x82?'
p430
tp431
bg1
(g2
(I0
tp432
g4
tp433
Rp434
(I1
(I1
I1
tp435
g427
I00
S'\t\xc8\x07|)\x08\xa2?'
p436
tp437
bg1
(g2
(I0
tp438
g4
tp439
Rp440
(I1
(I1
I1
tp441
g427
I00
S'\xdd*C\x1a\xd0\xe9\xc4\xbf'
p442
tp443
btp444
(F86.4594567315058
F11.082897158966832
F-167.9009489518357
tp445
I1406
I395
tp446
a((g1
(g2
(I0
tp447
g4
tp448
Rp449
(I1
(I1
I1
tp450
g8
(S'f8'
p451
I0
I1
tp452
Rp453
(I3
S'<'
p454
NNNI-1
I-1
I0
tp455
bI00
S'q\xc3\x14\xf8\x8d\x06\xb0?'
p456
tp457
bg1
(g2
(I0
tp458
g4
tp459
Rp460
(I1
(I1
I1
tp461
g453
I00
S'\x12d\xb2 \xc4\xcf\xa8?'
p462
tp463
bg1
(g2
(I0
tp464
g4
tp465
Rp466
(I1
(I1
I1
tp467
g453
I00
S'}\x1c\x8d\xb1\x86\x9a\xc5\xbf'
p468
tp469
btp470
(F82.59833747212134
F6.328245782797689
F175.56459031067905
tp471
I783
I454
tp472
a((g1
(g2
(I0
tp473
g4
tp474
Rp475
(I1
(I1
I1
tp476
g8
(S'f8'
p477
I0
I1
tp478
Rp479
(I3
S'<'
p480
NNNI-1
I-1
I0
tp481
bI00
S'\\$!t \xdb\xa7?'
p482
tp483
bg1
(g2
(I0
tp484
g4
tp485
Rp486
(I1
(I1
I1
tp487
g479
I00
S'\xc4\xc5t\n\x00\xb8\xa7?'
p488
tp489
bg1
(g2
(I0
tp490
g4
tp491
Rp492
(I1
(I1
I1
tp493
g479
I00
S'\x04\n\xfbq\x0cr\xc5\xbf'
p494
tp495
btp496
(F84.5504900438506
F7.410537738480995
F179.87826121612687
tp497
I962
I462
tp498
a((g1
(g2
(I0
tp499
g4
tp500
Rp501
(I1
(I1
I1
tp502
g8
(S'f8'
p503
I0
I1
tp504
Rp505
(I3
S'<'
p506
NNNI-1
I-1
I0
tp507
bI00
S'\x8e\xe8v\xc0"\x18\xa0?'
p508
tp509
bg1
(g2
(I0
tp510
g4
tp511
Rp512
(I1
(I1
I1
tp513
g505
I00
S'u\xc1S\x9f:\xf6\xa6?'
p514
tp515
bg1
(g2
(I0
tp516
g4
tp517
Rp518
(I1
(I1
I1
tp519
g505
I00
S'\x90\x97\x9a\x12\xa89\xc5\xbf'
p520
tp521
btp522
(F84.97519718088041
F7.794301746732965
F-175.23869398120362
tp523
I1139
I471
tp524
a((g1
(g2
(I0
tp525
g4
tp526
Rp527
(I1
(I1
I1
tp528
g8
(S'f8'
p529
I0
I1
tp530
Rp531
(I3
S'<'
p532
NNNI-1
I-1
I0
tp533
bI00
S'e\xf5-o\xf6\x0c\x90?'
p534
tp535
bg1
(g2
(I0
tp536
g4
tp537
Rp538
(I1
(I1
I1
tp539
g531
I00
S'\x17c\xb8\xce\xc8\xa2\xa6?'
p540
tp541
bg1
(g2
(I0
tp542
g4
tp543
Rp544
(I1
(I1
I1
tp545
g531
I00
S'\x1fe\xab\xd3\x9f\xfe\xc4\xbf'
p546
tp547
btp548
(F86.03224281999364
F8.064032872150577
F-170.04093710094347
tp549
I1315
I478
tp550
a((g1
(g2
(I0
tp551
g4
tp552
Rp553
(I1
(I1
I1
tp554
g8
(S'f8'
p555
I0
I1
tp556
Rp557
(I3
S'<'
p558
NNNI-1
I-1
I0
tp559
bI00
S'b)/#\xe9\xeb\xb1?'
p560
tp561
bg1
(g2
(I0
tp562
g4
tp563
Rp564
(I1
(I1
I1
tp565
g557
I00
S'D\xab\xf9\xe3">\xad?'
p566
tp567
bg1
(g2
(I0
tp568
g4
tp569
Rp570
(I1
(I1
I1
tp571
g557
I00
S'\x88{$\x1ew\xb5\xc5\xbf'
p572
tp573
btp574
(F84.70372396197773
F4.665838633696564
F173.19050128926202
tp575
I689
I539
tp576
a((g1
(g2
(I0
tp577
g4
tp578
Rp579
(I1
(I1
I1
tp580
g8
(S'f8'
p581
I0
I1
tp582
Rp583
(I3
S'<'
p584
NNNI-1
I-1
I0
tp585
bI00
S'>\x9b?L\xd9\x83\xab?'
p586
tp587
bg1
(g2
(I0
tp588
g4
tp589
Rp590
(I1
(I1
I1
tp591
g583
I00
S'\xbe\xc4 \xc6\x04V\xac?'
p592
tp593
bg1
(g2
(I0
tp594
g4
tp595
Rp596
(I1
(I1
I1
tp597
g583
I00
S'Q\xf2\xa3\xccU\x80\xc5\xbf'
p598
tp599
btp600
(F84.96161033098868
F4.841074062747296
F177.9455821363117
tp601
I869
I547
tp602
a((g1
(g2
(I0
tp603
g4
tp604
Rp605
(I1
(I1
I1
tp606
g8
(S'f8'
p607
I0
I1
tp608
Rp609
(I3
S'<'
p610
NNNI-1
I-1
I0
tp611
bI00
S'#$\x81\xfb{\xb6\xa3?'
p612
tp613
bg1
(g2
(I0
tp614
g4
tp615
Rp616
(I1
(I1
I1
tp617
g609
I00
S'\\\xb1\xca\x03Il\xab?'
p618
tp619
bg1
(g2
(I0
tp620
g4
tp621
Rp622
(I1
(I1
I1
tp623
g609
I00
S'iX\x80\x97\x1b`\xc5\xbf'
p624
tp625
btp626
(F85.97756880329743
F5.385477122079325
F-177.57438079891043
tp627
I1046
I554
tp628
a((g1
(g2
(I0
tp629
g4
tp630
Rp631
(I1
(I1
I1
tp632
g8
(S'f8'
p633
I0
I1
tp634
Rp635
(I3
S'<'
p636
NNNI-1
I-1
I0
tp637
bI00
S'b\xf6q\x1fqc\x97?'
p638
tp639
bg1
(g2
(I0
tp640
g4
tp641
Rp642
(I1
(I1
I1
tp643
g635
I00
S'l2\xfdU*\x95\xaa?'
p644
tp645
bg1
(g2
(I0
tp646
g4
tp647
Rp648
(I1
(I1
I1
tp649
g635
I00
S'\xb4\xa2/\xe2W-\xc5\xbf'
p650
tp651
btp652
(F87.93935015696101
F5.971059735079651
F-172.91367040746462
tp653
I1223
I562
tp654
a((g1
(g2
(I0
tp655
g4
tp656
Rp657
(I1
(I1
I1
tp658
g8
(S'f8'
p659
I0
I1
tp660
Rp661
(I3
S'<'
p662
NNNI-1
I-1
I0
tp663
bI00
S'\x96\xf3\x00i\x8fR~?'
p664
tp665
bg1
(g2
(I0
tp666
g4
tp667
Rp668
(I1
(I1
I1
tp669
g661
I00
S'pGN\xdd\xaf\xea\xa9?'
p670
tp671
bg1
(g2
(I0
tp672
g4
tp673
Rp674
(I1
(I1
I1
tp675
g661
I00
S'\x8d.\x08"\x11\xf1\xc4\xbf'
p676
tp677
btp678
(F87.49367776035821
F6.167457718177487
F-167.2817868613817
tp679
I1398
I569
tp680
a((g1
(g2
(I0
tp681
g4
tp682
Rp683
(I1
(I1
I1
tp684
g8
(S'f8'
p685
I0
I1
tp686
Rp687
(I3
S'<'
p688
NNNI-1
I-1
I0
tp689
bI00
S'\xad\xbe\xfd!\xf9\x11\xaf?'
p690
tp691
bg1
(g2
(I0
tp692
g4
tp693
Rp694
(I1
(I1
I1
tp695
g687
I00
S'\xe8f&\xb73s\xb0?'
p696
tp697
bg1
(g2
(I0
tp698
g4
tp699
Rp700
(I1
(I1
I1
tp701
g687
I00
S'\xc7\xa1\xad\x8a@\x9f\xc5\xbf'
p702
tp703
btp704
(F87.91237629166227
F3.3771216752765034
F175.15070164294843
tp705
I775
I632
tp706
a((g1
(g2
(I0
tp707
g4
tp708
Rp709
(I1
(I1
I1
tp710
g8
(S'f8'
p711
I0
I1
tp712
Rp713
(I3
S'<'
p714
NNNI-1
I-1
I0
tp715
bI00
S'\xe6D/N\x94\x17\xa7?'
p716
tp717
bg1
(g2
(I0
tp718
g4
tp719
Rp720
(I1
(I1
I1
tp721
g713
I00
S'\xaa0Z\xbb\xe5\x9d\xaf?'
p722
tp723
bg1
(g2
(I0
tp724
g4
tp725
Rp726
(I1
(I1
I1
tp727
g713
I00
S'N\xef\xa4O\xa6l\xc5\xbf'
p728
tp729
btp730
(F86.85912033799059
F3.2326303842316078
F-179.66055524966976
tp731
I954
I639
tp732
a((g1
(g2
(I0
tp733
g4
tp734
Rp735
(I1
(I1
I1
tp736
g8
(S'f8'
p737
I0
I1
tp738
Rp739
(I3
S'<'
p740
NNNI-1
I-1
I0
tp741
bI00
S'YA\x96\xff\x96v\x9e?'
p742
tp743
bg1
(g2
(I0
tp744
g4
tp745
Rp746
(I1
(I1
I1
tp747
g739
I00
S'\xf8Z~*\rV\xaf?'
p748
tp749
bg1
(g2
(I0
tp750
g4
tp751
Rp752
(I1
(I1
I1
tp753
g739
I00
S'\xb4ZQ\x91,0\xc5\xbf'
p754
tp755
btp756
(F88.06448985851007
F3.2143070928424535
F-175.1001406599391
tp757
I1131
I646
tp758
a((g1
(g2
(I0
tp759
g4
tp760
Rp761
(I1
(I1
I1
tp762
g8
(S'f8'
p763
I0
I1
tp764
Rp765
(I3
S'<'
p766
NNNI-1
I-1
I0
tp767
bI00
S'}\xcb\x96\xd6?Z\x8e?'
p768
tp769
bg1
(g2
(I0
tp770
g4
tp771
Rp772
(I1
(I1
I1
tp773
g765
I00
S'\xa6+\x16\xb6\xd9^\xae?'
p774
tp775
bg1
(g2
(I0
tp776
g4
tp777
Rp778
(I1
(I1
I1
tp779
g765
I00
S'0 \x83F\x06\x04\xc5\xbf'
p780
tp781
btp782
(F87.02746655202101
F3.4427850847107555
F-169.55376521093086
tp783
I1307
I653
tp784
a((g1
(g2
(I0
tp785
g4
tp786
Rp787
(I1
(I1
I1
tp788
g8
(S'f8'
p789
I0
I1
tp790
Rp791
(I3
S'<'
p792
NNNI-1
I-1
I0
tp793
bI00
S'\x17\x0b#S{k\xb1?'
p794
tp795
bg1
(g2
(I0
tp796
g4
tp797
Rp798
(I1
(I1
I1
tp799
g791
I00
S'c%<,Ez\xb2?'
p800
tp801
bg1
(g2
(I0
tp802
g4
tp803
Rp804
(I1
(I1
I1
tp805
g791
I00
S'\x94\x149\x81v\xd9\xc5\xbf'
p806
tp807
btp808
(F86.03619608440675
F0.7963286040470476
F174.2913597297501
tp809
I680
I717
tp810
a((g1
(g2
(I0
tp811
g4
tp812
Rp813
(I1
(I1
I1
tp814
g8
(S'f8'
p815
I0
I1
tp816
Rp817
(I3
S'<'
p818
NNNI-1
I-1
I0
tp819
bI00
S'\xd5\xe2\xb7\xca\x81\xb5\xaa?'
p820
tp821
bg1
(g2
(I0
tp822
g4
tp823
Rp824
(I1
(I1
I1
tp825
g817
I00
S'\xb0\x01\xfa~\x99$\xb2?'
p826
tp827
bg1
(g2
(I0
tp828
g4
tp829
Rp830
(I1
(I1
I1
tp831
g817
I00
S'`\x13\xa7\xd9\x8e\x7f\xc5\xbf'
p832
tp833
btp834
(F86.71148299575445
F0.7199044712118047
F178.58638320730674
tp835
I861
I724
tp836
a((g1
(g2
(I0
tp837
g4
tp838
Rp839
(I1
(I1
I1
tp840
g8
(S'f8'
p841
I0
I1
tp842
Rp843
(I3
S'<'
p844
NNNI-1
I-1
I0
tp845
bI00
S'\xcab\xc8\x8f\x99\x1f\xa3?'
p846
tp847
bg1
(g2
(I0
tp848
g4
tp849
Rp850
(I1
(I1
I1
tp851
g843
I00
S'I\xe7\xb8`\xb5\xb6\xb1?'
p852
tp853
bg1
(g2
(I0
tp854
g4
tp855
Rp856
(I1
(I1
I1
tp857
g843
I00
S'\x08\xfc\xa2,\x9dM\xc5\xbf'
p858
tp859
btp860
(F87.16682562202006
F0.9052799847248914
F-176.9281461542407
tp861
I1038
I731
tp862
a((g1
(g2
(I0
tp863
g4
tp864
Rp865
(I1
(I1
I1
tp866
g8
(S'f8'
p867
I0
I1
tp868
Rp869
(I3
S'<'
p870
NNNI-1
I-1
I0
tp871
bI00
S'\x8a\x99q~\x8cc\x96?'
p872
tp873
bg1
(g2
(I0
tp874
g4
tp875
Rp876
(I1
(I1
I1
tp877
g869
I00
S'>IF2L_\xb1?'
p878
tp879
bg1
(g2
(I0
tp880
g4
tp881
Rp882
(I1
(I1
I1
tp883
g869
I00
S'z\xa1\\kT\x18\xc5\xbf'
p884
tp885
btp886
(F88.49414468945548
F1.1370553446703715
F-172.37090819559893
tp887
I1215
I738
tp888
a((g1
(g2
(I0
tp889
g4
tp890
Rp891
(I1
(I1
I1
tp892
g8
(S'f8'
p893
I0
I1
tp894
Rp895
(I3
S'<'
p896
NNNI-1
I-1
I0
tp897
bI00
S'8\x01d\x89\xddKw?'
p898
tp899
bg1
(g2
(I0
tp900
g4
tp901
Rp902
(I1
(I1
I1
tp903
g895
I00
S'8\xe3\x97\x07\x9d\x0b\xb1?'
p904
tp905
bg1
(g2
(I0
tp906
g4
tp907
Rp908
(I1
(I1
I1
tp909
g895
I00
S'+\x06\xff\xe1c\xf1\xc4\xbf'
p910
tp911
btp912
(F87.67017431376759
F1.333077655200125
F-166.42927545203827
tp913
I1390
I744
tp914
a.