(lp0
((cnumpy.core.multiarray
_reconstruct
p1
(cnumpy.matrixlib.defmatrix
matrix
p2
(I0
tp3
S'b'
p4
tp5
Rp6
(I1
(I1
I1
tp7
cnumpy
dtype
p8
(S'f8'
p9
I0
I1
tp10
Rp11
(I3
S'<'
p12
NNNI-1
I-1
I0
tp13
bI00
S'D\xbb\xfd`}\xa8\xb0?'
p14
tp15
bg1
(g2
(I0
tp16
g4
tp17
Rp18
(I1
(I1
I1
tp19
g11
I00
S'_EJ\x83\x9e\xef\x91?'
p20
tp21
bg1
(g2
(I0
tp22
g4
tp23
Rp24
(I1
(I1
I1
tp25
g11
I00
S'U\xb0\xee\xf7\\\xb2\xc5\xbf'
p26
tp27
btp28
(F80.7528333534743
F13.701394909320578
F171.03114157080915
tp29
I726
I101
tp30
a((g1
(g2
(I0
tp31
g4
tp32
Rp33
(I1
(I1
I1
tp34
g8
(S'f8'
p35
I0
I1
tp36
Rp37
(I3
S'<'
p38
NNNI-1
I-1
I0
tp39
bI00
S'&\x8b^\xd5\xc0V\xa9?'
p40
tp41
bg1
(g2
(I0
tp42
g4
tp43
Rp44
(I1
(I1
I1
tp45
g37
I00
S'7\xd6+\xdfE\xe7\x8f?'
p46
tp47
bg1
(g2
(I0
tp48
g4
tp49
Rp50
(I1
(I1
I1
tp51
g37
I00
S'<\xb9Z;V\x88\xc5\xbf'
p52
tp53
btp54
(F84.37017651794652
F16.580193939911098
F176.12921978288142
tp55
I907
I111
tp56
a((g1
(g2
(I0
tp57
g4
tp58
Rp59
(I1
(I1
I1
tp60
g8
(S'f8'
p61
I0
I1
tp62
Rp63
(I3
S'<'
p64
NNNI-1
I-1
I0
tp65
bI00
S'r\xeb\xc6\x1c\x95\x1c\xa1?'
p66
tp67
bg1
(g2
(I0
tp68
g4
tp69
Rp70
(I1
(I1
I1
tp71
g63
I00
S'N\xc3\xe0\xa8f\xd2\x8d?'
p72
tp73
bg1
(g2
(I0
tp74
g4
tp75
Rp76
(I1
(I1
I1
tp77
g63
I00
S'X\xe1\x7f\xf0\x1cF\xc5\xbf'
p78
tp79
btp80
(F84.86534767432025
F17.161348390146717
F-178.3363872434052
tp81
I1085
I122
tp82
a((g1
(g2
(I0
tp83
g4
tp84
Rp85
(I1
(I1
I1
tp86
g8
(S'f8'
p87
I0
I1
tp88
Rp89
(I3
S'<'
p90
NNNI-1
I-1
I0
tp91
bI00
S'\xaf\x98\xb8\xc2 l\xb2?'
p92
tp93
bg1
(g2
(I0
tp94
g4
tp95
Rp96
(I1
(I1
I1
tp97
g89
I00
S"\x9c\x14\xef\xb7'\xe5\x9a?"
p98
tp99
bg1
(g2
(I0
tp100
g4
tp101
Rp102
(I1
(I1
I1
tp103
g89
I00
S'\xa2\xfb\x96\x15#\xc4\xc5\xbf'
p104
tp105
btp106
(F82.43424381822724
F12.983034462139322
F170.56176089998957
tp107
I631
I187
tp108
a((g1
(g2
(I0
tp109
g4
tp110
Rp111
(I1
(I1
I1
tp112
g8
(S'f8'
p113
I0
I1
tp114
Rp115
(I3
S'<'
p116
NNNI-1
I-1
I0
tp117
bI00
S'\x9cV\xf4\xae\x93\x1d\xad?'
p118
tp119
bg1
(g2
(I0
tp120
g4
tp121
Rp122
(I1
(I1
I1
tp123
g115
I00
S'P&H\x8d08\x99?'
p124
tp125
bg1
(g2
(I0
tp126
g4
tp127
Rp128
(I1
(I1
I1
tp129
g115
I00
S'\xe8b\\\x90C\x98\xc5\xbf'
p130
tp131
btp132
(F82.30582114648197
F13.394368979016013
F175.30672579137496
tp133
I812
I196
tp134
a((g1
(g2
(I0
tp135
g4
tp136
Rp137
(I1
(I1
I1
tp138
g8
(S'f8'
p139
I0
I1
tp140
Rp141
(I3
S'<'
p142
NNNI-1
I-1
I0
tp143
bI00
S'\xfb\x1b\xa5\xc1\xda\x0b\xa5?'
p144
tp145
bg1
(g2
(I0
tp146
g4
tp147
Rp148
(I1
(I1
I1
tp149
g141
I00
S'\xecvU@\xe8\x05\x97?'
p150
tp151
bg1
(g2
(I0
tp152
g4
tp153
Rp154
(I1
(I1
I1
tp155
g141
I00
S'0\x0f\x10:\xd6q\xc5\xbf'
p156
tp157
btp158
(F83.3723422608791
F14.414317379223275
F-179.74878198221606
tp159
I991
I205
tp160
a((g1
(g2
(I0
tp161
g4
tp162
Rp163
(I1
(I1
I1
tp164
g8
(S'f8'
p165
I0
I1
tp166
Rp167
(I3
S'<'
p168
NNNI-1
I-1
I0
tp169
bI00
S'\x88\x895\x8e\xdc\xfd\x99?'
p170
tp171
bg1
(g2
(I0
tp172
g4
tp173
Rp174
(I1
(I1
I1
tp175
g167
I00
S'g\x96\xb5N\xc9\xbc\x95?'
p176
tp177
bg1
(g2
(I0
tp178
g4
tp179
Rp180
(I1
(I1
I1
tp181
g167
I00
S'vj\xa4\xb7\x19*\xc5\xbf'
p182
tp183
btp184
(F84.60962267570697
F15.137714482853934
F-174.3704853863887
tp185
I1169
I216
tp186
a((g1
(g2
(I0
tp187
g4
tp188
Rp189
(I1
(I1
I1
tp190
g8
(S'f8'
p191
I0
I1
tp192
Rp193
(I3
S'<'
p194
NNNI-1
I-1
I0
tp195
bI00
S'|\xa58\xd0N\xbd\x84?'
p196
tp197
bg1
(g2
(I0
tp198
g4
tp199
Rp200
(I1
(I1
I1
tp201
g193
I00
S'Y\xfc>H\xa0\x80\x94?'
p202
tp203
bg1
(g2
(I0
tp204
g4
tp205
Rp206
(I1
(I1
I1
tp207
g193
I00
S'\x8a\x82}+L\xfd\xc4\xbf'
p208
tp209
btp210
(F84.76166920136933
F15.768329256435171
F-168.77906046620402
tp211
I1345
I226
tp212
a((g1
(g2
(I0
tp213
g4
tp214
Rp215
(I1
(I1
I1
tp216
g8
(S'f8'
p217
I0
I1
tp218
Rp219
(I3
S'<'
p220
NNNI-1
I-1
I0
tp221
bI00
S'\xed\x9b?\xf6s4\xb0?'
p222
tp223
bg1
(g2
(I0
tp224
g4
tp225
Rp226
(I1
(I1
I1
tp227
g219
I00
S'\xdc\x13\xe7s.\xfd\xa0?'
p228
tp229
bg1
(g2
(I0
tp230
g4
tp231
Rp232
(I1
(I1
I1
tp233
g219
I00
S'\xe6\xa3M=@\xad\xc5\xbf'
p234
tp235
btp236
(F82.35051281738257
F10.779664362054902
F174.18146325059016
tp237
I717
I281
tp238
a((g1
(g2
(I0
tp239
g4
tp240
Rp241
(I1
(I1
I1
tp242
g8
(S'f8'
p243
I0
I1
tp244
Rp245
(I3
S'<'
p246
NNNI-1
I-1
I0
tp247
bI00
S'\x93>\xa7B)\xd3\xa8?'
p248
tp249
bg1
(g2
(I0
tp250
g4
tp251
Rp252
(I1
(I1
I1
tp253
g245
I00
S'$7c\xe6\xf8&\xa0?'
p254
tp255
bg1
(g2
(I0
tp256
g4
tp257
Rp258
(I1
(I1
I1
tp259
g245
I00
S'\xe9\xb6_,\x1cj\xc5\xbf'
p260
tp261
btp262
(F82.79814241533977
F11.3400621445741
F178.6890873688752
tp263
I898
I289
tp264
a((g1
(g2
(I0
tp265
g4
tp266
Rp267
(I1
(I1
I1
tp268
g8
(S'f8'
p269
I0
I1
tp270
Rp271
(I3
S'<'
p272
NNNI-1
I-1
I0
tp273
bI00
S'l\x97E\x81\\\xd2\xa0?'
p274
tp275
bg1
(g2
(I0
tp276
g4
tp277
Rp278
(I1
(I1
I1
tp279
g271
I00
S'c4\xea\x16\xf7\x9d\x9e?'
p280
tp281
bg1
(g2
(I0
tp282
g4
tp283
Rp284
(I1
(I1
I1
tp285
g271
I00
S'+\xaa\x9aE\xbb=\xc5\xbf'
p286
tp287
btp288
(F84.30986092066786
F12.22021321468771
F-176.4373041952549
tp289
I1076
I299
tp290
a((g1
(g2
(I0
tp291
g4
tp292
Rp293
(I1
(I1
I1
tp294
g8
(S'f8'
p295
I0
I1
tp296
Rp297
(I3
S'<'
p298
NNNI-1
I-1
I0
tp299
bI00
S'\xd9\xfe\xcfH\xfa\x8d\x91?'
p300
tp301
bg1
(g2
(I0
tp302
g4
tp303
Rp304
(I1
(I1
I1
tp305
g297
I00
S'\x7f\xaa%AZ8\x9d?'
p306
tp307
bg1
(g2
(I0
tp308
g4
tp309
Rp310
(I1
(I1
I1
tp311
g297
I00
S'\xe0HH\xd1o\x01\xc5\xbf'
p312
tp313
btp314
(F83.94220461016126
F12.757051832031447
F-170.77766548777927
tp315
I1252
I308
tp316
a((g1
(g2
(I0
tp317
g4
tp318
Rp319
(I1
(I1
I1
tp320
g8
(S'f8'
p321
I0
I1
tp322
Rp323
(I3
S'<'
p324
NNNI-1
I-1
I0
tp325
bI00
S"X\xf3\x1e'\xa5$\xb2?"
p326
tp327
bg1
(g2
(I0
tp328
g4
tp329
Rp330
(I1
(I1
I1
tp331
g323
I00
S'\x85S~\x1b|&\xa5?'
p332
tp333
bg1
(g2
(I0
tp334
g4
tp335
Rp336
(I1
(I1
I1
tp337
g323
I00
S'\xd0\x14\x8b\xdd\x9e\xb8\xc5\xbf'
p338
tp339
btp340
(F81.14048536336777
F7.8923688395986105
F173.01368929436003
tp341
I623
I366
tp342
a((g1
(g2
(I0
tp343
g4
tp344
Rp345
(I1
(I1
I1
tp346
g8
(S'f8'
p347
I0
I1
tp348
Rp349
(I3
S'<'
p350
NNNI-1
I-1
I0
tp351
bI00
S'\xd5&B\xb3Fz\xac?'
p352
tp353
bg1
(g2
(I0
tp354
g4
tp355
Rp356
(I1
(I1
I1
tp357
g349
I00
S'\xa4\x18\x9a\x89[]\xa4?'
p358
tp359
bg1
(g2
(I0
tp360
g4
tp361
Rp362
(I1
(I1
I1
tp363
g349
I00
S'\xf2\xba\xcb\xa8\x87\x86\xc5\xbf'
p364
tp365
btp366
(F84.11356586061757
F9.218470682636305
F176.57841044553857
tp367
I803
I374
tp368
a((g1
(g2
(I0
tp369
g4
tp370
Rp371
(I1
(I1
I1
tp372
g8
(S'f8'
p373
I0
I1
tp374
Rp375
(I3
S'<'
p376
NNNI-1
I-1
I0
tp377
bI00
S'\xf3t\xce\xfd?&\xa4?'
p378
tp379
bg1
(g2
(I0
tp380
g4
tp381
Rp382
(I1
(I1
I1
tp383
g375
I00
S'\x90\x0f,*\xf0\xb8\xa3?'
p384
tp385
bg1
(g2
(I0
tp386
g4
tp387
Rp388
(I1
(I1
I1
tp389
g375
I00
S'\xc8[+s2_\xc5\xbf'
p390
tp391
btp392
(F83.53307669922366
F9.354393865943116
F-177.97086101299186
tp393
I983
I383
tp394
a((g1
(g2
(I0
tp395
g4
tp396
Rp397
(I1
(I1
I1
tp398
g8
(S'f8'
p399
I0
I1
tp400
Rp401
(I3
S'<'
p402
NNNI-1
I-1
I0
tp403
bI00
S'\x84[\xfb\xbf\xf4\xf5\x98?'
p404
tp405
bg1
(g2
(I0
tp406
g4
tp407
Rp408
(I1
(I1
I1
tp409
g401
I00
S'\xbf\xbe\xba\xd2\xf3\xda\xa2?'
p410
tp411
bg1
(g2
(I0
tp412
g4
tp413
Rp414
(I1
(I1
I1
tp415
g401
I00
S'd\xa1\x06\xe1\xe7\x12\xc5\xbf'
p416
tp417
btp418
(F85.72430222996825
F10.228645142873466
F-173.35063187025554
tp419
I1160
I392
tp420
a((g1
(g2
(I0
tp421
g4
tp422
Rp423
(I1
(I1
I1
tp424
g8
(S'f8'
p425
I0
I1
tp426
Rp427
(I3
S'<'
p428
NNNI-1
I-1
I0
tp429
bI00
S'\x81\xe0\xbc\x92?\xc9\x81?'
p430
tp431
bg1
(g2
(I0
tp432
g4
tp433
Rp434
(I1
(I1
I1
tp435
g427
I00
S'\x13\x94\xe6XT\x1c\xa2?'
p436
tp437
bg1
(g2
(I0
tp438
g4
tp439
Rp440
(I1
(I1
I1
tp441
g427
I00
S'\xe5.\xe8nI\xed\xc4\xbf'
p442
tp443
btp444
(F86.03492416265827
F10.8040058264339
F-167.9025800477273
tp445
I1335
I399
tp446
a((g1
(g2
(I0
tp447
g4
tp448
Rp449
(I1
(I1
I1
tp450
g8
(S'f8'
p451
I0
I1
tp452
Rp453
(I3
S'<'
p454
NNNI-1
I-1
I0
tp455
bI00
S'\x124\xc3n\xc7\x8d\xaf?'
p456
tp457
bg1
(g2
(I0
tp458
g4
tp459
Rp460
(I1
(I1
I1
tp461
g453
I00
S'HZ\xc9VB\xc7\xa8?'
p462
tp463
bg1
(g2
(I0
tp464
g4
tp465
Rp466
(I1
(I1
I1
tp467
g453
I00
S'>\x8e\x10\xb7\xb0\xb1\xc5\xbf'
p468
tp469
btp470
(F84.67851566276687
F6.9186815995478375
F175.1618224554614
tp471
I709
I459
tp472
a((g1
(g2
(I0
tp473
g4
tp474
Rp475
(I1
(I1
I1
tp476
g8
(S'f8'
p477
I0
I1
tp478
Rp479
(I3
S'<'
p480
NNNI-1
I-1
I0
tp481
bI00
S'\xd1\xcaQ\xa7\x84\xf6\xa7?'
p482
tp483
bg1
(g2
(I0
tp484
g4
tp485
Rp486
(I1
(I1
I1
tp487
g479
I00
S'k5\x8d\xf6V\xf5\xa7?'
p488
tp489
bg1
(g2
(I0
tp490
g4
tp491
Rp492
(I1
(I1
I1
tp493
g479
I00
S'\x9e\x1d\xa9\x803m\xc5\xbf'
p494
tp495
btp496
(F85.25816361437258
F7.212607949591407
F179.423408648261
tp497
I889
I467
tp498
a((g1
(g2
(I0
tp499
g4
tp500
Rp501
(I1
(I1
I1
tp502
g8
(S'f8'
p503
I0
I1
tp504
Rp505
(I3
S'<'
p506
NNNI-1
I-1
I0
tp507
bI00
S'v\xb58\xab\xb7\x0e\xa0?'
p508
tp509
bg1
(g2
(I0
tp510
g4
tp511
Rp512
(I1
(I1
I1
tp513
g505
I00
S'\x12\x87\x06r:\x1b\xa7?'
p514
tp515
bg1
(g2
(I0
tp516
g4
tp517
Rp518
(I1
(I1
I1
tp519
g505
I00
S'\n\xf7\x19\x18B=\xc5\xbf'
p520
tp521
btp522
(F86.01247455220455
F7.683223496787578
F-175.57525672478693
tp523
I1067
I476
tp524
a((g1
(g2
(I0
tp525
g4
tp526
Rp527
(I1
(I1
I1
tp528
g8
(S'f8'
p529
I0
I1
tp530
Rp531
(I3
S'<'
p532
NNNI-1
I-1
I0
tp533
bI00
S'cVM2\xb9R\x90?'
p534
tp535
bg1
(g2
(I0
tp536
g4
tp537
Rp538
(I1
(I1
I1
tp539
g531
I00
S'\xca\x8b\xaa\xa9\xb2w\xa6?'
p540
tp541
bg1
(g2
(I0
tp542
g4
tp543
Rp544
(I1
(I1
I1
tp545
g531
I00
S'I\xfa\x04l\x1b\x00\xc5\xbf'
p546
tp547
btp548
(F85.77898552148133
F7.971767781146414
F-170.19789203245062
tp549
I1244
I483
tp550
a((g1
(g2
(I0
tp551
g4
tp552
Rp553
(I1
(I1
I1
tp554
g8
(S'f8'
p555
I0
I1
tp556
Rp557
(I3
S'<'
p558
NNNI-1
I-1
I0
tp559
bI00
S'\t\xca\x89+T\xc0\xb1?'
p560
tp561
bg1
(g2
(I0
tp562
g4
tp563
Rp564
(I1
(I1
I1
tp565
g557
I00
S'\xfd\x85th\xac\xfa\xac?'
p566
tp567
bg1
(g2
(I0
tp568
g4
tp569
Rp570
(I1
(I1
I1
tp571
g557
I00
S'\r\x1b\xaa\xa4:\xc3\xc5\xbf'
p572
tp573
btp574
(F83.36073240961571
F4.0882690154302095
F173.87869082910726
tp575
I615
I544
tp576
a((g1
(g2
(I0
tp577
g4
tp578
Rp579
(I1
(I1
I1
tp580
g8
(S'f8'
p581
I0
I1
tp582
Rp583
(I3
S'<'
p584
NNNI-1
I-1
I0
tp585
bI00
S'u\xa7/.BS\xab?'
p586
tp587
bg1
(g2
(I0
tp588
g4
tp589
Rp590
(I1
(I1
I1
tp591
g583
I00
S'\xb9\xdb\xe0\x87\xad#\xac?'
p592
tp593
bg1
(g2
(I0
tp594
g4
tp595
Rp596
(I1
(I1
I1
tp597
g583
I00
S'\xba\xb8\x1aq\xc3\x98\xc5\xbf'
p598
tp599
btp600
(F85.18619702219979
F4.910738255201994
F177.96395015438105
tp601
I795
I553
tp602
a((g1
(g2
(I0
tp603
g4
tp604
Rp605
(I1
(I1
I1
tp606
g8
(S'f8'
p607
I0
I1
tp608
Rp609
(I3
S'<'
p610
NNNI-1
I-1
I0
tp611
bI00
S'\x04\xf4d\x8e\xacu\xa3?'
p612
tp613
bg1
(g2
(I0
tp614
g4
tp615
Rp616
(I1
(I1
I1
tp617
g609
I00
S'\xa4\xd7;x\xd3[\xab?'
p618
tp619
bg1
(g2
(I0
tp620
g4
tp621
Rp622
(I1
(I1
I1
tp623
g609
I00
S'\x17\xf9\xd0\xd7\x86d\xc5\xbf'
p624
tp625
btp626
(F87.23325213221952
F5.49098297226568
F-177.87409098607733
tp627
I974
I560
tp628
a((g1
(g2
(I0
tp629
g4
tp630
Rp631
(I1
(I1
I1
tp632
g8
(S'f8'
p633
I0
I1
tp634
Rp635
(I3
S'<'
p636
NNNI-1
I-1
I0
tp637
bI00
S'\xcf\xd0cv\xe6#\x97?'
p638
tp639
bg1
(g2
(I0
tp640
g4
tp641
Rp642
(I1
(I1
I1
tp643
g635
I00
S'\xeaYq\xd5\x89\xb9\xaa?'
p644
tp645
bg1
(g2
(I0
tp646
g4
tp647
Rp648
(I1
(I1
I1
tp649
g635
I00
S'<\x86\xa8\xb4\x83.\xc5\xbf'
p650
tp651
btp652
(F85.22992615151965
F5.3696035213800535
F-171.9578881378265
tp653
I1151
I567
tp654
a((g1
(g2
(I0
tp655
g4
tp656
Rp657
(I1
(I1
I1
tp658
g8
(S'f8'
p659
I0
I1
tp660
Rp661
(I3
S'<'
p662
NNNI-1
I-1
I0
tp663
bI00
S'\x03\xea\x05\xdem\xf3}?'
p664
tp665
bg1
(g2
(I0
tp666
g4
tp667
Rp668
(I1
(I1
I1
tp669
g661
I00
S'\x0f[\xdcd\x12)\xaa?'
p670
tp671
bg1
(g2
(I0
tp672
g4
tp673
Rp674
(I1
(I1
I1
tp675
g661
I00
S'C\x8e\x965\x9a\xea\xc4\xbf'
p676
tp677
btp678
(F85.72706140296151
F5.777161080283826
F-166.69176421602575
tp679
I1326
I574
tp680
a((g1
(g2
(I0
tp681
g4
tp682
Rp683
(I1
(I1
I1
tp684
g8
(S'f8'
p685
I0
I1
tp686
Rp687
(I3
S'<'
p688
NNNI-1
I-1
I0
tp689
bI00
S'\xe9e\xcc\xea\x15o\xaf?'
p690
tp691
bg1
(g2
(I0
tp692
g4
tp693
Rp694
(I1
(I1
I1
tp695
g687
I00
S'\x1c\xed\xa9\x19\xe1I\xb0?'
p696
tp697
bg1
(g2
(I0
tp698
g4
tp699
Rp700
(I1
(I1
I1
tp701
g687
I00
S'\x02\xd4`\x13\x98\xa1\xc5\xbf'
p702
tp703
btp704
(F84.95774905038252
F2.383517390062475
F176.0796420450858
tp705
I701
I638
tp706
a((g1
(g2
(I0
tp707
g4
tp708
Rp709
(I1
(I1
I1
tp710
g8
(S'f8'
p711
I0
I1
tp712
Rp713
(I3
S'<'
p714
NNNI-1
I-1
I0
tp715
bI00
S'K\x98\x1e\xab\x9f#\xa7?'
p716
tp717
bg1
(g2
(I0
tp718
g4
tp719
Rp720
(I1
(I1
I1
tp721
g713
I00
S'\xa3\xf0\x01\x0c\xc5\xb6\xaf?'
p722
tp723
bg1
(g2
(I0
tp724
g4
tp725
Rp726
(I1
(I1
I1
tp727
g713
I00
S'%\x85\xc4\xbc\xceq\xc5\xbf'
p728
tp729
btp730
(F85.76901072239514
F2.76021443948084
F-179.34832228012394
tp731
I881
I645
tp732
a((g1
(g2
(I0
tp733
g4
tp734
Rp735
(I1
(I1
I1
tp736
g8
(S'f8'
p737
I0
I1
tp738
Rp739
(I3
S'<'
p740
NNNI-1
I-1
I0
tp741
bI00
S'\x1d\xdf\x0e\xc1\xfd\xbc\x9e?'
p742
tp743
bg1
(g2
(I0
tp744
g4
tp745
Rp746
(I1
(I1
I1
tp747
g739
I00
S'\xa4\xfcn4\xce\x06\xaf?'
p748
tp749
bg1
(g2
(I0
tp750
g4
tp751
Rp752
(I1
(I1
I1
tp753
g739
I00
S'\xaf\xb8@e\x915\xc5\xbf'
p754
tp755
btp756
(F85.38980858016956
F2.8168691927550196
F-174.2910718722766
tp757
I1058
I652
tp758
a((g1
(g2
(I0
tp759
g4
tp760
Rp761
(I1
(I1
I1
tp762
g8
(S'f8'
p763
I0
I1
tp764
Rp765
(I3
S'<'
p766
NNNI-1
I-1
I0
tp767
bI00
S'i\xa5\xc7|T\xae\x8d?'
p768
tp769
bg1
(g2
(I0
tp770
g4
tp771
Rp772
(I1
(I1
I1
tp773
g765
I00
S'F\xc0\xafW\xd7(\xae?'
p774
tp775
bg1
(g2
(I0
tp776
g4
tp777
Rp778
(I1
(I1
I1
tp779
g765
I00
S'\x12\xc5\x06Z8\x06\xc5\xbf'
p780
tp781
btp782
(F83.32284099894967
F3.203167371817286
F-168.22156669183465
tp783
I1235
I659
tp784
a((g1
(g2
(I0
tp785
g4
tp786
Rp787
(I1
(I1
I1
tp788
g8
(S'f8'
p789
I0
I1
tp790
Rp791
(I3
S'<'
p792
NNNI-1
I-1
I0
tp793
bI00
S'\xe1\x14\x8ba\xd3{\xb1?'
p794
tp795
bg1
(g2
(I0
tp796
g4
tp797
Rp798
(I1
(I1
I1
tp799
g791
I00
S'\xb6<[J\xd0x\xb2?'
p800
tp801
bg1
(g2
(I0
tp802
g4
tp803
Rp804
(I1
(I1
I1
tp805
g791
I00
S'*\x0ee\xd1\xf7\xca\xc5\xbf'
p806
tp807
btp808
(F85.38752158392138
F0.3650760564743653
F174.4689843969542
tp809
I607
I723
tp810
a((g1
(g2
(I0
tp811
g4
tp812
Rp813
(I1
(I1
I1
tp814
g8
(S'f8'
p815
I0
I1
tp816
Rp817
(I3
S'<'
p818
NNNI-1
I-1
I0
tp819
bI00
S'\xdb\xbdTub\x1a\xab?'
p820
tp821
bg1
(g2
(I0
tp822
g4
tp823
Rp824
(I1
(I1
I1
tp825
g817
I00
S'\xc3\xcf\xa3\xf2\xac"\xb2?'
p826
tp827
bg1
(g2
(I0
tp828
g4
tp829
Rp830
(I1
(I1
I1
tp831
g817
I00
S'Z-\xcbC\x9az\xc5\xbf'
p832
tp833
btp834
(F85.37383346613089
F0.16285064128498092
F178.89077520241827
tp835
I787
I730
tp836
a((g1
(g2
(I0
tp837
g4
tp838
Rp839
(I1
(I1
I1
tp840
g8
(S'f8'
p841
I0
I1
tp842
Rp843
(I3
S'<'
p844
NNNI-1
I-1
I0
tp845
bI00
S'\x88e\xf9^k\xf8\xa2?'
p846
tp847
bg1
(g2
(I0
tp848
g4
tp849
Rp850
(I1
(I1
I1
tp851
g843
I00
S'1D\x13\xfa\xfe\xce\xb1?'
p852
tp853
bg1
(g2
(I0
tp854
g4
tp855
Rp856
(I1
(I1
I1
tp857
g843
I00
S'3\x03#\xeaNM\xc5\xbf'
p858
tp859
btp860
(F86.46220196150655
F0.4990280825586449
F-176.52600562319196
tp861
I966
I737
tp862
a((g1
(g2
(I0
tp863
g4
tp864
Rp865
(I1
(I1
I1
tp866
g8
(S'f8'
p867
I0
I1
tp868
Rp869
(I3
S'<'
p870
NNNI-1
I-1
I0
tp871
bI00
S'P$\xa2\xc5d\x1c\x96?'
p872
tp873
bg1
(g2
(I0
tp874
g4
tp875
Rp876
(I1
(I1
I1
tp877
g869
I00
S'\xa9M"\x19\xe0L\xb1?'
p878
tp879
bg1
(g2
(I0
tp880
g4
tp881
Rp882
(I1
(I1
I1
tp883
g869
I00
S'\xd9\xc3\xaf\xc2\xcf\n\xc5\xbf'
p884
tp885
btp886
(F86.33526912182981
F0.7922865705014757
F-171.3683117741625
tp887
I1143
I744
tp888
a((g1
(g2
(I0
tp889
g4
tp890
Rp891
(I1
(I1
I1
tp892
g8
(S'f8'
p893
I0
I1
tp894
Rp895
(I3
S'<'
p896
NNNI-1
I-1
I0
tp897
bI00
S'I\xe3L\xd4<\x8bz?'
p898
tp899
bg1
(g2
(I0
tp900
g4
tp901
Rp902
(I1
(I1
I1
tp903
g895
I00
S'\xe6\xe1P\xc4S\n\xb1?'
p904
tp905
bg1
(g2
(I0
tp906
g4
tp907
Rp908
(I1
(I1
I1
tp909
g895
I00
S'\xab\xb7_\xaa\xca\xe0\xc4\xbf'
p910
tp911
btp912
(F87.6364677479696
F1.1160360921515606
F-166.7036632516591
tp913
I1318
I750
tp914
a.