((cnumpy.core.multiarray
_reconstruct
p0
(cnumpy.matrixlib.defmatrix
matrix
p1
(I0
tp2
S'b'
p3
tp4
Rp5
(I1
(I1
I1
tp6
cnumpy
dtype
p7
(S'f8'
p8
I0
I1
tp9
Rp10
(I3
S'<'
p11
NNNI-1
I-1
I0
tp12
bI00
S'D\xbb\xfd`}\xa8\xb0?'
p13
tp14
bg0
(g1
(I0
tp15
g3
tp16
Rp17
(I1
(I1
I1
tp18
g10
I00
S'_EJ\x83\x9e\xef\x91?'
p19
tp20
bg0
(g1
(I0
tp21
g3
tp22
Rp23
(I1
(I1
I1
tp24
g10
I00
S'U\xb0\xee\xf7\\\xb2\xc5\xbf'
p25
tp26
btp27
(F80.7528333534743
F13.701394909320578
F171.03114157080915
tp28
I726
I101
tp29
.((cnumpy.core.multiarray
_reconstruct
p0
(cnumpy.matrixlib.defmatrix
matrix
p1
(I0
tp2
S'b'
p3
tp4
Rp5
(I1
(I1
I1
tp6
cnumpy
dtype
p7
(S'f8'
p8
I0
I1
tp9
Rp10
(I3
S'<'
p11
NNNI-1
I-1
I0
tp12
bI00
S'&\x8b^\xd5\xc0V\xa9?'
p13
tp14
bg0
(g1
(I0
tp15
g3
tp16
Rp17
(I1
(I1
I1
tp18
g10
I00
S'7\xd6+\xdfE\xe7\x8f?'
p19
tp20
bg0
(g1
(I0
tp21
g3
tp22
Rp23
(I1
(I1
I1
tp24
g10
I00
S'<\xb9Z;V\x88\xc5\xbf'
p25
tp26
btp27
(F84.37017651794652
F16.580193939911098
F176.12921978288142
tp28
I907
I111
tp29
.((cnumpy.core.multiarray
_reconstruct
p0
(cnumpy.matrixlib.defmatrix
matrix
p1
(I0
tp2
S'b'
p3
tp4
Rp5
(I1
(I1
I1
tp6
cnumpy
dtype
p7
(S'f8'
p8
I0
I1
tp9
Rp10
(I3
S'<'
p11
NNNI-1
I-1
I0
tp12
bI00
S'r\xeb\xc6\x1c\x95\x1c\xa1?'
p13
tp14
bg0
(g1
(I0
tp15
g3
tp16
Rp17
(I1
(I1
I1
tp18
g10
I00
S'N\xc3\xe0\xa8f\xd2\x8d?'
p19
tp20
bg0
(g1
(I0
tp21
g3
tp22
Rp23
(I1
(I1
I1
tp24
g10
I00
S'X\xe1\x7f\xf0\x1cF\xc5\xbf'
p25
tp26
btp27
(F84.86534767432025
F17.161348390146717
F-178.3363872434052
tp28
I1085
I122
tp29
.((cnumpy.core.multiarray
_reconstruct
p0
(cnumpy.matrixlib.defmatrix
matrix
p1
(I0
tp2
S'b'
p3
tp4
Rp5
(I1
(I1
I1
tp6
cnumpy
dtype
p7
(S'f8'
p8
I0
I1
tp9
Rp10
(I3
S'<'
p11
NNNI-1
I-1
I0
tp12
bI00
S'\xaf\x98\xb8\xc2 l\xb2?'
p13
tp14
bg0
(g1
(I0
tp15
g3
tp16
Rp17
(I1
(I1
I1
tp18
g10
I00
S"\x9c\x14\xef\xb7'\xe5\x9a?"
p19
tp20
bg0
(g1
(I0
tp21
g3
tp22
Rp23
(I1
(I1
I1
tp24
g10
I00
S'\xa2\xfb\x96\x15#\xc4\xc5\xbf'
p25
tp26
btp27
(F82.43424381822724
F12.983034462139322
F170.56176089998957
tp28
I631
I187
tp29
.((cnumpy.core.multiarray
_reconstruct
p0
(cnumpy.matrixlib.defmatrix
matrix
p1
(I0
tp2
S'b'
p3
tp4
Rp5
(I1
(I1
I1
tp6
cnumpy
dtype
p7
(S'f8'
p8
I0
I1
tp9
Rp10
(I3
S'<'
p11
NNNI-1
I-1
I0
tp12
bI00
S'\x9cV\xf4\xae\x93\x1d\xad?'
p13
tp14
bg0
(g1
(I0
tp15
g3
tp16
Rp17
(I1
(I1
I1
tp18
g10
I00
S'P&H\x8d08\x99?'
p19
tp20
bg0
(g1
(I0
tp21
g3
tp22
Rp23
(I1
(I1
I1
tp24
g10
I00
S'\xe8b\\\x90C\x98\xc5\xbf'
p25
tp26
btp27
(F82.30582114648197
F13.394368979016013
F175.30672579137496
tp28
I812
I196
tp29
.((cnumpy.core.multiarray
_reconstruct
p0
(cnumpy.matrixlib.defmatrix
matrix
p1
(I0
tp2
S'b'
p3
tp4
Rp5
(I1
(I1
I1
tp6
cnumpy
dtype
p7
(S'f8'
p8
I0
I1
tp9
Rp10
(I3
S'<'
p11
NNNI-1
I-1
I0
tp12
bI00
S'\xfb\x1b\xa5\xc1\xda\x0b\xa5?'
p13
tp14
bg0
(g1
(I0
tp15
g3
tp16
Rp17
(I1
(I1
I1
tp18
g10
I00
S'\xecvU@\xe8\x05\x97?'
p19
tp20
bg0
(g1
(I0
tp21
g3
tp22
Rp23
(I1
(I1
I1
tp24
g10
I00
S'0\x0f\x10:\xd6q\xc5\xbf'
p25
tp26
btp27
(F83.3723422608791
F14.414317379223275
F-179.74878198221606
tp28
I991
I205
tp29
.((cnumpy.core.multiarray
_reconstruct
p0
(cnumpy.matrixlib.defmatrix
matrix
p1
(I0
tp2
S'b'
p3
tp4
Rp5
(I1
(I1
I1
tp6
cnumpy
dtype
p7
(S'f8'
p8
I0
I1
tp9
Rp10
(I3
S'<'
p11
NNNI-1
I-1
I0
tp12
bI00
S'\x88\x895\x8e\xdc\xfd\x99?'
p13
tp14
bg0
(g1
(I0
tp15
g3
tp16
Rp17
(I1
(I1
I1
tp18
g10
I00
S'g\x96\xb5N\xc9\xbc\x95?'
p19
tp20
bg0
(g1
(I0
tp21
g3
tp22
Rp23
(I1
(I1
I1
tp24
g10
I00
S'vj\xa4\xb7\x19*\xc5\xbf'
p25
tp26
btp27
(F84.60962267570697
F15.137714482853934
F-174.3704853863887
tp28
I1169
I216
tp29
.((cnumpy.core.multiarray
_reconstruct
p0
(cnumpy.matrixlib.defmatrix
matrix
p1
(I0
tp2
S'b'
p3
tp4
Rp5
(I1
(I1
I1
tp6
cnumpy
dtype
p7
(S'f8'
p8
I0
I1
tp9
Rp10
(I3
S'<'
p11
NNNI-1
I-1
I0
tp12
bI00
S'|\xa58\xd0N\xbd\x84?'
p13
tp14
bg0
(g1
(I0
tp15
g3
tp16
Rp17
(I1
(I1
I1
tp18
g10
I00
S'Y\xfc>H\xa0\x80\x94?'
p19
tp20
bg0
(g1
(I0
tp21
g3
tp22
Rp23
(I1
(I1
I1
tp24
g10
I00
S'\x8a\x82}+L\xfd\xc4\xbf'
p25
tp26
btp27
(F84.76166920136933
F15.768329256435171
F-168.77906046620402
tp28
I1345
I226
tp29
.((cnumpy.core.multiarray
_reconstruct
p0
(cnumpy.matrixlib.defmatrix
matrix
p1
(I0
tp2
S'b'
p3
tp4
Rp5
(I1
(I1
I1
tp6
cnumpy
dtype
p7
(S'f8'
p8
I0
I1
tp9
Rp10
(I3
S'<'
p11
NNNI-1
I-1
I0
tp12
bI00
S'\xed\x9b?\xf6s4\xb0?'
p13
tp14
bg0
(g1
(I0
tp15
g3
tp16
Rp17
(I1
(I1
I1
tp18
g10
I00
S'\xdc\x13\xe7s.\xfd\xa0?'
p19
tp20
bg0
(g1
(I0
tp21
g3
tp22
Rp23
(I1
(I1
I1
tp24
g10
I00
S'\xe6\xa3M=@\xad\xc5\xbf'
p25
tp26
btp27
(F82.35051281738257
F10.779664362054902
F174.18146325059016
tp28
I717
I281
tp29
.((cnumpy.core.multiarray
_reconstruct
p0
(cnumpy.matrixlib.defmatrix
matrix
p1
(I0
tp2
S'b'
p3
tp4
Rp5
(I1
(I1
I1
tp6
cnumpy
dtype
p7
(S'f8'
p8
I0
I1
tp9
Rp10
(I3
S'<'
p11
NNNI-1
I-1
I0
tp12
bI00
S'\x93>\xa7B)\xd3\xa8?'
p13
tp14
bg0
(g1
(I0
tp15
g3
tp16
Rp17
(I1
(I1
I1
tp18
g10
I00
S'$7c\xe6\xf8&\xa0?'
p19
tp20
bg0
(g1
(I0
tp21
g3
tp22
Rp23
(I1
(I1
I1
tp24
g10
I00
S'\xe9\xb6_,\x1cj\xc5\xbf'
p25
tp26
btp27
(F82.79814241533977
F11.3400621445741
F178.6890873688752
tp28
I898
I289
tp29
.((cnumpy.core.multiarray
_reconstruct
p0
(cnumpy.matrixlib.defmatrix
matrix
p1
(I0
tp2
S'b'
p3
tp4
Rp5
(I1
(I1
I1
tp6
cnumpy
dtype
p7
(S'f8'
p8
I0
I1
tp9
Rp10
(I3
S'<'
p11
NNNI-1
I-1
I0
tp12
bI00
S'l\x97E\x81\\\xd2\xa0?'
p13
tp14
bg0
(g1
(I0
tp15
g3
tp16
Rp17
(I1
(I1
I1
tp18
g10
I00
S'c4\xea\x16\xf7\x9d\x9e?'
p19
tp20
bg0
(g1
(I0
tp21
g3
tp22
Rp23
(I1
(I1
I1
tp24
g10
I00
S'+\xaa\x9aE\xbb=\xc5\xbf'
p25
tp26
btp27
(F84.30986092066786
F12.22021321468771
F-176.4373041952549
tp28
I1076
I299
tp29
.((cnumpy.core.multiarray
_reconstruct
p0
(cnumpy.matrixlib.defmatrix
matrix
p1
(I0
tp2
S'b'
p3
tp4
Rp5
(I1
(I1
I1
tp6
cnumpy
dtype
p7
(S'f8'
p8
I0
I1
tp9
Rp10
(I3
S'<'
p11
NNNI-1
I-1
I0
tp12
bI00
S'\xd9\xfe\xcfH\xfa\x8d\x91?'
p13
tp14
bg0
(g1
(I0
tp15
g3
tp16
Rp17
(I1
(I1
I1
tp18
g10
I00
S'\x7f\xaa%AZ8\x9d?'
p19
tp20
bg0
(g1
(I0
tp21
g3
tp22
Rp23
(I1
(I1
I1
tp24
g10
I00
S'\xe0HH\xd1o\x01\xc5\xbf'
p25
tp26
btp27
(F83.94220461016126
F12.757051832031447
F-170.77766548777927
tp28
I1252
I308
tp29
.((cnumpy.core.multiarray
_reconstruct
p0
(cnumpy.matrixlib.defmatrix
matrix
p1
(I0
tp2
S'b'
p3
tp4
Rp5
(I1
(I1
I1
tp6
cnumpy
dtype
p7
(S'f8'
p8
I0
I1
tp9
Rp10
(I3
S'<'
p11
NNNI-1
I-1
I0
tp12
bI00
S"X\xf3\x1e'\xa5$\xb2?"
p13
tp14
bg0
(g1
(I0
tp15
g3
tp16
Rp17
(I1
(I1
I1
tp18
g10
I00
S'\x85S~\x1b|&\xa5?'
p19
tp20
bg0
(g1
(I0
tp21
g3
tp22
Rp23
(I1
(I1
I1
tp24
g10
I00
S'\xd0\x14\x8b\xdd\x9e\xb8\xc5\xbf'
p25
tp26
btp27
(F81.14048536336777
F7.8923688395986105
F173.01368929436003
tp28
I623
I366
tp29
.((cnumpy.core.multiarray
_reconstruct
p0
(cnumpy.matrixlib.defmatrix
matrix
p1
(I0
tp2
S'b'
p3
tp4
Rp5
(I1
(I1
I1
tp6
cnumpy
dtype
p7
(S'f8'
p8
I0
I1
tp9
Rp10
(I3
S'<'
p11
NNNI-1
I-1
I0
tp12
bI00
S'\xd5&B\xb3Fz\xac?'
p13
tp14
bg0
(g1
(I0
tp15
g3
tp16
Rp17
(I1
(I1
I1
tp18
g10
I00
S'\xa4\x18\x9a\x89[]\xa4?'
p19
tp20
bg0
(g1
(I0
tp21
g3
tp22
Rp23
(I1
(I1
I1
tp24
g10
I00
S'\xf2\xba\xcb\xa8\x87\x86\xc5\xbf'
p25
tp26
btp27
(F84.11356586061757
F9.218470682636305
F176.57841044553857
tp28
I803
I374
tp29
.((cnumpy.core.multiarray
_reconstruct
p0
(cnumpy.matrixlib.defmatrix
matrix
p1
(I0
tp2
S'b'
p3
tp4
Rp5
(I1
(I1
I1
tp6
cnumpy
dtype
p7
(S'f8'
p8
I0
I1
tp9
Rp10
(I3
S'<'
p11
NNNI-1
I-1
I0
tp12
bI00
S'\xf3t\xce\xfd?&\xa4?'
p13
tp14
bg0
(g1
(I0
tp15
g3
tp16
Rp17
(I1
(I1
I1
tp18
g10
I00
S'\x90\x0f,*\xf0\xb8\xa3?'
p19
tp20
bg0
(g1
(I0
tp21
g3
tp22
Rp23
(I1
(I1
I1
tp24
g10
I00
S'\xc8[+s2_\xc5\xbf'
p25
tp26
btp27
(F83.53307669922366
F9.354393865943116
F-177.97086101299186
tp28
I983
I383
tp29
.((cnumpy.core.multiarray
_reconstruct
p0
(cnumpy.matrixlib.defmatrix
matrix
p1
(I0
tp2
S'b'
p3
tp4
Rp5
(I1
(I1
I1
tp6
cnumpy
dtype
p7
(S'f8'
p8
I0
I1
tp9
Rp10
(I3
S'<'
p11
NNNI-1
I-1
I0
tp12
bI00
S'\x84[\xfb\xbf\xf4\xf5\x98?'
p13
tp14
bg0
(g1
(I0
tp15
g3
tp16
Rp17
(I1
(I1
I1
tp18
g10
I00
S'\xbf\xbe\xba\xd2\xf3\xda\xa2?'
p19
tp20
bg0
(g1
(I0
tp21
g3
tp22
Rp23
(I1
(I1
I1
tp24
g10
I00
S'd\xa1\x06\xe1\xe7\x12\xc5\xbf'
p25
tp26
btp27
(F85.72430222996825
F10.228645142873466
F-173.35063187025554
tp28
I1160
I392
tp29
.((cnumpy.core.multiarray
_reconstruct
p0
(cnumpy.matrixlib.defmatrix
matrix
p1
(I0
tp2
S'b'
p3
tp4
Rp5
(I1
(I1
I1
tp6
cnumpy
dtype
p7
(S'f8'
p8
I0
I1
tp9
Rp10
(I3
S'<'
p11
NNNI-1
I-1
I0
tp12
bI00
S'\x81\xe0\xbc\x92?\xc9\x81?'
p13
tp14
bg0
(g1
(I0
tp15
g3
tp16
Rp17
(I1
(I1
I1
tp18
g10
I00
S'\x13\x94\xe6XT\x1c\xa2?'
p19
tp20
bg0
(g1
(I0
tp21
g3
tp22
Rp23
(I1
(I1
I1
tp24
g10
I00
S'\xe5.\xe8nI\xed\xc4\xbf'
p25
tp26
btp27
(F86.03492416265827
F10.8040058264339
F-167.9025800477273
tp28
I1335
I399
tp29
.((cnumpy.core.multiarray
_reconstruct
p0
(cnumpy.matrixlib.defmatrix
matrix
p1
(I0
tp2
S'b'
p3
tp4
Rp5
(I1
(I1
I1
tp6
cnumpy
dtype
p7
(S'f8'
p8
I0
I1
tp9
Rp10
(I3
S'<'
p11
NNNI-1
I-1
I0
tp12
bI00
S'\x124\xc3n\xc7\x8d\xaf?'
p13
tp14
bg0
(g1
(I0
tp15
g3
tp16
Rp17
(I1
(I1
I1
tp18
g10
I00
S'HZ\xc9VB\xc7\xa8?'
p19
tp20
bg0
(g1
(I0
tp21
g3
tp22
Rp23
(I1
(I1
I1
tp24
g10
I00
S'>\x8e\x10\xb7\xb0\xb1\xc5\xbf'
p25
tp26
btp27
(F84.67851566276687
F6.9186815995478375
F175.1618224554614
tp28
I709
I459
tp29
.((cnumpy.core.multiarray
_reconstruct
p0
(cnumpy.matrixlib.defmatrix
matrix
p1
(I0
tp2
S'b'
p3
tp4
Rp5
(I1
(I1
I1
tp6
cnumpy
dtype
p7
(S'f8'
p8
I0
I1
tp9
Rp10
(I3
S'<'
p11
NNNI-1
I-1
I0
tp12
bI00
S'\xd1\xcaQ\xa7\x84\xf6\xa7?'
p13
tp14
bg0
(g1
(I0
tp15
g3
tp16
Rp17
(I1
(I1
I1
tp18
g10
I00
S'k5\x8d\xf6V\xf5\xa7?'
p19
tp20
bg0
(g1
(I0
tp21
g3
tp22
Rp23
(I1
(I1
I1
tp24
g10
I00
S'\x9e\x1d\xa9\x803m\xc5\xbf'
p25
tp26
btp27
(F85.25816361437258
F7.212607949591407
F179.423408648261
tp28
I889
I467
tp29
.((cnumpy.core.multiarray
_reconstruct
p0
(cnumpy.matrixlib.defmatrix
matrix
p1
(I0
tp2
S'b'
p3
tp4
Rp5
(I1
(I1
I1
tp6
cnumpy
dtype
p7
(S'f8'
p8
I0
I1
tp9
Rp10
(I3
S'<'
p11
NNNI-1
I-1
I0
tp12
bI00
S'v\xb58\xab\xb7\x0e\xa0?'
p13
tp14
bg0
(g1
(I0
tp15
g3
tp16
Rp17
(I1
(I1
I1
tp18
g10
I00
S'\x12\x87\x06r:\x1b\xa7?'
p19
tp20
bg0
(g1
(I0
tp21
g3
tp22
Rp23
(I1
(I1
I1
tp24
g10
I00
S'\n\xf7\x19\x18B=\xc5\xbf'
p25
tp26
btp27
(F86.01247455220455
F7.683223496787578
F-175.57525672478693
tp28
I1067
I476
tp29
.((cnumpy.core.multiarray
_reconstruct
p0
(cnumpy.matrixlib.defmatrix
matrix
p1
(I0
tp2
S'b'
p3
tp4
Rp5
(I1
(I1
I1
tp6
cnumpy
dtype
p7
(S'f8'
p8
I0
I1
tp9
Rp10
(I3
S'<'
p11
NNNI-1
I-1
I0
tp12
bI00
S'cVM2\xb9R\x90?'
p13
tp14
bg0
(g1
(I0
tp15
g3
tp16
Rp17
(I1
(I1
I1
tp18
g10
I00
S'\xca\x8b\xaa\xa9\xb2w\xa6?'
p19
tp20
bg0
(g1
(I0
tp21
g3
tp22
Rp23
(I1
(I1
I1
tp24
g10
I00
S'I\xfa\x04l\x1b\x00\xc5\xbf'
p25
tp26
btp27
(F85.77898552148133
F7.971767781146414
F-170.19789203245062
tp28
I1244
I483
tp29
.((cnumpy.core.multiarray
_reconstruct
p0
(cnumpy.matrixlib.defmatrix
matrix
p1
(I0
tp2
S'b'
p3
tp4
Rp5
(I1
(I1
I1
tp6
cnumpy
dtype
p7
(S'f8'
p8
I0
I1
tp9
Rp10
(I3
S'<'
p11
NNNI-1
I-1
I0
tp12
bI00
S'\t\xca\x89+T\xc0\xb1?'
p13
tp14
bg0
(g1
(I0
tp15
g3
tp16
Rp17
(I1
(I1
I1
tp18
g10
I00
S'\xfd\x85th\xac\xfa\xac?'
p19
tp20
bg0
(g1
(I0
tp21
g3
tp22
Rp23
(I1
(I1
I1
tp24
g10
I00
S'\r\x1b\xaa\xa4:\xc3\xc5\xbf'
p25
tp26
btp27
(F83.36073240961571
F4.0882690154302095
F173.87869082910726
tp28
I615
I544
tp29
.((cnumpy.core.multiarray
_reconstruct
p0
(cnumpy.matrixlib.defmatrix
matrix
p1
(I0
tp2
S'b'
p3
tp4
Rp5
(I1
(I1
I1
tp6
cnumpy
dtype
p7
(S'f8'
p8
I0
I1
tp9
Rp10
(I3
S'<'
p11
NNNI-1
I-1
I0
tp12
bI00
S'u\xa7/.BS\xab?'
p13
tp14
bg0
(g1
(I0
tp15
g3
tp16
Rp17
(I1
(I1
I1
tp18
g10
I00
S'\xb9\xdb\xe0\x87\xad#\xac?'
p19
tp20
bg0
(g1
(I0
tp21
g3
tp22
Rp23
(I1
(I1
I1
tp24
g10
I00
S'\xba\xb8\x1aq\xc3\x98\xc5\xbf'
p25
tp26
btp27
(F85.18619702219979
F4.910738255201994
F177.96395015438105
tp28
I795
I553
tp29
.((cnumpy.core.multiarray
_reconstruct
p0
(cnumpy.matrixlib.defmatrix
matrix
p1
(I0
tp2
S'b'
p3
tp4
Rp5
(I1
(I1
I1
tp6
cnumpy
dtype
p7
(S'f8'
p8
I0
I1
tp9
Rp10
(I3
S'<'
p11
NNNI-1
I-1
I0
tp12
bI00
S'\x04\xf4d\x8e\xacu\xa3?'
p13
tp14
bg0
(g1
(I0
tp15
g3
tp16
Rp17
(I1
(I1
I1
tp18
g10
I00
S'\xa4\xd7;x\xd3[\xab?'
p19
tp20
bg0
(g1
(I0
tp21
g3
tp22
Rp23
(I1
(I1
I1
tp24
g10
I00
S'\x17\xf9\xd0\xd7\x86d\xc5\xbf'
p25
tp26
btp27
(F87.23325213221952
F5.49098297226568
F-177.87409098607733
tp28
I974
I560
tp29
.((cnumpy.core.multiarray
_reconstruct
p0
(cnumpy.matrixlib.defmatrix
matrix
p1
(I0
tp2
S'b'
p3
tp4
Rp5
(I1
(I1
I1
tp6
cnumpy
dtype
p7
(S'f8'
p8
I0
I1
tp9
Rp10
(I3
S'<'
p11
NNNI-1
I-1
I0
tp12
bI00
S'\xcf\xd0cv\xe6#\x97?'
p13
tp14
bg0
(g1
(I0
tp15
g3
tp16
Rp17
(I1
(I1
I1
tp18
g10
I00
S'\xeaYq\xd5\x89\xb9\xaa?'
p19
tp20
bg0
(g1
(I0
tp21
g3
tp22
Rp23
(I1
(I1
I1
tp24
g10
I00
S'<\x86\xa8\xb4\x83.\xc5\xbf'
p25
tp26
btp27
(F85.22992615151965
F5.3696035213800535
F-171.9578881378265
tp28
I1151
I567
tp29
.((cnumpy.core.multiarray
_reconstruct
p0
(cnumpy.matrixlib.defmatrix
matrix
p1
(I0
tp2
S'b'
p3
tp4
Rp5
(I1
(I1
I1
tp6
cnumpy
dtype
p7
(S'f8'
p8
I0
I1
tp9
Rp10
(I3
S'<'
p11
NNNI-1
I-1
I0
tp12
bI00
S'\x03\xea\x05\xdem\xf3}?'
p13
tp14
bg0
(g1
(I0
tp15
g3
tp16
Rp17
(I1
(I1
I1
tp18
g10
I00
S'\x0f[\xdcd\x12)\xaa?'
p19
tp20
bg0
(g1
(I0
tp21
g3
tp22
Rp23
(I1
(I1
I1
tp24
g10
I00
S'C\x8e\x965\x9a\xea\xc4\xbf'
p25
tp26
btp27
(F85.72706140296151
F5.777161080283826
F-166.69176421602575
tp28
I1326
I574
tp29
.((cnumpy.core.multiarray
_reconstruct
p0
(cnumpy.matrixlib.defmatrix
matrix
p1
(I0
tp2
S'b'
p3
tp4
Rp5
(I1
(I1
I1
tp6
cnumpy
dtype
p7
(S'f8'
p8
I0
I1
tp9
Rp10
(I3
S'<'
p11
NNNI-1
I-1
I0
tp12
bI00
S'\xe9e\xcc\xea\x15o\xaf?'
p13
tp14
bg0
(g1
(I0
tp15
g3
tp16
Rp17
(I1
(I1
I1
tp18
g10
I00
S'\x1c\xed\xa9\x19\xe1I\xb0?'
p19
tp20
bg0
(g1
(I0
tp21
g3
tp22
Rp23
(I1
(I1
I1
tp24
g10
I00
S'\x02\xd4`\x13\x98\xa1\xc5\xbf'
p25
tp26
btp27
(F84.95774905038252
F2.383517390062475
F176.0796420450858
tp28
I701
I638
tp29
.((cnumpy.core.multiarray
_reconstruct
p0
(cnumpy.matrixlib.defmatrix
matrix
p1
(I0
tp2
S'b'
p3
tp4
Rp5
(I1
(I1
I1
tp6
cnumpy
dtype
p7
(S'f8'
p8
I0
I1
tp9
Rp10
(I3
S'<'
p11
NNNI-1
I-1
I0
tp12
bI00
S'K\x98\x1e\xab\x9f#\xa7?'
p13
tp14
bg0
(g1
(I0
tp15
g3
tp16
Rp17
(I1
(I1
I1
tp18
g10
I00
S'\xa3\xf0\x01\x0c\xc5\xb6\xaf?'
p19
tp20
bg0
(g1
(I0
tp21
g3
tp22
Rp23
(I1
(I1
I1
tp24
g10
I00
S'%\x85\xc4\xbc\xceq\xc5\xbf'
p25
tp26
btp27
(F85.76901072239514
F2.76021443948084
F-179.34832228012394
tp28
I881
I645
tp29
.((cnumpy.core.multiarray
_reconstruct
p0
(cnumpy.matrixlib.defmatrix
matrix
p1
(I0
tp2
S'b'
p3
tp4
Rp5
(I1
(I1
I1
tp6
cnumpy
dtype
p7
(S'f8'
p8
I0
I1
tp9
Rp10
(I3
S'<'
p11
NNNI-1
I-1
I0
tp12
bI00
S'\x1d\xdf\x0e\xc1\xfd\xbc\x9e?'
p13
tp14
bg0
(g1
(I0
tp15
g3
tp16
Rp17
(I1
(I1
I1
tp18
g10
I00
S'\xa4\xfcn4\xce\x06\xaf?'
p19
tp20
bg0
(g1
(I0
tp21
g3
tp22
Rp23
(I1
(I1
I1
tp24
g10
I00
S'\xaf\xb8@e\x915\xc5\xbf'
p25
tp26
btp27
(F85.38980858016956
F2.8168691927550196
F-174.2910718722766
tp28
I1058
I652
tp29
.((cnumpy.core.multiarray
_reconstruct
p0
(cnumpy.matrixlib.defmatrix
matrix
p1
(I0
tp2
S'b'
p3
tp4
Rp5
(I1
(I1
I1
tp6
cnumpy
dtype
p7
(S'f8'
p8
I0
I1
tp9
Rp10
(I3
S'<'
p11
NNNI-1
I-1
I0
tp12
bI00
S'i\xa5\xc7|T\xae\x8d?'
p13
tp14
bg0
(g1
(I0
tp15
g3
tp16
Rp17
(I1
(I1
I1
tp18
g10
I00
S'F\xc0\xafW\xd7(\xae?'
p19
tp20
bg0
(g1
(I0
tp21
g3
tp22
Rp23
(I1
(I1
I1
tp24
g10
I00
S'\x12\xc5\x06Z8\x06\xc5\xbf'
p25
tp26
btp27
(F83.32284099894967
F3.203167371817286
F-168.22156669183465
tp28
I1235
I659
tp29
.((cnumpy.core.multiarray
_reconstruct
p0
(cnumpy.matrixlib.defmatrix
matrix
p1
(I0
tp2
S'b'
p3
tp4
Rp5
(I1
(I1
I1
tp6
cnumpy
dtype
p7
(S'f8'
p8
I0
I1
tp9
Rp10
(I3
S'<'
p11
NNNI-1
I-1
I0
tp12
bI00
S'\xe1\x14\x8ba\xd3{\xb1?'
p13
tp14
bg0
(g1
(I0
tp15
g3
tp16
Rp17
(I1
(I1
I1
tp18
g10
I00
S'\xb6<[J\xd0x\xb2?'
p19
tp20
bg0
(g1
(I0
tp21
g3
tp22
Rp23
(I1
(I1
I1
tp24
g10
I00
S'*\x0ee\xd1\xf7\xca\xc5\xbf'
p25
tp26
btp27
(F85.38752158392138
F0.3650760564743653
F174.4689843969542
tp28
I607
I723
tp29
.((cnumpy.core.multiarray
_reconstruct
p0
(cnumpy.matrixlib.defmatrix
matrix
p1
(I0
tp2
S'b'
p3
tp4
Rp5
(I1
(I1
I1
tp6
cnumpy
dtype
p7
(S'f8'
p8
I0
I1
tp9
Rp10
(I3
S'<'
p11
NNNI-1
I-1
I0
tp12
bI00
S'\xdb\xbdTub\x1a\xab?'
p13
tp14
bg0
(g1
(I0
tp15
g3
tp16
Rp17
(I1
(I1
I1
tp18
g10
I00
S'\xc3\xcf\xa3\xf2\xac"\xb2?'
p19
tp20
bg0
(g1
(I0
tp21
g3
tp22
Rp23
(I1
(I1
I1
tp24
g10
I00
S'Z-\xcbC\x9az\xc5\xbf'
p25
tp26
btp27
(F85.37383346613089
F0.16285064128498092
F178.89077520241827
tp28
I787
I730
tp29
.((cnumpy.core.multiarray
_reconstruct
p0
(cnumpy.matrixlib.defmatrix
matrix
p1
(I0
tp2
S'b'
p3
tp4
Rp5
(I1
(I1
I1
tp6
cnumpy
dtype
p7
(S'f8'
p8
I0
I1
tp9
Rp10
(I3
S'<'
p11
NNNI-1
I-1
I0
tp12
bI00
S'\x88e\xf9^k\xf8\xa2?'
p13
tp14
bg0
(g1
(I0
tp15
g3
tp16
Rp17
(I1
(I1
I1
tp18
g10
I00
S'1D\x13\xfa\xfe\xce\xb1?'
p19
tp20
bg0
(g1
(I0
tp21
g3
tp22
Rp23
(I1
(I1
I1
tp24
g10
I00
S'3\x03#\xeaNM\xc5\xbf'
p25
tp26
btp27
(F86.46220196150655
F0.4990280825586449
F-176.52600562319196
tp28
I966
I737
tp29
.((cnumpy.core.multiarray
_reconstruct
p0
(cnumpy.matrixlib.defmatrix
matrix
p1
(I0
tp2
S'b'
p3
tp4
Rp5
(I1
(I1
I1
tp6
cnumpy
dtype
p7
(S'f8'
p8
I0
I1
tp9
Rp10
(I3
S'<'
p11
NNNI-1
I-1
I0
tp12
bI00
S'P$\xa2\xc5d\x1c\x96?'
p13
tp14
bg0
(g1
(I0
tp15
g3
tp16
Rp17
(I1
(I1
I1
tp18
g10
I00
S'\xa9M"\x19\xe0L\xb1?'
p19
tp20
bg0
(g1
(I0
tp21
g3
tp22
Rp23
(I1
(I1
I1
tp24
g10
I00
S'\xd9\xc3\xaf\xc2\xcf\n\xc5\xbf'
p25
tp26
btp27
(F86.33526912182981
F0.7922865705014757
F-171.3683117741625
tp28
I1143
I744
tp29
.((cnumpy.core.multiarray
_reconstruct
p0
(cnumpy.matrixlib.defmatrix
matrix
p1
(I0
tp2
S'b'
p3
tp4
Rp5
(I1
(I1
I1
tp6
cnumpy
dtype
p7
(S'f8'
p8
I0
I1
tp9
Rp10
(I3
S'<'
p11
NNNI-1
I-1
I0
tp12
bI00
S'I\xe3L\xd4<\x8bz?'
p13
tp14
bg0
(g1
(I0
tp15
g3
tp16
Rp17
(I1
(I1
I1
tp18
g10
I00
S'\xe6\xe1P\xc4S\n\xb1?'
p19
tp20
bg0
(g1
(I0
tp21
g3
tp22
Rp23
(I1
(I1
I1
tp24
g10
I00
S'\xab\xb7_\xaa\xca\xe0\xc4\xbf'
p25
tp26
btp27
(F87.6364677479696
F1.1160360921515606
F-166.7036632516591
tp28
I1318
I750
tp29
.