(dp0
S'actual_pos'
p1
(cnumpy.core.multiarray
_reconstruct
p2
(cnumpy.matrixlib.defmatrix
matrix
p3
(I0
tp4
S'b'
p5
tp6
Rp7
(I1
(I1
I1
tp8
cnumpy
dtype
p9
(S'f8'
p10
I0
I1
tp11
Rp12
(I3
S'<'
p13
NNNI-1
I-1
I0
tp14
bI00
S'H\x06\x0f\x91fL\x90?'
p15
tp16
bg2
(g3
(I0
tp17
g5
tp18
Rp19
(I1
(I1
I1
tp20
g12
I00
S',\xfaJ`\xf1M\xb5?'
p21
tp22
bg2
(g3
(I0
tp23
g5
tp24
Rp25
(I1
(I1
I1
tp26
g12
I00
S'\xb3\xb5\xba\xd3@\x95\xc5\xbf'
p27
tp28
btp29
sS'actual_rot'
p30
(F0.2225280335717044
F0.9015302489239727
F-158.20501241549366
tp31
sS'target_pos'
p32
(lp33
cnumpy.core.multiarray
scalar
p34
(g12
S'\xc1\xce\n\x01\x96\x92\x91?'
p35
tp36
Rp37
ag34
(g12
S"\\)\xe36'\x9b\xb5?"
p38
tp39
Rp40
aF-0.16873688
asS'target_rot'
p41
(F0.0
F0.0
F-160.0
tp42
sS'center_target_pixels'
p43
(I1186
I878
tp44
sS'center_actual_pixels'
p45
(I1206
I831
tp46
s.(dp0
S'actual_pos'
p1
(cnumpy.core.multiarray
_reconstruct
p2
(cnumpy.matrixlib.defmatrix
matrix
p3
(I0
tp4
S'b'
p5
tp6
Rp7
(I1
(I1
I1
tp8
cnumpy
dtype
p9
(S'f8'
p10
I0
I1
tp11
Rp12
(I3
S'<'
p13
NNNI-1
I-1
I0
tp14
bI00
S'\xde\x95\xebv\x8f\xd0\x9f?'
p15
tp16
bg2
(g3
(I0
tp17
g5
tp18
Rp19
(I1
(I1
I1
tp20
g12
I00
S'q\x91\xac\xa8/\xce\xb5?'
p21
tp22
bg2
(g3
(I0
tp23
g5
tp24
Rp25
(I1
(I1
I1
tp26
g12
I00
S'\xaf1\xd5<={\xc5\xbf'
p27
tp28
btp29
sS'actual_rot'
p30
(F-1.281640029796525
F-2.2447968381389103
F-156.9702546750817
tp31
sS'target_pos'
p32
(lp33
cnumpy.core.multiarray
scalar
p34
(g12
S'\x96\xe3\x84\xcb\xf0\x13\xa0?'
p35
tp36
Rp37
ag34
(g12
S')A\xa5\xf5\x9c\x11\xb6?'
p38
tp39
Rp40
aF-0.16873688
asS'target_rot'
p41
(F0.0
F0.0
F-160.0
tp42
sS'center_target_pixels'
p43
(I1009
I874
tp44
sS'center_actual_pixels'
p45
(I1013
I841
tp46
s.(dp0
S'actual_pos'
p1
(cnumpy.core.multiarray
_reconstruct
p2
(cnumpy.matrixlib.defmatrix
matrix
p3
(I0
tp4
S'b'
p5
tp6
Rp7
(I1
(I1
I1
tp8
cnumpy
dtype
p9
(S'f8'
p10
I0
I1
tp11
Rp12
(I3
S'<'
p13
NNNI-1
I-1
I0
tp14
bI00
S'\x9e}\xbf#\xb4A\xa8?'
p15
tp16
bg2
(g3
(I0
tp17
g5
tp18
Rp19
(I1
(I1
I1
tp20
g12
I00
S'\x9d\xde+1\xbd[\xb6?'
p21
tp22
bg2
(g3
(I0
tp23
g5
tp24
Rp25
(I1
(I1
I1
tp26
g12
I00
S'J\xbf"\x01\x92\x8c\xc5\xbf'
p27
tp28
btp29
sS'actual_rot'
p30
(F-2.68506575810048
F-4.863168457777063
F-156.54245898615642
tp31
sS'target_pos'
p32
(lp33
cnumpy.core.multiarray
scalar
p34
(g12
S'\x04\x13\x87]P+\xa8?'
p35
tp36
Rp37
ag34
(g12
S'\x96p\x17\xda\xe4\x9a\xb6?'
p38
tp39
Rp40
aF-0.16873688
asS'target_rot'
p41
(F0.0
F0.0
F-160.0
tp42
sS'center_target_pixels'
p43
(I830
I871
tp44
sS'center_actual_pixels'
p45
(I822
I837
tp46
s.(dp0
S'actual_pos'
p1
(cnumpy.core.multiarray
_reconstruct
p2
(cnumpy.matrixlib.defmatrix
matrix
p3
(I0
tp4
S'b'
p5
tp6
Rp7
(I1
(I1
I1
tp8
cnumpy
dtype
p9
(S'f8'
p10
I0
I1
tp11
Rp12
(I3
S'<'
p13
NNNI-1
I-1
I0
tp14
bI00
S'\x1a\x9a\xedrY\x03\xb0?'
p15
tp16
bg2
(g3
(I0
tp17
g5
tp18
Rp19
(I1
(I1
I1
tp20
g12
I00
S'\x00l\xff\x8c5\t\xb7?'
p21
tp22
bg2
(g3
(I0
tp23
g5
tp24
Rp25
(I1
(I1
I1
tp26
g12
I00
S'\x81\x8a\xedZ\xdc\x9d\xc5\xbf'
p27
tp28
btp29
sS'actual_rot'
p30
(F-3.929229978249206
F-6.976677388545839
F-156.17598358058675
tp31
sS'target_pos'
p32
(lp33
cnumpy.core.multiarray
scalar
p34
(g12
S'\xbda\x1b6\xa4\xab\xaf?'
p35
tp36
Rp37
ag34
(g12
S'%\xe4\xb7\xf2qG\xb7?'
p38
tp39
Rp40
aF-0.16873688
asS'target_rot'
p41
(F0.0
F0.0
F-160.0
tp42
sS'center_target_pixels'
p43
(I649
I869
tp44
sS'center_actual_pixels'
p45
(I646
I834
tp46
s.(dp0
S'actual_pos'
p1
(cnumpy.core.multiarray
_reconstruct
p2
(cnumpy.matrixlib.defmatrix
matrix
p3
(I0
tp4
S'b'
p5
tp6
Rp7
(I1
(I1
I1
tp8
cnumpy
dtype
p9
(S'f8'
p10
I0
I1
tp11
Rp12
(I3
S'<'
p13
NNNI-1
I-1
I0
tp14
bI00
S'\xe1=\x8f\x1a\xa1\xa0\xb3?'
p15
tp16
bg2
(g3
(I0
tp17
g5
tp18
Rp19
(I1
(I1
I1
tp20
g12
I00
S'iD\xaaj\xfc\xb0\xb7?'
p21
tp22
bg2
(g3
(I0
tp23
g5
tp24
Rp25
(I1
(I1
I1
tp26
g12
I00
S'\xf5o\xedM\xf8\xa3\xc5\xbf'
p27
tp28
btp29
sS'actual_rot'
p30
(F-4.29799807750724
F-7.392126064381798
F-155.95777724907967
tp31
sS'target_pos'
p32
(lp33
cnumpy.core.multiarray
scalar
p34
(g12
S'\x12R\xd7Z\xefq\xb3?'
p35
tp36
Rp37
ag34
(g12
S'\x0c\xe8\xae\xd6Q\xee\xb7?'
p38
tp39
Rp40
aF-0.16873688
asS'target_rot'
p41
(F0.0
F0.0
F-160.0
tp42
sS'center_target_pixels'
p43
(I466
I866
tp44
sS'center_actual_pixels'
p45
(I481
I839
tp46
s.(dp0
S'actual_pos'
p1
(cnumpy.core.multiarray
_reconstruct
p2
(cnumpy.matrixlib.defmatrix
matrix
p3
(I0
tp4
S'b'
p5
tp6
Rp7
(I1
(I1
I1
tp8
cnumpy
dtype
p9
(S'f8'
p10
I0
I1
tp11
Rp12
(I3
S'<'
p13
NNNI-1
I-1
I0
tp14
bI00
S'\xcd\x1b\x1a\x8b\x85\x7f\x97?'
p15
tp16
bg2
(g3
(I0
tp17
g5
tp18
Rp19
(I1
(I1
I1
tp20
g12
I00
S'%\xf4?XN\xef\xb3?'
p21
tp22
bg2
(g3
(I0
tp23
g5
tp24
Rp25
(I1
(I1
I1
tp26
g12
I00
S'k\xc41\xe5\x16e\xc5\xbf'
p27
tp28
btp29
sS'actual_rot'
p30
(F-0.3297250187760885
F-0.5339034017150184
F-158.49437797320664
tp31
sS'target_pos'
p32
(lp33
cnumpy.core.multiarray
scalar
p34
(g12
S',u\xc1\xe3\x80C\x98?'
p35
tp36
Rp37
ag34
(g12
S'\xbcR!\xe0Z\xfb\xb3?'
p38
tp39
Rp40
aF-0.16873688
asS'target_rot'
p41
(F0.0
F0.0
F-160.0
tp42
sS'center_target_pixels'
p43
(I1100
I787
tp44
sS'center_actual_pixels'
p45
(I1119
I773
tp46
s.(dp0
S'actual_pos'
p1
(cnumpy.core.multiarray
_reconstruct
p2
(cnumpy.matrixlib.defmatrix
matrix
p3
(I0
tp4
S'b'
p5
tp6
Rp7
(I1
(I1
I1
tp8
cnumpy
dtype
p9
(S'f8'
p10
I0
I1
tp11
Rp12
(I3
S'<'
p13
NNNI-1
I-1
I0
tp14
bI00
S'\x0f\xc0%i\xcb\xd2\xa3?'
p15
tp16
bg2
(g3
(I0
tp17
g5
tp18
Rp19
(I1
(I1
I1
tp20
g12
I00
S'\x12\xa3b\x072\x92\xb4?'
p21
tp22
bg2
(g3
(I0
tp23
g5
tp24
Rp25
(I1
(I1
I1
tp26
g12
I00
S'\xf0=\xa5H\xa3{\xc5\xbf'
p27
tp28
btp29
sS'actual_rot'
p30
(F-1.6498939078913093
F-3.2325787554760637
F-157.02159088189742
tp31
sS'target_pos'
p32
(lp33
cnumpy.core.multiarray
scalar
p34
(g12
S'\xb4\x84E\xc6\x19\xf3\xa3?'
p35
tp36
Rp37
ag34
(g12
S'\xdb8I9K\xb3\xb4?'
p38
tp39
Rp40
aF-0.16873688
asS'target_rot'
p41
(F0.0
F0.0
F-160.0
tp42
sS'center_target_pixels'
p43
(I922
I783
tp44
sS'center_actual_pixels'
p45
(I931
I775
tp46
s.(dp0
S'actual_pos'
p1
(cnumpy.core.multiarray
_reconstruct
p2
(cnumpy.matrixlib.defmatrix
matrix
p3
(I0
tp4
S'b'
p5
tp6
Rp7
(I1
(I1
I1
tp8
cnumpy
dtype
p9
(S'f8'
p10
I0
I1
tp11
Rp12
(I3
S'<'
p13
NNNI-1
I-1
I0
tp14
bI00
S'\x8b\xbb\x08A\x0e\xb7\xac?'
p15
tp16
bg2
(g3
(I0
tp17
g5
tp18
Rp19
(I1
(I1
I1
tp20
g12
I00
S'>b\xd8\xf5u3\xb5?'
p21
tp22
bg2
(g3
(I0
tp23
g5
tp24
Rp25
(I1
(I1
I1
tp26
g12
I00
S'e\xf5D\x0b\x9b\x8e\xc5\xbf'
p27
tp28
btp29
sS'actual_rot'
p30
(F-3.248198257127413
F-6.379624071833507
F-156.48056456425428
tp31
sS'target_pos'
p32
(lp33
cnumpy.core.multiarray
scalar
p34
(g12
S'Z[\x81\x83\xde\x87\xac?'
p35
tp36
Rp37
ag34
(g12
S'\x0e.t8\x857\xb5?'
p38
tp39
Rp40
aF-0.16873688
asS'target_rot'
p41
(F0.0
F0.0
F-160.0
tp42
sS'center_target_pixels'
p43
(I742
I780
tp44
sS'center_actual_pixels'
p45
(I731
I772
tp46
s.(dp0
S'actual_pos'
p1
(cnumpy.core.multiarray
_reconstruct
p2
(cnumpy.matrixlib.defmatrix
matrix
p3
(I0
tp4
S'b'
p5
tp6
Rp7
(I1
(I1
I1
tp8
cnumpy
dtype
p9
(S'f8'
p10
I0
I1
tp11
Rp12
(I3
S'<'
p13
NNNI-1
I-1
I0
tp14
bI00
S'\xfdZ\xf0\x95\xe7\x1b\xb2?'
p15
tp16
bg2
(g3
(I0
tp17
g5
tp18
Rp19
(I1
(I1
I1
tp20
g12
I00
S'ln\x87\xbf\n\xbf\xb5?'
p21
tp22
bg2
(g3
(I0
tp23
g5
tp24
Rp25
(I1
(I1
I1
tp26
g12
I00
S'\x06Q\xd80/\x96\xc5\xbf'
p27
tp28
btp29
sS'actual_rot'
p30
(F-3.78831001527804
F-7.292151494610471
F-156.02327203419443
tp31
sS'target_pos'
p32
(lp33
cnumpy.core.multiarray
scalar
p34
(g12
S'\xf8\x9f<5 \xfc\xb1?'
p35
tp36
Rp37
ag34
(g12
S',\x88\x1c\xba\xa6\xbd\xb5?'
p38
tp39
Rp40
aF-0.16873688
asS'target_rot'
p41
(F0.0
F0.0
F-160.0
tp42
sS'center_target_pixels'
p43
(I561
I777
tp44
sS'center_actual_pixels'
p45
(I561
I766
tp46
s.(dp0
S'actual_pos'
p1
(cnumpy.core.multiarray
_reconstruct
p2
(cnumpy.matrixlib.defmatrix
matrix
p3
(I0
tp4
S'b'
p5
tp6
Rp7
(I1
(I1
I1
tp8
cnumpy
dtype
p9
(S'f8'
p10
I0
I1
tp11
Rp12
(I3
S'<'
p13
NNNI-1
I-1
I0
tp14
bI00
S'"\xe6mG\x0c\xbb\x90?'
p15
tp16
bg2
(g3
(I0
tp17
g5
tp18
Rp19
(I1
(I1
I1
tp20
g12
I00
S'\xfe\x95.\xf9\xcb<\xb2?'
p21
tp22
bg2
(g3
(I0
tp23
g5
tp24
Rp25
(I1
(I1
I1
tp26
g12
I00
S'\xeb+S\xa5\x0b\x85\xc5\xbf'
p27
tp28
btp29
sS'actual_rot'
p30
(F0.35115195233852675
F1.118380547369691
F-160.11277175806495
tp31
sS'target_pos'
p32
(lp33
cnumpy.core.multiarray
scalar
p34
(g12
S'\xb7\tq\xcb~\xe9\x91?'
p35
tp36
Rp37
ag34
(g12
S'\x1f0\xb2\x11\x03-\xb2?'
p38
tp39
Rp40
aF-0.16873688
asS'target_rot'
p41
(F0.0
F0.0
F-160.0
tp42
sS'center_target_pixels'
p43
(I1190
I700
tp44
sS'center_actual_pixels'
p45
(I1224
I702
tp46
s.(dp0
S'actual_pos'
p1
(cnumpy.core.multiarray
_reconstruct
p2
(cnumpy.matrixlib.defmatrix
matrix
p3
(I0
tp4
S'b'
p5
tp6
Rp7
(I1
(I1
I1
tp8
cnumpy
dtype
p9
(S'f8'
p10
I0
I1
tp11
Rp12
(I3
S'<'
p13
NNNI-1
I-1
I0
tp14
bI00
S'J7\xd1\xd5\x9d2\xa0?'
p15
tp16
bg2
(g3
(I0
tp17
g5
tp18
Rp19
(I1
(I1
I1
tp20
g12
I00
S'\xa6\x1b\x87\xf7\xd6\xb9\xb2?'
p21
tp22
bg2
(g3
(I0
tp23
g5
tp24
Rp25
(I1
(I1
I1
tp26
g12
I00
S'\x92\xf7\xcasEk\xc5\xbf'
p27
tp28
btp29
sS'actual_rot'
p30
(F-0.7915076365640875
F-1.742125429476021
F-158.4681798111859
tp31
sS'target_pos'
p32
(lp33
cnumpy.core.multiarray
scalar
p34
(g12
S'\x93\xc4t\x90\x11\x80\xa0?'
p35
tp36
Rp37
ag34
(g12
S's\xe4\xaf\xa0m\xa8\xb2?'
p38
tp39
Rp40
aF-0.16873688
asS'target_rot'
p41
(F0.0
F0.0
F-160.0
tp42
sS'center_target_pixels'
p43
(I1013
I696
tp44
sS'center_actual_pixels'
p45
(I1024
I709
tp46
s.(dp0
S'actual_pos'
p1
(cnumpy.core.multiarray
_reconstruct
p2
(cnumpy.matrixlib.defmatrix
matrix
p3
(I0
tp4
S'b'
p5
tp6
Rp7
(I1
(I1
I1
tp8
cnumpy
dtype
p9
(S'f8'
p10
I0
I1
tp11
Rp12
(I3
S'<'
p13
NNNI-1
I-1
I0
tp14
bI00
S'\x88\x94\xb6\xc6[A\xa9?'
p15
tp16
bg2
(g3
(I0
tp17
g5
tp18
Rp19
(I1
(I1
I1
tp20
g12
I00
S"\x9b\xd9\xb0b'+\xb3?"
p21
tp22
bg2
(g3
(I0
tp23
g5
tp24
Rp25
(I1
(I1
I1
tp26
g12
I00
S'\xf8\xef\xf2\x0b\xd1\x83\xc5\xbf'
p27
tp28
btp29
sS'actual_rot'
p30
(F-2.450803560881089
F-5.387469026136636
F-157.71854691627453
tp31
sS'target_pos'
p32
(lp33
cnumpy.core.multiarray
scalar
p34
(g12
S'\x94|\r\xbcN(\xa9?'
p35
tp36
Rp37
ag34
(g12
S'\x82~\xda\x8f\x8b\x16\xb3?'
p38
tp39
Rp40
aF-0.16873688
asS'target_rot'
p41
(F0.0
F0.0
F-160.0
tp42
sS'center_target_pixels'
p43
(I835
I692
tp44
sS'center_actual_pixels'
p45
(I822
I697
tp46
s.(dp0
S'actual_pos'
p1
(cnumpy.core.multiarray
_reconstruct
p2
(cnumpy.matrixlib.defmatrix
matrix
p3
(I0
tp4
S'b'
p5
tp6
Rp7
(I1
(I1
I1
tp8
cnumpy
dtype
p9
(S'f8'
p10
I0
I1
tp11
Rp12
(I3
S'<'
p13
NNNI-1
I-1
I0
tp14
bI00
S'\x182\xb0O\xbc\xa7\xb0?'
p15
tp16
bg2
(g3
(I0
tp17
g5
tp18
Rp19
(I1
(I1
I1
tp20
g12
I00
S'sP;U\x83\xb1\xb3?'
p21
tp22
bg2
(g3
(I0
tp23
g5
tp24
Rp25
(I1
(I1
I1
tp26
g12
I00
S'W\rb\xc0=\x96\xc5\xbf'
p27
tp28
btp29
sS'actual_rot'
p30
(F-3.21987400151195
F-6.928503996896686
F-156.99890590260733
tp31
sS'target_pos'
p32
(lp33
cnumpy.core.multiarray
scalar
p34
(g12
S'\xbd?\xdd\xe0\xc7\x86\xb0?'
p35
tp36
Rp37
ag34
(g12
S'\xbd\xd3r\xa5Z\x9a\xb3?'
p38
tp39
Rp40
aF-0.16873688
asS'target_rot'
p41
(F0.0
F0.0
F-160.0
tp42
sS'center_target_pixels'
p43
(I654
I689
tp44
sS'center_actual_pixels'
p45
(I646
I690
tp46
s.(dp0
S'actual_pos'
p1
(cnumpy.core.multiarray
_reconstruct
p2
(cnumpy.matrixlib.defmatrix
matrix
p3
(I0
tp4
S'b'
p5
tp6
Rp7
(I1
(I1
I1
tp8
cnumpy
dtype
p9
(S'f8'
p10
I0
I1
tp11
Rp12
(I3
S'<'
p13
NNNI-1
I-1
I0
tp14
bI00
S'\x91A\xd7\xbd\xd6\xfa\xb3?'
p15
tp16
bg2
(g3
(I0
tp17
g5
tp18
Rp19
(I1
(I1
I1
tp20
g12
I00
S'\xbb\t\xf4\x04\x8e\x03\xb4?'
p21
tp22
bg2
(g3
(I0
tp23
g5
tp24
Rp25
(I1
(I1
I1
tp26
g12
I00
S'7\x14a\xfa\x0b\x93\xc5\xbf'
p27
tp28
btp29
sS'actual_rot'
p30
(F-3.62187038839556
F-7.637269112687105
F-156.43045592093677
tp31
sS'target_pos'
p32
(lp33
cnumpy.core.multiarray
scalar
p34
(g12
S'\x04\x11\xb3\xd4:\xdd\xb3?'
p35
tp36
Rp37
ag34
(g12
S'L\x19\xce\xefD\xf0\xb3?'
p38
tp39
Rp40
aF-0.16873688
asS'target_rot'
p41
(F0.0
F0.0
F-160.0
tp42
sS'center_target_pixels'
p43
(I471
I685
tp44
sS'center_actual_pixels'
p45
(I497
I677
tp46
s.(dp0
S'actual_pos'
p1
(cnumpy.core.multiarray
_reconstruct
p2
(cnumpy.matrixlib.defmatrix
matrix
p3
(I0
tp4
S'b'
p5
tp6
Rp7
(I1
(I1
I1
tp8
cnumpy
dtype
p9
(S'f8'
p10
I0
I1
tp11
Rp12
(I3
S'<'
p13
NNNI-1
I-1
I0
tp14
bI00
S'\xc6\x81\x16C\xc3\xb3\x98?'
p15
tp16
bg2
(g3
(I0
tp17
g5
tp18
Rp19
(I1
(I1
I1
tp20
g12
I00
S'N\xc3\x80\xe4\xb3\xb2\xb0?'
p21
tp22
bg2
(g3
(I0
tp23
g5
tp24
Rp25
(I1
(I1
I1
tp26
g12
I00
S'\x9dY\xf7\xe7\x07a\xc5\xbf'
p27
tp28
btp29
sS'actual_rot'
p30
(F0.05251710345018156
F0.24761592600957283
F-160.0595897448689
tp31
sS'target_pos'
p32
(lp33
cnumpy.core.multiarray
scalar
p34
(g12
S'\x06<\x18\xcd,\xae\x99?'
p35
tp36
Rp37
ag34
(g12
S'\xdf\xf5\xf2p\xec\x95\xb0?'
p38
tp39
Rp40
aF-0.16873688
asS'target_rot'
p41
(F0.0
F0.0
F-160.0
tp42
sS'center_target_pixels'
p43
(I1104
I610
tp44
sS'center_actual_pixels'
p45
(I1121
I632
tp46
s.(dp0
S'actual_pos'
p1
(cnumpy.core.multiarray
_reconstruct
p2
(cnumpy.matrixlib.defmatrix
matrix
p3
(I0
tp4
S'b'
p5
tp6
Rp7
(I1
(I1
I1
tp8
cnumpy
dtype
p9
(S'f8'
p10
I0
I1
tp11
Rp12
(I3
S'<'
p13
NNNI-1
I-1
I0
tp14
bI00
S'o\x93J\xfd\x14\x9c\xa4?'
p15
tp16
bg2
(g3
(I0
tp17
g5
tp18
Rp19
(I1
(I1
I1
tp20
g12
I00
S'"}o\x91\xeb\x11\xb1?'
p21
tp22
bg2
(g3
(I0
tp23
g5
tp24
Rp25
(I1
(I1
I1
tp26
g12
I00
S'}\xbfa\xc2Sx\xc5\xbf'
p27
tp28
btp29
sS'actual_rot'
p30
(F-1.3949570804167413
F-3.448479049555716
F-159.56659401481113
tp31
sS'target_pos'
p32
(lp33
cnumpy.core.multiarray
scalar
p34
(g12
S'\xfdp\x1e\xba\xae\xb3\xa4?'
p35
tp36
Rp37
ag34
(g12
S'\xa1\xa2C\xaf\xbf\xf3\xb0?'
p38
tp39
Rp40
aF-0.16873688
asS'target_rot'
p41
(F0.0
F0.0
F-160.0
tp42
sS'center_target_pixels'
p43
(I926
I606
tp44
sS'center_actual_pixels'
p45
(I930
I623
tp46
s.(dp0
S'actual_pos'
p1
(cnumpy.core.multiarray
_reconstruct
p2
(cnumpy.matrixlib.defmatrix
matrix
p3
(I0
tp4
S'b'
p5
tp6
Rp7
(I1
(I1
I1
tp8
cnumpy
dtype
p9
(S'f8'
p10
I0
I1
tp11
Rp12
(I3
S'<'
p13
NNNI-1
I-1
I0
tp14
bI00
S'"\xd1\xf1\x96\xc8)\xad?'
p15
tp16
bg2
(g3
(I0
tp17
g5
tp18
Rp19
(I1
(I1
I1
tp20
g12
I00
S'\x04\xc9N\xf1\xd3\x8c\xb1?'
p21
tp22
bg2
(g3
(I0
tp23
g5
tp24
Rp25
(I1
(I1
I1
tp26
g12
I00
S',t\x0c=C\x89\xc5\xbf'
p27
tp28
btp29
sS'actual_rot'
p30
(F-2.7331821869442856
F-6.605814162598643
F-158.4530869990105
tp31
sS'target_pos'
p32
(lp33
cnumpy.core.multiarray
scalar
p34
(g12
S'\xca\xfa\xf0\xa8?\xfa\xac?'
p35
tp36
Rp37
ag34
(g12
S']\x86\xd5\xcc\x1ay\xb1?'
p38
tp39
Rp40
aF-0.16873688
asS'target_rot'
p41
(F0.0
F0.0
F-160.0
tp42
sS'center_target_pixels'
p43
(I747
I601
tp44
sS'center_actual_pixels'
p45
(I745
I606
tp46
s.(dp0
S'actual_pos'
p1
(cnumpy.core.multiarray
_reconstruct
p2
(cnumpy.matrixlib.defmatrix
matrix
p3
(I0
tp4
S'b'
p5
tp6
Rp7
(I1
(I1
I1
tp8
cnumpy
dtype
p9
(S'f8'
p10
I0
I1
tp11
Rp12
(I3
S'<'
p13
NNNI-1
I-1
I0
tp14
bI00
S'\xf3\x1c\xce?\x1a\x92\xb2?'
p15
tp16
bg2
(g3
(I0
tp17
g5
tp18
Rp19
(I1
(I1
I1
tp20
g12
I00
S'?K+\x9a\x93!\xb2?'
p21
tp22
bg2
(g3
(I0
tp23
g5
tp24
Rp25
(I1
(I1
I1
tp26
g12
I00
S'^\x1ep\x95!\x8f\xc5\xbf'
p27
tp28
btp29
sS'actual_rot'
p30
(F-3.18494131052103
F-7.431119994887721
F-157.71130411914947
tp31
sS'target_pos'
p32
(lp33
cnumpy.core.multiarray
scalar
p34
(g12
S'v\x194\xe3tz\xb2?'
p35
tp36
Rp37
ag34
(g12
S'y\xd6W\xed\xa5\x10\xb2?'
p38
tp39
Rp40
aF-0.16873688
asS'target_rot'
p41
(F0.0
F0.0
F-160.0
tp42
sS'center_target_pixels'
p43
(I565
I597
tp44
sS'center_actual_pixels'
p45
(I566
I605
tp46
s.(dp0
S'actual_pos'
p1
(cnumpy.core.multiarray
_reconstruct
p2
(cnumpy.matrixlib.defmatrix
matrix
p3
(I0
tp4
S'b'
p5
tp6
Rp7
(I1
(I1
I1
tp8
cnumpy
dtype
p9
(S'f8'
p10
I0
I1
tp11
Rp12
(I3
S'<'
p13
NNNI-1
I-1
I0
tp14
bI00
S'\xb7\xa3\xad\xbb\x06G\x93?'
p15
tp16
bg2
(g3
(I0
tp17
g5
tp18
Rp19
(I1
(I1
I1
tp20
g12
I00
S'\x10\xf1\xc6\x90\x01\xe1\xab?'
p21
tp22
bg2
(g3
(I0
tp23
g5
tp24
Rp25
(I1
(I1
I1
tp26
g12
I00
S'\x94i\xc2\x8fkd\xc5\xbf'
p27
tp28
btp29
sS'actual_rot'
p30
(F0.5715064659648649
F1.8986602702563447
F-162.08914324376985
tp31
sS'target_pos'
p32
(lp33
cnumpy.core.multiarray
scalar
p34
(g12
S'\xf8\xc2\xcf\x0c\xe8\xc5\x94?'
p35
tp36
Rp37
ag34
(g12
S'\x9c-\xffd\xc4w\xab?'
p38
tp39
Rp40
aF-0.16873688
asS'target_rot'
p41
(F0.0
F0.0
F-160.0
tp42
sS'center_target_pixels'
p43
(I1194
I523
tp44
sS'center_actual_pixels'
p45
(I1212
I525
tp46
s.(dp0
S'actual_pos'
p1
(cnumpy.core.multiarray
_reconstruct
p2
(cnumpy.matrixlib.defmatrix
matrix
p3
(I0
tp4
S'b'
p5
tp6
Rp7
(I1
(I1
I1
tp8
cnumpy
dtype
p9
(S'f8'
p10
I0
I1
tp11
Rp12
(I3
S'<'
p13
NNNI-1
I-1
I0
tp14
bI00
S'\xcf\xde.\xbbN\xbc\xa0?'
p15
tp16
bg2
(g3
(I0
tp17
g5
tp18
Rp19
(I1
(I1
I1
tp20
g12
I00
S'\xa3b\xd5f\x15\x1d\xad?'
p21
tp22
bg2
(g3
(I0
tp23
g5
tp24
Rp25
(I1
(I1
I1
tp26
g12
I00
S'\xac\x1e\x91\x9e\xb8n\xc5\xbf'
p27
tp28
btp29
sS'actual_rot'
p30
(F-0.5339463777806238
F-1.535925334360355
F-161.24610279265266
tp31
sS'target_pos'
p32
(lp33
cnumpy.core.multiarray
scalar
p34
(g12
S'\xc1GW\xed\x91\r\xa1?'
p35
tp36
Rp37
ag34
(g12
S';\xa4X\xb5\x07\xd3\xac?'
p38
tp39
Rp40
aF-0.16873688
asS'target_rot'
p41
(F0.0
F0.0
F-160.0
tp42
sS'center_target_pixels'
p43
(I1017
I520
tp44
sS'center_actual_pixels'
p45
(I1039
I530
tp46
s.(dp0
S'actual_pos'
p1
(cnumpy.core.multiarray
_reconstruct
p2
(cnumpy.matrixlib.defmatrix
matrix
p3
(I0
tp4
S'b'
p5
tp6
Rp7
(I1
(I1
I1
tp8
cnumpy
dtype
p9
(S'f8'
p10
I0
I1
tp11
Rp12
(I3
S'<'
p13
NNNI-1
I-1
I0
tp14
bI00
S'1\x96\xc4\xb8\x07\xaf\xa9?'
p15
tp16
bg2
(g3
(I0
tp17
g5
tp18
Rp19
(I1
(I1
I1
tp20
g12
I00
S'UW\x84\x9a\xf0\x12\xae?'
p21
tp22
bg2
(g3
(I0
tp23
g5
tp24
Rp25
(I1
(I1
I1
tp26
g12
I00
S'\xcf\x83\x93\x16\x13\x86\xc5\xbf'
p27
tp28
btp29
sS'actual_rot'
p30
(F-1.7532290680932852
F-4.975686858464884
F-160.3285483136009
tp31
sS'target_pos'
p32
(lp33
cnumpy.core.multiarray
scalar
p34
(g12
S'\x1a\x08\xc4\xfb\xc2\xa2\xa9?'
p35
tp36
Rp37
ag34
(g12
S'Vr\xbc\x1c\xc1\xdd\xad?'
p38
tp39
Rp40
aF-0.16873688
asS'target_rot'
p41
(F0.0
F0.0
F-160.0
tp42
sS'center_target_pixels'
p43
(I839
I515
tp44
sS'center_actual_pixels'
p45
(I836
I514
tp46
s.(dp0
S'actual_pos'
p1
(cnumpy.core.multiarray
_reconstruct
p2
(cnumpy.matrixlib.defmatrix
matrix
p3
(I0
tp4
S'b'
p5
tp6
Rp7
(I1
(I1
I1
tp8
cnumpy
dtype
p9
(S'f8'
p10
I0
I1
tp11
Rp12
(I3
S'<'
p13
NNNI-1
I-1
I0
tp14
bI00
S'\x9b\x14\x7fv\x82\xb8\xb0?'
p15
tp16
bg2
(g3
(I0
tp17
g5
tp18
Rp19
(I1
(I1
I1
tp20
g12
I00
S'i\x9d\xab\x93\x18\x99\xae?'
p21
tp22
bg2
(g3
(I0
tp23
g5
tp24
Rp25
(I1
(I1
I1
tp26
g12
I00
S'\xd0Tn\x16\x90\x8d\xc5\xbf'
p27
tp28
btp29
sS'actual_rot'
p30
(F-2.5206139867150545
F-7.010151914378703
F-159.06975245510077
tp31
sS'target_pos'
p32
(lp33
cnumpy.core.multiarray
scalar
p34
(g12
S'c\xfbW[\x89\xa0\xb0?'
p35
tp36
Rp37
ag34
(g12
S'\x00zrB\xe9r\xae?'
p38
tp39
Rp40
aF-0.16873688
asS'target_rot'
p41
(F0.0
F0.0
F-160.0
tp42
sS'center_target_pixels'
p43
(I659
I510
tp44
sS'center_actual_pixels'
p45
(I665
I494
tp46
s.(dp0
S'actual_pos'
p1
(cnumpy.core.multiarray
_reconstruct
p2
(cnumpy.matrixlib.defmatrix
matrix
p3
(I0
tp4
S'b'
p5
tp6
Rp7
(I1
(I1
I1
tp8
cnumpy
dtype
p9
(S'f8'
p10
I0
I1
tp11
Rp12
(I3
S'<'
p13
NNNI-1
I-1
I0
tp14
bI00
S'\x1e\x15\xbfI\x19\x96\xb3?'
p15
tp16
bg2
(g3
(I0
tp17
g5
tp18
Rp19
(I1
(I1
I1
tp20
g12
I00
S'\xadS\x88\x8cZh\xaf?'
p21
tp22
bg2
(g3
(I0
tp23
g5
tp24
Rp25
(I1
(I1
I1
tp26
g12
I00
S'@\xf1\x0cA\x82\x91\xc5\xbf'
p27
tp28
btp29
sS'actual_rot'
p30
(F-2.7670582694549464
F-7.475743463592227
F-158.50012277699696
tp31
sS'target_pos'
p32
(lp33
cnumpy.core.multiarray
scalar
p34
(g12
S'\xa5(\xf0\xbe\xf2\x83\xb3?'
p35
tp36
Rp37
ag34
(g12
S'\xee\xf0e\n\x8d;\xaf?'
p38
tp39
Rp40
aF-0.16873688
asS'target_rot'
p41
(F0.0
F0.0
F-160.0
tp42
sS'center_target_pixels'
p43
(I475
I505
tp44
sS'center_actual_pixels'
p45
(I541
I495
tp46
s.(dp0
S'actual_pos'
p1
(cnumpy.core.multiarray
_reconstruct
p2
(cnumpy.matrixlib.defmatrix
matrix
p3
(I0
tp4
S'b'
p5
tp6
Rp7
(I1
(I1
I1
tp8
cnumpy
dtype
p9
(S'f8'
p10
I0
I1
tp11
Rp12
(I3
S'<'
p13
NNNI-1
I-1
I0
tp14
bI00
S'\xc7K\xe1\xa0`\xcc\x9a?'
p15
tp16
bg2
(g3
(I0
tp17
g5
tp18
Rp19
(I1
(I1
I1
tp20
g12
I00
S'\xdf\x08\x83\x98J\xeb\xa8?'
p21
tp22
bg2
(g3
(I0
tp23
g5
tp24
Rp25
(I1
(I1
I1
tp26
g12
I00
S'\t\xfb\x99Y\x91e\xc5\xbf'
p27
tp28
btp29
sS'actual_rot'
p30
(F0.07617473634436021
F0.23150117847751692
F-162.42416836228367
tp31
sS'target_pos'
p32
(lp33
cnumpy.core.multiarray
scalar
p34
(g12
S' ]0\xf1\xc4\xc7\x9b?'
p35
tp36
Rp37
ag34
(g12
S'\x94\x8d\x17.\xa3s\xa8?'
p38
tp39
Rp40
aF-0.16873688
asS'target_rot'
p41
(F0.0
F0.0
F-160.0
tp42
sS'center_target_pixels'
p43
(I1109
I433
tp44
sS'center_actual_pixels'
p45
(I1130
I452
tp46
s.(dp0
S'actual_pos'
p1
(cnumpy.core.multiarray
_reconstruct
p2
(cnumpy.matrixlib.defmatrix
matrix
p3
(I0
tp4
S'b'
p5
tp6
Rp7
(I1
(I1
I1
tp8
cnumpy
dtype
p9
(S'f8'
p10
I0
I1
tp11
Rp12
(I3
S'<'
p13
NNNI-1
I-1
I0
tp14
bI00
S'\xdb\xd6\x80Fr\x8d\xa5?'
p15
tp16
bg2
(g3
(I0
tp17
g5
tp18
Rp19
(I1
(I1
I1
tp20
g12
I00
S'\xfa\xc3V\x14\x1b\xa9\xa9?'
p21
tp22
bg2
(g3
(I0
tp23
g5
tp24
Rp25
(I1
(I1
I1
tp26
g12
I00
S'\xbd\xf0q3\xb5{\xc5\xbf'
p27
tp28
btp29
sS'actual_rot'
p30
(F-0.9390771841745748
F-3.230318034923306
F-161.90632645721638
tp31
sS'target_pos'
p32
(lp33
cnumpy.core.multiarray
scalar
p34
(g12
S'\x00X\xf6\xb2\x03\xaf\xa5?'
p35
tp36
Rp37
ag34
(g12
S'\xeal\xd5\x96\xa4L\xa9?'
p38
tp39
Rp40
aF-0.16873688
asS'target_rot'
p41
(F0.0
F0.0
F-160.0
tp42
sS'center_target_pixels'
p43
(I931
I428
tp44
sS'center_actual_pixels'
p45
(I941
I435
tp46
s.(dp0
S'actual_pos'
p1
(cnumpy.core.multiarray
_reconstruct
p2
(cnumpy.matrixlib.defmatrix
matrix
p3
(I0
tp4
S'b'
p5
tp6
Rp7
(I1
(I1
I1
tp8
cnumpy
dtype
p9
(S'f8'
p10
I0
I1
tp11
Rp12
(I3
S'<'
p13
NNNI-1
I-1
I0
tp14
bI00
S'\xcf\xb2\x93 o,\xae?'
p15
tp16
bg2
(g3
(I0
tp17
g5
tp18
Rp19
(I1
(I1
I1
tp20
g12
I00
S'\xa3\xb1\xcdA9\xe9\xaa?'
p21
tp22
bg2
(g3
(I0
tp23
g5
tp24
Rp25
(I1
(I1
I1
tp26
g12
I00
S'\xd3\xaf_"\xbd\x8c\xc5\xbf'
p27
tp28
btp29
sS'actual_rot'
p30
(F-1.6907079157271898
F-5.445939548840376
F-160.21977162364826
tp31
sS'target_pos'
p32
(lp33
cnumpy.core.multiarray
scalar
p34
(g12
S'w\xcb^M\xe8\x19\xae?'
p35
tp36
Rp37
ag34
(g12
S'3\xdf\xba^\xf8\xa5\xaa?'
p38
tp39
Rp40
aF-0.16873688
asS'target_rot'
p41
(F0.0
F0.0
F-160.0
tp42
sS'center_target_pixels'
p43
(I751
I423
tp44
sS'center_actual_pixels'
p45
(I748
I427
tp46
s.(dp0
S'actual_pos'
p1
(cnumpy.core.multiarray
_reconstruct
p2
(cnumpy.matrixlib.defmatrix
matrix
p3
(I0
tp4
S'b'
p5
tp6
Rp7
(I1
(I1
I1
tp8
cnumpy
dtype
p9
(S'f8'
p10
I0
I1
tp11
Rp12
(I3
S'<'
p13
NNNI-1
I-1
I0
tp14
bI00
S'U\xcc\xdb\xcf\xe2\xcb\xb2?'
p15
tp16
bg2
(g3
(I0
tp17
g5
tp18
Rp19
(I1
(I1
I1
tp20
g12
I00
S'\xd0\xaa\x95@\x89@\xac?'
p21
tp22
bg2
(g3
(I0
tp23
g5
tp24
Rp25
(I1
(I1
I1
tp26
g12
I00
S'\x05\xdb4\xfe\xb9\x92\xc5\xbf'
p27
tp28
btp29
sS'actual_rot'
p30
(F-2.340938726029581
F-7.126462478932838
F-158.9778952765819
tp31
sS'target_pos'
p32
(lp33
cnumpy.core.multiarray
scalar
p34
(g12
S'\x81\xb0TQe\xb6\xb2?'
p35
tp36
Rp37
ag34
(g12
S'1T!H\xb7\x02\xac?'
p38
tp39
Rp40
aF-0.16873688
asS'target_rot'
p41
(F0.0
F0.0
F-160.0
tp42
sS'center_target_pixels'
p43
(I570
I417
tp44
sS'center_actual_pixels'
p45
(I581
I428
tp46
s.(dp0
S'actual_pos'
p1
(cnumpy.core.multiarray
_reconstruct
p2
(cnumpy.matrixlib.defmatrix
matrix
p3
(I0
tp4
S'b'
p5
tp6
Rp7
(I1
(I1
I1
tp8
cnumpy
dtype
p9
(S'f8'
p10
I0
I1
tp11
Rp12
(I3
S'<'
p13
NNNI-1
I-1
I0
tp14
bI00
S'\x99Wqy\\D\x95?'
p15
tp16
bg2
(g3
(I0
tp17
g5
tp18
Rp19
(I1
(I1
I1
tp20
g12
I00
S'NX\xd5\x15G<\xa5?'
p21
tp22
bg2
(g3
(I0
tp23
g5
tp24
Rp25
(I1
(I1
I1
tp26
g12
I00
S'\xac\x13\xf3+&c\xc5\xbf'
p27
tp28
btp29
sS'actual_rot'
p30
(F0.33351640438015884
F1.3380056932797055
F-162.6053936833786
tp31
sS'target_pos'
p32
(lp33
cnumpy.core.multiarray
scalar
p34
(g12
S'\x12\xa7\xe8~\x1f{\x96?'
p35
tp36
Rp37
ag34
(g12
S'\xceYg\xd1\x16\x9e\xa4?'
p38
tp39
Rp40
aF-0.16873688
asS'target_rot'
p41
(F0.0
F0.0
F-160.0
tp42
sS'center_target_pixels'
p43
(I1200
I346
tp44
sS'center_actual_pixels'
p45
(I1195
I385
tp46
s.(dp0
S'actual_pos'
p1
(cnumpy.core.multiarray
_reconstruct
p2
(cnumpy.matrixlib.defmatrix
matrix
p3
(I0
tp4
S'b'
p5
tp6
Rp7
(I1
(I1
I1
tp8
cnumpy
dtype
p9
(S'f8'
p10
I0
I1
tp11
Rp12
(I3
S'<'
p13
NNNI-1
I-1
I0
tp14
bI00
S'{\xfe\x07I\x88\xa4\xab?'
p15
tp16
bg2
(g3
(I0
tp17
g5
tp18
Rp19
(I1
(I1
I1
tp20
g12
I00
S'\xef\xfdFm\x81M\xa7?'
p21
tp22
bg2
(g3
(I0
tp23
g5
tp24
Rp25
(I1
(I1
I1
tp26
g12
I00
S'\xa8\xc7h\xdd\x99\x88\xc5\xbf'
p27
tp28
btp29
sS'actual_rot'
p30
(F-1.1938593152427952
F-4.534183863168342
F-161.71673688378354
tp31
sS'target_pos'
p32
(lp33
cnumpy.core.multiarray
scalar
p34
(g12
S'!7\x91\xcdo\xb1\xab?'
p35
tp36
Rp37
ag34
(g12
S'\xce\xc8 J\xdd\xea\xa6?'
p38
tp39
Rp40
aF-0.16873688
asS'target_rot'
p41
(F0.0
F0.0
F-160.0
tp42
sS'center_target_pixels'
p43
(I843
I336
tp44
sS'center_actual_pixels'
p45
(I813
I359
tp46
s.(dp0
S'actual_pos'
p1
(cnumpy.core.multiarray
_reconstruct
p2
(cnumpy.matrixlib.defmatrix
matrix
p3
(I0
tp4
S'b'
p5
tp6
Rp7
(I1
(I1
I1
tp8
cnumpy
dtype
p9
(S'f8'
p10
I0
I1
tp11
Rp12
(I3
S'<'
p13
NNNI-1
I-1
I0
tp14
bI00
S'\xb9\xa5p9\x0c\xfb\xb0?'
p15
tp16
bg2
(g3
(I0
tp17
g5
tp18
Rp19
(I1
(I1
I1
tp20
g12
I00
S'I\xdc\x9f\x16b\x9c\xa7?'
p21
tp22
bg2
(g3
(I0
tp23
g5
tp24
Rp25
(I1
(I1
I1
tp26
g12
I00
S'\n-\x93\x7f\xb7\x8f\xc5\xbf'
p27
tp28
btp29
sS'actual_rot'
p30
(F-1.4714983422302244
F-5.498539904556016
F-160.20802315176218
tp31
sS'target_pos'
p32
(lp33
cnumpy.core.multiarray
scalar
p34
(g12
S'8\xef\x97{\xc5\xf6\xb0?'
p35
tp36
Rp37
ag34
(g12
S'A\xca\xeb-BB\xa7?'
p38
tp39
Rp40
aF-0.16873688
asS'target_rot'
p41
(F0.0
F0.0
F-160.0
tp42
sS'center_target_pixels'
p43
(I663
I331
tp44
sS'center_actual_pixels'
p45
(I679
I342
tp46
s.(dp0
S'actual_pos'
p1
(cnumpy.core.multiarray
_reconstruct
p2
(cnumpy.matrixlib.defmatrix
matrix
p3
(I0
tp4
S'b'
p5
tp6
Rp7
(I1
(I1
I1
tp8
cnumpy
dtype
p9
(S'f8'
p10
I0
I1
tp11
Rp12
(I3
S'<'
p13
NNNI-1
I-1
I0
tp14
bI00
S'!k\x15\xf2O\xc2\xb4?'
p15
tp16
bg2
(g3
(I0
tp17
g5
tp18
Rp19
(I1
(I1
I1
tp20
g12
I00
S'\xb5\x0b\x9e|\x19\xec\xa8?'
p21
tp22
bg2
(g3
(I0
tp23
g5
tp24
Rp25
(I1
(I1
I1
tp26
g12
I00
S'T_R\xd1x\x90\xc5\xbf'
p27
tp28
btp29
sS'actual_rot'
p30
(F-2.2031098149170365
F-7.704386051559724
F-159.23953427634632
tp31
sS'target_pos'
p32
(lp33
cnumpy.core.multiarray
scalar
p34
(g12
S'Q\xfa\x7fX\x9c\xb0\xb4?'
p35
tp36
Rp37
ag34
(g12
S'\x06U\x127v\x95\xa8?'
p38
tp39
Rp40
aF-0.16873688
asS'target_rot'
p41
(F0.0
F0.0
F-160.0
tp42
sS'center_target_pixels'
p43
(I480
I324
tp44
sS'center_actual_pixels'
p45
(I505
I337
tp46
s.(dp0
S'actual_pos'
p1
(cnumpy.core.multiarray
_reconstruct
p2
(cnumpy.matrixlib.defmatrix
matrix
p3
(I0
tp4
S'b'
p5
tp6
Rp7
(I1
(I1
I1
tp8
cnumpy
dtype
p9
(S'f8'
p10
I0
I1
tp11
Rp12
(I3
S'<'
p13
NNNI-1
I-1
I0
tp14
bI00
S'\x18\xdd\x03\x84\x06d\x9c?'
p15
tp16
bg2
(g3
(I0
tp17
g5
tp18
Rp19
(I1
(I1
I1
tp20
g12
I00
S'\xab\xa8(\x02\xdek\xa2?'
p21
tp22
bg2
(g3
(I0
tp23
g5
tp24
Rp25
(I1
(I1
I1
tp26
g12
I00
S'\x1e\x90X~\x14h\xc5\xbf'
p27
tp28
btp29
sS'actual_rot'
p30
(F0.02620038846743997
F-0.1029692005934969
F-162.83937395455953
tp31
sS'target_pos'
p32
(lp33
cnumpy.core.multiarray
scalar
p34
(g12
S'M[\xb2\xf6\xd2(\x9d?'
p35
tp36
Rp37
ag34
(g12
S'\xc0\x9d\x06\x81\xff\xc9\xa1?'
p38
tp39
Rp40
aF-0.16873688
asS'target_rot'
p41
(F0.0
F0.0
F-160.0
tp42
sS'center_target_pixels'
p43
(I1114
I254
tp44
sS'center_actual_pixels'
p45
(I1121
I311
tp46
s.(dp0
S'actual_pos'
p1
(cnumpy.core.multiarray
_reconstruct
p2
(cnumpy.matrixlib.defmatrix
matrix
p3
(I0
tp4
S'b'
p5
tp6
Rp7
(I1
(I1
I1
tp8
cnumpy
dtype
p9
(S'f8'
p10
I0
I1
tp11
Rp12
(I3
S'<'
p13
NNNI-1
I-1
I0
tp14
bI00
S'\x99\xb6\x14\x1a\xbeH\xa6?'
p15
tp16
bg2
(g3
(I0
tp17
g5
tp18
Rp19
(I1
(I1
I1
tp20
g12
I00
S'\xd8<x\x8d\xf9\xfe\xa2?'
p21
tp22
bg2
(g3
(I0
tp23
g5
tp24
Rp25
(I1
(I1
I1
tp26
g12
I00
S'\x9a\x1bF\\p}\xc5\xbf'
p27
tp28
btp29
sS'actual_rot'
p30
(F-0.6821415502548392
F-3.2882038811449914
F-162.96774268730803
tp31
sS'target_pos'
p32
(lp33
cnumpy.core.multiarray
scalar
p34
(g12
S'\x17\xc8\x01z\x85i\xa6?'
p35
tp36
Rp37
ag34
(g12
S'\x14&\xaa4\xb8\x86\xa2?'
p38
tp39
Rp40
aF-0.16873688
asS'target_rot'
p41
(F0.0
F0.0
F-160.0
tp42
sS'center_target_pixels'
p43
(I935
I249
tp44
sS'center_actual_pixels'
p45
(I940
I286
tp46
s.(dp0
S'actual_pos'
p1
(cnumpy.core.multiarray
_reconstruct
p2
(cnumpy.matrixlib.defmatrix
matrix
p3
(I0
tp4
S'b'
p5
tp6
Rp7
(I1
(I1
I1
tp8
cnumpy
dtype
p9
(S'f8'
p10
I0
I1
tp11
Rp12
(I3
S'<'
p13
NNNI-1
I-1
I0
tp14
bI00
S'B\xc9W\xc7K\x06\xaf?'
p15
tp16
bg2
(g3
(I0
tp17
g5
tp18
Rp19
(I1
(I1
I1
tp20
g12
I00
S'\xde\x1b\xc5\xf2*\xa1\xa4?'
p21
tp22
bg2
(g3
(I0
tp23
g5
tp24
Rp25
(I1
(I1
I1
tp26
g12
I00
S'\xd0\xdd\xdb\x17#\x8d\xc5\xbf'
p27
tp28
btp29
sS'actual_rot'
p30
(F-1.0420614136517043
F-4.513284304205901
F-161.72056853408645
tp31
sS'target_pos'
p32
(lp33
cnumpy.core.multiarray
scalar
p34
(g12
S'\xbcj\x15l\x19\x06\xaf?'
p35
tp36
Rp37
ag34
(g12
S'\x94=\x92\xf9\xeb@\xa4?'
p38
tp39
Rp40
aF-0.16873688
asS'target_rot'
p41
(F0.0
F0.0
F-160.0
tp42
sS'center_target_pixels'
p43
(I755
I243
tp44
sS'center_actual_pixels'
p45
(I748
I283
tp46
s.(dp0
S'actual_pos'
p1
(cnumpy.core.multiarray
_reconstruct
p2
(cnumpy.matrixlib.defmatrix
matrix
p3
(I0
tp4
S'b'
p5
tp6
Rp7
(I1
(I1
I1
tp8
cnumpy
dtype
p9
(S'f8'
p10
I0
I1
tp11
Rp12
(I3
S'<'
p13
NNNI-1
I-1
I0
tp14
bI00
S'\xd9bA\xe6\xeeo\xb3?'
p15
tp16
bg2
(g3
(I0
tp17
g5
tp18
Rp19
(I1
(I1
I1
tp20
g12
I00
S'\x95\x92\xfb\x97+\x0b\xa6?'
p21
tp22
bg2
(g3
(I0
tp23
g5
tp24
Rp25
(I1
(I1
I1
tp26
g12
I00
S'p\x8dQ~+\x92\xc5\xbf'
p27
tp28
btp29
sS'actual_rot'
p30
(F-1.5592169329484047
F-6.311720161376431
F-159.76415071434354
tp31
sS'target_pos'
p32
(lp33
cnumpy.core.multiarray
scalar
p34
(g12
S'Vhg\xf0\xedf\xb3?'
p35
tp36
Rp37
ag34
(g12
S'\x11zG\x07\x11\xac\xa5?'
p38
tp39
Rp40
aF-0.16873688
asS'target_rot'
p41
(F0.0
F0.0
F-160.0
tp42
sS'center_target_pixels'
p43
(I574
I238
tp44
sS'center_actual_pixels'
p45
(I573
I290
tp46
s.