(((cnumpy.core.multiarray
_reconstruct
p0
(cnumpy.matrixlib.defmatrix
matrix
p1
(I0
tp2
S'b'
p3
tp4
Rp5
(I1
(I1
I1
tp6
cnumpy
dtype
p7
(S'f8'
p8
I0
I1
tp9
Rp10
(I3
S'<'
p11
NNNI-1
I-1
I0
tp12
bI00
S'ru\x04E\xfc\x1b>\xbf'
p13
tp14
bg0
(g1
(I0
tp15
g3
tp16
Rp17
(I1
(I1
I1
tp18
g10
I00
S'wD\x90\xbc\x81q\xae?'
p19
tp20
bg0
(g1
(I0
tp21
g3
tp22
Rp23
(I1
(I1
I1
tp24
g10
I00
S'Y\x99\x91=\x08\xa5\xc0\xbf'
p25
tp26
btp27
(F1.1242307589381155
F2.4692374113705253
F-160.5713438228221
tp28
I1573
I2
tp29
((g0
(g1
(I0
tp30
g3
tp31
Rp32
(I1
(I1
I1
tp33
g10
I00
S'>\xf2\xacJ\x8ac\x8e\xbf'
p34
tp35
bg0
(g1
(I0
tp36
g3
tp37
Rp38
(I1
(I1
I1
tp39
g10
I00
S'\x97\x07\xb9\n \xe5\xae?'
p40
tp41
bg0
(g1
(I0
tp42
g3
tp43
Rp44
(I1
(I1
I1
tp45
g10
I00
S'[\xfbX\x81`\x96\xb9\xbf'
p46
tp47
btp48
(F178.81795471720912
F-18.196347319748384
F158.11250342193716
tp49
I1573
I2
tp50
tp51
.(((cnumpy.core.multiarray
_reconstruct
p0
(cnumpy.matrixlib.defmatrix
matrix
p1
(I0
tp2
S'b'
p3
tp4
Rp5
(I1
(I1
I1
tp6
cnumpy
dtype
p7
(S'f8'
p8
I0
I1
tp9
Rp10
(I3
S'<'
p11
NNNI-1
I-1
I0
tp12
bI00
S'@`\xcd\xea\xe81\xb9?'
p13
tp14
bg0
(g1
(I0
tp15
g3
tp16
Rp17
(I1
(I1
I1
tp18
g10
I00
S'\xc2=1\xad`W\xa1?'
p19
tp20
bg0
(g1
(I0
tp21
g3
tp22
Rp23
(I1
(I1
I1
tp24
g10
I00
S'\x02\xfd\xd9\x9b\xeb\x1e\xc5\xbf'
p25
tp26
btp27
(F2.3354061979821594
F-28.32843660078322
F-174.25525150290053
tp28
I199
I147
tp29
((g0
(g1
(I0
tp30
g3
tp31
Rp32
(I1
(I1
I1
tp33
g10
I00
S'\xfe\xe1\xb8(u[\xb6\xbf'
p34
tp35
bg0
(g1
(I0
tp36
g3
tp37
Rp38
(I1
(I1
I1
tp39
g10
I00
S'x\x19\x9f\x07\xee\xd2\xa9?'
p40
tp41
bg0
(g1
(I0
tp42
g3
tp43
Rp44
(I1
(I1
I1
tp45
g10
I00
S'u?\xc7\xc2\x8bO\xc0\xbf'
p46
tp47
btp48
(F-163.12781030791308
F-38.597674451113264
F162.61332029630123
tp49
I199
I147
tp50
tp51
.(((cnumpy.core.multiarray
_reconstruct
p0
(cnumpy.matrixlib.defmatrix
matrix
p1
(I0
tp2
S'b'
p3
tp4
Rp5
(I1
(I1
I1
tp6
cnumpy
dtype
p7
(S'f8'
p8
I0
I1
tp9
Rp10
(I3
S'<'
p11
NNNI-1
I-1
I0
tp12
bI00
S'\xdb\x87\x11\xb8\xbc\x97\xba?'
p13
tp14
bg0
(g1
(I0
tp15
g3
tp16
Rp17
(I1
(I1
I1
tp18
g10
I00
S'\xfb\xa8\x8cA\x11\xa4\xa2?'
p19
tp20
bg0
(g1
(I0
tp21
g3
tp22
Rp23
(I1
(I1
I1
tp24
g10
I00
S'\xa7\x82\xe3Q\x859\xc5\xbf'
p25
tp26
btp27
(F0.6329197762508376
F-29.301877247865505
F-172.88949695775142
tp28
I134
I148
tp29
((g0
(g1
(I0
tp30
g3
tp31
Rp32
(I1
(I1
I1
tp33
g10
I00
S'U\xb8\xb07\x8b\x91\xb4\xbf'
p34
tp35
bg0
(g1
(I0
tp36
g3
tp37
Rp38
(I1
(I1
I1
tp39
g10
I00
S'\x82\x18\x9b\x88\xcc\x14\xaa?'
p40
tp41
bg0
(g1
(I0
tp42
g3
tp43
Rp44
(I1
(I1
I1
tp45
g10
I00
S'\x1d\xf0E\xd3\xf2n\xc0\xbf'
p46
tp47
btp48
(F-159.89616922785072
F-34.506394476881596
F161.36882331612466
tp49
I134
I148
tp50
tp51
.(((cnumpy.core.multiarray
_reconstruct
p0
(cnumpy.matrixlib.defmatrix
matrix
p1
(I0
tp2
S'b'
p3
tp4
Rp5
(I1
(I1
I1
tp6
cnumpy
dtype
p7
(S'f8'
p8
I0
I1
tp9
Rp10
(I3
S'<'
p11
NNNI-1
I-1
I0
tp12
bI00
S'\xae\x0c2NT\x1b\xb5?'
p13
tp14
bg0
(g1
(I0
tp15
g3
tp16
Rp17
(I1
(I1
I1
tp18
g10
I00
S'\xa3\xf2\xb5\x92\x82\xe9\xa0?'
p19
tp20
bg0
(g1
(I0
tp21
g3
tp22
Rp23
(I1
(I1
I1
tp24
g10
I00
S'\xa2a\x19\xf4\x04\xec\xc4\xbf'
p25
tp26
btp27
(F0.8489829147174851
F-23.969183592307377
F-173.21117780685393
tp28
I399
I149
tp29
((g0
(g1
(I0
tp30
g3
tp31
Rp32
(I1
(I1
I1
tp33
g10
I00
S'\xe1\xc32\xc8\xc7\x01\xba\xbf'
p34
tp35
bg0
(g1
(I0
tp36
g3
tp37
Rp38
(I1
(I1
I1
tp39
g10
I00
S'I\xed\xa0`\x8a\xbb\xac?'
p40
tp41
bg0
(g1
(I0
tp42
g3
tp43
Rp44
(I1
(I1
I1
tp45
g10
I00
S'"}}Z\xa7\r\xc0\xbf'
p46
tp47
btp48
(F-170.9974261785474
F-46.157983577947995
F164.9471434685189
tp49
I399
I149
tp50
tp51
.(((cnumpy.core.multiarray
_reconstruct
p0
(cnumpy.matrixlib.defmatrix
matrix
p1
(I0
tp2
S'b'
p3
tp4
Rp5
(I1
(I1
I1
tp6
cnumpy
dtype
p7
(S'f8'
p8
I0
I1
tp9
Rp10
(I3
S'<'
p11
NNNI-1
I-1
I0
tp12
bI00
S'\x8a\x15\x84\xf0,\x07\xb5?'
p13
tp14
bg0
(g1
(I0
tp15
g3
tp16
Rp17
(I1
(I1
I1
tp18
g10
I00
S'y5\xd3\x0c\x1b\x88\xa0?'
p19
tp20
bg0
(g1
(I0
tp21
g3
tp22
Rp23
(I1
(I1
I1
tp24
g10
I00
S'q\xde\xa6\xa8r\xf9\xc4\xbf'
p25
tp26
btp27
(F0.8360680473582791
F-23.747069531854482
F-173.48449508074535
tp28
I399
I149
tp29
((g0
(g1
(I0
tp30
g3
tp31
Rp32
(I1
(I1
I1
tp33
g10
I00
S'\xc6PcJ}\x01\xba\xbf'
p34
tp35
bg0
(g1
(I0
tp36
g3
tp37
Rp38
(I1
(I1
I1
tp39
g10
I00
S'\xd6\xd5C\xa0\xe0\xea\xac?'
p40
tp41
bg0
(g1
(I0
tp42
g3
tp43
Rp44
(I1
(I1
I1
tp45
g10
I00
S'\x1f!\xf2JL\x1c\xc0\xbf'
p46
tp47
btp48
(F-151.09031369827838
F-37.13181085900288
F154.35693361851756
tp49
I399
I149
tp50
tp51
.(((cnumpy.core.multiarray
_reconstruct
p0
(cnumpy.matrixlib.defmatrix
matrix
p1
(I0
tp2
S'b'
p3
tp4
Rp5
(I1
(I1
I1
tp6
cnumpy
dtype
p7
(S'f8'
p8
I0
I1
tp9
Rp10
(I3
S'<'
p11
NNNI-1
I-1
I0
tp12
bI00
S'\xf6\xbb\x8e`\x18C\xb0?'
p13
tp14
bg0
(g1
(I0
tp15
g3
tp16
Rp17
(I1
(I1
I1
tp18
g10
I00
S'\xb2\x0fEdW\xda\x9e?'
p19
tp20
bg0
(g1
(I0
tp21
g3
tp22
Rp23
(I1
(I1
I1
tp24
g10
I00
S'\x8fL3\xa8B\xca\xc4\xbf'
p25
tp26
btp27
(F0.8584196882614168
F-18.364310583594577
F-173.36906868690673
tp28
I629
I153
tp29
((g0
(g1
(I0
tp30
g3
tp31
Rp32
(I1
(I1
I1
tp33
g10
I00
S'5\xb6,.\xe9\xa7\xbe\xbf'
p34
tp35
bg0
(g1
(I0
tp36
g3
tp37
Rp38
(I1
(I1
I1
tp39
g10
I00
S'\xc6\x02\xedV.f\xaf?'
p40
tp41
bg0
(g1
(I0
tp42
g3
tp43
Rp44
(I1
(I1
I1
tp45
g10
I00
S'\r\x9c\x86X\xb3\x9e\xbf\xbf'
p46
tp47
btp48
(F-133.55068344304044
F-29.98691062257365
F144.2971758620773
tp49
I629
I153
tp50
tp51
.(((cnumpy.core.multiarray
_reconstruct
p0
(cnumpy.matrixlib.defmatrix
matrix
p1
(I0
tp2
S'b'
p3
tp4
Rp5
(I1
(I1
I1
tp6
cnumpy
dtype
p7
(S'f8'
p8
I0
I1
tp9
Rp10
(I3
S'<'
p11
NNNI-1
I-1
I0
tp12
bI00
S'\x1e\xa8b\xc6\xab~\xb0?'
p13
tp14
bg0
(g1
(I0
tp15
g3
tp16
Rp17
(I1
(I1
I1
tp18
g10
I00
S'\xee\xdb~\xf1\x05\xc7\x9e?'
p19
tp20
bg0
(g1
(I0
tp21
g3
tp22
Rp23
(I1
(I1
I1
tp24
g10
I00
S'\xfeY\xb8RS\xc4\xc4\xbf'
p25
tp26
btp27
(F0.9549581140022227
F-18.625765493912056
F-173.39192687686466
tp28
I629
I153
tp29
((g0
(g1
(I0
tp30
g3
tp31
Rp32
(I1
(I1
I1
tp33
g10
I00
S'd\x17\x1c\x837\xaf\xbe\xbf'
p34
tp35
bg0
(g1
(I0
tp36
g3
tp37
Rp38
(I1
(I1
I1
tp39
g10
I00
S'\xc5\xa7\x9dS\xfa\x80\xae?'
p40
tp41
bg0
(g1
(I0
tp42
g3
tp43
Rp44
(I1
(I1
I1
tp45
g10
I00
S']vB\xf5\xe9\x0e\xc0\xbf'
p46
tp47
btp48
(F-166.2918021668232
F-49.57145943582406
F161.57902428188052
tp49
I629
I153
tp50
tp51
.(((cnumpy.core.multiarray
_reconstruct
p0
(cnumpy.matrixlib.defmatrix
matrix
p1
(I0
tp2
S'b'
p3
tp4
Rp5
(I1
(I1
I1
tp6
cnumpy
dtype
p7
(S'f8'
p8
I0
I1
tp9
Rp10
(I3
S'<'
p11
NNNI-1
I-1
I0
tp12
bI00
S'r#\xdbO\xae\x98\xa7?'
p13
tp14
bg0
(g1
(I0
tp15
g3
tp16
Rp17
(I1
(I1
I1
tp18
g10
I00
S'\xf1*P\x95\x1aU\x9c?'
p19
tp20
bg0
(g1
(I0
tp21
g3
tp22
Rp23
(I1
(I1
I1
tp24
g10
I00
S'\xfe+\xb8\xd6\x91_\xc4\xbf'
p25
tp26
btp27
(F0.8162953803268646
F-13.239348608880757
F-173.60671357509523
tp28
I854
I157
tp29
((g0
(g1
(I0
tp30
g3
tp31
Rp32
(I1
(I1
I1
tp33
g10
I00
S'\x16\xfd\xc9\x81\xe1\xba\xc1\xbf'
p34
tp35
bg0
(g1
(I0
tp36
g3
tp37
Rp38
(I1
(I1
I1
tp39
g10
I00
S"'a[\x1f\x15B\xb0?"
p40
tp41
bg0
(g1
(I0
tp42
g3
tp43
Rp44
(I1
(I1
I1
tp45
g10
I00
S'\xb5\xc8\x8f\x1ds\xa2\xbf\xbf'
p46
tp47
btp48
(F-156.60400617774323
F-50.53810739981806
F154.2856532053909
tp49
I854
I157
tp50
tp51
.(((cnumpy.core.multiarray
_reconstruct
p0
(cnumpy.matrixlib.defmatrix
matrix
p1
(I0
tp2
S'b'
p3
tp4
Rp5
(I1
(I1
I1
tp6
cnumpy
dtype
p7
(S'f8'
p8
I0
I1
tp9
Rp10
(I3
S'<'
p11
NNNI-1
I-1
I0
tp12
bI00
S'&\xea$\xe3\xb0\x82\xa7?'
p13
tp14
bg0
(g1
(I0
tp15
g3
tp16
Rp17
(I1
(I1
I1
tp18
g10
I00
S'\x0c\xb7\xc2P\x9f3\x9c?'
p19
tp20
bg0
(g1
(I0
tp21
g3
tp22
Rp23
(I1
(I1
I1
tp24
g10
I00
S'J\xeaUD\xdaj\xc4\xbf'
p25
tp26
btp27
(F0.8088822125249153
F-13.171472195771928
F-173.70976395968893
tp28
I854
I157
tp29
((g0
(g1
(I0
tp30
g3
tp31
Rp32
(I1
(I1
I1
tp33
g10
I00
S'T\x80\xd1%\xa4\xaa\xc1\xbf'
p34
tp35
bg0
(g1
(I0
tp36
g3
tp37
Rp38
(I1
(I1
I1
tp39
g10
I00
S"\x9c'1\xa4\xf6 \xb0?"
p40
tp41
bg0
(g1
(I0
tp42
g3
tp43
Rp44
(I1
(I1
I1
tp45
g10
I00
S'\xa6\xd8\xc5\xf5;\x8a\xbf\xbf'
p46
tp47
btp48
(F-157.1352359430107
F-50.31221864341892
F154.86268798088275
tp49
I854
I157
tp50
tp51
.(((cnumpy.core.multiarray
_reconstruct
p0
(cnumpy.matrixlib.defmatrix
matrix
p1
(I0
tp2
S'b'
p3
tp4
Rp5
(I1
(I1
I1
tp6
cnumpy
dtype
p7
(S'f8'
p8
I0
I1
tp9
Rp10
(I3
S'<'
p11
NNNI-1
I-1
I0
tp12
bI00
S'-\x9e\xc2\xb4&V\x9c?'
p13
tp14
bg0
(g1
(I0
tp15
g3
tp16
Rp17
(I1
(I1
I1
tp18
g10
I00
S'\xae\x0f\xb4i~\xc1\x99?'
p19
tp20
bg0
(g1
(I0
tp21
g3
tp22
Rp23
(I1
(I1
I1
tp24
g10
I00
S'\xfa\xfe5\xf0\x07\xf4\xc3\xbf'
p25
tp26
btp27
(F0.5919396526877282
F-6.944128077953236
F-173.81669413475646
tp28
I1076
I162
tp29
((g0
(g1
(I0
tp30
g3
tp31
Rp32
(I1
(I1
I1
tp33
g10
I00
S'\x0e\xe3\xd1\x1f\xfa!\xc4\xbf'
p34
tp35
bg0
(g1
(I0
tp36
g3
tp37
Rp38
(I1
(I1
I1
tp39
g10
I00
S'\xd7\xa7\xf0\xed@<\xb1?'
p40
tp41
bg0
(g1
(I0
tp42
g3
tp43
Rp44
(I1
(I1
I1
tp45
g10
I00
S'2\xcb\xfc\x947\xca\xbe\xbf'
p46
tp47
btp48
(F-175.33039927270804
F-60.91411956066923
F167.4648258158152
tp49
I1076
I162
tp50
tp51
.(((cnumpy.core.multiarray
_reconstruct
p0
(cnumpy.matrixlib.defmatrix
matrix
p1
(I0
tp2
S'b'
p3
tp4
Rp5
(I1
(I1
I1
tp6
cnumpy
dtype
p7
(S'f8'
p8
I0
I1
tp9
Rp10
(I3
S'<'
p11
NNNI-1
I-1
I0
tp12
bI00
S'\xc2c\x01f\xcc\xca\x9b?'
p13
tp14
bg0
(g1
(I0
tp15
g3
tp16
Rp17
(I1
(I1
I1
tp18
g10
I00
S'\xa0\n\x8f\x9e*1\x9a?'
p19
tp20
bg0
(g1
(I0
tp21
g3
tp22
Rp23
(I1
(I1
I1
tp24
g10
I00
S'\x13\x81\x1e\xd6\xc8\xfb\xc3\xbf'
p25
tp26
btp27
(F0.5184332971024496
F-6.788106193179251
F-173.69694759039245
tp28
I1076
I162
tp29
((g0
(g1
(I0
tp30
g3
tp31
Rp32
(I1
(I1
I1
tp33
g10
I00
S'\xa8\x9f(\x084T\xc4\xbf'
p34
tp35
bg0
(g1
(I0
tp36
g3
tp37
Rp38
(I1
(I1
I1
tp39
g10
I00
S')?\x9eTr2\xb1?'
p40
tp41
bg0
(g1
(I0
tp42
g3
tp43
Rp44
(I1
(I1
I1
tp45
g10
I00
S'\x94\xd6\xf4M,t\xbe\xbf'
p46
tp47
btp48
(F-172.07440656010888
F-60.45200042787032
F165.0128285616583
tp49
I1076
I162
tp50
tp51
.(((cnumpy.core.multiarray
_reconstruct
p0
(cnumpy.matrixlib.defmatrix
matrix
p1
(I0
tp2
S'b'
p3
tp4
Rp5
(I1
(I1
I1
tp6
cnumpy
dtype
p7
(S'f8'
p8
I0
I1
tp9
Rp10
(I3
S'<'
p11
NNNI-1
I-1
I0
tp12
bI00
S'qcA`\xa5h\xbb?'
p13
tp14
bg0
(g1
(I0
tp15
g3
tp16
Rp17
(I1
(I1
I1
tp18
g10
I00
S'\x97\xcd\xfd~\xc8\x1f\xa6?'
p19
tp20
bg0
(g1
(I0
tp21
g3
tp22
Rp23
(I1
(I1
I1
tp24
g10
I00
S'\xb3|Q\xae\xd6\x96\xc5\xbf'
p25
tp26
btp27
(F1.2692907201694237
F-29.768728981577755
F-171.76473667958544
tp28
I83
I228
tp29
((g0
(g1
(I0
tp30
g3
tp31
Rp32
(I1
(I1
I1
tp33
g10
I00
S')\xc7\xc12\xe2\x97\xb3\xbf'
p34
tp35
bg0
(g1
(I0
tp36
g3
tp37
Rp38
(I1
(I1
I1
tp39
g10
I00
S'\x13\xcc\x10O\xc9\x9e\xad?'
p40
tp41
bg0
(g1
(I0
tp42
g3
tp43
Rp44
(I1
(I1
I1
tp45
g10
I00
S'uC%\xd4\x12\xa2\xc0\xbf'
p46
tp47
btp48
(F-169.52237371821664
F-36.32532022659989
F163.72917880631346
tp49
I83
I228
tp50
tp51
.(((cnumpy.core.multiarray
_reconstruct
p0
(cnumpy.matrixlib.defmatrix
matrix
p1
(I0
tp2
S'b'
p3
tp4
Rp5
(I1
(I1
I1
tp6
cnumpy
dtype
p7
(S'f8'
p8
I0
I1
tp9
Rp10
(I3
S'<'
p11
NNNI-1
I-1
I0
tp12
bI00
S'P\x91_&\xdb<\xb7?'
p13
tp14
bg0
(g1
(I0
tp15
g3
tp16
Rp17
(I1
(I1
I1
tp18
g10
I00
S'\x08\x9c\xf5 y\xef\xa5?'
p19
tp20
bg0
(g1
(I0
tp21
g3
tp22
Rp23
(I1
(I1
I1
tp24
g10
I00
S'xS\xc2t\x9fJ\xc5\xbf'
p25
tp26
btp27
(F1.2822691910419202
F-25.946271944938164
F-170.95740183828315
tp28
I285
I260
tp29
((g0
(g1
(I0
tp30
g3
tp31
Rp32
(I1
(I1
I1
tp33
g10
I00
S'\x98[\xad\x97\x15\xa0\xb7\xbf'
p34
tp35
bg0
(g1
(I0
tp36
g3
tp37
Rp38
(I1
(I1
I1
tp39
g10
I00
S'c\r\x05\x85\xb9\xec\xaf?'
p40
tp41
bg0
(g1
(I0
tp42
g3
tp43
Rp44
(I1
(I1
I1
tp45
g10
I00
S':\x8c\xc1\xdd\x81i\xc0\xbf'
p46
tp47
btp48
(F-164.19558071516747
F-40.10446349255086
F159.2923991189448
tp49
I285
I260
tp50
tp51
.(((cnumpy.core.multiarray
_reconstruct
p0
(cnumpy.matrixlib.defmatrix
matrix
p1
(I0
tp2
S'b'
p3
tp4
Rp5
(I1
(I1
I1
tp6
cnumpy
dtype
p7
(S'f8'
p8
I0
I1
tp9
Rp10
(I3
S'<'
p11
NNNI-1
I-1
I0
tp12
bI00
S'\xa9\xe4\xf6\xdd\xdf\xe5\xb6?'
p13
tp14
bg0
(g1
(I0
tp15
g3
tp16
Rp17
(I1
(I1
I1
tp18
g10
I00
S'B\x88\xf4\xd9{\xaa\xa5?'
p19
tp20
bg0
(g1
(I0
tp21
g3
tp22
Rp23
(I1
(I1
I1
tp24
g10
I00
S'\rR-\xce\x18[\xc5\xbf'
p25
tp26
btp27
(F2.7033023258586057
F-25.556839967060167
F-171.5751759996428
tp28
I285
I260
tp29
((g0
(g1
(I0
tp30
g3
tp31
Rp32
(I1
(I1
I1
tp33
g10
I00
S'\xbd\xb4\xe1\xd6\x8c\xa3\xb7\xbf'
p34
tp35
bg0
(g1
(I0
tp36
g3
tp37
Rp38
(I1
(I1
I1
tp39
g10
I00
S'_\x90\xdb\xfa\xe0\xf2\xaf?'
p40
tp41
bg0
(g1
(I0
tp42
g3
tp43
Rp44
(I1
(I1
I1
tp45
g10
I00
S"\x04'N\xf4\xe1Y\xc0\xbf"
p46
tp47
btp48
(F-165.75530561725589
F-41.38597885619427
F159.95675971800043
tp49
I285
I260
tp50
tp51
.(((cnumpy.core.multiarray
_reconstruct
p0
(cnumpy.matrixlib.defmatrix
matrix
p1
(I0
tp2
S'b'
p3
tp4
Rp5
(I1
(I1
I1
tp6
cnumpy
dtype
p7
(S'f8'
p8
I0
I1
tp9
Rp10
(I3
S'<'
p11
NNNI-1
I-1
I0
tp12
bI00
S'\x92\xdf\x84\xf7\x7f^\xb2?'
p13
tp14
bg0
(g1
(I0
tp15
g3
tp16
Rp17
(I1
(I1
I1
tp18
g10
I00
S'\x99\xc3\xaa6i\xd7\xa4?'
p19
tp20
bg0
(g1
(I0
tp21
g3
tp22
Rp23
(I1
(I1
I1
tp24
g10
I00
S'\xe9\xc6\xc2y\xcb\xf6\xc4\xbf'
p25
tp26
btp27
(F0.9774826582126985
F-21.040296867735446
F-170.8127663581488
tp28
I514
I262
tp29
((g0
(g1
(I0
tp30
g3
tp31
Rp32
(I1
(I1
I1
tp33
g10
I00
S'\xb7\xc8/\x00\xab\xc3\xbb\xbf'
p34
tp35
bg0
(g1
(I0
tp36
g3
tp37
Rp38
(I1
(I1
I1
tp39
g10
I00
S'\x98Ij\xe1\xc2H\xb1?'
p40
tp41
bg0
(g1
(I0
tp42
g3
tp43
Rp44
(I1
(I1
I1
tp45
g10
I00
S'`\xa0\xfa=\xee;\xc0\xbf'
p46
tp47
btp48
(F-161.84937760668478
F-44.88188022896053
F156.1257252941067
tp49
I514
I262
tp50
tp51
.(((cnumpy.core.multiarray
_reconstruct
p0
(cnumpy.matrixlib.defmatrix
matrix
p1
(I0
tp2
S'b'
p3
tp4
Rp5
(I1
(I1
I1
tp6
cnumpy
dtype
p7
(S'f8'
p8
I0
I1
tp9
Rp10
(I3
S'<'
p11
NNNI-1
I-1
I0
tp12
bI00
S'D\xe2QNJB\xab?'
p13
tp14
bg0
(g1
(I0
tp15
g3
tp16
Rp17
(I1
(I1
I1
tp18
g10
I00
S'\xe7)\x04\xae\xac\xa3\xa3?'
p19
tp20
bg0
(g1
(I0
tp21
g3
tp22
Rp23
(I1
(I1
I1
tp24
g10
I00
S'#\xd6 2-\x8d\xc4\xbf'
p25
tp26
btp27
(F1.2883410592925928
F-15.587674458562207
F-170.68363684885753
tp28
I742
I267
tp29
((g0
(g1
(I0
tp30
g3
tp31
Rp32
(I1
(I1
I1
tp33
g10
I00
S'\nu\x1eu\xeeE\xc0\xbf'
p34
tp35
bg0
(g1
(I0
tp36
g3
tp37
Rp38
(I1
(I1
I1
tp39
g10
I00
S'\x9fk\xcf\x8bU\xe7\xb1?'
p40
tp41
bg0
(g1
(I0
tp42
g3
tp43
Rp44
(I1
(I1
I1
tp45
g10
I00
S'0\x80&\xd7\xeb\xea\xbf\xbf'
p46
tp47
btp48
(F-157.15450419573972
F-48.15529083340803
F152.86142989483798
tp49
I742
I267
tp50
tp51
.(((cnumpy.core.multiarray
_reconstruct
p0
(cnumpy.matrixlib.defmatrix
matrix
p1
(I0
tp2
S'b'
p3
tp4
Rp5
(I1
(I1
I1
tp6
cnumpy
dtype
p7
(S'f8'
p8
I0
I1
tp9
Rp10
(I3
S'<'
p11
NNNI-1
I-1
I0
tp12
bI00
S'\xa7(\x0e\xb6\xe6\r\xab?'
p13
tp14
bg0
(g1
(I0
tp15
g3
tp16
Rp17
(I1
(I1
I1
tp18
g10
I00
S'\x0c\xa5\xbc\x17\x9a\x01\xa4?'
p19
tp20
bg0
(g1
(I0
tp21
g3
tp22
Rp23
(I1
(I1
I1
tp24
g10
I00
S'\xb7P\xdc\xbe\xfc\x87\xc4\xbf'
p25
tp26
btp27
(F1.2019886190392752
F-15.467753321416277
F-170.32458783208713
tp28
I742
I267
tp29
((g0
(g1
(I0
tp30
g3
tp31
Rp32
(I1
(I1
I1
tp33
g10
I00
S'F\x92\xa4IwG\xc0\xbf'
p34
tp35
bg0
(g1
(I0
tp36
g3
tp37
Rp38
(I1
(I1
I1
tp39
g10
I00
S'\\\xa7m\x8a\xa5\r\xb2?'
p40
tp41
bg0
(g1
(I0
tp42
g3
tp43
Rp44
(I1
(I1
I1
tp45
g10
I00
S'\xa3A\xaf\x0cq\xa8\xbf\xbf'
p46
tp47
btp48
(F-166.24027377893137
F-53.66973869177512
F157.0212584249449
tp49
I742
I267
tp50
tp51
.(((cnumpy.core.multiarray
_reconstruct
p0
(cnumpy.matrixlib.defmatrix
matrix
p1
(I0
tp2
S'b'
p3
tp4
Rp5
(I1
(I1
I1
tp6
cnumpy
dtype
p7
(S'f8'
p8
I0
I1
tp9
Rp10
(I3
S'<'
p11
NNNI-1
I-1
I0
tp12
bI00
S'f\x18\xeb^\x85\x0e\xa2?'
p13
tp14
bg0
(g1
(I0
tp15
g3
tp16
Rp17
(I1
(I1
I1
tp18
g10
I00
S'\x81\xa5\x02\xec\xab\xd1\xa1?'
p19
tp20
bg0
(g1
(I0
tp21
g3
tp22
Rp23
(I1
(I1
I1
tp24
g10
I00
S'\x8f\xe0\xfa\xe5\x94:\xc4\xbf'
p25
tp26
btp27
(F2.3349553980523363
F-10.044778514491252
F-171.45488000464726
tp28
I965
I269
tp29
((g0
(g1
(I0
tp30
g3
tp31
Rp32
(I1
(I1
I1
tp33
g10
I00
S'\xdfR\xb4\x01\xf8\xa9\xc2\xbf'
p34
tp35
bg0
(g1
(I0
tp36
g3
tp37
Rp38
(I1
(I1
I1
tp39
g10
I00
S'\xd6\xa5\xd2\x13\xe6\xff\xb2?'
p40
tp41
bg0
(g1
(I0
tp42
g3
tp43
Rp44
(I1
(I1
I1
tp45
g10
I00
S'\x96\xcf\x0c\xac\x9et\xbf\xbf'
p46
tp47
btp48
(F-169.13355206141344
F-61.24261263934962
F157.2727574101634
tp49
I965
I269
tp50
tp51
.(((cnumpy.core.multiarray
_reconstruct
p0
(cnumpy.matrixlib.defmatrix
matrix
p1
(I0
tp2
S'b'
p3
tp4
Rp5
(I1
(I1
I1
tp6
cnumpy
dtype
p7
(S'f8'
p8
I0
I1
tp9
Rp10
(I3
S'<'
p11
NNNI-1
I-1
I0
tp12
bI00
S'\xa7t\x82\x11\xa3\xef\xa1?'
p13
tp14
bg0
(g1
(I0
tp15
g3
tp16
Rp17
(I1
(I1
I1
tp18
g10
I00
S'\x85\xe8\xad!G\xce\xa1?'
p19
tp20
bg0
(g1
(I0
tp21
g3
tp22
Rp23
(I1
(I1
I1
tp24
g10
I00
S'\x92\xcd\xb1\x1cfF\xc4\xbf'
p25
tp26
btp27
(F2.1959524004025393
F-9.876452793761748
F-171.25098084538897
tp28
I966
I269
tp29
((g0
(g1
(I0
tp30
g3
tp31
Rp32
(I1
(I1
I1
tp33
g10
I00
S'\xbdt\xd1\x04\x91\xc3\xc2\xbf'
p34
tp35
bg0
(g1
(I0
tp36
g3
tp37
Rp38
(I1
(I1
I1
tp39
g10
I00
S'\x7fO7\x8a$ \xb3?'
p40
tp41
bg0
(g1
(I0
tp42
g3
tp43
Rp44
(I1
(I1
I1
tp45
g10
I00
S'\x16\xfa\xd8\x96\x93\x01\xbf\xbf'
p46
tp47
btp48
(F-165.4623037188034
F-57.3059263110322
F157.0788966084117
tp49
I966
I269
tp50
tp51
.(((cnumpy.core.multiarray
_reconstruct
p0
(cnumpy.matrixlib.defmatrix
matrix
p1
(I0
tp2
S'b'
p3
tp4
Rp5
(I1
(I1
I1
tp6
cnumpy
dtype
p7
(S'f8'
p8
I0
I1
tp9
Rp10
(I3
S'<'
p11
NNNI-1
I-1
I0
tp12
bI00
S'\x13\xa8\x8d7`~\xa6?'
p13
tp14
bg0
(g1
(I0
tp15
g3
tp16
Rp17
(I1
(I1
I1
tp18
g10
I00
S'C5J\xf2J"\xa6?'
p19
tp20
bg0
(g1
(I0
tp21
g3
tp22
Rp23
(I1
(I1
I1
tp24
g10
I00
S"'\x1b\x13\x84GW\xc4\xbf"
p25
tp26
btp27
(F2.516228045417467
F-13.217012884386046
F-169.02956514809034
tp28
I848
I339
tp29
((g0
(g1
(I0
tp30
g3
tp31
Rp32
(I1
(I1
I1
tp33
g10
I00
S'\x16\x91d&\x8bG\xc1\xbf'
p34
tp35
bg0
(g1
(I0
tp36
g3
tp37
Rp38
(I1
(I1
I1
tp39
g10
I00
S"}\xed''|\x12\xb4?"
p40
tp41
bg0
(g1
(I0
tp42
g3
tp43
Rp44
(I1
(I1
I1
tp45
g10
I00
S'\xbe\x80+\xc8\xd3|\xbf\xbf'
p46
tp47
btp48
(F-162.71539341428587
F-52.688402225905016
F153.8679128176255
tp49
I848
I339
tp50
tp51
.(((cnumpy.core.multiarray
_reconstruct
p0
(cnumpy.matrixlib.defmatrix
matrix
p1
(I0
tp2
S'b'
p3
tp4
Rp5
(I1
(I1
I1
tp6
cnumpy
dtype
p7
(S'f8'
p8
I0
I1
tp9
Rp10
(I3
S'<'
p11
NNNI-1
I-1
I0
tp12
bI00
S'\xad\x12\xa8j,\xcd\xb8?'
p13
tp14
bg0
(g1
(I0
tp15
g3
tp16
Rp17
(I1
(I1
I1
tp18
g10
I00
S'<\\k\n\x9b\xa3\xa9?'
p19
tp20
bg0
(g1
(I0
tp21
g3
tp22
Rp23
(I1
(I1
I1
tp24
g10
I00
S'\x8a\x85f\x9f\xc5u\xc5\xbf'
p25
tp26
btp27
(F3.16106618389845
F-27.796705461677345
F-170.21623498429815
tp28
I192
I366
tp29
((g0
(g1
(I0
tp30
g3
tp31
Rp32
(I1
(I1
I1
tp33
g10
I00
S'\x87\xf42\xb5\\\x85\xb5\xbf'
p34
tp35
bg0
(g1
(I0
tp36
g3
tp37
Rp38
(I1
(I1
I1
tp39
g10
I00
S'\xa4f\xd8od\xae\xb1?'
p40
tp41
bg0
(g1
(I0
tp42
g3
tp43
Rp44
(I1
(I1
I1
tp45
g10
I00
S'x\x9e\x93g+v\xc0\xbf'
p46
tp47
btp48
(F-173.92168012145441
F-41.41973807396565
F162.067718896682
tp49
I192
I366
tp50
tp51
.(((cnumpy.core.multiarray
_reconstruct
p0
(cnumpy.matrixlib.defmatrix
matrix
p1
(I0
tp2
S'b'
p3
tp4
Rp5
(I1
(I1
I1
tp6
cnumpy
dtype
p7
(S'f8'
p8
I0
I1
tp9
Rp10
(I3
S'<'
p11
NNNI-1
I-1
I0
tp12
bI00
S'\x8f\x13\xbb\xf4Qm\xb4?'
p13
tp14
bg0
(g1
(I0
tp15
g3
tp16
Rp17
(I1
(I1
I1
tp18
g10
I00
S'\xa2y\xb5}\xc7\t\xaa?'
p19
tp20
bg0
(g1
(I0
tp21
g3
tp22
Rp23
(I1
(I1
I1
tp24
g10
I00
S'\x9b\xb6\x8fp\xec6\xc5\xbf'
p25
tp26
btp27
(F3.1320002163100624
F-23.498204090763085
F-168.96588948851866
tp28
I400
I374
tp29
((g0
(g1
(I0
tp30
g3
tp31
Rp32
(I1
(I1
I1
tp33
g10
I00
S'%*\xbf0\x03\n\xb9\xbf'
p34
tp35
bg0
(g1
(I0
tp36
g3
tp37
Rp38
(I1
(I1
I1
tp39
g10
I00
S'"W=p\xbf\x1e\xb3?'
p40
tp41
bg0
(g1
(I0
tp42
g3
tp43
Rp44
(I1
(I1
I1
tp45
g10
I00
S'\xe8\xb3;\xe2\x894\xc0\xbf'
p46
tp47
btp48
(F-164.79827226782936
F-42.36486487262035
F155.68355592214743
tp49
I400
I374
tp50
tp51
.(((cnumpy.core.multiarray
_reconstruct
p0
(cnumpy.matrixlib.defmatrix
matrix
p1
(I0
tp2
S'b'
p3
tp4
Rp5
(I1
(I1
I1
tp6
cnumpy
dtype
p7
(S'f8'
p8
I0
I1
tp9
Rp10
(I3
S'<'
p11
NNNI-1
I-1
I0
tp12
bI00
S'\xa2%\xc0\xcfW[\xb4?'
p13
tp14
bg0
(g1
(I0
tp15
g3
tp16
Rp17
(I1
(I1
I1
tp18
g10
I00
S'\xc5\xf7\r\xc9\xad\x9a\xa9?'
p19
tp20
bg0
(g1
(I0
tp21
g3
tp22
Rp23
(I1
(I1
I1
tp24
g10
I00
S'\xd9\x9e\xadVp\x14\xc5\xbf'
p25
tp26
btp27
(F2.876435619575528
F-23.484229655388628
F-169.01239130180608
tp28
I400
I374
tp29
((g0
(g1
(I0
tp30
g3
tp31
Rp32
(I1
(I1
I1
tp33
g10
I00
S'q\xc2l%?\xfd\xb8\xbf'
p34
tp35
bg0
(g1
(I0
tp36
g3
tp37
Rp38
(I1
(I1
I1
tp39
g10
I00
S'\xacOY\xd0\xbb$\xb3?'
p40
tp41
bg0
(g1
(I0
tp42
g3
tp43
Rp44
(I1
(I1
I1
tp45
g10
I00
S'\x98\x9c\xa2)")\xc0\xbf'
p46
tp47
btp48
(F-162.41038300037908
F-41.12276900615738
F154.53544033994757
tp49
I400
I374
tp50
tp51
.(((cnumpy.core.multiarray
_reconstruct
p0
(cnumpy.matrixlib.defmatrix
matrix
p1
(I0
tp2
S'b'
p3
tp4
Rp5
(I1
(I1
I1
tp6
cnumpy
dtype
p7
(S'f8'
p8
I0
I1
tp9
Rp10
(I3
S'<'
p11
NNNI-1
I-1
I0
tp12
bI00
S'\xc6\xebm\xc3\x94\xaa\xaf?'
p13
tp14
bg0
(g1
(I0
tp15
g3
tp16
Rp17
(I1
(I1
I1
tp18
g10
I00
S'V\xdf\xdcOSe\xa8?'
p19
tp20
bg0
(g1
(I0
tp21
g3
tp22
Rp23
(I1
(I1
I1
tp24
g10
I00
S'-\x9b\x10\xd93\xba\xc4\xbf'
p25
tp26
btp27
(F1.3007792688073685
F-18.240360982452938
F-168.11707842830788
tp28
I630
I377
tp29
((g0
(g1
(I0
tp30
g3
tp31
Rp32
(I1
(I1
I1
tp33
g10
I00
S'\xd9\xd8\xd3*\xed\xee\xbd\xbf'
p34
tp35
bg0
(g1
(I0
tp36
g3
tp37
Rp38
(I1
(I1
I1
tp39
g10
I00
S'&\xf8g2\x8c\xfd\xb3?'
p40
tp41
bg0
(g1
(I0
tp42
g3
tp43
Rp44
(I1
(I1
I1
tp45
g10
I00
S'\xe8\xff&\x02\xe3\xc1\xbf\xbf'
p46
tp47
btp48
(F-160.82516901225128
F-48.728038285661555
F151.1179003331896
tp49
I630
I377
tp50
tp51
.(((cnumpy.core.multiarray
_reconstruct
p0
(cnumpy.matrixlib.defmatrix
matrix
p1
(I0
tp2
S'b'
p3
tp4
Rp5
(I1
(I1
I1
tp6
cnumpy
dtype
p7
(S'f8'
p8
I0
I1
tp9
Rp10
(I3
S'<'
p11
NNNI-1
I-1
I0
tp12
bI00
S'\xee;i\xa9+\xcd\xaf?'
p13
tp14
bg0
(g1
(I0
tp15
g3
tp16
Rp17
(I1
(I1
I1
tp18
g10
I00
S'2T\x97f\xeao\xa8?'
p19
tp20
bg0
(g1
(I0
tp21
g3
tp22
Rp23
(I1
(I1
I1
tp24
g10
I00
S'!\x12;\r\\\xc6\xc4\xbf'
p25
tp26
btp27
(F9.21888215760384
F-20.291650306128417
F-171.15802489527792
tp28
I630
I377
tp29
((g0
(g1
(I0
tp30
g3
tp31
Rp32
(I1
(I1
I1
tp33
g10
I00
S'\x91\x00\x86\x80\xf1\xbb\xbd\xbf'
p34
tp35
bg0
(g1
(I0
tp36
g3
tp37
Rp38
(I1
(I1
I1
tp39
g10
I00
S'\xd1\xe0\x91<\x18\xc6\xb3?'
p40
tp41
bg0
(g1
(I0
tp42
g3
tp43
Rp44
(I1
(I1
I1
tp45
g10
I00
S'\xb8\xcd\xefBG\xde\xbf\xbf'
p46
tp47
btp48
(F-163.97910348685102
F-48.41080075431336
F154.48551831030483
tp49
I630
I377
tp50
tp51
.(((cnumpy.core.multiarray
_reconstruct
p0
(cnumpy.matrixlib.defmatrix
matrix
p1
(I0
tp2
S'b'
p3
tp4
Rp5
(I1
(I1
I1
tp6
cnumpy
dtype
p7
(S'f8'
p8
I0
I1
tp9
Rp10
(I3
S'<'
p11
NNNI-1
I-1
I0
tp12
bI00
S'\xd3\x04uE\xef\x84\xa5?'
p13
tp14
bg0
(g1
(I0
tp15
g3
tp16
Rp17
(I1
(I1
I1
tp18
g10
I00
S'\x13\x928\xb48C\xa7?'
p19
tp20
bg0
(g1
(I0
tp21
g3
tp22
Rp23
(I1
(I1
I1
tp24
g10
I00
S'\x01l\xc6\xa8\xaf?\xc4\xbf'
p25
tp26
btp27
(F0.9790070097857628
F-12.051805935359038
F-167.6230716362609
tp28
I854
I378
tp29
((g0
(g1
(I0
tp30
g3
tp31
Rp32
(I1
(I1
I1
tp33
g10
I00
S'$[\xe9\x8atS\xc1\xbf'
p34
tp35
bg0
(g1
(I0
tp36
g3
tp37
Rp38
(I1
(I1
I1
tp39
g10
I00
S'\xa9\x08\x07\x9f*\xce\xb4?'
p40
tp41
bg0
(g1
(I0
tp42
g3
tp43
Rp44
(I1
(I1
I1
tp45
g10
I00
S'R\xc7mm\xf5\x94\xbf\xbf'
p46
tp47
btp48
(F-167.40856124520346
F-56.92072528128457
F155.1544462682936
tp49
I854
I378
tp50
tp51
.(((cnumpy.core.multiarray
_reconstruct
p0
(cnumpy.matrixlib.defmatrix
matrix
p1
(I0
tp2
S'b'
p3
tp4
Rp5
(I1
(I1
I1
tp6
cnumpy
dtype
p7
(S'f8'
p8
I0
I1
tp9
Rp10
(I3
S'<'
p11
NNNI-1
I-1
I0
tp12
bI00
S'\x8b\xa1]4\xf5!\xba?'
p13
tp14
bg0
(g1
(I0
tp15
g3
tp16
Rp17
(I1
(I1
I1
tp18
g10
I00
S'\xb2\x9b\xa7.j\n\xab?'
p19
tp20
bg0
(g1
(I0
tp21
g3
tp22
Rp23
(I1
(I1
I1
tp24
g10
I00
S'\x1aA\xb5\xf3\xecf\xc5\xbf'
p25
tp26
btp27
(F1.7153585299918859
F-28.678201719582145
F-168.6185129954375
tp28
I131
I380
tp29
((g0
(g1
(I0
tp30
g3
tp31
Rp32
(I1
(I1
I1
tp33
g10
I00
S'\x98\x9f\x80\xf6Z\xfc\xb3\xbf'
p34
tp35
bg0
(g1
(I0
tp36
g3
tp37
Rp38
(I1
(I1
I1
tp39
g10
I00
S'[\xe6\x036\xc6\xd4\xb1?'
p40
tp41
bg0
(g1
(I0
tp42
g3
tp43
Rp44
(I1
(I1
I1
tp45
g10
I00
S'\xf0\xce\x04~\xdc`\xc0\xbf'
p46
tp47
btp48
(F-165.4895450457854
F-36.25620777430744
F157.44956024618386
tp49
I131
I380
tp50
tp51
.(((cnumpy.core.multiarray
_reconstruct
p0
(cnumpy.matrixlib.defmatrix
matrix
p1
(I0
tp2
S'b'
p3
tp4
Rp5
(I1
(I1
I1
tp6
cnumpy
dtype
p7
(S'f8'
p8
I0
I1
tp9
Rp10
(I3
S'<'
p11
NNNI-1
I-1
I0
tp12
bI00
S'\xfcf\xad\xe0Lg\x9a?'
p13
tp14
bg0
(g1
(I0
tp15
g3
tp16
Rp17
(I1
(I1
I1
tp18
g10
I00
S'u\xfe\x91\xbcz\xf3\xa5?'
p19
tp20
bg0
(g1
(I0
tp21
g3
tp22
Rp23
(I1
(I1
I1
tp24
g10
I00
S'(\x0c\x1e\xb1v\xf4\xc3\xbf'
p25
tp26
btp27
(F1.0705079193802756
F-6.308070179118039
F-167.70891001553758
tp28
I1076
I380
tp29
((g0
(g1
(I0
tp30
g3
tp31
Rp32
(I1
(I1
I1
tp33
g10
I00
S'\xa1\xb2\xb6\xfc\xb9\xa6\xc3\xbf'
p34
tp35
bg0
(g1
(I0
tp36
g3
tp37
Rp38
(I1
(I1
I1
tp39
g10
I00
S'\xcd\xef\xde5\xcd\xc3\xb5?'
p40
tp41
bg0
(g1
(I0
tp42
g3
tp43
Rp44
(I1
(I1
I1
tp45
g10
I00
S'\xeb\xe1\xc8\x00\x92\xae\xbe\xbf'
p46
tp47
btp48
(F-167.8841915456416
F-59.92881921122298
F156.42528809548315
tp49
I1076
I380
tp50
tp51
.(((cnumpy.core.multiarray
_reconstruct
p0
(cnumpy.matrixlib.defmatrix
matrix
p1
(I0
tp2
S'b'
p3
tp4
Rp5
(I1
(I1
I1
tp6
cnumpy
dtype
p7
(S'f8'
p8
I0
I1
tp9
Rp10
(I3
S'<'
p11
NNNI-1
I-1
I0
tp12
bI00
S'\xb4\x9f\x1a>8\x85\x98?'
p13
tp14
bg0
(g1
(I0
tp15
g3
tp16
Rp17
(I1
(I1
I1
tp18
g10
I00
S'HS\xe4\xa3\x19@\xa6?'
p19
tp20
bg0
(g1
(I0
tp21
g3
tp22
Rp23
(I1
(I1
I1
tp24
g10
I00
S'6\xc8\xe8y\x01\x08\xc4\xbf'
p25
tp26
btp27
(F1.0161834238195742
F-5.878026945004128
F-167.62528193939917
tp28
I1076
I380
tp29
((g0
(g1
(I0
tp30
g3
tp31
Rp32
(I1
(I1
I1
tp33
g10
I00
S'%A\xedgu\x8c\xc3\xbf'
p34
tp35
bg0
(g1
(I0
tp36
g3
tp37
Rp38
(I1
(I1
I1
tp39
g10
I00
S')FFF\xed\xa0\xb5?'
p40
tp41
bg0
(g1
(I0
tp42
g3
tp43
Rp44
(I1
(I1
I1
tp45
g10
I00
S'@\xd9\xea\xe2\\\xfc\xbe\xbf'
p46
tp47
btp48
(F-165.6936439039497
F-57.83594069896806
F155.1457158247072
tp49
I1076
I380
tp50
tp51
.(((cnumpy.core.multiarray
_reconstruct
p0
(cnumpy.matrixlib.defmatrix
matrix
p1
(I0
tp2
S'b'
p3
tp4
Rp5
(I1
(I1
I1
tp6
cnumpy
dtype
p7
(S'f8'
p8
I0
I1
tp9
Rp10
(I3
S'<'
p11
NNNI-1
I-1
I0
tp12
bI00
S'ZL\x155"e\xa6?'
p13
tp14
bg0
(g1
(I0
tp15
g3
tp16
Rp17
(I1
(I1
I1
tp18
g10
I00
S'\x89(v\x10\xa4\x0e\xa8?'
p19
tp20
bg0
(g1
(I0
tp21
g3
tp22
Rp23
(I1
(I1
I1
tp24
g10
I00
S'\x15X\xdb\xf7X2\xc4\xbf'
p25
tp26
btp27
(F0.6184946416452507
F-12.60590379951502
F-167.13941623059077
tp28
I848
I381
tp29
((g0
(g1
(I0
tp30
g3
tp31
Rp32
(I1
(I1
I1
tp33
g10
I00
S"'\xab\xb3\x1c\xed\xfd\xc0\xbf"
p34
tp35
bg0
(g1
(I0
tp36
g3
tp37
Rp38
(I1
(I1
I1
tp39
g10
I00
S'\x9d\x95M\xb7=\xee\xb4?'
p40
tp41
bg0
(g1
(I0
tp42
g3
tp43
Rp44
(I1
(I1
I1
tp45
g10
I00
S'd\xa0\x91c9g\xbf\xbf'
p46
tp47
btp48
(F-171.7819942821199
F-54.85503606482272
F159.30140303394492
tp49
I848
I381
tp50
tp51
.(((cnumpy.core.multiarray
_reconstruct
p0
(cnumpy.matrixlib.defmatrix
matrix
p1
(I0
tp2
S'b'
p3
tp4
Rp5
(I1
(I1
I1
tp6
cnumpy
dtype
p7
(S'f8'
p8
I0
I1
tp9
Rp10
(I3
S'<'
p11
NNNI-1
I-1
I0
tp12
bI00
S'k\xdb\xf2\xe3\x89\x18\xbb?'
p13
tp14
bg0
(g1
(I0
tp15
g3
tp16
Rp17
(I1
(I1
I1
tp18
g10
I00
S'\x1e\x8cd\x82\xefF\xaf?'
p19
tp20
bg0
(g1
(I0
tp21
g3
tp22
Rp23
(I1
(I1
I1
tp24
g10
I00
S'\x9a\xa2\xd7c4\xbb\xc5\xbf'
p25
tp26
btp27
(F1.37638462425963
F-29.53531414570045
F-167.00300212350876
tp28
I79
I455
tp29
((g0
(g1
(I0
tp30
g3
tp31
Rp32
(I1
(I1
I1
tp33
g10
I00
S'\x1at\xe7\xdd\xb5\x1b\xb2\xbf'
p34
tp35
bg0
(g1
(I0
tp36
g3
tp37
Rp38
(I1
(I1
I1
tp39
g10
I00
S'\x16\x04\x04P\xf2R\xb3?'
p40
tp41
bg0
(g1
(I0
tp42
g3
tp43
Rp44
(I1
(I1
I1
tp45
g10
I00
S'O\x88\x12\xb9\x8c\x9d\xc0\xbf'
p46
tp47
btp48
(F-165.13062061182163
F-31.813255374347197
F156.10597199106508
tp49
I79
I455
tp50
tp51
.(((cnumpy.core.multiarray
_reconstruct
p0
(cnumpy.matrixlib.defmatrix
matrix
p1
(I0
tp2
S'b'
p3
tp4
Rp5
(I1
(I1
I1
tp6
cnumpy
dtype
p7
(S'f8'
p8
I0
I1
tp9
Rp10
(I3
S'<'
p11
NNNI-1
I-1
I0
tp12
bI00
S'\xc6\x90\xe8\xf5V\xa2\xb6?'
p13
tp14
bg0
(g1
(I0
tp15
g3
tp16
Rp17
(I1
(I1
I1
tp18
g10
I00
S'k\x1c_\x9d\xda\xd5\xaf?'
p19
tp20
bg0
(g1
(I0
tp21
g3
tp22
Rp23
(I1
(I1
I1
tp24
g10
I00
S'\xcc\xcc\x82\xd1:Q\xc5\xbf'
p25
tp26
btp27
(F3.30838882534573
F-26.06389219466256
F-166.4900973156138
tp28
I283
I487
tp29
((g0
(g1
(I0
tp30
g3
tp31
Rp32
(I1
(I1
I1
tp33
g10
I00
S'\x9f\x01\x05\xee28\xb6\xbf'
p34
tp35
bg0
(g1
(I0
tp36
g3
tp37
Rp38
(I1
(I1
I1
tp39
g10
I00
S'\xb6\xe0\x135e\x8e\xb4?'
p40
tp41
bg0
(g1
(I0
tp42
g3
tp43
Rp44
(I1
(I1
I1
tp45
g10
I00
S'\t\xc1\x08s\xe1\\\xc0\xbf'
p46
tp47
btp48
(F-164.15061104455086
F-37.7050092496375
F153.7366626826157
tp49
I283
I487
tp50
tp51
.(((cnumpy.core.multiarray
_reconstruct
p0
(cnumpy.matrixlib.defmatrix
matrix
p1
(I0
tp2
S'b'
p3
tp4
Rp5
(I1
(I1
I1
tp6
cnumpy
dtype
p7
(S'f8'
p8
I0
I1
tp9
Rp10
(I3
S'<'
p11
NNNI-1
I-1
I0
tp12
bI00
S'\x00O\x03R\xda\xe8\xb1?'
p13
tp14
bg0
(g1
(I0
tp15
g3
tp16
Rp17
(I1
(I1
I1
tp18
g10
I00
S'\xcf:\xbc\x1f\x13\xa4\xad?'
p19
tp20
bg0
(g1
(I0
tp21
g3
tp22
Rp23
(I1
(I1
I1
tp24
g10
I00
S'#\x19\x160\xfb\xf0\xc4\xbf'
p25
tp26
btp27
(F3.4494631397284037
F-21.37904630329317
F-166.59868696329062
tp28
I516
I487
tp29
((g0
(g1
(I0
tp30
g3
tp31
Rp32
(I1
(I1
I1
tp33
g10
I00
S'\xf0H\xe5\xf48\xc5\xba\xbf'
p34
tp35
bg0
(g1
(I0
tp36
g3
tp37
Rp38
(I1
(I1
I1
tp39
g10
I00
S'\x80A\x1c\x81)\x95\xb5?'
p40
tp41
bg0
(g1
(I0
tp42
g3
tp43
Rp44
(I1
(I1
I1
tp45
g10
I00
S'\x0f\xc8t,\x03.\xc0\xbf'
p46
tp47
btp48
(F-162.68511978588597
F-42.64389315133292
F152.064613295384
tp49
I516
I487
tp50
tp51
.(((cnumpy.core.multiarray
_reconstruct
p0
(cnumpy.matrixlib.defmatrix
matrix
p1
(I0
tp2
S'b'
p3
tp4
Rp5
(I1
(I1
I1
tp6
cnumpy
dtype
p7
(S'f8'
p8
I0
I1
tp9
Rp10
(I3
S'<'
p11
NNNI-1
I-1
I0
tp12
bI00
S'\xf2\xd2\xa1\xf7\xa1\xff\xb1?'
p13
tp14
bg0
(g1
(I0
tp15
g3
tp16
Rp17
(I1
(I1
I1
tp18
g10
I00
S'b-\x91\x97O\xe5\xad?'
p19
tp20
bg0
(g1
(I0
tp21
g3
tp22
Rp23
(I1
(I1
I1
tp24
g10
I00
S'btW\xa1\x92\xe8\xc4\xbf'
p25
tp26
btp27
(F3.2480739983285782
F-21.269058961419944
F-166.16473484991357
tp28
I516
I487
tp29
((g0
(g1
(I0
tp30
g3
tp31
Rp32
(I1
(I1
I1
tp33
g10
I00
S'X|\xa99g\x08\xbb\xbf'
p34
tp35
bg0
(g1
(I0
tp36
g3
tp37
Rp38
(I1
(I1
I1
tp39
g10
I00
S'\xbcj\xac\xac\xe6\x17\xb6?'
p40
tp41
bg0
(g1
(I0
tp42
g3
tp43
Rp44
(I1
(I1
I1
tp45
g10
I00
S' J\xb6\x82(\xde\xbf\xbf'
p46
tp47
btp48
(F-167.97608461746705
F-46.23680659022984
F154.13834546534025
tp49
I516
I487
tp50
tp51
.(((cnumpy.core.multiarray
_reconstruct
p0
(cnumpy.matrixlib.defmatrix
matrix
p1
(I0
tp2
S'b'
p3
tp4
Rp5
(I1
(I1
I1
tp6
cnumpy
dtype
p7
(S'f8'
p8
I0
I1
tp9
Rp10
(I3
S'<'
p11
NNNI-1
I-1
I0
tp12
bI00
S'\xe1\xf2xK\xff\xab\xaa?'
p13
tp14
bg0
(g1
(I0
tp15
g3
tp16
Rp17
(I1
(I1
I1
tp18
g10
I00
S'v\xbe\xe5\xdd3\r\xad?'
p19
tp20
bg0
(g1
(I0
tp21
g3
tp22
Rp23
(I1
(I1
I1
tp24
g10
I00
S'+A\xd5\xd1\x8d\x84\xc4\xbf'
p25
tp26
btp27
(F3.2550429298282446
F-16.144573283204238
F-165.61266353181858
tp28
I743
I488
tp29
((g0
(g1
(I0
tp30
g3
tp31
Rp32
(I1
(I1
I1
tp33
g10
I00
S'\xe4\x8b3\xdbN^\xbf\xbf'
p34
tp35
bg0
(g1
(I0
tp36
g3
tp37
Rp38
(I1
(I1
I1
tp39
g10
I00
S'Q\xf4\x01)\xb9\xc4\xb6?'
p40
tp41
bg0
(g1
(I0
tp42
g3
tp43
Rp44
(I1
(I1
I1
tp45
g10
I00
S'\xa8\x95xg\x1e\xb5\xbf\xbf'
p46
tp47
btp48
(F-163.00608898039795
F-48.55241123908507
F151.07102139191562
tp49
I743
I488
tp50
tp51
.(((cnumpy.core.multiarray
_reconstruct
p0
(cnumpy.matrixlib.defmatrix
matrix
p1
(I0
tp2
S'b'
p3
tp4
Rp5
(I1
(I1
I1
tp6
cnumpy
dtype
p7
(S'f8'
p8
I0
I1
tp9
Rp10
(I3
S'<'
p11
NNNI-1
I-1
I0
tp12
bI00
S'tc\x89\xa2lW\xaa?'
p13
tp14
bg0
(g1
(I0
tp15
g3
tp16
Rp17
(I1
(I1
I1
tp18
g10
I00
S'\xc1\xb8\xb6\xca\xd9\xab\xac?'
p19
tp20
bg0
(g1
(I0
tp21
g3
tp22
Rp23
(I1
(I1
I1
tp24
g10
I00
S'\xa5\x82\xf0\x89po\xc4\xbf'
p25
tp26
btp27
(F3.1368175377338083
F-15.822568102056263
F-165.59864715511097
tp28
I743
I488
tp29
((g0
(g1
(I0
tp30
g3
tp31
Rp32
(I1
(I1
I1
tp33
g10
I00
S'\xcc\x9b\xb5\x0c\xeat\xbf\xbf'
p34
tp35
bg0
(g1
(I0
tp36
g3
tp37
Rp38
(I1
(I1
I1
tp39
g10
I00
S'\xf0@E_\x8d\xda\xb6?'
p40
tp41
bg0
(g1
(I0
tp42
g3
tp43
Rp44
(I1
(I1
I1
tp45
g10
I00
S'\xce99\x87!\x15\xc0\xbf'
p46
tp47
btp48
(F-170.73076541010175
F-53.67198961077212
F154.7765038624747
tp49
I743
I488
tp50
tp51
.(((cnumpy.core.multiarray
_reconstruct
p0
(cnumpy.matrixlib.defmatrix
matrix
p1
(I0
tp2
S'b'
p3
tp4
Rp5
(I1
(I1
I1
tp6
cnumpy
dtype
p7
(S'f8'
p8
I0
I1
tp9
Rp10
(I3
S'<'
p11
NNNI-1
I-1
I0
tp12
bI00
S'[\x10#]\x99\x94\xa0?'
p13
tp14
bg0
(g1
(I0
tp15
g3
tp16
Rp17
(I1
(I1
I1
tp18
g10
I00
S'\xd5\xe0J\xf1\x1a\xf2\xab?'
p19
tp20
bg0
(g1
(I0
tp21
g3
tp22
Rp23
(I1
(I1
I1
tp24
g10
I00
S'\xcdHl\xe6\x98\x1a\xc4\xbf'
p25
tp26
btp27
(F3.185566855906622
F-9.65784068165948
F-164.92781122899
tp28
I966
I488
tp29
((g0
(g1
(I0
tp30
g3
tp31
Rp32
(I1
(I1
I1
tp33
g10
I00
S'\xbe\xa1\xc1\x13\xe4\r\xc2\xbf'
p34
tp35
bg0
(g1
(I0
tp36
g3
tp37
Rp38
(I1
(I1
I1
tp39
g10
I00
S'\xc7\x0cx%B\xb0\xb7?'
p40
tp41
bg0
(g1
(I0
tp42
g3
tp43
Rp44
(I1
(I1
I1
tp45
g10
I00
S'\xd6g\x10\xf4\xd7^\xbf\xbf'
p46
tp47
btp48
(F-160.8779195996167
F-53.245576175466205
F149.14855358859222
tp49
I966
I488
tp50
tp51
.(((cnumpy.core.multiarray
_reconstruct
p0
(cnumpy.matrixlib.defmatrix
matrix
p1
(I0
tp2
S'b'
p3
tp4
Rp5
(I1
(I1
I1
tp6
cnumpy
dtype
p7
(S'f8'
p8
I0
I1
tp9
Rp10
(I3
S'<'
p11
NNNI-1
I-1
I0
tp12
bI00
S'\xc5\xf7\xf7hlp\xa0?'
p13
tp14
bg0
(g1
(I0
tp15
g3
tp16
Rp17
(I1
(I1
I1
tp18
g10
I00
S'\xb6\x19\xd7+vN\xab?'
p19
tp20
bg0
(g1
(I0
tp21
g3
tp22
Rp23
(I1
(I1
I1
tp24
g10
I00
S'\x9c\x95\xa9\xda\x9d\x1d\xc4\xbf'
p25
tp26
btp27
(F1.5377788484289276
F-8.902860790680144
F-164.85103682687284
tp28
I966
I488
tp29
((g0
(g1
(I0
tp30
g3
tp31
Rp32
(I1
(I1
I1
tp33
g10
I00
S'zl\xc3\x9ey7\xc2\xbf'
p34
tp35
bg0
(g1
(I0
tp36
g3
tp37
Rp38
(I1
(I1
I1
tp39
g10
I00
S'\xc1!\x06\x0f\xd1\xb3\xb7?'
p40
tp41
bg0
(g1
(I0
tp42
g3
tp43
Rp44
(I1
(I1
I1
tp45
g10
I00
S'\x08\x89G\xe6P\xfe\xbe\xbf'
p46
tp47
btp48
(F-168.87224724829858
F-56.73277278740986
F154.80752303827487
tp49
I966
I488
tp50
tp51
.(((cnumpy.core.multiarray
_reconstruct
p0
(cnumpy.matrixlib.defmatrix
matrix
p1
(I0
tp2
S'b'
p3
tp4
Rp5
(I1
(I1
I1
tp6
cnumpy
dtype
p7
(S'f8'
p8
I0
I1
tp9
Rp10
(I3
S'<'
p11
NNNI-1
I-1
I0
tp12
bI00
S'Zh\x10\x0b\xf9s\xb8?'
p13
tp14
bg0
(g1
(I0
tp15
g3
tp16
Rp17
(I1
(I1
I1
tp18
g10
I00
S'\xf2\xbc3\xa3\x05\xe8\xb1?'
p19
tp20
bg0
(g1
(I0
tp21
g3
tp22
Rp23
(I1
(I1
I1
tp24
g10
I00
S'\xd6\xb8\x04\xe1\x94k\xc5\xbf'
p25
tp26
btp27
(F1.7261726982529606
F-27.342173153513492
F-163.83859541810523
tp28
I187
I568
tp29
((g0
(g1
(I0
tp30
g3
tp31
Rp32
(I1
(I1
I1
tp33
g10
I00
S'3L\x16\x05\xed\xdf\xb3\xbf'
p34
tp35
bg0
(g1
(I0
tp36
g3
tp37
Rp38
(I1
(I1
I1
tp39
g10
I00
S'\xbd\xa9\xe1\xdfG9\xb6?'
p40
tp41
bg0
(g1
(I0
tp42
g3
tp43
Rp44
(I1
(I1
I1
tp45
g10
I00
S'\xee/\rd\xa3Z\xc0\xbf'
p46
tp47
btp48
(F-166.80515373775765
F-35.35928687088404
F153.06354746929276
tp49
I187
I568
tp50
tp51
.(((cnumpy.core.multiarray
_reconstruct
p0
(cnumpy.matrixlib.defmatrix
matrix
p1
(I0
tp2
S'b'
p3
tp4
Rp5
(I1
(I1
I1
tp6
cnumpy
dtype
p7
(S'f8'
p8
I0
I1
tp9
Rp10
(I3
S'<'
p11
NNNI-1
I-1
I0
tp12
bI00
S'\xbaH\x16\x92\xea\x17\xa5?'
p13
tp14
bg0
(g1
(I0
tp15
g3
tp16
Rp17
(I1
(I1
I1
tp18
g10
I00
S'rH\x1el\xd4A\xb0?'
p19
tp20
bg0
(g1
(I0
tp21
g3
tp22
Rp23
(I1
(I1
I1
tp24
g10
I00
S'{q\xe0\xbb#:\xc4\xbf'
p25
tp26
btp27
(F3.43311002324352
F-12.870490300527267
F-162.67416384657923
tp28
I855
I598
tp29
((g0
(g1
(I0
tp30
g3
tp31
Rp32
(I1
(I1
I1
tp33
g10
I00
S'p\\@\x1d&\xa3\xc0\xbf'
p34
tp35
bg0
(g1
(I0
tp36
g3
tp37
Rp38
(I1
(I1
I1
tp39
g10
I00
S'w!\x8d]\x1f\x0b\xb9?'
p40
tp41
bg0
(g1
(I0
tp42
g3
tp43
Rp44
(I1
(I1
I1
tp45
g10
I00
S'\x1aK\xd7\xc42\xa7\xbf\xbf'
p46
tp47
btp48
(F-162.73870544737898
F-50.35056853784181
F148.9632256775729
tp49
I855
I598
tp50
tp51
.(((cnumpy.core.multiarray
_reconstruct
p0
(cnumpy.matrixlib.defmatrix
matrix
p1
(I0
tp2
S'b'
p3
tp4
Rp5
(I1
(I1
I1
tp6
cnumpy
dtype
p7
(S'f8'
p8
I0
I1
tp9
Rp10
(I3
S'<'
p11
NNNI-1
I-1
I0
tp12
bI00
S'\xf1\x9a\x8b_+!\xa5?'
p13
tp14
bg0
(g1
(I0
tp15
g3
tp16
Rp17
(I1
(I1
I1
tp18
g10
I00
S'\x97\xeeaN\x05\\\xb0?'
p19
tp20
bg0
(g1
(I0
tp21
g3
tp22
Rp23
(I1
(I1
I1
tp24
g10
I00
S'YH\xf8\t\xcaM\xc4\xbf'
p25
tp26
btp27
(F3.4918193763268097
F-12.833005567013558
F-162.63517642322213
tp28
I855
I598
tp29
((g0
(g1
(I0
tp30
g3
tp31
Rp32
(I1
(I1
I1
tp33
g10
I00
S':\x97\xae\xcf.\xad\xc0\xbf'
p34
tp35
bg0
(g1
(I0
tp36
g3
tp37
Rp38
(I1
(I1
I1
tp39
g10
I00
S'c\xd3\xfa\xc5la\xb9?'
p40
tp41
bg0
(g1
(I0
tp42
g3
tp43
Rp44
(I1
(I1
I1
tp45
g10
I00
S'RK\x94\x04/\xe6\xbe\xbf'
p46
tp47
btp48
(F-164.0329873060039
F-51.53093688549107
F149.07587133193584
tp49
I855
I598
tp50
tp51
.(((cnumpy.core.multiarray
_reconstruct
p0
(cnumpy.matrixlib.defmatrix
matrix
p1
(I0
tp2
S'b'
p3
tp4
Rp5
(I1
(I1
I1
tp6
cnumpy
dtype
p7
(S'f8'
p8
I0
I1
tp9
Rp10
(I3
S'<'
p11
NNNI-1
I-1
I0
tp12
bI00
S'\xc9\xed\x1d\xde48\x96?'
p13
tp14
bg0
(g1
(I0
tp15
g3
tp16
Rp17
(I1
(I1
I1
tp18
g10
I00
S'\xab\xfa\xde\xa6\xd3]\xaf?'
p19
tp20
bg0
(g1
(I0
tp21
g3
tp22
Rp23
(I1
(I1
I1
tp24
g10
I00
S'm\x92);$\xf1\xc3\xbf'
p25
tp26
btp27
(F1.6665494566942163
F-5.400931716071736
F-161.91022978902336
tp28
I1077
I598
tp29
((g0
(g1
(I0
tp30
g3
tp31
Rp32
(I1
(I1
I1
tp33
g10
I00
S'{\xb6\xb6.\x1a\\\xc3\xbf'
p34
tp35
bg0
(g1
(I0
tp36
g3
tp37
Rp38
(I1
(I1
I1
tp39
g10
I00
S'(\xb3\xd1\xd0d\x88\xba?'
p40
tp41
bg0
(g1
(I0
tp42
g3
tp43
Rp44
(I1
(I1
I1
tp45
g10
I00
S'\x18A\xe9\xf0Dv\xbe\xbf'
p46
tp47
btp48
(F-173.94933809363852
F-60.74625783260504
F156.44814172814864
tp49
I1077
I598
tp50
tp51
.(((cnumpy.core.multiarray
_reconstruct
p0
(cnumpy.matrixlib.defmatrix
matrix
p1
(I0
tp2
S'b'
p3
tp4
Rp5
(I1
(I1
I1
tp6
cnumpy
dtype
p7
(S'f8'
p8
I0
I1
tp9
Rp10
(I3
S'<'
p11
NNNI-1
I-1
I0
tp12
bI00
S'\xea\xb2;\xb3\xef\xf3\x97?'
p13
tp14
bg0
(g1
(I0
tp15
g3
tp16
Rp17
(I1
(I1
I1
tp18
g10
I00
S'\xcc\x82\xf44ov\xaf?'
p19
tp20
bg0
(g1
(I0
tp21
g3
tp22
Rp23
(I1
(I1
I1
tp24
g10
I00
S'X\xff\xa6\xd5\xf6\xcf\xc3\xbf'
p25
tp26
btp27
(F1.551589630166545
F-6.118102293185251
F-161.7140370973349
tp28
I1077
I598
tp29
((g0
(g1
(I0
tp30
g3
tp31
Rp32
(I1
(I1
I1
tp33
g10
I00
S'\xd1o\xdaS\x05W\xc3\xbf'
p34
tp35
bg0
(g1
(I0
tp36
g3
tp37
Rp38
(I1
(I1
I1
tp39
g10
I00
S'\x1eG\x00{{%\xba?'
p40
tp41
bg0
(g1
(I0
tp42
g3
tp43
Rp44
(I1
(I1
I1
tp45
g10
I00
S'\xeb\x82\x1c\xdb\x00\xb2\xbe\xbf'
p46
tp47
btp48
(F-171.81900405294044
F-59.27135915737168
F155.35841985607874
tp49
I1077
I598
tp50
tp51
.(((cnumpy.core.multiarray
_reconstruct
p0
(cnumpy.matrixlib.defmatrix
matrix
p1
(I0
tp2
S'b'
p3
tp4
Rp5
(I1
(I1
I1
tp6
cnumpy
dtype
p7
(S'f8'
p8
I0
I1
tp9
Rp10
(I3
S'<'
p11
NNNI-1
I-1
I0
tp12
bI00
S'\xe4\xadw\xd6F,\xae?'
p13
tp14
bg0
(g1
(I0
tp15
g3
tp16
Rp17
(I1
(I1
I1
tp18
g10
I00
S'\x8a|x\x17\x99\xe2\xb0?'
p19
tp20
bg0
(g1
(I0
tp21
g3
tp22
Rp23
(I1
(I1
I1
tp24
g10
I00
S'\xb2\xb2V\xc0\xdc\x93\xc4\xbf'
p25
tp26
btp27
(F1.6780700402962865
F-17.702154155160198
F-162.51180462538204
tp28
I631
I599
tp29
((g0
(g1
(I0
tp30
g3
tp31
Rp32
(I1
(I1
I1
tp33
g10
I00
S'\xa8\xfc\xa8\xc8\x90\x07\xbd\xbf'
p34
tp35
bg0
(g1
(I0
tp36
g3
tp37
Rp38
(I1
(I1
I1
tp39
g10
I00
S')d\xe4\x8d)\x93\xb8?'
p40
tp41
bg0
(g1
(I0
tp42
g3
tp43
Rp44
(I1
(I1
I1
tp45
g10
I00
S'\xf4\x0f\xa8:\xfbK\xbf\xbf'
p46
tp47
btp48
(F-154.02209841475593
F-38.61281319866544
F144.39760312248586
tp49
I631
I599
tp50
tp51
.(((cnumpy.core.multiarray
_reconstruct
p0
(cnumpy.matrixlib.defmatrix
matrix
p1
(I0
tp2
S'b'
p3
tp4
Rp5
(I1
(I1
I1
tp6
cnumpy
dtype
p7
(S'f8'
p8
I0
I1
tp9
Rp10
(I3
S'<'
p11
NNNI-1
I-1
I0
tp12
bI00
S'2\x80\x84\xb7\xe4\xd0\xb3?'
p13
tp14
bg0
(g1
(I0
tp15
g3
tp16
Rp17
(I1
(I1
I1
tp18
g10
I00
S'\xd9\xf5!4\xd7\x8d\xb1?'
p19
tp20
bg0
(g1
(I0
tp21
g3
tp22
Rp23
(I1
(I1
I1
tp24
g10
I00
S'\x16\xa0\x0c& \x08\xc5\xbf'
p25
tp26
btp27
(F1.708092844579042
F-22.890457995704455
F-163.15851863115347
tp28
I403
I601
tp29
((g0
(g1
(I0
tp30
g3
tp31
Rp32
(I1
(I1
I1
tp33
g10
I00
S'F\x81L\xc1\xa5N\xb8\xbf'
p34
tp35
bg0
(g1
(I0
tp36
g3
tp37
Rp38
(I1
(I1
I1
tp39
g10
I00
S'\xa6\xd1\xb6z\xeb\xa3\xb7?'
p40
tp41
bg0
(g1
(I0
tp42
g3
tp43
Rp44
(I1
(I1
I1
tp45
g10
I00
S'.\xb6\xb4S\x1c1\xc0\xbf'
p46
tp47
btp48
(F-165.44343962643856
F-39.89442201753767
F151.29097221262532
tp49
I403
I601
tp50
tp51
.(((cnumpy.core.multiarray
_reconstruct
p0
(cnumpy.matrixlib.defmatrix
matrix
p1
(I0
tp2
S'b'
p3
tp4
Rp5
(I1
(I1
I1
tp6
cnumpy
dtype
p7
(S'f8'
p8
I0
I1
tp9
Rp10
(I3
S'<'
p11
NNNI-1
I-1
I0
tp12
bI00
S'\x8b\xc6\x0e\x96X\xc6\xb8?'
p13
tp14
bg0
(g1
(I0
tp15
g3
tp16
Rp17
(I1
(I1
I1
tp18
g10
I00
S'\xfa\x87\xaf \xd2\x0c\xb3?'
p19
tp20
bg0
(g1
(I0
tp21
g3
tp22
Rp23
(I1
(I1
I1
tp24
g10
I00
S'\x13\xc0\x14\xc9\xaaI\xc5\xbf'
p25
tp26
btp27
(F1.8737926324078238
F-27.76641530894708
F-162.848300024072
tp28
I161
I618
tp29
((g0
(g1
(I0
tp30
g3
tp31
Rp32
(I1
(I1
I1
tp33
g10
I00
S'\xc3\xbd\xab\xc5\x82\x80\xb3\xbf'
p34
tp35
bg0
(g1
(I0
tp36
g3
tp37
Rp38
(I1
(I1
I1
tp39
g10
I00
S'TS\x0f\xd3\xcec\xb7?'
p40
tp41
bg0
(g1
(I0
tp42
g3
tp43
Rp44
(I1
(I1
I1
tp45
g10
I00
S'[\xab\xba\xb3\x89B\xc0\xbf'
p46
tp47
btp48
(F-166.59586920130863
F-34.627246276070366
F151.49633093934227
tp49
I161
I618
tp50
tp51
.(((cnumpy.core.multiarray
_reconstruct
p0
(cnumpy.matrixlib.defmatrix
matrix
p1
(I0
tp2
S'b'
p3
tp4
Rp5
(I1
(I1
I1
tp6
cnumpy
dtype
p7
(S'f8'
p8
I0
I1
tp9
Rp10
(I3
S'<'
p11
NNNI-1
I-1
I0
tp12
bI00
S'\xfb-\xa2\xbbu\xb4\xa0?'
p13
tp14
bg0
(g1
(I0
tp15
g3
tp16
Rp17
(I1
(I1
I1
tp18
g10
I00
S'N\xc9)\xc4>\xad\xb1?'
p19
tp20
bg0
(g1
(I0
tp21
g3
tp22
Rp23
(I1
(I1
I1
tp24
g10
I00
S'~&s`J\x19\xc4\xbf'
p25
tp26
btp27
(F1.8853005268759302
F-9.318104703367867
F-160.15865736320004
tp28
I953
I677
tp29
((g0
(g1
(I0
tp30
g3
tp31
Rp32
(I1
(I1
I1
tp33
g10
I00
S'\xf9k\x0c5\x06\xbe\xc1\xbf'
p34
tp35
bg0
(g1
(I0
tp36
g3
tp37
Rp38
(I1
(I1
I1
tp39
g10
I00
S'\x8em\xfd\x91b\xc4\xbb?'
p40
tp41
bg0
(g1
(I0
tp42
g3
tp43
Rp44
(I1
(I1
I1
tp45
g10
I00
S'\xc1\xfe\xd04>\xb4\xbe\xbf'
p46
tp47
btp48
(F-165.22438780817035
F-54.42279569581943
F148.05824095369195
tp49
I953
I677
tp50
tp51
.(((cnumpy.core.multiarray
_reconstruct
p0
(cnumpy.matrixlib.defmatrix
matrix
p1
(I0
tp2
S'b'
p3
tp4
Rp5
(I1
(I1
I1
tp6
cnumpy
dtype
p7
(S'f8'
p8
I0
I1
tp9
Rp10
(I3
S'<'
p11
NNNI-1
I-1
I0
tp12
bI00
S'&1o6\xa0\xe9\xb9?'
p13
tp14
bg0
(g1
(I0
tp15
g3
tp16
Rp17
(I1
(I1
I1
tp18
g10
I00
S'\x82\xe4f*G\xde\xb4?'
p19
tp20
bg0
(g1
(I0
tp21
g3
tp22
Rp23
(I1
(I1
I1
tp24
g10
I00
S'\xe7WF\xbd\x8d\\\xc5\xbf'
p25
tp26
btp27
(F1.8139460671086851
F-28.803995177586927
F-161.17210271656535
tp28
I82
I704
tp29
((g0
(g1
(I0
tp30
g3
tp31
Rp32
(I1
(I1
I1
tp33
g10
I00
S'\xf7\xf0K)^<\xb1\xbf'
p34
tp35
bg0
(g1
(I0
tp36
g3
tp37
Rp38
(I1
(I1
I1
tp39
g10
I00
S'\x98\xac\x03\xd8,z\xb8?'
p40
tp41
bg0
(g1
(I0
tp42
g3
tp43
Rp44
(I1
(I1
I1
tp45
g10
I00
S'9B\xba\xa4\xb4X\xc0\xbf'
p46
tp47
btp48
(F-172.56980449367748
F-34.67897871688858
F152.64569653558516
tp49
I82
I704
tp50
tp51
.(((cnumpy.core.multiarray
_reconstruct
p0
(cnumpy.matrixlib.defmatrix
matrix
p1
(I0
tp2
S'b'
p3
tp4
Rp5
(I1
(I1
I1
tp6
cnumpy
dtype
p7
(S'f8'
p8
I0
I1
tp9
Rp10
(I3
S'<'
p11
NNNI-1
I-1
I0
tp12
bI00
S'\xdf\x90w\xd5\xcf\x9c\x9f?'
p13
tp14
bg0
(g1
(I0
tp15
g3
tp16
Rp17
(I1
(I1
I1
tp18
g10
I00
S'Sk\xa0\x83\xab<\xb2?'
p19
tp20
bg0
(g1
(I0
tp21
g3
tp22
Rp23
(I1
(I1
I1
tp24
g10
I00
S'=+\xddL\xc8\x13\xc4\xbf'
p25
tp26
btp27
(F1.8755485205430047
F-8.737868894020849
F-159.24730762390107
tp28
I966
I707
tp29
((g0
(g1
(I0
tp30
g3
tp31
Rp32
(I1
(I1
I1
tp33
g10
I00
S'`\xc7\x165\x91\xd7\xc1\xbf'
p34
tp35
bg0
(g1
(I0
tp36
g3
tp37
Rp38
(I1
(I1
I1
tp39
g10
I00
S'S\xe1lD\xf2\x7f\xbc?'
p40
tp41
bg0
(g1
(I0
tp42
g3
tp43
Rp44
(I1
(I1
I1
tp45
g10
I00
S'F\xc9\x9e\x00\xcfA\xbf\xbf'
p46
tp47
btp48
(F-167.98662984456044
F-55.32442816506476
F149.77343477941477
tp49
I966
I707
tp50
tp51
.(((cnumpy.core.multiarray
_reconstruct
p0
(cnumpy.matrixlib.defmatrix
matrix
p1
(I0
tp2
S'b'
p3
tp4
Rp5
(I1
(I1
I1
tp6
cnumpy
dtype
p7
(S'f8'
p8
I0
I1
tp9
Rp10
(I3
S'<'
p11
NNNI-1
I-1
I0
tp12
bI00
S',7\x16\xcc\x1e\x15\xa0?'
p13
tp14
bg0
(g1
(I0
tp15
g3
tp16
Rp17
(I1
(I1
I1
tp18
g10
I00
S'\xa4D\xa0@\xdb>\xb2?'
p19
tp20
bg0
(g1
(I0
tp21
g3
tp22
Rp23
(I1
(I1
I1
tp24
g10
I00
S'?\xdc\x05\xb3\x89(\xc4\xbf'
p25
tp26
btp27
(F3.6368814949097383
F-9.859142369971558
F-159.88823447359405
tp28
I966
I707
tp29
((g0
(g1
(I0
tp30
g3
tp31
Rp32
(I1
(I1
I1
tp33
g10
I00
S'\xcem]~T\xa1\xc1\xbf'
p34
tp35
bg0
(g1
(I0
tp36
g3
tp37
Rp38
(I1
(I1
I1
tp39
g10
I00
S'\xb0>{0\x9au\xbc?'
p40
tp41
bg0
(g1
(I0
tp42
g3
tp43
Rp44
(I1
(I1
I1
tp45
g10
I00
S'\xc9\x98\xc1\x9du\xa5\xbe\xbf'
p46
tp47
btp48
(F-177.62939269074892
F-59.00045530853398
F156.33758554883818
tp49
I966
I707
tp50
tp51
.(((cnumpy.core.multiarray
_reconstruct
p0
(cnumpy.matrixlib.defmatrix
matrix
p1
(I0
tp2
S'b'
p3
tp4
Rp5
(I1
(I1
I1
tp6
cnumpy
dtype
p7
(S'f8'
p8
I0
I1
tp9
Rp10
(I3
S'<'
p11
NNNI-1
I-1
I0
tp12
bI00
S'\xd8O\xfaz\x8d\xc2\xa9?'
p13
tp14
bg0
(g1
(I0
tp15
g3
tp16
Rp17
(I1
(I1
I1
tp18
g10
I00
S'\x04\xc7\x87MP\xeb\xb2?'
p19
tp20
bg0
(g1
(I0
tp21
g3
tp22
Rp23
(I1
(I1
I1
tp24
g10
I00
S'@\xbe\xeaf~Z\xc4\xbf'
p25
tp26
btp27
(F1.9623585236730767
F-15.190491593171922
F-159.5846568964846
tp28
I743
I708
tp29
((g0
(g1
(I0
tp30
g3
tp31
Rp32
(I1
(I1
I1
tp33
g10
I00
S'\x12\xd17\xd5\x1d\x7f\xbe\xbf'
p34
tp35
bg0
(g1
(I0
tp36
g3
tp37
Rp38
(I1
(I1
I1
tp39
g10
I00
S'\xc0\xc2\xc8\xfdCf\xbb?'
p40
tp41
bg0
(g1
(I0
tp42
g3
tp43
Rp44
(I1
(I1
I1
tp45
g10
I00
S'x\xfa\x14C >\xbf\xbf'
p46
tp47
btp48
(F-176.0291366347052
F-53.35058147512725
F154.62099433928802
tp49
I743
I708
tp50
tp51
.(((cnumpy.core.multiarray
_reconstruct
p0
(cnumpy.matrixlib.defmatrix
matrix
p1
(I0
tp2
S'b'
p3
tp4
Rp5
(I1
(I1
I1
tp6
cnumpy
dtype
p7
(S'f8'
p8
I0
I1
tp9
Rp10
(I3
S'<'
p11
NNNI-1
I-1
I0
tp12
bI00
S'\xd3r\xaed\x8a\xf1\xa8?'
p13
tp14
bg0
(g1
(I0
tp15
g3
tp16
Rp17
(I1
(I1
I1
tp18
g10
I00
S'\xb6\x14\xfd\xc5\xd5\xb6\xb2?'
p19
tp20
bg0
(g1
(I0
tp21
g3
tp22
Rp23
(I1
(I1
I1
tp24
g10
I00
S'\xcd\x8ea\x89$s\xc4\xbf'
p25
tp26
btp27
(F1.8637732039807196
F-14.581566257162132
F-159.93504749647582
tp28
I743
I708
tp29
((g0
(g1
(I0
tp30
g3
tp31
Rp32
(I1
(I1
I1
tp33
g10
I00
S'\xdd\xc9\xed"\xe0d\xbe\xbf'
p34
tp35
bg0
(g1
(I0
tp36
g3
tp37
Rp38
(I1
(I1
I1
tp39
g10
I00
S'\xb2\xf2v\xca+i\xbb?'
p40
tp41
bg0
(g1
(I0
tp42
g3
tp43
Rp44
(I1
(I1
I1
tp45
g10
I00
S'\xb4\xc7\xcceez\xbf\xbf'
p46
tp47
btp48
(F-175.05571148407302
F-52.595318642134714
F154.1009654011675
tp49
I743
I708
tp50
tp51
.(((cnumpy.core.multiarray
_reconstruct
p0
(cnumpy.matrixlib.defmatrix
matrix
p1
(I0
tp2
S'b'
p3
tp4
Rp5
(I1
(I1
I1
tp6
cnumpy
dtype
p7
(S'f8'
p8
I0
I1
tp9
Rp10
(I3
S'<'
p11
NNNI-1
I-1
I0
tp12
bI00
S'\xa8\x1d\xa7\xf6qm\xb1?'
p13
tp14
bg0
(g1
(I0
tp15
g3
tp16
Rp17
(I1
(I1
I1
tp18
g10
I00
S'\xc2o\x8c\x0fb\x8a\xb3?'
p19
tp20
bg0
(g1
(I0
tp21
g3
tp22
Rp23
(I1
(I1
I1
tp24
g10
I00
S'\x81_\xca\x14\x85\xc7\xc4\xbf'
p25
tp26
btp27
(F2.083234444307506
F-20.502964982335676
F-160.28237502200975
tp28
I518
I709
tp29
((g0
(g1
(I0
tp30
g3
tp31
Rp32
(I1
(I1
I1
tp33
g10
I00
S'\xb3L\xcc2\xae\xf1\xb9\xbf'
p34
tp35
bg0
(g1
(I0
tp36
g3
tp37
Rp38
(I1
(I1
I1
tp39
g10
I00
S'\xa4\x91\x98CN^\xba?'
p40
tp41
bg0
(g1
(I0
tp42
g3
tp43
Rp44
(I1
(I1
I1
tp45
g10
I00
S'Ci\xd1\x81\x0f\xa6\xbf\xbf'
p46
tp47
btp48
(F-162.2740737981434
F-40.05525344494026
F146.68099640101798
tp49
I518
I709
tp50
tp51
.(((cnumpy.core.multiarray
_reconstruct
p0
(cnumpy.matrixlib.defmatrix
matrix
p1
(I0
tp2
S'b'
p3
tp4
Rp5
(I1
(I1
I1
tp6
cnumpy
dtype
p7
(S'f8'
p8
I0
I1
tp9
Rp10
(I3
S'<'
p11
NNNI-1
I-1
I0
tp12
bI00
S'\xca\xbd\xf1J?R\xb1?'
p13
tp14
bg0
(g1
(I0
tp15
g3
tp16
Rp17
(I1
(I1
I1
tp18
g10
I00
S'[\x00\xac\xdc\x9a\xcc\xb3?'
p19
tp20
bg0
(g1
(I0
tp21
g3
tp22
Rp23
(I1
(I1
I1
tp24
g10
I00
S'\xcb\r\x97\xf8v\xb4\xc4\xbf'
p25
tp26
btp27
(F2.005772882168397
F-20.248840391073305
F-159.92323662970455
tp28
I518
I709
tp29
((g0
(g1
(I0
tp30
g3
tp31
Rp32
(I1
(I1
I1
tp33
g10
I00
S'\x0f1\xde\x9e+\xcb\xb9\xbf'
p34
tp35
bg0
(g1
(I0
tp36
g3
tp37
Rp38
(I1
(I1
I1
tp39
g10
I00
S'\xbe\x90![\xa8x\xba?'
p40
tp41
bg0
(g1
(I0
tp42
g3
tp43
Rp44
(I1
(I1
I1
tp45
g10
I00
S'\x16\xddz\xb0\x0f\x01\xc0\xbf'
p46
tp47
btp48
(F-173.88722635845716
F-46.959125057909255
F152.96114137440517
tp49
I518
I709
tp50
tp51
.(((cnumpy.core.multiarray
_reconstruct
p0
(cnumpy.matrixlib.defmatrix
matrix
p1
(I0
tp2
S'b'
p3
tp4
Rp5
(I1
(I1
I1
tp6
cnumpy
dtype
p7
(S'f8'
p8
I0
I1
tp9
Rp10
(I3
S'<'
p11
NNNI-1
I-1
I0
tp12
bI00
S'\xa0\x16y\xaa\xa9\xb0\xb5?'
p13
tp14
bg0
(g1
(I0
tp15
g3
tp16
Rp17
(I1
(I1
I1
tp18
g10
I00
S'\x02\xa8\x18lV_\xb4?'
p19
tp20
bg0
(g1
(I0
tp21
g3
tp22
Rp23
(I1
(I1
I1
tp24
g10
I00
S'e\x10\xcfT\xdd"\xc5\xbf'
p25
tp26
btp27
(F2.0076260249263673
F-24.78220239644256
F-160.7035126202107
tp28
I299
I719
tp29
((g0
(g1
(I0
tp30
g3
tp31
Rp32
(I1
(I1
I1
tp33
g10
I00
S'\x0f\x8e\xd5\x17Oc\xb5\xbf'
p34
tp35
bg0
(g1
(I0
tp36
g3
tp37
Rp38
(I1
(I1
I1
tp39
g10
I00
S'e\xbd\xa5\xe5y\xc8\xb9?'
p40
tp41
bg0
(g1
(I0
tp42
g3
tp43
Rp44
(I1
(I1
I1
tp45
g10
I00
S'\xa7\xdb\x9fvY$\xc0\xbf'
p46
tp47
btp48
(F-167.89421085492245
F-37.91620879329485
F149.58070284191135
tp49
I299
I719
tp50
tp51
.(((cnumpy.core.multiarray
_reconstruct
p0
(cnumpy.matrixlib.defmatrix
matrix
p1
(I0
tp2
S'b'
p3
tp4
Rp5
(I1
(I1
I1
tp6
cnumpy
dtype
p7
(S'f8'
p8
I0
I1
tp9
Rp10
(I3
S'<'
p11
NNNI-1
I-1
I0
tp12
bI00
S'`\x1e\xba\x19L\xc9\x95?'
p13
tp14
bg0
(g1
(I0
tp15
g3
tp16
Rp17
(I1
(I1
I1
tp18
g10
I00
S't(\xbc5#X\xb4?'
p19
tp20
bg0
(g1
(I0
tp21
g3
tp22
Rp23
(I1
(I1
I1
tp24
g10
I00
S'\xb5\xbb\xba\x17\xcc8\xc4\xbf'
p25
tp26
btp27
(F1.9665833781065138
F-5.496052367528128
F-156.63929127270075
tp28
I1077
I815
tp29
((g0
(g1
(I0
tp30
g3
tp31
Rp32
(I1
(I1
I1
tp33
g10
I00
S'\x98\xc2\x1cf&\x8a\xc2\xbf'
p34
tp35
bg0
(g1
(I0
tp36
g3
tp37
Rp38
(I1
(I1
I1
tp39
g10
I00
S'\x90\x81\x9b\x15\xe8\x8f\xbf?'
p40
tp41
bg0
(g1
(I0
tp42
g3
tp43
Rp44
(I1
(I1
I1
tp45
g10
I00
S'\x1e"\xd8l\xcb9\xbe\xbf'
p46
tp47
btp48
(F-173.09818855823622
F-60.187548166187256
F150.5763782365563
tp49
I1077
I815
tp50
tp51
.(((cnumpy.core.multiarray
_reconstruct
p0
(cnumpy.matrixlib.defmatrix
matrix
p1
(I0
tp2
S'b'
p3
tp4
Rp5
(I1
(I1
I1
tp6
cnumpy
dtype
p7
(S'f8'
p8
I0
I1
tp9
Rp10
(I3
S'<'
p11
NNNI-1
I-1
I0
tp12
bI00
S'#\xb9[\x91\x150\x95?'
p13
tp14
bg0
(g1
(I0
tp15
g3
tp16
Rp17
(I1
(I1
I1
tp18
g10
I00
S'%\x9dH\x12\xb4\xde\xb3?'
p19
tp20
bg0
(g1
(I0
tp21
g3
tp22
Rp23
(I1
(I1
I1
tp24
g10
I00
S'\x06\xec\xdb\x86\xaf\n\xc4\xbf'
p25
tp26
btp27
(F1.9638654375734401
F-5.193220589031506
F-156.91056060180463
tp28
I1077
I815
tp29
((g0
(g1
(I0
tp30
g3
tp31
Rp32
(I1
(I1
I1
tp33
g10
I00
S'\x16:\xaa?\xa3\xbb\xc2\xbf'
p34
tp35
bg0
(g1
(I0
tp36
g3
tp37
Rp38
(I1
(I1
I1
tp39
g10
I00
S'\xb0\xf5Lu\xa9\xac\xbf?'
p40
tp41
bg0
(g1
(I0
tp42
g3
tp43
Rp44
(I1
(I1
I1
tp45
g10
I00
S'i\xffj\x85|\xd6\xbe\xbf'
p46
tp47
btp48
(F-172.1649554703354
F-58.610228936772145
F150.4030157778032
tp49
I1077
I815
tp50
tp51
.(((cnumpy.core.multiarray
_reconstruct
p0
(cnumpy.matrixlib.defmatrix
matrix
p1
(I0
tp2
S'b'
p3
tp4
Rp5
(I1
(I1
I1
tp6
cnumpy
dtype
p7
(S'f8'
p8
I0
I1
tp9
Rp10
(I3
S'<'
p11
NNNI-1
I-1
I0
tp12
bI00
S'3|"\x8a\x0b\x02\xa4?'
p13
tp14
bg0
(g1
(I0
tp15
g3
tp16
Rp17
(I1
(I1
I1
tp18
g10
I00
S'j\xd3\xcejl\xbe\xb4?'
p19
tp20
bg0
(g1
(I0
tp21
g3
tp22
Rp23
(I1
(I1
I1
tp24
g10
I00
S'ga\x83\xd6 g\xc4\xbf'
p25
tp26
btp27
(F2.182267659407054
F-11.45363767555723
F-156.956803692288
tp28
I855
I818
tp29
((g0
(g1
(I0
tp30
g3
tp31
Rp32
(I1
(I1
I1
tp33
g10
I00
S'\x97,\xdd|C@\xc0\xbf'
p34
tp35
bg0
(g1
(I0
tp36
g3
tp37
Rp38
(I1
(I1
I1
tp39
g10
I00
S'\x80\x7fm9Px\xbe?'
p40
tp41
bg0
(g1
(I0
tp42
g3
tp43
Rp44
(I1
(I1
I1
tp45
g10
I00
S'\xbe\x08\x82\xd7\xc6#\xbf\xbf'
p46
tp47
btp48
(F-171.33798048195564
F-53.75120143431609
F149.20749982164568
tp49
I855
I818
tp50
tp51
.(((cnumpy.core.multiarray
_reconstruct
p0
(cnumpy.matrixlib.defmatrix
matrix
p1
(I0
tp2
S'b'
p3
tp4
Rp5
(I1
(I1
I1
tp6
cnumpy
dtype
p7
(S'f8'
p8
I0
I1
tp9
Rp10
(I3
S'<'
p11
NNNI-1
I-1
I0
tp12
bI00
S'\xe2\x1c\x975(\xf2\xa3?'
p13
tp14
bg0
(g1
(I0
tp15
g3
tp16
Rp17
(I1
(I1
I1
tp18
g10
I00
S'\xdc}\xbe\xb3F\x94\xb4?'
p19
tp20
bg0
(g1
(I0
tp21
g3
tp22
Rp23
(I1
(I1
I1
tp24
g10
I00
S'\x85\x9f\x1a?ew\xc4\xbf'
p25
tp26
btp27
(F3.9118336992290983
F-12.217612606485375
F-157.72562946123995
tp28
I855
I818
tp29
((g0
(g1
(I0
tp30
g3
tp31
Rp32
(I1
(I1
I1
tp33
g10
I00
S'\xea\xd4F\x82\xbfC\xc0\xbf'
p34
tp35
bg0
(g1
(I0
tp36
g3
tp37
Rp38
(I1
(I1
I1
tp39
g10
I00
S'X\xcc\x92Brp\xbe?'
p40
tp41
bg0
(g1
(I0
tp42
g3
tp43
Rp44
(I1
(I1
I1
tp45
g10
I00
S'(\x8ek\x03\x80k\xbf\xbf'
p46
tp47
btp48
(F-160.72672353837032
F-54.11430383477783
F137.44155806683224
tp49
I855
I818
tp50
tp51
.(((cnumpy.core.multiarray
_reconstruct
p0
(cnumpy.matrixlib.defmatrix
matrix
p1
(I0
tp2
S'b'
p3
tp4
Rp5
(I1
(I1
I1
tp6
cnumpy
dtype
p7
(S'f8'
p8
I0
I1
tp9
Rp10
(I3
S'<'
p11
NNNI-1
I-1
I0
tp12
bI00
S'Vh\xec\x86\x86\xfe\xac?'
p13
tp14
bg0
(g1
(I0
tp15
g3
tp16
Rp17
(I1
(I1
I1
tp18
g10
I00
S'<\xb9\x8e\xc8\xcf\x8f\xb5?'
p19
tp20
bg0
(g1
(I0
tp21
g3
tp22
Rp23
(I1
(I1
I1
tp24
g10
I00
S'\x8eu\xc0e\xe4\x98\xc4\xbf'
p25
tp26
btp27
(F2.1579830844775065
F-17.01944171219799
F-157.08210790967235
tp28
I631
I820
tp29
((g0
(g1
(I0
tp30
g3
tp31
Rp32
(I1
(I1
I1
tp33
g10
I00
S'\xb1\xe8\xef\xef\n\x82\xbb\xbf'
p34
tp35
bg0
(g1
(I0
tp36
g3
tp37
Rp38
(I1
(I1
I1
tp39
g10
I00
S'\x89\xdc\x96\xde\xc2t\xbd?'
p40
tp41
bg0
(g1
(I0
tp42
g3
tp43
Rp44
(I1
(I1
I1
tp45
g10
I00
S'<\xa3\xc9\x9d\x15\xe9\xbf\xbf'
p46
tp47
btp48
(F-170.441166635783
F-51.57425670540565
F145.57176309263906
tp49
I631
I820
tp50
tp51
.(((cnumpy.core.multiarray
_reconstruct
p0
(cnumpy.matrixlib.defmatrix
matrix
p1
(I0
tp2
S'b'
p3
tp4
Rp5
(I1
(I1
I1
tp6
cnumpy
dtype
p7
(S'f8'
p8
I0
I1
tp9
Rp10
(I3
S'<'
p11
NNNI-1
I-1
I0
tp12
bI00
S'\xe2u5\xeb\x91\xe3\xac?'
p13
tp14
bg0
(g1
(I0
tp15
g3
tp16
Rp17
(I1
(I1
I1
tp18
g10
I00
S'\xdc\xa9\xac\xc1s\x90\xb5?'
p19
tp20
bg0
(g1
(I0
tp21
g3
tp22
Rp23
(I1
(I1
I1
tp24
g10
I00
S'\x18\xc9\x00\xbb*\xa1\xc4\xbf'
p25
tp26
btp27
(F2.1977004389587065
F-16.952760012830662
F-157.10986621652884
tp28
I631
I820
tp29
((g0
(g1
(I0
tp30
g3
tp31
Rp32
(I1
(I1
I1
tp33
g10
I00
S'\xf0\x97zh&\xc4\xbb\xbf'
p34
tp35
bg0
(g1
(I0
tp36
g3
tp37
Rp38
(I1
(I1
I1
tp39
g10
I00
S'\xe0\xb9\xc9\xe8\xc4R\xbd?'
p40
tp41
bg0
(g1
(I0
tp42
g3
tp43
Rp44
(I1
(I1
I1
tp45
g10
I00
S'\x87\xaa\x7fP)\xb0\xbf\xbf'
p46
tp47
btp48
(F-175.1085856519726
F-52.7176259255722
F149.88902776896276
tp49
I631
I820
tp50
tp51
.(((cnumpy.core.multiarray
_reconstruct
p0
(cnumpy.matrixlib.defmatrix
matrix
p1
(I0
tp2
S'b'
p3
tp4
Rp5
(I1
(I1
I1
tp6
cnumpy
dtype
p7
(S'f8'
p8
I0
I1
tp9
Rp10
(I3
S'<'
p11
NNNI-1
I-1
I0
tp12
bI00
S'\xed\xd4\x90\x16F\x93\xb3?'
p13
tp14
bg0
(g1
(I0
tp15
g3
tp16
Rp17
(I1
(I1
I1
tp18
g10
I00
S'W\x81X\xc1\xd1o\xb6?'
p19
tp20
bg0
(g1
(I0
tp21
g3
tp22
Rp23
(I1
(I1
I1
tp24
g10
I00
S'\xc8n\x8b\xe2i\xee\xc4\xbf'
p25
tp26
btp27
(F2.3143884689441894
F-22.756657263825208
F-157.82812757558509
tp28
I371
I823
tp29
((g0
(g1
(I0
tp30
g3
tp31
Rp32
(I1
(I1
I1
tp33
g10
I00
S'i5\xc6A%\x8e\xb6\xbf'
p34
tp35
bg0
(g1
(I0
tp36
g3
tp37
Rp38
(I1
(I1
I1
tp39
g10
I00
S'\x9b\xc9\xfc\x0cLi\xbc?'
p40
tp41
bg0
(g1
(I0
tp42
g3
tp43
Rp44
(I1
(I1
I1
tp45
g10
I00
S'\xec]\x05l\xc5;\xc0\xbf'
p46
tp47
btp48
(F-173.96233876325334
F-43.9176960781333
F150.03121906947788
tp49
I371
I823
tp50
tp51
.(((cnumpy.core.multiarray
_reconstruct
p0
(cnumpy.matrixlib.defmatrix
matrix
p1
(I0
tp2
S'b'
p3
tp4
Rp5
(I1
(I1
I1
tp6
cnumpy
dtype
p7
(S'f8'
p8
I0
I1
tp9
Rp10
(I3
S'<'
p11
NNNI-1
I-1
I0
tp12
bI00
S'\xb0P\xe7\xb3\xee\x04\xb3?'
p13
tp14
bg0
(g1
(I0
tp15
g3
tp16
Rp17
(I1
(I1
I1
tp18
g10
I00
S'\x8di/?\x1c\x8a\xb5?'
p19
tp20
bg0
(g1
(I0
tp21
g3
tp22
Rp23
(I1
(I1
I1
tp24
g10
I00
S'g\xdc\x19\x11\xbe\xf6\xc4\xbf'
p25
tp26
btp27
(F4.104930579698327
F-22.90491719237078
F-159.3859349472854
tp28
I431
I823
tp29
((g0
(g1
(I0
tp30
g3
tp31
Rp32
(I1
(I1
I1
tp33
g10
I00
S'x\x90\xef\xcbb\xc5\xb7\xbf'
p34
tp35
bg0
(g1
(I0
tp36
g3
tp37
Rp38
(I1
(I1
I1
tp39
g10
I00
S'P\xbe\xee\xe4\xb5\xff\xbb?'
p40
tp41
bg0
(g1
(I0
tp42
g3
tp43
Rp44
(I1
(I1
I1
tp45
g10
I00
S'(\x1f\x84\x19\xa9\x0c\xc0\xbf'
p46
tp47
btp48
(F-162.64647879271428
F-37.96901427017742
F145.100975979394
tp49
I431
I823
tp50
tp51
.(((cnumpy.core.multiarray
_reconstruct
p0
(cnumpy.matrixlib.defmatrix
matrix
p1
(I0
tp2
S'b'
p3
tp4
Rp5
(I1
(I1
I1
tp6
cnumpy
dtype
p7
(S'f8'
p8
I0
I1
tp9
Rp10
(I3
S'<'
p11
NNNI-1
I-1
I0
tp12
bI00
S'\\\xf8NZo\xd1\xb7?'
p13
tp14
bg0
(g1
(I0
tp15
g3
tp16
Rp17
(I1
(I1
I1
tp18
g10
I00
S'\xb5t\xad\x0f6\xab\xb6?'
p19
tp20
bg0
(g1
(I0
tp21
g3
tp22
Rp23
(I1
(I1
I1
tp24
g10
I00
S'\xa32 v\xcf{\xc5\xbf'
p25
tp26
btp27
(F4.327045495206016
F-27.581353566463502
F-160.27093190562138
tp28
I170
I824
tp29
((g0
(g1
(I0
tp30
g3
tp31
Rp32
(I1
(I1
I1
tp33
g10
I00
S'\x0b\xea\x81\x95\x8bw\xb2\xbf'
p34
tp35
bg0
(g1
(I0
tp36
g3
tp37
Rp38
(I1
(I1
I1
tp39
g10
I00
S'k\x9cH8\xd4%\xbb?'
p40
tp41
bg0
(g1
(I0
tp42
g3
tp43
Rp44
(I1
(I1
I1
tp45
g10
I00
S'^\xad\xf6QMq\xc0\xbf'
p46
tp47
btp48
(F-163.86520855351796
F-30.73550408067629
F146.8207586320287
tp49
I170
I824
tp50
tp51
.(((cnumpy.core.multiarray
_reconstruct
p0
(cnumpy.matrixlib.defmatrix
matrix
p1
(I0
tp2
S'b'
p3
tp4
Rp5
(I1
(I1
I1
tp6
cnumpy
dtype
p7
(S'f8'
p8
I0
I1
tp9
Rp10
(I3
S'<'
p11
NNNI-1
I-1
I0
tp12
bI00
S'\xa3\xdb\xa8yq\xf5\xb7?'
p13
tp14
bg0
(g1
(I0
tp15
g3
tp16
Rp17
(I1
(I1
I1
tp18
g10
I00
S'6\xf7go/\xf3\xb6?'
p19
tp20
bg0
(g1
(I0
tp21
g3
tp22
Rp23
(I1
(I1
I1
tp24
g10
I00
S'\xee\xc8\x1d\xac\xcfx\xc5\xbf'
p25
tp26
btp27
(F2.463487429191801
F-26.788072389715424
F-158.81960793739051
tp28
I171
I824
tp29
((g0
(g1
(I0
tp30
g3
tp31
Rp32
(I1
(I1
I1
tp33
g10
I00
S'\xc9\x03RH\x9a\xcd\xb2\xbf'
p34
tp35
bg0
(g1
(I0
tp36
g3
tp37
Rp38
(I1
(I1
I1
tp39
g10
I00
S'\xcc\xd0(\xe7\x13\xa3\xbb?'
p40
tp41
bg0
(g1
(I0
tp42
g3
tp43
Rp44
(I1
(I1
I1
tp45
g10
I00
S'\xc0\x04\x1a\x7f\x01l\xc0\xbf'
p46
tp47
btp48
(F-159.25843835615905
F-27.19082482481078
F145.0790212148023
tp49
I171
I824
tp50
tp51
.(((cnumpy.core.multiarray
_reconstruct
p0
(cnumpy.matrixlib.defmatrix
matrix
p1
(I0
tp2
S'b'
p3
tp4
Rp5
(I1
(I1
I1
tp6
cnumpy
dtype
p7
(S'f8'
p8
I0
I1
tp9
Rp10
(I3
S'<'
p11
NNNI-1
I-1
I0
tp12
bI00
S'$dEm\x9d\xb1\xb9?'
p13
tp14
bg0
(g1
(I0
tp15
g3
tp16
Rp17
(I1
(I1
I1
tp18
g10
I00
S"\xe5 _1v'\xb9?"
p19
tp20
bg0
(g1
(I0
tp21
g3
tp22
Rp23
(I1
(I1
I1
tp24
g10
I00
S'2\x1c\x8c\xa3\x9d\xa3\xc5\xbf'
p25
tp26
btp27
(F2.915058089568194
F-28.58797215897654
F-157.70907196582428
tp28
I91
I907
tp29
((g0
(g1
(I0
tp30
g3
tp31
Rp32
(I1
(I1
I1
tp33
g10
I00
S'\xa6v\xb2G\x1aY\xb0\xbf'
p34
tp35
bg0
(g1
(I0
tp36
g3
tp37
Rp38
(I1
(I1
I1
tp39
g10
I00
S'\xb9Aaw39\xbd?'
p40
tp41
bg0
(g1
(I0
tp42
g3
tp43
Rp44
(I1
(I1
I1
tp45
g10
I00
S'\xc9.\xcbm@\x7f\xc0\xbf'
p46
tp47
btp48
(F-172.8257141292609
F-34.28886670021544
F147.66357558987596
tp49
I91
I907
tp50
tp51
.(((cnumpy.core.multiarray
_reconstruct
p0
(cnumpy.matrixlib.defmatrix
matrix
p1
(I0
tp2
S'b'
p3
tp4
Rp5
(I1
(I1
I1
tp6
cnumpy
dtype
p7
(S'f8'
p8
I0
I1
tp9
Rp10
(I3
S'<'
p11
NNNI-1
I-1
I0
tp12
bI00
S'\xae\xb6l\x9c\xc8\x11\x9e?'
p13
tp14
bg0
(g1
(I0
tp15
g3
tp16
Rp17
(I1
(I1
I1
tp18
g10
I00
S',\xd1\xdc\x86$\xc6\xb6?'
p19
tp20
bg0
(g1
(I0
tp21
g3
tp22
Rp23
(I1
(I1
I1
tp24
g10
I00
S'slC\xb5\x82?\xc4\xbf'
p25
tp26
btp27
(F2.4848769238777906
F-8.304200250297743
F-154.16595364222997
tp28
I967
I926
tp29
((g0
(g1
(I0
tp30
g3
tp31
Rp32
(I1
(I1
I1
tp33
g10
I00
S'|\x105\xabU\x0f\xc1\xbf'
p34
tp35
bg0
(g1
(I0
tp36
g3
tp37
Rp38
(I1
(I1
I1
tp39
g10
I00
S'4C\xa5\xab\x05\xb9\xc0?'
p40
tp41
bg0
(g1
(I0
tp42
g3
tp43
Rp44
(I1
(I1
I1
tp45
g10
I00
S'S\x03\xbf\xd0`\xbb\xbe\xbf'
p46
tp47
btp48
(F-170.9457458225407
F-56.77735729291434
F146.3131736123438
tp49
I967
I926
tp50
tp51
.(((cnumpy.core.multiarray
_reconstruct
p0
(cnumpy.matrixlib.defmatrix
matrix
p1
(I0
tp2
S'b'
p3
tp4
Rp5
(I1
(I1
I1
tp6
cnumpy
dtype
p7
(S'f8'
p8
I0
I1
tp9
Rp10
(I3
S'<'
p11
NNNI-1
I-1
I0
tp12
bI00
S'\x9d\xe2d\xb0\x98\xd1\x9c?'
p13
tp14
bg0
(g1
(I0
tp15
g3
tp16
Rp17
(I1
(I1
I1
tp18
g10
I00
S'K_\xe1K+k\xb6?'
p19
tp20
bg0
(g1
(I0
tp21
g3
tp22
Rp23
(I1
(I1
I1
tp24
g10
I00
S'\xa6A\xb5\xe0\x0bP\xc4\xbf'
p25
tp26
btp27
(F4.122684660735919
F-8.798063727156729
F-154.88925249008165
tp28
I967
I926
tp29
((g0
(g1
(I0
tp30
g3
tp31
Rp32
(I1
(I1
I1
tp33
g10
I00
S'F\x0c"\x99_@\xc1\xbf'
p34
tp35
bg0
(g1
(I0
tp36
g3
tp37
Rp38
(I1
(I1
I1
tp39
g10
I00
S'\x80\xa8|$K\x92\xc0?'
p40
tp41
bg0
(g1
(I0
tp42
g3
tp43
Rp44
(I1
(I1
I1
tp45
g10
I00
S'\xeb\x83\xd0\x0c\xd4Z\xbf\xbf'
p46
tp47
btp48
(F-171.57228985130848
F-58.29011199602088
F146.210156290462
tp49
I967
I926
tp50
tp51
.(((cnumpy.core.multiarray
_reconstruct
p0
(cnumpy.matrixlib.defmatrix
matrix
p1
(I0
tp2
S'b'
p3
tp4
Rp5
(I1
(I1
I1
tp6
cnumpy
dtype
p7
(S'f8'
p8
I0
I1
tp9
Rp10
(I3
S'<'
p11
NNNI-1
I-1
I0
tp12
bI00
S']\xee\x91\xd1Zk\xa8?'
p13
tp14
bg0
(g1
(I0
tp15
g3
tp16
Rp17
(I1
(I1
I1
tp18
g10
I00
S'\x9b58\x9a\xa5\x9d\xb7?'
p19
tp20
bg0
(g1
(I0
tp21
g3
tp22
Rp23
(I1
(I1
I1
tp24
g10
I00
S'\xee\xeet\xa47\xd2\xc4\xbf'
p25
tp26
btp27
(F4.223457683147826
F-15.128835150305937
F-155.19034524970098
tp28
I743
I930
tp29
((g0
(g1
(I0
tp30
g3
tp31
Rp32
(I1
(I1
I1
tp33
g10
I00
S'\xfa.\x148\xa2\xd5\xbd\xbf'
p34
tp35
bg0
(g1
(I0
tp36
g3
tp37
Rp38
(I1
(I1
I1
tp39
g10
I00
S'k\x1b(t\x88.\xc0?'
p40
tp41
bg0
(g1
(I0
tp42
g3
tp43
Rp44
(I1
(I1
I1
tp45
g10
I00
S'\x86\x82\xc6n\xe2\xfa\xbf\xbf'
p46
tp47
btp48
(F-174.7656434621111
F-52.7860609497969
F149.11009682907198
tp49
I743
I930
tp50
tp51
.(((cnumpy.core.multiarray
_reconstruct
p0
(cnumpy.matrixlib.defmatrix
matrix
p1
(I0
tp2
S'b'
p3
tp4
Rp5
(I1
(I1
I1
tp6
cnumpy
dtype
p7
(S'f8'
p8
I0
I1
tp9
Rp10
(I3
S'<'
p11
NNNI-1
I-1
I0
tp12
bI00
S'\x01l\x81z?\x9f\xa7?'
p13
tp14
bg0
(g1
(I0
tp15
g3
tp16
Rp17
(I1
(I1
I1
tp18
g10
I00
S'\x15\xae\xd0\xb5\xa4m\xb7?'
p19
tp20
bg0
(g1
(I0
tp21
g3
tp22
Rp23
(I1
(I1
I1
tp24
g10
I00
S'\xa3 \xfcfo\xa9\xc4\xbf'
p25
tp26
btp27
(F4.042870219413987
F-14.404465691715442
F-154.94365457393798
tp28
I743
I930
tp29
((g0
(g1
(I0
tp30
g3
tp31
Rp32
(I1
(I1
I1
tp33
g10
I00
S'\x8d\rp\x98]l\xbd\xbf'
p34
tp35
bg0
(g1
(I0
tp36
g3
tp37
Rp38
(I1
(I1
I1
tp39
g10
I00
S'\xd1~\x89\x0f\xf8H\xc0?'
p40
tp41
bg0
(g1
(I0
tp42
g3
tp43
Rp44
(I1
(I1
I1
tp45
g10
I00
S'\x97\xbc\xef\xe5\xe1d\xbf\xbf'
p46
tp47
btp48
(F-163.12101177953843
F-44.89873636123442
F141.8024912626865
tp49
I743
I930
tp50
tp51
.(((cnumpy.core.multiarray
_reconstruct
p0
(cnumpy.matrixlib.defmatrix
matrix
p1
(I0
tp2
S'b'
p3
tp4
Rp5
(I1
(I1
I1
tp6
cnumpy
dtype
p7
(S'f8'
p8
I0
I1
tp9
Rp10
(I3
S'<'
p11
NNNI-1
I-1
I0
tp12
bI00
S'v\xf3\n\xfd\xb1\xfb\xb0?'
p13
tp14
bg0
(g1
(I0
tp15
g3
tp16
Rp17
(I1
(I1
I1
tp18
g10
I00
S'g]\n\x8c\x82-\xb8?'
p19
tp20
bg0
(g1
(I0
tp21
g3
tp22
Rp23
(I1
(I1
I1
tp24
g10
I00
S'\n\x9f\xa0b0\xe8\xc4\xbf'
p25
tp26
btp27
(F4.408578846472389
F-20.64381697615197
F-155.3078075788171
tp28
I517
I933
tp29
((g0
(g1
(I0
tp30
g3
tp31
Rp32
(I1
(I1
I1
tp33
g10
I00
S"\xe6\x84'\xdd/\x08\xb9\xbf"
p34
tp35
bg0
(g1
(I0
tp36
g3
tp37
Rp38
(I1
(I1
I1
tp39
g10
I00
S'\x8c\xee\n\xbc0`\xbf?'
p40
tp41
bg0
(g1
(I0
tp42
g3
tp43
Rp44
(I1
(I1
I1
tp45
g10
I00
S'\n\x85<\xe2\xcd\xd6\xbf\xbf'
p46
tp47
btp48
(F-163.93749722025078
F-40.65794144153816
F141.91425595054534
tp49
I517
I933
tp50
tp51
.(((cnumpy.core.multiarray
_reconstruct
p0
(cnumpy.matrixlib.defmatrix
matrix
p1
(I0
tp2
S'b'
p3
tp4
Rp5
(I1
(I1
I1
tp6
cnumpy
dtype
p7
(S'f8'
p8
I0
I1
tp9
Rp10
(I3
S'<'
p11
NNNI-1
I-1
I0
tp12
bI00
S'\x08CC\xe2\xd7\xba\xb0?'
p13
tp14
bg0
(g1
(I0
tp15
g3
tp16
Rp17
(I1
(I1
I1
tp18
g10
I00
S'#C\x89\xd4#\x02\xb8?'
p19
tp20
bg0
(g1
(I0
tp21
g3
tp22
Rp23
(I1
(I1
I1
tp24
g10
I00
S'B\xe9\x8bV\x1f\xfd\xc4\xbf'
p25
tp26
btp27
(F4.562879614053707
F-20.28441401668454
F-156.0069604167232
tp28
I517
I933
tp29
((g0
(g1
(I0
tp30
g3
tp31
Rp32
(I1
(I1
I1
tp33
g10
I00
S'\x9dBgOe\xd8\xb8\xbf'
p34
tp35
bg0
(g1
(I0
tp36
g3
tp37
Rp38
(I1
(I1
I1
tp39
g10
I00
S'\x95\xea\xea\xb8\xe1|\xbf?'
p40
tp41
bg0
(g1
(I0
tp42
g3
tp43
Rp44
(I1
(I1
I1
tp45
g10
I00
S'\xce\xe6\xff\xc4\xd2A\xc0\xbf'
p46
tp47
btp48
(F-174.4843576100836
F-46.6994333913066
F148.35369723925405
tp49
I517
I933
tp50
tp51
.(((cnumpy.core.multiarray
_reconstruct
p0
(cnumpy.matrixlib.defmatrix
matrix
p1
(I0
tp2
S'b'
p3
tp4
Rp5
(I1
(I1
I1
tp6
cnumpy
dtype
p7
(S'f8'
p8
I0
I1
tp9
Rp10
(I3
S'<'
p11
NNNI-1
I-1
I0
tp12
bI00
S'c\xde\x90m9:\xb5?'
p13
tp14
bg0
(g1
(I0
tp15
g3
tp16
Rp17
(I1
(I1
I1
tp18
g10
I00
S'\x10?\x94\xcc\x01\xa1\xb8?'
p19
tp20
bg0
(g1
(I0
tp21
g3
tp22
Rp23
(I1
(I1
I1
tp24
g10
I00
S'\xc6\xa3\xeb\xdb\x83F\xc5\xbf'
p25
tp26
btp27
(F4.850001012674066
F-25.00409784299581
F-156.95071297110636
tp28
I286
I934
tp29
((g0
(g1
(I0
tp30
g3
tp31
Rp32
(I1
(I1
I1
tp33
g10
I00
S'\xaeZ\t3\xb3q\xb4\xbf'
p34
tp35
bg0
(g1
(I0
tp36
g3
tp37
Rp38
(I1
(I1
I1
tp39
g10
I00
S'\xc0e\xe3V\xe7\xb2\xbe?'
p40
tp41
bg0
(g1
(I0
tp42
g3
tp43
Rp44
(I1
(I1
I1
tp45
g10
I00
S'\x8a\xf0\xff\xa0\xd9\x00\xc0\xbf'
p46
tp47
btp48
(F-162.71469532024383
F-32.363508810083275
F142.40887923088908
tp49
I286
I934
tp50
tp51
.